
========================================================================

** ELF Header Information

    File Name: .\obj\UART_TxRx_Function.axf

    Machine class: ELFCLASS32 (32-bit)
    Data encoding: ELFDATA2LSB (Little endian)
    Header version: EV_CURRENT (Current version)
    Operating System ABI: none
    ABI Version: 0
    File Type: ET_EXEC (Executable) (2)
    Machine: EM_ARM (ARM)

    Image Entry point: 0x0000035d
    Flags: EF_ARM_HASENTRY + EF_ARM_ABI_FLOAT_SOFT (0x05000202)

    ARM ELF revision: 5 (ABI version 2)

    Conforms to Soft float procedure-call standard

    Built with
    Component: ARM Compiler 5.06 update 5 (build 528) Tool: armasm [4d35e1]
    Component: ARM Compiler 5.06 update 4 (build 422) Tool: armasm [4d35cf]
    Component: ARM Compiler 5.06 update 5 (build 528) Tool: armlink [4d35e2]
    Component: ARM Compiler 5.06 update 4 (build 422) Tool: armlink [4d35d2]

    Header size: 52 bytes (0x34)
    Program header entry size: 32 bytes (0x20)
    Section header entry size: 40 bytes (0x28)

    Program header entries: 1
    Section header entries: 16

    Program header offset: 460116 (0x00070554)
    Section header offset: 460148 (0x00070574)

    Section header string table index: 15

========================================================================

** Program header #0 (PT_LOAD) [PF_X + PF_W + PF_R + PF_ARM_ENTRY]
    Size : 33692 bytes (21564 bytes in file)
    Virtual address: 0x00000000 (Alignment 8)


========================================================================

** Section #1 'ER_RO' (SHT_PROGBITS) [SHF_ALLOC + SHF_EXECINSTR]
    Size   : 21356 bytes (alignment 4)
    Address: 0x00000000

    $d.realdata
    RESET
    __Vectors
        0x00000000:    20003030    00.     DCD    536883248
        0x00000004:    0000035d    ]...    DCD    861
        0x00000008:    0000037d    }...    DCD    893
        0x0000000c:    000001dd    ....    DCD    477
        0x00000010:    00000000    ....    DCD    0
        0x00000014:    00000000    ....    DCD    0
        0x00000018:    00000000    ....    DCD    0
        0x0000001c:    00000000    ....    DCD    0
        0x00000020:    00000000    ....    DCD    0
        0x00000024:    00000000    ....    DCD    0
        0x00000028:    00000000    ....    DCD    0
        0x0000002c:    00000269    i...    DCD    617
        0x00000030:    00000000    ....    DCD    0
        0x00000034:    00000000    ....    DCD    0
        0x00000038:    000002fd    ....    DCD    765
        0x0000003c:    00000349    I...    DCD    841
        0x00000040:    00000387    ....    DCD    903
        0x00000044:    00000387    ....    DCD    903
        0x00000048:    00000387    ....    DCD    903
        0x0000004c:    00000387    ....    DCD    903
        0x00000050:    00000387    ....    DCD    903
        0x00000054:    00000387    ....    DCD    903
        0x00000058:    00000387    ....    DCD    903
        0x0000005c:    00000387    ....    DCD    903
        0x00000060:    00000387    ....    DCD    903
        0x00000064:    00000387    ....    DCD    903
        0x00000068:    00000387    ....    DCD    903
        0x0000006c:    00000387    ....    DCD    903
        0x00000070:    000033e5    .3..    DCD    13285
        0x00000074:    0000340d    .4..    DCD    13325
        0x00000078:    00000387    ....    DCD    903
        0x0000007c:    00000387    ....    DCD    903
        0x00000080:    00000387    ....    DCD    903
        0x00000084:    00000387    ....    DCD    903
        0x00000088:    00000387    ....    DCD    903
        0x0000008c:    00000387    ....    DCD    903
        0x00000090:    00000387    ....    DCD    903
        0x00000094:    00000387    ....    DCD    903
        0x00000098:    00000387    ....    DCD    903
        0x0000009c:    00000387    ....    DCD    903
        0x000000a0:    00000387    ....    DCD    903
        0x000000a4:    00000387    ....    DCD    903
        0x000000a8:    00000387    ....    DCD    903
        0x000000ac:    00000387    ....    DCD    903
        0x000000b0:    00000387    ....    DCD    903
        0x000000b4:    00000387    ....    DCD    903
        0x000000b8:    00000387    ....    DCD    903
        0x000000bc:    00000387    ....    DCD    903
    $t
    !!!main
    __main
        0x000000c0:    f000f802    ....    BL       __scatterload ; 0xc8
        0x000000c4:    f000f868    ..h.    BL       __rt_entry ; 0x198
    !!!scatter
    __scatterload
    __scatterload_rt2
    __scatterload_rt2_thumb_only
        0x000000c8:    a00c        ..      ADR      r0,{pc}+0x34 ; 0xfc
        0x000000ca:    c830        0.      LDM      r0!,{r4,r5}
        0x000000cc:    3808        .8      SUBS     r0,r0,#8
        0x000000ce:    1824        $.      ADDS     r4,r4,r0
        0x000000d0:    182d        -.      ADDS     r5,r5,r0
        0x000000d2:    46a2        .F      MOV      r10,r4
        0x000000d4:    1e67        g.      SUBS     r7,r4,#1
        0x000000d6:    46ab        .F      MOV      r11,r5
    __scatterload_null
        0x000000d8:    4654        TF      MOV      r4,r10
        0x000000da:    465d        ]F      MOV      r5,r11
        0x000000dc:    42ac        .B      CMP      r4,r5
        0x000000de:    d101        ..      BNE      0xe4 ; __scatterload_null + 12
        0x000000e0:    f000f85a    ..Z.    BL       __rt_entry ; 0x198
        0x000000e4:    467e        ~F      MOV      r6,pc
        0x000000e6:    3e0f        .>      SUBS     r6,r6,#0xf
        0x000000e8:    cc0f        ..      LDM      r4!,{r0-r3}
        0x000000ea:    46b6        .F      MOV      lr,r6
        0x000000ec:    2601        .&      MOVS     r6,#1
        0x000000ee:    4233        3B      TST      r3,r6
        0x000000f0:    d000        ..      BEQ      0xf4 ; __scatterload_null + 28
        0x000000f2:    1afb        ..      SUBS     r3,r7,r3
        0x000000f4:    46a2        .F      MOV      r10,r4
        0x000000f6:    46ab        .F      MOV      r11,r5
        0x000000f8:    4333        3C      ORRS     r3,r3,r6
        0x000000fa:    4718        .G      BX       r3
    $d
        0x000000fc:    00005124    $Q..    DCD    20772
        0x00000100:    00005144    DQ..    DCD    20804
    $t
    !!handler_copy
    __scatterload_copy
        0x00000104:    3a10        .:      SUBS     r2,r2,#0x10
        0x00000106:    d302        ..      BCC      0x10e ; __scatterload_copy + 10
        0x00000108:    c878        x.      LDM      r0!,{r3-r6}
        0x0000010a:    c178        x.      STM      r1!,{r3-r6}
        0x0000010c:    d8fa        ..      BHI      __scatterload_copy ; 0x104
        0x0000010e:    0752        R.      LSLS     r2,r2,#29
        0x00000110:    d301        ..      BCC      0x116 ; __scatterload_copy + 18
        0x00000112:    c830        0.      LDM      r0!,{r4,r5}
        0x00000114:    c130        0.      STM      r1!,{r4,r5}
        0x00000116:    d501        ..      BPL      0x11c ; __scatterload_copy + 24
        0x00000118:    6804        .h      LDR      r4,[r0,#0]
        0x0000011a:    600c        .`      STR      r4,[r1,#0]
        0x0000011c:    4770        pG      BX       lr
        0x0000011e:    0000        ..      MOVS     r0,r0
    !!handler_zi
    __scatterload_zeroinit
        0x00000120:    2300        .#      MOVS     r3,#0
        0x00000122:    2400        .$      MOVS     r4,#0
        0x00000124:    2500        .%      MOVS     r5,#0
        0x00000126:    2600        .&      MOVS     r6,#0
        0x00000128:    3a10        .:      SUBS     r2,r2,#0x10
        0x0000012a:    d301        ..      BCC      0x130 ; __scatterload_zeroinit + 16
        0x0000012c:    c178        x.      STM      r1!,{r3-r6}
        0x0000012e:    d8fb        ..      BHI      0x128 ; __scatterload_zeroinit + 8
        0x00000130:    0752        R.      LSLS     r2,r2,#29
        0x00000132:    d300        ..      BCC      0x136 ; __scatterload_zeroinit + 22
        0x00000134:    c130        0.      STM      r1!,{r4,r5}
        0x00000136:    d500        ..      BPL      0x13a ; __scatterload_zeroinit + 26
        0x00000138:    600b        .`      STR      r3,[r1,#0]
        0x0000013a:    4770        pG      BX       lr
    .ARM.Collect$$_printf_percent$$00000000
    _printf_percent
        0x0000013c:    b510        ..      PUSH     {r4,lr}
    .ARM.Collect$$_printf_percent$$00000003
    _printf_f
        0x0000013e:    2966        f)      CMP      r1,#0x66
        0x00000140:    d102        ..      BNE      _printf_d ; 0x148
        0x00000142:    f004ff49    ..I.    BL       _printf_fp_dec ; 0x4fd8
        0x00000146:    bd10        ..      POP      {r4,pc}
    .ARM.Collect$$_printf_percent$$00000009
    _printf_d
        0x00000148:    2964        d)      CMP      r1,#0x64
        0x0000014a:    d102        ..      BNE      _printf_x ; 0x152
        0x0000014c:    f000fa0a    ....    BL       _printf_int_dec ; 0x564
        0x00000150:    bd10        ..      POP      {r4,pc}
    .ARM.Collect$$_printf_percent$$0000000C
    _printf_x
        0x00000152:    2978        x)      CMP      r1,#0x78
        0x00000154:    d102        ..      BNE      _printf_c ; 0x15c
        0x00000156:    f000fa3b    ..;.    BL       _printf_int_hex ; 0x5d0
        0x0000015a:    bd10        ..      POP      {r4,pc}
    .ARM.Collect$$_printf_percent$$00000013
    _printf_c
        0x0000015c:    2963        c)      CMP      r1,#0x63
        0x0000015e:    d102        ..      BNE      _printf_s ; 0x166
        0x00000160:    f001f88c    ....    BL       _printf_char ; 0x127c
        0x00000164:    bd10        ..      POP      {r4,pc}
    .ARM.Collect$$_printf_percent$$00000014
    _printf_s
        0x00000166:    2973        s)      CMP      r1,#0x73
        0x00000168:    d102        ..      BNE      _printf_percent_end ; 0x170
        0x0000016a:    f001f88f    ....    BL       _printf_string ; 0x128c
        0x0000016e:    bd10        ..      POP      {r4,pc}
    .ARM.Collect$$_printf_percent$$00000017
    _printf_percent_end
        0x00000170:    2000        .       MOVS     r0,#0
        0x00000172:    bd10        ..      POP      {r4,pc}
    .ARM.Collect$$libinit$$00000000
    __rt_lib_init
        0x00000174:    b51f        ..      PUSH     {r0-r4,lr}
    .ARM.Collect$$libinit$$00000002
    .ARM.Collect$$libinit$$00000004
    .ARM.Collect$$libinit$$0000000A
    .ARM.Collect$$libinit$$0000000C
    .ARM.Collect$$libinit$$0000000E
    .ARM.Collect$$libinit$$0000000F
    __rt_lib_init_fp_1
    __rt_lib_init_heap_1
    __rt_lib_init_lc_common
    __rt_lib_init_preinit_1
    __rt_lib_init_rand_1
    __rt_lib_init_user_alloc_1
        0x00000176:    f001f8f5    ....    BL       __rt_locale ; 0x1364
        0x0000017a:    0004        ..      MOVS     r4,r0
    .ARM.Collect$$libinit$$00000011
    .ARM.Collect$$libinit$$00000012
    __rt_lib_init_lc_collate_1
    __rt_lib_init_lc_ctype_2
        0x0000017c:    2000        .       MOVS     r0,#0
        0x0000017e:    2100        .!      MOVS     r1,#0
        0x00000180:    f004ff14    ....    BL       _get_lc_ctype ; 0x4fac
        0x00000184:    1c40        @.      ADDS     r0,r0,#1
        0x00000186:    6060        ``      STR      r0,[r4,#4]
    .ARM.Collect$$libinit$$00000013
    .ARM.Collect$$libinit$$00000015
    .ARM.Collect$$libinit$$00000016
    __rt_lib_init_lc_ctype_1
    __rt_lib_init_lc_monetary_1
    __rt_lib_init_lc_numeric_2
        0x00000188:    2000        .       MOVS     r0,#0
        0x0000018a:    2100        .!      MOVS     r1,#0
        0x0000018c:    f004fef8    ....    BL       _get_lc_numeric ; 0x4f80
        0x00000190:    60e0        .`      STR      r0,[r4,#0xc]
    .ARM.Collect$$libinit$$00000017
    .ARM.Collect$$libinit$$00000019
    .ARM.Collect$$libinit$$0000001B
    .ARM.Collect$$libinit$$0000001D
    .ARM.Collect$$libinit$$0000001F
    .ARM.Collect$$libinit$$00000021
    .ARM.Collect$$libinit$$00000023
    .ARM.Collect$$libinit$$00000025
    .ARM.Collect$$libinit$$0000002C
    .ARM.Collect$$libinit$$0000002E
    .ARM.Collect$$libinit$$00000030
    .ARM.Collect$$libinit$$00000032
    .ARM.Collect$$libinit$$00000033
    __rt_lib_init_alloca_1
    __rt_lib_init_argv_1
    __rt_lib_init_atexit_1
    __rt_lib_init_clock_1
    __rt_lib_init_cpp_1
    __rt_lib_init_exceptions_1
    __rt_lib_init_fp_trap_1
    __rt_lib_init_getenv_1
    __rt_lib_init_lc_numeric_1
    __rt_lib_init_lc_time_1
    __rt_lib_init_return
    __rt_lib_init_signal_1
    __rt_lib_init_stdio_1
        0x00000192:    bd1f        ..      POP      {r0-r4,pc}
    .ARM.Collect$$libshutdown$$00000000
    __rt_lib_shutdown
        0x00000194:    b510        ..      PUSH     {r4,lr}
    .ARM.Collect$$libshutdown$$00000002
    .ARM.Collect$$libshutdown$$00000004
    .ARM.Collect$$libshutdown$$00000007
    .ARM.Collect$$libshutdown$$0000000A
    .ARM.Collect$$libshutdown$$0000000C
    .ARM.Collect$$libshutdown$$0000000F
    .ARM.Collect$$libshutdown$$00000010
    __rt_lib_shutdown_cpp_1
    __rt_lib_shutdown_fp_trap_1
    __rt_lib_shutdown_heap_1
    __rt_lib_shutdown_return
    __rt_lib_shutdown_signal_1
    __rt_lib_shutdown_stdio_1
    __rt_lib_shutdown_user_alloc_1
        0x00000196:    bd10        ..      POP      {r4,pc}
    .ARM.Collect$$rtentry$$00000000
    .ARM.Collect$$rtentry$$00000002
    .ARM.Collect$$rtentry$$00000004
    __rt_entry
    __rt_entry_presh_1
    __rt_entry_sh
        0x00000198:    f001fcf0    ....    BL       __user_setup_stackheap ; 0x1b7c
        0x0000019c:    4611        .F      MOV      r1,r2
    .ARM.Collect$$rtentry$$00000009
    .ARM.Collect$$rtentry$$0000000A
    __rt_entry_li
    __rt_entry_postsh_1
        0x0000019e:    f7ffffe9    ....    BL       __rt_lib_init ; 0x174
    .ARM.Collect$$rtentry$$0000000B
    __rt_entry_postli_1
        0x000001a2:    b40f        ..      PUSH     {r0-r3}
        0x000001a4:    f000f80c    ....    BL       _platform_post_lib_init ; 0x1c0
        0x000001a8:    bc0f        ..      POP      {r0-r3}
    .ARM.Collect$$rtentry$$0000000D
    __rt_entry_main
        0x000001aa:    f003fc7d    ..}.    BL       main ; 0x3aa8
        0x000001ae:    f000facf    ....    BL       exit ; 0x750
    .ARM.Collect$$rtexit$$00000000
    __rt_exit
        0x000001b2:    b403        ..      PUSH     {r0,r1}
    .ARM.Collect$$rtexit$$00000002
    .ARM.Collect$$rtexit$$00000003
    __rt_exit_ls
    __rt_exit_prels_1
        0x000001b4:    f7ffffee    ....    BL       __rt_lib_shutdown ; 0x194
    .ARM.Collect$$rtexit$$00000004
    __rt_exit_exit
        0x000001b8:    bc03        ..      POP      {r0,r1}
        0x000001ba:    f001fcd9    ....    BL       _sys_exit ; 0x1b70
        0x000001be:    0000        ..      MOVS     r0,r0
    .emb_text
    _platform_post_lib_init
        0x000001c0:    b004        ..      ADD      sp,sp,#0x10
        0x000001c2:    f003fcb1    ....    BL       osKernelInitialize ; 0x3b28
        0x000001c6:    4804        .H      LDR      r0,[pc,#16] ; [0x1d8] = 0x5068
        0x000001c8:    2100        .!      MOVS     r1,#0
        0x000001ca:    f003fd21    ..!.    BL       osThreadCreate ; 0x3c10
        0x000001ce:    f003fcbf    ....    BL       osKernelStart ; 0x3b50
        0x000001d2:    f000fabd    ....    BL       exit ; 0x750
    $d
        0x000001d6:    0000        ..      DCW    0
        0x000001d8:    00005068    hP..    DCD    20584
    $t
    .emb_text
    HardFault_Handler
        0x000001dc:    2004        .       MOVS     r0,#4
        0x000001de:    4671        qF      MOV      r1,lr
        0x000001e0:    4208        .B      TST      r0,r1
        0x000001e2:    d002        ..      BEQ      0x1ea ; HardFault_Handler + 14
        0x000001e4:    f3ef8009    ....    MRS      r0,PSP
        0x000001e8:    e001        ..      B        0x1ee ; HardFault_Handler + 18
        0x000001ea:    f3ef8008    ....    MRS      r0,MSP
        0x000001ee:    4671        qF      MOV      r1,lr
        0x000001f0:    4a00        .J      LDR      r2,[pc,#0] ; [0x1f4] = 0x233d
        0x000001f2:    4710        .G      BX       r2
    $d
        0x000001f4:    0000233d    =#..    DCD    9021
    $t
    .emb_text
    rt_set_PSP
        0x000001f8:    f3808809    ....    MSR      PSP,r0
        0x000001fc:    4770        pG      BX       lr
    rt_get_PSP
        0x000001fe:    f3ef8009    ....    MRS      r0,PSP
        0x00000202:    4770        pG      BX       lr
    os_set_env
        0x00000204:    4668        hF      MOV      r0,sp
        0x00000206:    f3808809    ....    MSR      PSP,r0
        0x0000020a:    4806        .H      LDR      r0,[pc,#24] ; [0x224] = 0x5028
        0x0000020c:    7800        .x      LDRB     r0,[r0,#0]
        0x0000020e:    07c0        ..      LSLS     r0,r0,#31
        0x00000210:    d103        ..      BNE      0x21a ; os_set_env + 22
        0x00000212:    2003        .       MOVS     r0,#3
        0x00000214:    f3808814    ....    MSR      CONTROL,r0
        0x00000218:    4770        pG      BX       lr
        0x0000021a:    2002        .       MOVS     r0,#2
        0x0000021c:    f3808814    ....    MSR      CONTROL,r0
        0x00000220:    4770        pG      BX       lr
    $d
        0x00000222:    0000        ..      DCW    0
        0x00000224:    00005028    (P..    DCD    20520
    $t
    _alloc_box
        0x00000228:    4b06        .K      LDR      r3,[pc,#24] ; [0x244] = 0x3dcb
        0x0000022a:    469c        .F      MOV      r12,r3
        0x0000022c:    f3ef8305    ....    MRS      r3,IPSR
        0x00000230:    061b        ..      LSLS     r3,r3,#24
        0x00000232:    d105        ..      BNE      0x240 ; _alloc_box + 24
        0x00000234:    f3ef8314    ....    MRS      r3,CONTROL
        0x00000238:    07db        ..      LSLS     r3,r3,#31
        0x0000023a:    d001        ..      BEQ      0x240 ; _alloc_box + 24
        0x0000023c:    df00        ..      SVC      #0x0 ; formerly SWI
        0x0000023e:    4770        pG      BX       lr
        0x00000240:    4760        `G      BX       r12
    $d
        0x00000242:    0000        ..      DCW    0
        0x00000244:    00003dcb    .=..    DCD    15819
    $t
    _free_box
        0x00000248:    4b06        .K      LDR      r3,[pc,#24] ; [0x264] = 0x3fb9
        0x0000024a:    469c        .F      MOV      r12,r3
        0x0000024c:    f3ef8305    ....    MRS      r3,IPSR
        0x00000250:    061b        ..      LSLS     r3,r3,#24
        0x00000252:    d105        ..      BNE      0x260 ; _free_box + 24
        0x00000254:    f3ef8314    ....    MRS      r3,CONTROL
        0x00000258:    07db        ..      LSLS     r3,r3,#31
        0x0000025a:    d001        ..      BEQ      0x260 ; _free_box + 24
        0x0000025c:    df00        ..      SVC      #0x0 ; formerly SWI
        0x0000025e:    4770        pG      BX       lr
        0x00000260:    4760        `G      BX       r12
    $d
        0x00000262:    0000        ..      DCW    0
        0x00000264:    00003fb9    .?..    DCD    16313
    $t
    SVC_Handler
        0x00000268:    f3ef8009    ....    MRS      r0,PSP
        0x0000026c:    6981        .i      LDR      r1,[r0,#0x18]
        0x0000026e:    1e89        ..      SUBS     r1,r1,#2
        0x00000270:    7809        .x      LDRB     r1,[r1,#0]
        0x00000272:    2900        .)      CMP      r1,#0
        0x00000274:    d12b        +.      BNE      0x2ce ; SVC_Handler + 102
        0x00000276:    46a6        .F      MOV      lr,r4
        0x00000278:    c81f        ..      LDM      r0,{r0-r4}
        0x0000027a:    46a4        .F      MOV      r12,r4
        0x0000027c:    4674        tF      MOV      r4,lr
        0x0000027e:    47e0        .G      BLX      r12
        0x00000280:    f3ef8309    ....    MRS      r3,PSP
        0x00000284:    c307        ..      STM      r3!,{r0-r2}
        0x00000286:    4b1a        .K      LDR      r3,[pc,#104] ; [0x2f0] = 0x200000b4
        0x00000288:    cb06        ..      LDM      r3!,{r1,r2}
        0x0000028a:    4291        .B      CMP      r1,r2
        0x0000028c:    d01c        ..      BEQ      0x2c8 ; SVC_Handler + 96
        0x0000028e:    3b08        .;      SUBS     r3,r3,#8
        0x00000290:    2900        .)      CMP      r1,#0
        0x00000292:    d00d        ..      BEQ      0x2b0 ; SVC_Handler + 72
        0x00000294:    f3ef8009    ....    MRS      r0,PSP
        0x00000298:    3820         8      SUBS     r0,r0,#0x20
        0x0000029a:    6288        .b      STR      r0,[r1,#0x28]
        0x0000029c:    c0f0        ..      STM      r0!,{r4-r7}
        0x0000029e:    4644        DF      MOV      r4,r8
        0x000002a0:    464d        MF      MOV      r5,r9
        0x000002a2:    4656        VF      MOV      r6,r10
        0x000002a4:    465f        _F      MOV      r7,r11
        0x000002a6:    c0f0        ..      STM      r0!,{r4-r7}
        0x000002a8:    b40c        ..      PUSH     {r2,r3}
        0x000002aa:    f004fa07    ....    BL       rt_stk_check ; 0x46bc
        0x000002ae:    bc0c        ..      POP      {r2,r3}
        0x000002b0:    601a        .`      STR      r2,[r3,#0]
        0x000002b2:    6a90        .j      LDR      r0,[r2,#0x28]
        0x000002b4:    3010        .0      ADDS     r0,r0,#0x10
        0x000002b6:    c8f0        ..      LDM      r0!,{r4-r7}
        0x000002b8:    46a0        .F      MOV      r8,r4
        0x000002ba:    46a9        .F      MOV      r9,r5
        0x000002bc:    46b2        .F      MOV      r10,r6
        0x000002be:    46bb        .F      MOV      r11,r7
        0x000002c0:    f3808809    ....    MSR      PSP,r0
        0x000002c4:    3820         8      SUBS     r0,r0,#0x20
        0x000002c6:    c8f0        ..      LDM      r0!,{r4-r7}
        0x000002c8:    2002        .       MOVS     r0,#2
        0x000002ca:    43c0        .C      MVNS     r0,r0
        0x000002cc:    4700        .G      BX       r0
        0x000002ce:    b510        ..      PUSH     {r4,lr}
        0x000002d0:    4a08        .J      LDR      r2,[pc,#32] ; [0x2f4] = 0x1c64
        0x000002d2:    6812        .h      LDR      r2,[r2,#0]
        0x000002d4:    4291        .B      CMP      r1,r2
        0x000002d6:    d809        ..      BHI      0x2ec ; SVC_Handler + 132
        0x000002d8:    4c07        .L      LDR      r4,[pc,#28] ; [0x2f8] = 0x1c64
        0x000002da:    0089        ..      LSLS     r1,r1,#2
        0x000002dc:    5864        dX      LDR      r4,[r4,r1]
        0x000002de:    46a6        .F      MOV      lr,r4
        0x000002e0:    c81f        ..      LDM      r0,{r0-r4}
        0x000002e2:    46a4        .F      MOV      r12,r4
        0x000002e4:    47f0        .G      BLX      lr
        0x000002e6:    f3ef8409    ....    MRS      r4,PSP
        0x000002ea:    c40f        ..      STM      r4!,{r0-r3}
        0x000002ec:    bd10        ..      POP      {r4,pc}
    $d
        0x000002ee:    0000        ..      DCW    0
        0x000002f0:    200000b4    ...     DCD    536871092
        0x000002f4:    00001c64    d...    DCD    7268
        0x000002f8:    00001c64    d...    DCD    7268
    $t
    PendSV_Handler
        0x000002fc:    f004f8be    ....    BL       rt_pop_req ; 0x447c
        0x00000300:    4b10        .K      LDR      r3,[pc,#64] ; [0x344] = 0x200000b4
        0x00000302:    cb06        ..      LDM      r3!,{r1,r2}
        0x00000304:    4291        .B      CMP      r1,r2
        0x00000306:    d01a        ..      BEQ      0x33e ; PendSV_Handler + 66
        0x00000308:    3b08        .;      SUBS     r3,r3,#8
        0x0000030a:    f3ef8009    ....    MRS      r0,PSP
        0x0000030e:    3820         8      SUBS     r0,r0,#0x20
        0x00000310:    6288        .b      STR      r0,[r1,#0x28]
        0x00000312:    c0f0        ..      STM      r0!,{r4-r7}
        0x00000314:    4644        DF      MOV      r4,r8
        0x00000316:    464d        MF      MOV      r5,r9
        0x00000318:    4656        VF      MOV      r6,r10
        0x0000031a:    465f        _F      MOV      r7,r11
        0x0000031c:    c0f0        ..      STM      r0!,{r4-r7}
        0x0000031e:    b40c        ..      PUSH     {r2,r3}
        0x00000320:    f004f9cc    ....    BL       rt_stk_check ; 0x46bc
        0x00000324:    bc0c        ..      POP      {r2,r3}
        0x00000326:    601a        .`      STR      r2,[r3,#0]
        0x00000328:    6a90        .j      LDR      r0,[r2,#0x28]
        0x0000032a:    3010        .0      ADDS     r0,r0,#0x10
        0x0000032c:    c8f0        ..      LDM      r0!,{r4-r7}
        0x0000032e:    46a0        .F      MOV      r8,r4
        0x00000330:    46a9        .F      MOV      r9,r5
        0x00000332:    46b2        .F      MOV      r10,r6
        0x00000334:    46bb        .F      MOV      r11,r7
        0x00000336:    f3808809    ....    MSR      PSP,r0
        0x0000033a:    3820         8      SUBS     r0,r0,#0x20
        0x0000033c:    c8f0        ..      LDM      r0!,{r4-r7}
        0x0000033e:    2002        .       MOVS     r0,#2
        0x00000340:    43c0        .C      MVNS     r0,r0
        0x00000342:    4700        .G      BX       r0
    $d
        0x00000344:    200000b4    ...     DCD    536871092
    $t
    SysTick_Handler
        0x00000348:    f004fa6a    ..j.    BL       rt_systick ; 0x4820
        0x0000034c:    e7d8        ..      B        0x300 ; PendSV_Handler + 4
    $d
        0x0000034e:    0000        ..      DCW    0
    $t
    OS_Tick_Handler
        0x00000350:    f003fce2    ....    BL       os_tick_irqack ; 0x3d18
        0x00000354:    f004fa64    ..d.    BL       rt_systick ; 0x4820
        0x00000358:    e7d2        ..      B        0x300 ; PendSV_Handler + 4
    $d
        0x0000035a:    0000        ..      DCW    0
    $t
    .text
    Reset_Handler
        0x0000035c:    480d        .H      LDR      r0,[pc,#52] ; [0x394] = 0x50000100
        0x0000035e:    490e        .I      LDR      r1,[pc,#56] ; [0x398] = 0x59
        0x00000360:    6001        .`      STR      r1,[r0,#0]
        0x00000362:    490e        .I      LDR      r1,[pc,#56] ; [0x39c] = 0x16
        0x00000364:    6001        .`      STR      r1,[r0,#0]
        0x00000366:    490e        .I      LDR      r1,[pc,#56] ; [0x3a0] = 0x88
        0x00000368:    6001        .`      STR      r1,[r0,#0]
        0x0000036a:    4a0e        .J      LDR      r2,[pc,#56] ; [0x3a4] = 0x50000024
        0x0000036c:    490e        .I      LDR      r1,[pc,#56] ; [0x3a8] = 0x5aa5
        0x0000036e:    6011        .`      STR      r1,[r2,#0]
        0x00000370:    2100        .!      MOVS     r1,#0
        0x00000372:    6001        .`      STR      r1,[r0,#0]
        0x00000374:    480d        .H      LDR      r0,[pc,#52] ; [0x3ac] = 0x2e49
        0x00000376:    4780        .G      BLX      r0
        0x00000378:    480d        .H      LDR      r0,[pc,#52] ; [0x3b0] = 0xc1
        0x0000037a:    4700        .G      BX       r0
    NMI_Handler
        0x0000037c:    e7fe        ..      B        NMI_Handler ; 0x37c
        0x0000037e:    e7fe        ..      B        0x37e ; NMI_Handler + 2
        0x00000380:    e7fe        ..      B        0x380 ; NMI_Handler + 4
        0x00000382:    e7fe        ..      B        0x382 ; NMI_Handler + 6
        0x00000384:    e7fe        ..      B        0x384 ; NMI_Handler + 8
    Default_Handler
    ACMP_IRQHandler
    ADC_IRQHandler
    BOD_IRQHandler
    CAN0_IRQHandler
    CAN1_IRQHandler
    EINT0_IRQHandler
    EINT1_IRQHandler
    GPAB_IRQHandler
    GPCDEF_IRQHandler
    I2C0_IRQHandler
    I2C1_IRQHandler
    I2S_IRQHandler
    PDMA_IRQHandler
    PS2_IRQHandler
    PWMA_IRQHandler
    PWMB_IRQHandler
    PWRWU_IRQHandler
    RTC_IRQHandler
    SC012_IRQHandler
    SPI0_IRQHandler
    SPI1_IRQHandler
    SPI2_IRQHandler
    SPI3_IRQHandler
    TMR0_IRQHandler
    TMR1_IRQHandler
    TMR2_IRQHandler
    TMR3_IRQHandler
    USBD_IRQHandler
    WDT_IRQHandler
        0x00000386:    e7fe        ..      B        Default_Handler ; 0x386
    __user_initial_stackheap
        0x00000388:    480a        .H      LDR      r0,[pc,#40] ; [0x3b4] = 0x20002c30
        0x0000038a:    490b        .I      LDR      r1,[pc,#44] ; [0x3b8] = 0x20003030
        0x0000038c:    4a09        .J      LDR      r2,[pc,#36] ; [0x3b4] = 0x20002c30
        0x0000038e:    4b0b        .K      LDR      r3,[pc,#44] ; [0x3bc] = 0x20002c30
        0x00000390:    4770        pG      BX       lr
    $d
        0x00000392:    0000        ..      DCW    0
        0x00000394:    50000100    ...P    DCD    1342177536
        0x00000398:    00000059    Y...    DCD    89
        0x0000039c:    00000016    ....    DCD    22
        0x000003a0:    00000088    ....    DCD    136
        0x000003a4:    50000024    $..P    DCD    1342177316
        0x000003a8:    00005aa5    .Z..    DCD    23205
        0x000003ac:    00002e49    I...    DCD    11849
        0x000003b0:    000000c1    ....    DCD    193
        0x000003b4:    20002c30    0,.     DCD    536882224
        0x000003b8:    20003030    00.     DCD    536883248
        0x000003bc:    20002c30    0,.     DCD    536882224
    $t
    .text
    __user_libspace
    __user_perproc_libspace
        0x000003c0:    4800        .H      LDR      r0,[pc,#0] ; [0x3c4] = 0x20002bcc
        0x000003c2:    4770        pG      BX       lr
    $d
        0x000003c4:    20002bcc    .+.     DCD    536882124
    $t
    .text
    __aeabi_uldivmod
    _ll_udiv
        0x000003c8:    b5fe        ..      PUSH     {r1-r7,lr}
        0x000003ca:    4605        .F      MOV      r5,r0
        0x000003cc:    4610        .F      MOV      r0,r2
        0x000003ce:    460c        .F      MOV      r4,r1
        0x000003d0:    4318        .C      ORRS     r0,r0,r3
        0x000003d2:    d073        s.      BEQ      0x4bc ; __aeabi_uldivmod + 244
        0x000003d4:    46ae        .F      MOV      lr,r5
        0x000003d6:    468c        .F      MOV      r12,r1
        0x000003d8:    2000        .       MOVS     r0,#0
        0x000003da:    1aad        ..      SUBS     r5,r5,r2
        0x000003dc:    4601        .F      MOV      r1,r0
        0x000003de:    419c        .A      SBCS     r4,r4,r3
        0x000003e0:    d367        g.      BCC      0x4b2 ; __aeabi_uldivmod + 234
        0x000003e2:    4666        fF      MOV      r6,r12
        0x000003e4:    2700        .'      MOVS     r7,#0
        0x000003e6:    2401        .$      MOVS     r4,#1
        0x000003e8:    463d        =F      MOV      r5,r7
        0x000003ea:    1ab6        ..      SUBS     r6,r6,r2
        0x000003ec:    419d        .A      SBCS     r5,r5,r3
        0x000003ee:    d302        ..      BCC      0x3f6 ; __aeabi_uldivmod + 46
        0x000003f0:    4613        .F      MOV      r3,r2
        0x000003f2:    463a        :F      MOV      r2,r7
        0x000003f4:    2421        !$      MOVS     r4,#0x21
        0x000003f6:    4665        eF      MOV      r5,r12
        0x000003f8:    4676        vF      MOV      r6,lr
        0x000003fa:    042f        /.      LSLS     r7,r5,#16
        0x000003fc:    0c36        6.      LSRS     r6,r6,#16
        0x000003fe:    433e        >C      ORRS     r6,r6,r7
        0x00000400:    0c2d        -.      LSRS     r5,r5,#16
        0x00000402:    1ab6        ..      SUBS     r6,r6,r2
        0x00000404:    419d        .A      SBCS     r5,r5,r3
        0x00000406:    d304        ..      BCC      0x412 ; __aeabi_uldivmod + 74
        0x00000408:    0c15        ..      LSRS     r5,r2,#16
        0x0000040a:    041b        ..      LSLS     r3,r3,#16
        0x0000040c:    432b        +C      ORRS     r3,r3,r5
        0x0000040e:    0412        ..      LSLS     r2,r2,#16
        0x00000410:    3410        .4      ADDS     r4,r4,#0x10
        0x00000412:    4665        eF      MOV      r5,r12
        0x00000414:    4676        vF      MOV      r6,lr
        0x00000416:    062f        /.      LSLS     r7,r5,#24
        0x00000418:    0a36        6.      LSRS     r6,r6,#8
        0x0000041a:    433e        >C      ORRS     r6,r6,r7
        0x0000041c:    0a2d        -.      LSRS     r5,r5,#8
        0x0000041e:    1ab6        ..      SUBS     r6,r6,r2
        0x00000420:    419d        .A      SBCS     r5,r5,r3
        0x00000422:    d304        ..      BCC      0x42e ; __aeabi_uldivmod + 102
        0x00000424:    0e15        ..      LSRS     r5,r2,#24
        0x00000426:    021b        ..      LSLS     r3,r3,#8
        0x00000428:    432b        +C      ORRS     r3,r3,r5
        0x0000042a:    0212        ..      LSLS     r2,r2,#8
        0x0000042c:    3408        .4      ADDS     r4,r4,#8
        0x0000042e:    4665        eF      MOV      r5,r12
        0x00000430:    4676        vF      MOV      r6,lr
        0x00000432:    072f        /.      LSLS     r7,r5,#28
        0x00000434:    0936        6.      LSRS     r6,r6,#4
        0x00000436:    433e        >C      ORRS     r6,r6,r7
        0x00000438:    092d        -.      LSRS     r5,r5,#4
        0x0000043a:    1ab6        ..      SUBS     r6,r6,r2
        0x0000043c:    419d        .A      SBCS     r5,r5,r3
        0x0000043e:    d304        ..      BCC      0x44a ; __aeabi_uldivmod + 130
        0x00000440:    0f15        ..      LSRS     r5,r2,#28
        0x00000442:    011b        ..      LSLS     r3,r3,#4
        0x00000444:    432b        +C      ORRS     r3,r3,r5
        0x00000446:    0112        ..      LSLS     r2,r2,#4
        0x00000448:    1d24        $.      ADDS     r4,r4,#4
        0x0000044a:    4665        eF      MOV      r5,r12
        0x0000044c:    4676        vF      MOV      r6,lr
        0x0000044e:    07af        ..      LSLS     r7,r5,#30
        0x00000450:    08b6        ..      LSRS     r6,r6,#2
        0x00000452:    433e        >C      ORRS     r6,r6,r7
        0x00000454:    08ad        ..      LSRS     r5,r5,#2
        0x00000456:    1ab6        ..      SUBS     r6,r6,r2
        0x00000458:    419d        .A      SBCS     r5,r5,r3
        0x0000045a:    d304        ..      BCC      0x466 ; __aeabi_uldivmod + 158
        0x0000045c:    0f95        ..      LSRS     r5,r2,#30
        0x0000045e:    009b        ..      LSLS     r3,r3,#2
        0x00000460:    432b        +C      ORRS     r3,r3,r5
        0x00000462:    0092        ..      LSLS     r2,r2,#2
        0x00000464:    1ca4        ..      ADDS     r4,r4,#2
        0x00000466:    4665        eF      MOV      r5,r12
        0x00000468:    4676        vF      MOV      r6,lr
        0x0000046a:    07ef        ..      LSLS     r7,r5,#31
        0x0000046c:    0876        v.      LSRS     r6,r6,#1
        0x0000046e:    433e        >C      ORRS     r6,r6,r7
        0x00000470:    086d        m.      LSRS     r5,r5,#1
        0x00000472:    1ab6        ..      SUBS     r6,r6,r2
        0x00000474:    419d        .A      SBCS     r5,r5,r3
        0x00000476:    d31a        ..      BCC      0x4ae ; __aeabi_uldivmod + 230
        0x00000478:    1892        ..      ADDS     r2,r2,r2
        0x0000047a:    415b        [A      ADCS     r3,r3,r3
        0x0000047c:    1c64        d.      ADDS     r4,r4,#1
        0x0000047e:    e016        ..      B        0x4ae ; __aeabi_uldivmod + 230
        0x00000480:    1800        ..      ADDS     r0,r0,r0
        0x00000482:    4676        vF      MOV      r6,lr
        0x00000484:    4665        eF      MOV      r5,r12
        0x00000486:    4149        IA      ADCS     r1,r1,r1
        0x00000488:    1ab7        ..      SUBS     r7,r6,r2
        0x0000048a:    419d        .A      SBCS     r5,r5,r3
        0x0000048c:    9101        ..      STR      r1,[sp,#4]
        0x0000048e:    9000        ..      STR      r0,[sp,#0]
        0x00000490:    d309        ..      BCC      0x4a6 ; __aeabi_uldivmod + 222
        0x00000492:    4660        `F      MOV      r0,r12
        0x00000494:    1ab1        ..      SUBS     r1,r6,r2
        0x00000496:    4198        .A      SBCS     r0,r0,r3
        0x00000498:    468e        .F      MOV      lr,r1
        0x0000049a:    4684        .F      MOV      r12,r0
        0x0000049c:    9800        ..      LDR      r0,[sp,#0]
        0x0000049e:    9901        ..      LDR      r1,[sp,#4]
        0x000004a0:    2500        .%      MOVS     r5,#0
        0x000004a2:    1c40        @.      ADDS     r0,r0,#1
        0x000004a4:    4169        iA      ADCS     r1,r1,r5
        0x000004a6:    07dd        ..      LSLS     r5,r3,#31
        0x000004a8:    0852        R.      LSRS     r2,r2,#1
        0x000004aa:    432a        *C      ORRS     r2,r2,r5
        0x000004ac:    085b        [.      LSRS     r3,r3,#1
        0x000004ae:    1e64        d.      SUBS     r4,r4,#1
        0x000004b0:    d5e6        ..      BPL      0x480 ; __aeabi_uldivmod + 184
        0x000004b2:    4672        rF      MOV      r2,lr
        0x000004b4:    4663        cF      MOV      r3,r12
        0x000004b6:    b003        ..      ADD      sp,sp,#0xc
        0x000004b8:    bdf0        ..      POP      {r4-r7,pc}
        0x000004ba:    e7ff        ..      B        0x4bc ; __aeabi_uldivmod + 244
        0x000004bc:    2000        .       MOVS     r0,#0
        0x000004be:    4601        .F      MOV      r1,r0
        0x000004c0:    46c0        .F      MOV      r8,r8
        0x000004c2:    46c0        .F      MOV      r8,r8
        0x000004c4:    462a        *F      MOV      r2,r5
        0x000004c6:    4623        #F      MOV      r3,r4
        0x000004c8:    e7f5        ..      B        0x4b6 ; __aeabi_uldivmod + 238
        0x000004ca:    0000        ..      MOVS     r0,r0
    .text
    __2printf
        0x000004cc:    b40f        ..      PUSH     {r0-r3}
        0x000004ce:    4905        .I      LDR      r1,[pc,#20] ; [0x4e4] = 0x2000007c
        0x000004d0:    b510        ..      PUSH     {r4,lr}
        0x000004d2:    aa03        ..      ADD      r2,sp,#0xc
        0x000004d4:    9802        ..      LDR      r0,[sp,#8]
        0x000004d6:    f000fedd    ....    BL       _printf_char_file ; 0x1294
        0x000004da:    bc10        ..      POP      {r4}
        0x000004dc:    bc08        ..      POP      {r3}
        0x000004de:    b004        ..      ADD      sp,sp,#0x10
        0x000004e0:    4718        .G      BX       r3
    $d
        0x000004e2:    0000        ..      DCW    0
        0x000004e4:    2000007c    |..     DCD    536871036
    $t
    .text
    __2sprintf
        0x000004e8:    b40f        ..      PUSH     {r0-r3}
        0x000004ea:    b51c        ..      PUSH     {r2-r4,lr}
        0x000004ec:    4b07        .K      LDR      r3,[pc,#28] ; [0x50c] = 0xd69
        0x000004ee:    aa06        ..      ADD      r2,sp,#0x18
        0x000004f0:    447b        {D      ADD      r3,r3,pc
        0x000004f2:    4669        iF      MOV      r1,sp
        0x000004f4:    9000        ..      STR      r0,[sp,#0]
        0x000004f6:    9805        ..      LDR      r0,[sp,#0x14]
        0x000004f8:    f000fe9d    ....    BL       _printf_char_common ; 0x1236
        0x000004fc:    2000        .       MOVS     r0,#0
        0x000004fe:    4669        iF      MOV      r1,sp
        0x00000500:    f000feac    ....    BL       _sputc ; 0x125c
        0x00000504:    bc1c        ..      POP      {r2-r4}
        0x00000506:    bc08        ..      POP      {r3}
        0x00000508:    b004        ..      ADD      sp,sp,#0x10
        0x0000050a:    4718        .G      BX       r3
    $d
        0x0000050c:    00000d69    i...    DCD    3433
    $t
    .text
    _printf_str
        0x00000510:    b570        p.      PUSH     {r4-r6,lr}
        0x00000512:    460c        .F      MOV      r4,r1
        0x00000514:    4605        .F      MOV      r5,r0
        0x00000516:    2a01        .*      CMP      r2,#1
        0x00000518:    d005        ..      BEQ      0x526 ; _printf_str + 22
        0x0000051a:    7828        (x      LDRB     r0,[r5,#0]
        0x0000051c:    0680        ..      LSLS     r0,r0,#26
        0x0000051e:    d500        ..      BPL      0x522 ; _printf_str + 18
        0x00000520:    69ea        .i      LDR      r2,[r5,#0x1c]
        0x00000522:    2300        .#      MOVS     r3,#0
        0x00000524:    e002        ..      B        0x52c ; _printf_str + 28
        0x00000526:    2301        .#      MOVS     r3,#1
        0x00000528:    e005        ..      B        0x536 ; _printf_str + 38
        0x0000052a:    1c5b        [.      ADDS     r3,r3,#1
        0x0000052c:    4293        .B      CMP      r3,r2
        0x0000052e:    d202        ..      BCS      0x536 ; _printf_str + 38
        0x00000530:    5ce0        .\      LDRB     r0,[r4,r3]
        0x00000532:    2800        .(      CMP      r0,#0
        0x00000534:    d1f9        ..      BNE      0x52a ; _printf_str + 26
        0x00000536:    69a8        .i      LDR      r0,[r5,#0x18]
        0x00000538:    18e6        ..      ADDS     r6,r4,r3
        0x0000053a:    1ac0        ..      SUBS     r0,r0,r3
        0x0000053c:    61a8        .a      STR      r0,[r5,#0x18]
        0x0000053e:    6a28        (j      LDR      r0,[r5,#0x20]
        0x00000540:    18c0        ..      ADDS     r0,r0,r3
        0x00000542:    6228        (b      STR      r0,[r5,#0x20]
        0x00000544:    4628        (F      MOV      r0,r5
        0x00000546:    46c0        .F      MOV      r8,r8
        0x00000548:    46c0        .F      MOV      r8,r8
        0x0000054a:    e004        ..      B        0x556 ; _printf_str + 70
        0x0000054c:    686a        jh      LDR      r2,[r5,#4]
        0x0000054e:    7820         x      LDRB     r0,[r4,#0]
        0x00000550:    68a9        .h      LDR      r1,[r5,#8]
        0x00000552:    1c64        d.      ADDS     r4,r4,#1
        0x00000554:    4790        .G      BLX      r2
        0x00000556:    42b4        .B      CMP      r4,r6
        0x00000558:    d3f8        ..      BCC      0x54c ; _printf_str + 60
        0x0000055a:    4628        (F      MOV      r0,r5
        0x0000055c:    46c0        .F      MOV      r8,r8
        0x0000055e:    46c0        .F      MOV      r8,r8
        0x00000560:    bd70        p.      POP      {r4-r6,pc}
        0x00000562:    0000        ..      MOVS     r0,r0
    .text
    _printf_int_dec
        0x00000564:    b5f7        ..      PUSH     {r0-r2,r4-r7,lr}
        0x00000566:    2500        .%      MOVS     r5,#0
        0x00000568:    2975        u)      CMP      r1,#0x75
        0x0000056a:    6810        .h      LDR      r0,[r2,#0]
        0x0000056c:    9900        ..      LDR      r1,[sp,#0]
        0x0000056e:    a614        ..      ADR      r6,{pc}+0x52 ; 0x5c0
        0x00000570:    d011        ..      BEQ      0x596 ; _printf_int_dec + 50
        0x00000572:    46c0        .F      MOV      r8,r8
        0x00000574:    46c0        .F      MOV      r8,r8
        0x00000576:    2800        .(      CMP      r0,#0
        0x00000578:    da02        ..      BGE      0x580 ; _printf_int_dec + 28
        0x0000057a:    4240        @B      RSBS     r0,r0,#0
        0x0000057c:    a611        ..      ADR      r6,{pc}+0x48 ; 0x5c4
        0x0000057e:    e008        ..      B        0x592 ; _printf_int_dec + 46
        0x00000580:    9900        ..      LDR      r1,[sp,#0]
        0x00000582:    6809        .h      LDR      r1,[r1,#0]
        0x00000584:    078a        ..      LSLS     r2,r1,#30
        0x00000586:    d501        ..      BPL      0x58c ; _printf_int_dec + 40
        0x00000588:    a60f        ..      ADR      r6,{pc}+0x40 ; 0x5c8
        0x0000058a:    e002        ..      B        0x592 ; _printf_int_dec + 46
        0x0000058c:    0749        I.      LSLS     r1,r1,#29
        0x0000058e:    d504        ..      BPL      0x59a ; _printf_int_dec + 54
        0x00000590:    a60e        ..      ADR      r6,{pc}+0x3c ; 0x5cc
        0x00000592:    2501        .%      MOVS     r5,#1
        0x00000594:    e001        ..      B        0x59a ; _printf_int_dec + 54
        0x00000596:    46c0        .F      MOV      r8,r8
        0x00000598:    46c0        .F      MOV      r8,r8
        0x0000059a:    9f00        ..      LDR      r7,[sp,#0]
        0x0000059c:    2400        .$      MOVS     r4,#0
        0x0000059e:    3724        $7      ADDS     r7,r7,#0x24
        0x000005a0:    e004        ..      B        0x5ac ; _printf_int_dec + 72
        0x000005a2:    f000fec3    ....    BL       __rt_udiv10 ; 0x132c
        0x000005a6:    3130        01      ADDS     r1,r1,#0x30
        0x000005a8:    5539        9U      STRB     r1,[r7,r4]
        0x000005aa:    1c64        d.      ADDS     r4,r4,#1
        0x000005ac:    2800        .(      CMP      r0,#0
        0x000005ae:    d1f8        ..      BNE      0x5a2 ; _printf_int_dec + 62
        0x000005b0:    462b        +F      MOV      r3,r5
        0x000005b2:    4632        2F      MOV      r2,r6
        0x000005b4:    4621        !F      MOV      r1,r4
        0x000005b6:    9800        ..      LDR      r0,[sp,#0]
        0x000005b8:    f000fbd3    ....    BL       _printf_int_common ; 0xd62
        0x000005bc:    bdfe        ..      POP      {r1-r7,pc}
    $d
        0x000005be:    0000        ..      DCW    0
        0x000005c0:    00000000    ....    DCD    0
        0x000005c4:    0000002d    -...    DCD    45
        0x000005c8:    0000002b    +...    DCD    43
        0x000005cc:    00000020     ...    DCD    32
    $t
    .text
    _printf_int_hex
    _printf_longlong_hex
        0x000005d0:    b570        p.      PUSH     {r4-r6,lr}
        0x000005d2:    4604        .F      MOV      r4,r0
        0x000005d4:    460d        .F      MOV      r5,r1
        0x000005d6:    4621        !F      MOV      r1,r4
        0x000005d8:    6810        .h      LDR      r0,[r2,#0]
        0x000005da:    46c0        .F      MOV      r8,r8
        0x000005dc:    46c0        .F      MOV      r8,r8
        0x000005de:    8821        !.      LDRH     r1,[r4,#0]
        0x000005e0:    0509        ..      LSLS     r1,r1,#20
        0x000005e2:    d502        ..      BPL      0x5ea ; _printf_int_hex + 26
        0x000005e4:    4a0f        .J      LDR      r2,[pc,#60] ; [0x624] = 0x4af6
        0x000005e6:    447a        zD      ADD      r2,r2,pc
        0x000005e8:    e002        ..      B        0x5f0 ; _printf_int_hex + 32
        0x000005ea:    4a0e        .J      LDR      r2,[pc,#56] ; [0x624] = 0x4af6
        0x000005ec:    447a        zD      ADD      r2,r2,pc
        0x000005ee:    320e        .2      ADDS     r2,r2,#0xe
        0x000005f0:    4623        #F      MOV      r3,r4
        0x000005f2:    2100        .!      MOVS     r1,#0
        0x000005f4:    3324        $3      ADDS     r3,r3,#0x24
        0x000005f6:    e005        ..      B        0x604 ; _printf_int_hex + 52
        0x000005f8:    0706        ..      LSLS     r6,r0,#28
        0x000005fa:    0900        ..      LSRS     r0,r0,#4
        0x000005fc:    0f36        6.      LSRS     r6,r6,#28
        0x000005fe:    5d96        .]      LDRB     r6,[r2,r6]
        0x00000600:    545e        ^T      STRB     r6,[r3,r1]
        0x00000602:    1c49        I.      ADDS     r1,r1,#1
        0x00000604:    2800        .(      CMP      r0,#0
        0x00000606:    d1f7        ..      BNE      0x5f8 ; _printf_int_hex + 40
        0x00000608:    7820         x      LDRB     r0,[r4,#0]
        0x0000060a:    2300        .#      MOVS     r3,#0
        0x0000060c:    0700        ..      LSLS     r0,r0,#28
        0x0000060e:    d505        ..      BPL      0x61c ; _printf_int_hex + 76
        0x00000610:    2d70        p-      CMP      r5,#0x70
        0x00000612:    d003        ..      BEQ      0x61c ; _printf_int_hex + 76
        0x00000614:    2900        .)      CMP      r1,#0
        0x00000616:    d001        ..      BEQ      0x61c ; _printf_int_hex + 76
        0x00000618:    2302        .#      MOVS     r3,#2
        0x0000061a:    3211        .2      ADDS     r2,r2,#0x11
        0x0000061c:    4620         F      MOV      r0,r4
        0x0000061e:    f000fba0    ....    BL       _printf_int_common ; 0xd62
        0x00000622:    bd70        p.      POP      {r4-r6,pc}
    $d
        0x00000624:    00004af6    .J..    DCD    19190
    $t
    .text
    __printf
        0x00000628:    b5f3        ..      PUSH     {r0,r1,r4-r7,lr}
        0x0000062a:    4604        .F      MOV      r4,r0
        0x0000062c:    2000        .       MOVS     r0,#0
        0x0000062e:    b081        ..      SUB      sp,sp,#4
        0x00000630:    6220         b      STR      r0,[r4,#0x20]
        0x00000632:    4620         F      MOV      r0,r4
        0x00000634:    68e1        .h      LDR      r1,[r4,#0xc]
        0x00000636:    4788        .G      BLX      r1
        0x00000638:    2800        .(      CMP      r0,#0
        0x0000063a:    d07a        z.      BEQ      0x732 ; __printf + 266
        0x0000063c:    2825        %(      CMP      r0,#0x25
        0x0000063e:    d002        ..      BEQ      0x646 ; __printf + 30
        0x00000640:    6862        bh      LDR      r2,[r4,#4]
        0x00000642:    68a1        .h      LDR      r1,[r4,#8]
        0x00000644:    e071        q.      B        0x72a ; __printf + 258
        0x00000646:    68e1        .h      LDR      r1,[r4,#0xc]
        0x00000648:    4620         F      MOV      r0,r4
        0x0000064a:    2500        .%      MOVS     r5,#0
        0x0000064c:    4788        .G      BLX      r1
        0x0000064e:    4606        .F      MOV      r6,r0
        0x00000650:    2000        .       MOVS     r0,#0
        0x00000652:    61e0        .a      STR      r0,[r4,#0x1c]
        0x00000654:    4607        .F      MOV      r7,r0
        0x00000656:    61a0        .a      STR      r0,[r4,#0x18]
        0x00000658:    2e2a        *.      CMP      r6,#0x2a
        0x0000065a:    d00a        ..      BEQ      0x672 ; __printf + 74
        0x0000065c:    4630        0F      MOV      r0,r6
        0x0000065e:    f002ffc9    ....    BL       _is_digit ; 0x35f4
        0x00000662:    2800        .(      CMP      r0,#0
        0x00000664:    d027        '.      BEQ      0x6b6 ; __printf + 142
        0x00000666:    00b8        ..      LSLS     r0,r7,#2
        0x00000668:    1900        ..      ADDS     r0,r0,r4
        0x0000066a:    3e30        0>      SUBS     r6,r6,#0x30
        0x0000066c:    9000        ..      STR      r0,[sp,#0]
        0x0000066e:    6186        .a      STR      r6,[r0,#0x18]
        0x00000670:    e019        ..      B        0x6a6 ; __printf + 126
        0x00000672:    9802        ..      LDR      r0,[sp,#8]
        0x00000674:    00ba        ..      LSLS     r2,r7,#2
        0x00000676:    1912        ..      ADDS     r2,r2,r4
        0x00000678:    c802        ..      LDM      r0!,{r1}
        0x0000067a:    6191        .a      STR      r1,[r2,#0x18]
        0x0000067c:    9002        ..      STR      r0,[sp,#8]
        0x0000067e:    4620         F      MOV      r0,r4
        0x00000680:    68e1        .h      LDR      r1,[r4,#0xc]
        0x00000682:    4788        .G      BLX      r1
        0x00000684:    2f01        ./      CMP      r7,#1
        0x00000686:    4606        .F      MOV      r6,r0
        0x00000688:    d117        ..      BNE      0x6ba ; __printf + 146
        0x0000068a:    69e0        .i      LDR      r0,[r4,#0x1c]
        0x0000068c:    2800        .(      CMP      r0,#0
        0x0000068e:    da1f        ..      BGE      0x6d0 ; __printf + 168
        0x00000690:    2020                MOVS     r0,#0x20
        0x00000692:    4385        .C      BICS     r5,r5,r0
        0x00000694:    e01c        ..      B        0x6d0 ; __printf + 168
        0x00000696:    9800        ..      LDR      r0,[sp,#0]
        0x00000698:    210a        .!      MOVS     r1,#0xa
        0x0000069a:    6980        .i      LDR      r0,[r0,#0x18]
        0x0000069c:    4348        HC      MULS     r0,r1,r0
        0x0000069e:    9900        ..      LDR      r1,[sp,#0]
        0x000006a0:    1980        ..      ADDS     r0,r0,r6
        0x000006a2:    3830        08      SUBS     r0,r0,#0x30
        0x000006a4:    6188        .a      STR      r0,[r1,#0x18]
        0x000006a6:    4620         F      MOV      r0,r4
        0x000006a8:    68e1        .h      LDR      r1,[r4,#0xc]
        0x000006aa:    4788        .G      BLX      r1
        0x000006ac:    4606        .F      MOV      r6,r0
        0x000006ae:    f002ffa1    ....    BL       _is_digit ; 0x35f4
        0x000006b2:    2800        .(      CMP      r0,#0
        0x000006b4:    d1ef        ..      BNE      0x696 ; __printf + 110
        0x000006b6:    2f01        ./      CMP      r7,#1
        0x000006b8:    d00a        ..      BEQ      0x6d0 ; __printf + 168
        0x000006ba:    2e2e        ..      CMP      r6,#0x2e
        0x000006bc:    d108        ..      BNE      0x6d0 ; __printf + 168
        0x000006be:    4620         F      MOV      r0,r4
        0x000006c0:    68e1        .h      LDR      r1,[r4,#0xc]
        0x000006c2:    4788        .G      BLX      r1
        0x000006c4:    4606        .F      MOV      r6,r0
        0x000006c6:    2020                MOVS     r0,#0x20
        0x000006c8:    4305        .C      ORRS     r5,r5,r0
        0x000006ca:    1c7f        ..      ADDS     r7,r7,#1
        0x000006cc:    2f02        ./      CMP      r7,#2
        0x000006ce:    dbc3        ..      BLT      0x658 ; __printf + 48
        0x000006d0:    69a0        .i      LDR      r0,[r4,#0x18]
        0x000006d2:    2800        .(      CMP      r0,#0
        0x000006d4:    da03        ..      BGE      0x6de ; __printf + 182
        0x000006d6:    4240        @B      RSBS     r0,r0,#0
        0x000006d8:    61a0        .a      STR      r0,[r4,#0x18]
        0x000006da:    2001        .       MOVS     r0,#1
        0x000006dc:    4305        .C      ORRS     r5,r5,r0
        0x000006de:    07e8        ..      LSLS     r0,r5,#31
        0x000006e0:    d001        ..      BEQ      0x6e6 ; __printf + 190
        0x000006e2:    2010        .       MOVS     r0,#0x10
        0x000006e4:    4385        .C      BICS     r5,r5,r0
        0x000006e6:    2e00        ..      CMP      r6,#0
        0x000006e8:    d023        #.      BEQ      0x732 ; __printf + 266
        0x000006ea:    4630        0F      MOV      r0,r6
        0x000006ec:    3841        A8      SUBS     r0,r0,#0x41
        0x000006ee:    2819        .(      CMP      r0,#0x19
        0x000006f0:    d803        ..      BHI      0x6fa ; __printf + 210
        0x000006f2:    2001        .       MOVS     r0,#1
        0x000006f4:    02c0        ..      LSLS     r0,r0,#11
        0x000006f6:    4305        .C      ORRS     r5,r5,r0
        0x000006f8:    3620         6      ADDS     r6,r6,#0x20
        0x000006fa:    4620         F      MOV      r0,r4
        0x000006fc:    6025        %`      STR      r5,[r4,#0]
        0x000006fe:    4631        1F      MOV      r1,r6
        0x00000700:    9a02        ..      LDR      r2,[sp,#8]
        0x00000702:    4615        .F      MOV      r5,r2
        0x00000704:    f7fffd1a    ....    BL       _printf_percent ; 0x13c
        0x00000708:    2800        .(      CMP      r0,#0
        0x0000070a:    d00b        ..      BEQ      0x724 ; __printf + 252
        0x0000070c:    2801        .(      CMP      r0,#1
        0x0000070e:    d006        ..      BEQ      0x71e ; __printf + 246
        0x00000710:    1ded        ..      ADDS     r5,r5,#7
        0x00000712:    08e8        ..      LSRS     r0,r5,#3
        0x00000714:    00c0        ..      LSLS     r0,r0,#3
        0x00000716:    3008        .0      ADDS     r0,r0,#8
        0x00000718:    9002        ..      STR      r0,[sp,#8]
        0x0000071a:    e78a        ..      B        0x632 ; __printf + 10
        0x0000071c:    e009        ..      B        0x732 ; __printf + 266
        0x0000071e:    1d2d        -.      ADDS     r5,r5,#4
        0x00000720:    9502        ..      STR      r5,[sp,#8]
        0x00000722:    e786        ..      B        0x632 ; __printf + 10
        0x00000724:    6862        bh      LDR      r2,[r4,#4]
        0x00000726:    4630        0F      MOV      r0,r6
        0x00000728:    68a1        .h      LDR      r1,[r4,#8]
        0x0000072a:    4790        .G      BLX      r2
        0x0000072c:    6a20         j      LDR      r0,[r4,#0x20]
        0x0000072e:    1c40        @.      ADDS     r0,r0,#1
        0x00000730:    e77e        ~.      B        0x630 ; __printf + 8
        0x00000732:    6a20         j      LDR      r0,[r4,#0x20]
        0x00000734:    bdfe        ..      POP      {r1-r7,pc}
    .text
    atoi
        0x00000736:    b570        p.      PUSH     {r4-r6,lr}
        0x00000738:    4606        .F      MOV      r6,r0
        0x0000073a:    f000fb0e    ....    BL       __aeabi_errno_addr ; 0xd5a
        0x0000073e:    6804        .h      LDR      r4,[r0,#0]
        0x00000740:    4605        .F      MOV      r5,r0
        0x00000742:    4630        0F      MOV      r0,r6
        0x00000744:    220a        ."      MOVS     r2,#0xa
        0x00000746:    2100        .!      MOVS     r1,#0
        0x00000748:    f000fdb8    ....    BL       strtol ; 0x12bc
        0x0000074c:    602c        ,`      STR      r4,[r5,#0]
        0x0000074e:    bd70        p.      POP      {r4-r6,pc}
    .text
    exit
        0x00000750:    b510        ..      PUSH     {r4,lr}
        0x00000752:    4604        .F      MOV      r4,r0
        0x00000754:    46c0        .F      MOV      r8,r8
        0x00000756:    46c0        .F      MOV      r8,r8
        0x00000758:    4620         F      MOV      r0,r4
        0x0000075a:    f7fffd2a    ..*.    BL       __rt_exit ; 0x1b2
        0x0000075e:    bd10        ..      POP      {r4,pc}
    .text
    strstr
        0x00000760:    b530        0.      PUSH     {r4,r5,lr}
        0x00000762:    4605        .F      MOV      r5,r0
        0x00000764:    460b        .F      MOV      r3,r1
        0x00000766:    462a        *F      MOV      r2,r5
        0x00000768:    781c        .x      LDRB     r4,[r3,#0]
        0x0000076a:    7810        .x      LDRB     r0,[r2,#0]
        0x0000076c:    1c52        R.      ADDS     r2,r2,#1
        0x0000076e:    1c5b        [.      ADDS     r3,r3,#1
        0x00000770:    2800        .(      CMP      r0,#0
        0x00000772:    d001        ..      BEQ      0x778 ; strstr + 24
        0x00000774:    42a0        .B      CMP      r0,r4
        0x00000776:    d0f7        ..      BEQ      0x768 ; strstr + 8
        0x00000778:    2c00        .,      CMP      r4,#0
        0x0000077a:    d003        ..      BEQ      0x784 ; strstr + 36
        0x0000077c:    2800        .(      CMP      r0,#0
        0x0000077e:    d002        ..      BEQ      0x786 ; strstr + 38
        0x00000780:    1c6d        m.      ADDS     r5,r5,#1
        0x00000782:    e7ef        ..      B        0x764 ; strstr + 4
        0x00000784:    4628        (F      MOV      r0,r5
        0x00000786:    bd30        0.      POP      {r4,r5,pc}
    .text
    strlen
        0x00000788:    b530        0.      PUSH     {r4,r5,lr}
        0x0000078a:    1c44        D.      ADDS     r4,r0,#1
        0x0000078c:    e003        ..      B        0x796 ; strlen + 14
        0x0000078e:    7801        .x      LDRB     r1,[r0,#0]
        0x00000790:    1c40        @.      ADDS     r0,r0,#1
        0x00000792:    2900        .)      CMP      r1,#0
        0x00000794:    d00d        ..      BEQ      0x7b2 ; strlen + 42
        0x00000796:    0781        ..      LSLS     r1,r0,#30
        0x00000798:    d1f9        ..      BNE      0x78e ; strlen + 6
        0x0000079a:    4b0b        .K      LDR      r3,[pc,#44] ; [0x7c8] = 0x1010101
        0x0000079c:    01dd        ..      LSLS     r5,r3,#7
        0x0000079e:    c804        ..      LDM      r0!,{r2}
        0x000007a0:    1ad1        ..      SUBS     r1,r2,r3
        0x000007a2:    4391        .C      BICS     r1,r1,r2
        0x000007a4:    4029        )@      ANDS     r1,r1,r5
        0x000007a6:    d0fa        ..      BEQ      0x79e ; strlen + 22
        0x000007a8:    1b00        ..      SUBS     r0,r0,r4
        0x000007aa:    060a        ..      LSLS     r2,r1,#24
        0x000007ac:    d003        ..      BEQ      0x7b6 ; strlen + 46
        0x000007ae:    1ec0        ..      SUBS     r0,r0,#3
        0x000007b0:    bd30        0.      POP      {r4,r5,pc}
        0x000007b2:    1b00        ..      SUBS     r0,r0,r4
        0x000007b4:    bd30        0.      POP      {r4,r5,pc}
        0x000007b6:    040a        ..      LSLS     r2,r1,#16
        0x000007b8:    d001        ..      BEQ      0x7be ; strlen + 54
        0x000007ba:    1e80        ..      SUBS     r0,r0,#2
        0x000007bc:    bd30        0.      POP      {r4,r5,pc}
        0x000007be:    0209        ..      LSLS     r1,r1,#8
        0x000007c0:    d0fc        ..      BEQ      0x7bc ; strlen + 52
        0x000007c2:    1e40        @.      SUBS     r0,r0,#1
        0x000007c4:    bd30        0.      POP      {r4,r5,pc}
    $d
        0x000007c6:    0000        ..      DCW    0
        0x000007c8:    01010101    ....    DCD    16843009
    $t
    .text
    strcat
        0x000007cc:    1e42        B.      SUBS     r2,r0,#1
        0x000007ce:    7853        Sx      LDRB     r3,[r2,#1]
        0x000007d0:    1c52        R.      ADDS     r2,r2,#1
        0x000007d2:    2b00        .+      CMP      r3,#0
        0x000007d4:    d1fb        ..      BNE      0x7ce ; strcat + 2
        0x000007d6:    780b        .x      LDRB     r3,[r1,#0]
        0x000007d8:    1c49        I.      ADDS     r1,r1,#1
        0x000007da:    7013        .p      STRB     r3,[r2,#0]
        0x000007dc:    1c52        R.      ADDS     r2,r2,#1
        0x000007de:    2b00        .+      CMP      r3,#0
        0x000007e0:    d1f9        ..      BNE      0x7d6 ; strcat + 10
        0x000007e2:    4770        pG      BX       lr
    .text
    _memset_w
        0x000007e4:    e001        ..      B        0x7ea ; _memset_w + 6
        0x000007e6:    c004        ..      STM      r0!,{r2}
        0x000007e8:    1f09        ..      SUBS     r1,r1,#4
        0x000007ea:    2904        .)      CMP      r1,#4
        0x000007ec:    d2fb        ..      BCS      0x7e6 ; _memset_w + 2
        0x000007ee:    078b        ..      LSLS     r3,r1,#30
        0x000007f0:    d501        ..      BPL      0x7f6 ; _memset_w + 18
        0x000007f2:    8002        ..      STRH     r2,[r0,#0]
        0x000007f4:    1c80        ..      ADDS     r0,r0,#2
        0x000007f6:    07c9        ..      LSLS     r1,r1,#31
        0x000007f8:    d000        ..      BEQ      0x7fc ; _memset_w + 24
        0x000007fa:    7002        .p      STRB     r2,[r0,#0]
        0x000007fc:    4770        pG      BX       lr
    _memset
        0x000007fe:    2900        .)      CMP      r1,#0
        0x00000800:    d00b        ..      BEQ      0x81a ; _memset + 28
        0x00000802:    07c3        ..      LSLS     r3,r0,#31
        0x00000804:    d002        ..      BEQ      0x80c ; _memset + 14
        0x00000806:    7002        .p      STRB     r2,[r0,#0]
        0x00000808:    1c40        @.      ADDS     r0,r0,#1
        0x0000080a:    1e49        I.      SUBS     r1,r1,#1
        0x0000080c:    2902        .)      CMP      r1,#2
        0x0000080e:    d304        ..      BCC      0x81a ; _memset + 28
        0x00000810:    0783        ..      LSLS     r3,r0,#30
        0x00000812:    d502        ..      BPL      0x81a ; _memset + 28
        0x00000814:    8002        ..      STRH     r2,[r0,#0]
        0x00000816:    1c80        ..      ADDS     r0,r0,#2
        0x00000818:    1e89        ..      SUBS     r1,r1,#2
        0x0000081a:    e7e3        ..      B        _memset_w ; 0x7e4
    __aeabi_memclr
    __rt_memclr
        0x0000081c:    2200        ."      MOVS     r2,#0
        0x0000081e:    e7ee        ..      B        _memset ; 0x7fe
    __aeabi_memclr4
    __aeabi_memclr8
    __rt_memclr_w
        0x00000820:    2200        ."      MOVS     r2,#0
        0x00000822:    e7df        ..      B        _memset_w ; 0x7e4
    .text
    __aeabi_uidiv
    __aeabi_uidivmod
        0x00000824:    2200        ."      MOVS     r2,#0
        0x00000826:    0903        ..      LSRS     r3,r0,#4
        0x00000828:    428b        .B      CMP      r3,r1
        0x0000082a:    d32c        ,.      BCC      0x886 ; __aeabi_idiv + 78
        0x0000082c:    0a03        ..      LSRS     r3,r0,#8
        0x0000082e:    428b        .B      CMP      r3,r1
        0x00000830:    d311        ..      BCC      0x856 ; __aeabi_idiv + 30
        0x00000832:    2300        .#      MOVS     r3,#0
        0x00000834:    469c        .F      MOV      r12,r3
        0x00000836:    e04e        N.      B        0x8d6 ; __aeabi_idiv + 158
    __aeabi_idiv
    __aeabi_idivmod
        0x00000838:    4603        .F      MOV      r3,r0
        0x0000083a:    430b        .C      ORRS     r3,r3,r1
        0x0000083c:    d43c        <.      BMI      0x8b8 ; __aeabi_idiv + 128
        0x0000083e:    2200        ."      MOVS     r2,#0
        0x00000840:    0843        C.      LSRS     r3,r0,#1
        0x00000842:    428b        .B      CMP      r3,r1
        0x00000844:    d331        1.      BCC      0x8aa ; __aeabi_idiv + 114
        0x00000846:    0903        ..      LSRS     r3,r0,#4
        0x00000848:    428b        .B      CMP      r3,r1
        0x0000084a:    d31c        ..      BCC      0x886 ; __aeabi_idiv + 78
        0x0000084c:    0a03        ..      LSRS     r3,r0,#8
        0x0000084e:    428b        .B      CMP      r3,r1
        0x00000850:    d301        ..      BCC      0x856 ; __aeabi_idiv + 30
        0x00000852:    4694        .F      MOV      r12,r2
        0x00000854:    e03f        ?.      B        0x8d6 ; __aeabi_idiv + 158
        0x00000856:    09c3        ..      LSRS     r3,r0,#7
        0x00000858:    428b        .B      CMP      r3,r1
        0x0000085a:    d301        ..      BCC      0x860 ; __aeabi_idiv + 40
        0x0000085c:    01cb        ..      LSLS     r3,r1,#7
        0x0000085e:    1ac0        ..      SUBS     r0,r0,r3
        0x00000860:    4152        RA      ADCS     r2,r2,r2
        0x00000862:    0983        ..      LSRS     r3,r0,#6
        0x00000864:    428b        .B      CMP      r3,r1
        0x00000866:    d301        ..      BCC      0x86c ; __aeabi_idiv + 52
        0x00000868:    018b        ..      LSLS     r3,r1,#6
        0x0000086a:    1ac0        ..      SUBS     r0,r0,r3
        0x0000086c:    4152        RA      ADCS     r2,r2,r2
        0x0000086e:    0943        C.      LSRS     r3,r0,#5
        0x00000870:    428b        .B      CMP      r3,r1
        0x00000872:    d301        ..      BCC      0x878 ; __aeabi_idiv + 64
        0x00000874:    014b        K.      LSLS     r3,r1,#5
        0x00000876:    1ac0        ..      SUBS     r0,r0,r3
        0x00000878:    4152        RA      ADCS     r2,r2,r2
        0x0000087a:    0903        ..      LSRS     r3,r0,#4
        0x0000087c:    428b        .B      CMP      r3,r1
        0x0000087e:    d301        ..      BCC      0x884 ; __aeabi_idiv + 76
        0x00000880:    010b        ..      LSLS     r3,r1,#4
        0x00000882:    1ac0        ..      SUBS     r0,r0,r3
        0x00000884:    4152        RA      ADCS     r2,r2,r2
        0x00000886:    08c3        ..      LSRS     r3,r0,#3
        0x00000888:    428b        .B      CMP      r3,r1
        0x0000088a:    d301        ..      BCC      0x890 ; __aeabi_idiv + 88
        0x0000088c:    00cb        ..      LSLS     r3,r1,#3
        0x0000088e:    1ac0        ..      SUBS     r0,r0,r3
        0x00000890:    4152        RA      ADCS     r2,r2,r2
        0x00000892:    0883        ..      LSRS     r3,r0,#2
        0x00000894:    428b        .B      CMP      r3,r1
        0x00000896:    d301        ..      BCC      0x89c ; __aeabi_idiv + 100
        0x00000898:    008b        ..      LSLS     r3,r1,#2
        0x0000089a:    1ac0        ..      SUBS     r0,r0,r3
        0x0000089c:    4152        RA      ADCS     r2,r2,r2
        0x0000089e:    0843        C.      LSRS     r3,r0,#1
        0x000008a0:    428b        .B      CMP      r3,r1
        0x000008a2:    d301        ..      BCC      0x8a8 ; __aeabi_idiv + 112
        0x000008a4:    004b        K.      LSLS     r3,r1,#1
        0x000008a6:    1ac0        ..      SUBS     r0,r0,r3
        0x000008a8:    4152        RA      ADCS     r2,r2,r2
        0x000008aa:    1a41        A.      SUBS     r1,r0,r1
        0x000008ac:    d200        ..      BCS      0x8b0 ; __aeabi_idiv + 120
        0x000008ae:    4601        .F      MOV      r1,r0
        0x000008b0:    4152        RA      ADCS     r2,r2,r2
        0x000008b2:    4610        .F      MOV      r0,r2
        0x000008b4:    4770        pG      BX       lr
        0x000008b6:    e05d        ].      B        0x974 ; __aeabi_idiv + 316
        0x000008b8:    0fca        ..      LSRS     r2,r1,#31
        0x000008ba:    d000        ..      BEQ      0x8be ; __aeabi_idiv + 134
        0x000008bc:    4249        IB      RSBS     r1,r1,#0
        0x000008be:    1003        ..      ASRS     r3,r0,#32
        0x000008c0:    d300        ..      BCC      0x8c4 ; __aeabi_idiv + 140
        0x000008c2:    4240        @B      RSBS     r0,r0,#0
        0x000008c4:    4053        S@      EORS     r3,r3,r2
        0x000008c6:    2200        ."      MOVS     r2,#0
        0x000008c8:    469c        .F      MOV      r12,r3
        0x000008ca:    0903        ..      LSRS     r3,r0,#4
        0x000008cc:    428b        .B      CMP      r3,r1
        0x000008ce:    d32d        -.      BCC      0x92c ; __aeabi_idiv + 244
        0x000008d0:    0a03        ..      LSRS     r3,r0,#8
        0x000008d2:    428b        .B      CMP      r3,r1
        0x000008d4:    d312        ..      BCC      0x8fc ; __aeabi_idiv + 196
        0x000008d6:    22fc        ."      MOVS     r2,#0xfc
        0x000008d8:    0189        ..      LSLS     r1,r1,#6
        0x000008da:    ba12        ..      REV      r2,r2
        0x000008dc:    0a03        ..      LSRS     r3,r0,#8
        0x000008de:    428b        .B      CMP      r3,r1
        0x000008e0:    d30c        ..      BCC      0x8fc ; __aeabi_idiv + 196
        0x000008e2:    0189        ..      LSLS     r1,r1,#6
        0x000008e4:    1192        ..      ASRS     r2,r2,#6
        0x000008e6:    428b        .B      CMP      r3,r1
        0x000008e8:    d308        ..      BCC      0x8fc ; __aeabi_idiv + 196
        0x000008ea:    0189        ..      LSLS     r1,r1,#6
        0x000008ec:    1192        ..      ASRS     r2,r2,#6
        0x000008ee:    428b        .B      CMP      r3,r1
        0x000008f0:    d304        ..      BCC      0x8fc ; __aeabi_idiv + 196
        0x000008f2:    0189        ..      LSLS     r1,r1,#6
        0x000008f4:    d03a        :.      BEQ      0x96c ; __aeabi_idiv + 308
        0x000008f6:    1192        ..      ASRS     r2,r2,#6
        0x000008f8:    e000        ..      B        0x8fc ; __aeabi_idiv + 196
        0x000008fa:    0989        ..      LSRS     r1,r1,#6
        0x000008fc:    09c3        ..      LSRS     r3,r0,#7
        0x000008fe:    428b        .B      CMP      r3,r1
        0x00000900:    d301        ..      BCC      0x906 ; __aeabi_idiv + 206
        0x00000902:    01cb        ..      LSLS     r3,r1,#7
        0x00000904:    1ac0        ..      SUBS     r0,r0,r3
        0x00000906:    4152        RA      ADCS     r2,r2,r2
        0x00000908:    0983        ..      LSRS     r3,r0,#6
        0x0000090a:    428b        .B      CMP      r3,r1
        0x0000090c:    d301        ..      BCC      0x912 ; __aeabi_idiv + 218
        0x0000090e:    018b        ..      LSLS     r3,r1,#6
        0x00000910:    1ac0        ..      SUBS     r0,r0,r3
        0x00000912:    4152        RA      ADCS     r2,r2,r2
        0x00000914:    0943        C.      LSRS     r3,r0,#5
        0x00000916:    428b        .B      CMP      r3,r1
        0x00000918:    d301        ..      BCC      0x91e ; __aeabi_idiv + 230
        0x0000091a:    014b        K.      LSLS     r3,r1,#5
        0x0000091c:    1ac0        ..      SUBS     r0,r0,r3
        0x0000091e:    4152        RA      ADCS     r2,r2,r2
        0x00000920:    0903        ..      LSRS     r3,r0,#4
        0x00000922:    428b        .B      CMP      r3,r1
        0x00000924:    d301        ..      BCC      0x92a ; __aeabi_idiv + 242
        0x00000926:    010b        ..      LSLS     r3,r1,#4
        0x00000928:    1ac0        ..      SUBS     r0,r0,r3
        0x0000092a:    4152        RA      ADCS     r2,r2,r2
        0x0000092c:    08c3        ..      LSRS     r3,r0,#3
        0x0000092e:    428b        .B      CMP      r3,r1
        0x00000930:    d301        ..      BCC      0x936 ; __aeabi_idiv + 254
        0x00000932:    00cb        ..      LSLS     r3,r1,#3
        0x00000934:    1ac0        ..      SUBS     r0,r0,r3
        0x00000936:    4152        RA      ADCS     r2,r2,r2
        0x00000938:    0883        ..      LSRS     r3,r0,#2
        0x0000093a:    428b        .B      CMP      r3,r1
        0x0000093c:    d301        ..      BCC      0x942 ; __aeabi_idiv + 266
        0x0000093e:    008b        ..      LSLS     r3,r1,#2
        0x00000940:    1ac0        ..      SUBS     r0,r0,r3
        0x00000942:    4152        RA      ADCS     r2,r2,r2
        0x00000944:    d2d9        ..      BCS      0x8fa ; __aeabi_idiv + 194
        0x00000946:    0843        C.      LSRS     r3,r0,#1
        0x00000948:    428b        .B      CMP      r3,r1
        0x0000094a:    d301        ..      BCC      0x950 ; __aeabi_idiv + 280
        0x0000094c:    004b        K.      LSLS     r3,r1,#1
        0x0000094e:    1ac0        ..      SUBS     r0,r0,r3
        0x00000950:    4152        RA      ADCS     r2,r2,r2
        0x00000952:    1a41        A.      SUBS     r1,r0,r1
        0x00000954:    d200        ..      BCS      0x958 ; __aeabi_idiv + 288
        0x00000956:    4601        .F      MOV      r1,r0
        0x00000958:    4663        cF      MOV      r3,r12
        0x0000095a:    4152        RA      ADCS     r2,r2,r2
        0x0000095c:    105b        [.      ASRS     r3,r3,#1
        0x0000095e:    4610        .F      MOV      r0,r2
        0x00000960:    d301        ..      BCC      0x966 ; __aeabi_idiv + 302
        0x00000962:    4240        @B      RSBS     r0,r0,#0
        0x00000964:    2b00        .+      CMP      r3,#0
        0x00000966:    d500        ..      BPL      0x96a ; __aeabi_idiv + 306
        0x00000968:    4249        IB      RSBS     r1,r1,#0
        0x0000096a:    4770        pG      BX       lr
        0x0000096c:    4663        cF      MOV      r3,r12
        0x0000096e:    105b        [.      ASRS     r3,r3,#1
        0x00000970:    d300        ..      BCC      0x974 ; __aeabi_idiv + 316
        0x00000972:    4240        @B      RSBS     r0,r0,#0
        0x00000974:    b501        ..      PUSH     {r0,lr}
        0x00000976:    2000        .       MOVS     r0,#0
        0x00000978:    46c0        .F      MOV      r8,r8
        0x0000097a:    46c0        .F      MOV      r8,r8
        0x0000097c:    bd02        ..      POP      {r1,pc}
    .text
    __use_two_region_memory
        0x0000097e:    4770        pG      BX       lr
    __rt_heap_escrow$2region
        0x00000980:    4770        pG      BX       lr
    __rt_heap_expand$2region
        0x00000982:    4770        pG      BX       lr
    .text
    __aeabi_d2f
    _d2f
        0x00000984:    4602        .F      MOV      r2,r0
        0x00000986:    0fc8        ..      LSRS     r0,r1,#31
        0x00000988:    07c0        ..      LSLS     r0,r0,#31
        0x0000098a:    4381        .C      BICS     r1,r1,r0
        0x0000098c:    004b        K.      LSLS     r3,r1,#1
        0x0000098e:    b530        0.      PUSH     {r4,r5,lr}
        0x00000990:    404b        K@      EORS     r3,r3,r1
        0x00000992:    005b        [.      LSLS     r3,r3,#1
        0x00000994:    0d9b        ..      LSRS     r3,r3,#22
        0x00000996:    d020         .      BEQ      0x9da ; __aeabi_d2f + 86
        0x00000998:    2319        .#      MOVS     r3,#0x19
        0x0000099a:    06db        ..      LSLS     r3,r3,#27
        0x0000099c:    18c9        ..      ADDS     r1,r1,r3
        0x0000099e:    2301        .#      MOVS     r3,#1
        0x000009a0:    051b        ..      LSLS     r3,r3,#20
        0x000009a2:    4299        .B      CMP      r1,r3
        0x000009a4:    db20         .      BLT      0x9e8 ; __aeabi_d2f + 100
        0x000009a6:    2403        .$      MOVS     r4,#3
        0x000009a8:    07a4        ..      LSLS     r4,r4,#30
        0x000009aa:    2504        .%      MOVS     r5,#4
        0x000009ac:    4613        .F      MOV      r3,r2
        0x000009ae:    40ab        .@      LSLS     r3,r3,r5
        0x000009b0:    d30b        ..      BCC      0x9ca ; __aeabi_d2f + 70
        0x000009b2:    2b00        .+      CMP      r3,#0
        0x000009b4:    d104        ..      BNE      0x9c0 ; __aeabi_d2f + 60
        0x000009b6:    06eb        ..      LSLS     r3,r5,#27
        0x000009b8:    4013        .@      ANDS     r3,r3,r2
        0x000009ba:    009b        ..      LSLS     r3,r3,#2
        0x000009bc:    42e3        .B      CMN      r3,r4
        0x000009be:    d404        ..      BMI      0x9ca ; __aeabi_d2f + 70
        0x000009c0:    2401        .$      MOVS     r4,#1
        0x000009c2:    0764        d.      LSLS     r4,r4,#29
        0x000009c4:    2300        .#      MOVS     r3,#0
        0x000009c6:    1912        ..      ADDS     r2,r2,r4
        0x000009c8:    4159        YA      ADCS     r1,r1,r3
        0x000009ca:    23ff        .#      MOVS     r3,#0xff
        0x000009cc:    051b        ..      LSLS     r3,r3,#20
        0x000009ce:    4299        .B      CMP      r1,r3
        0x000009d0:    d20b        ..      BCS      0x9ea ; __aeabi_d2f + 102
        0x000009d2:    00c9        ..      LSLS     r1,r1,#3
        0x000009d4:    4301        .C      ORRS     r1,r1,r0
        0x000009d6:    0f50        P.      LSRS     r0,r2,#29
        0x000009d8:    e009        ..      B        0x9ee ; __aeabi_d2f + 106
        0x000009da:    02cb        ..      LSLS     r3,r1,#11
        0x000009dc:    d504        ..      BPL      0x9e8 ; __aeabi_d2f + 100
        0x000009de:    4301        .C      ORRS     r1,r1,r0
        0x000009e0:    0308        ..      LSLS     r0,r1,#12
        0x000009e2:    4302        .C      ORRS     r2,r2,r0
        0x000009e4:    d005        ..      BEQ      0x9f2 ; __aeabi_d2f + 110
        0x000009e6:    4805        .H      LDR      r0,[pc,#20] ; [0x9fc] = 0x7fc00000
        0x000009e8:    bd30        0.      POP      {r4,r5,pc}
        0x000009ea:    21ff        .!      MOVS     r1,#0xff
        0x000009ec:    05c9        ..      LSLS     r1,r1,#23
        0x000009ee:    4308        .C      ORRS     r0,r0,r1
        0x000009f0:    bd30        0.      POP      {r4,r5,pc}
        0x000009f2:    4608        .F      MOV      r0,r1
        0x000009f4:    2107        .!      MOVS     r1,#7
        0x000009f6:    0509        ..      LSLS     r1,r1,#20
        0x000009f8:    4388        .C      BICS     r0,r0,r1
        0x000009fa:    bd30        0.      POP      {r4,r5,pc}
    $d
        0x000009fc:    7fc00000    ....    DCD    2143289344
    $t
    .text
    __aeabi_dmul
    _dmul
        0x00000a00:    b5f0        ..      PUSH     {r4-r7,lr}
        0x00000a02:    4c8b        .L      LDR      r4,[pc,#556] ; [0xc30] = 0x7ff0000
        0x00000a04:    090f        ..      LSRS     r7,r1,#4
        0x00000a06:    4625        %F      MOV      r5,r4
        0x00000a08:    b089        ..      SUB      sp,sp,#0x24
        0x00000a0a:    43bd        .C      BICS     r5,r5,r7
        0x00000a0c:    d07b        {.      BEQ      0xb06 ; __aeabi_dmul + 262
        0x00000a0e:    091d        ..      LSRS     r5,r3,#4
        0x00000a10:    4626        &F      MOV      r6,r4
        0x00000a12:    43ae        .C      BICS     r6,r6,r5
        0x00000a14:    d0fa        ..      BEQ      0xa0c ; __aeabi_dmul + 12
        0x00000a16:    460e        .F      MOV      r6,r1
        0x00000a18:    405e        ^@      EORS     r6,r6,r3
        0x00000a1a:    4027        '@      ANDS     r7,r7,r4
        0x00000a1c:    0ff6        ..      LSRS     r6,r6,#31
        0x00000a1e:    433e        >C      ORRS     r6,r6,r7
        0x00000a20:    4025        %@      ANDS     r5,r5,r4
        0x00000a22:    d071        q.      BEQ      0xb08 ; __aeabi_dmul + 264
        0x00000a24:    0124        $.      LSLS     r4,r4,#4
        0x00000a26:    4221        !B      TST      r1,r4
        0x00000a28:    d0fb        ..      BEQ      0xa22 ; __aeabi_dmul + 34
        0x00000a2a:    24ff        .$      MOVS     r4,#0xff
        0x00000a2c:    19ad        ..      ADDS     r5,r5,r6
        0x00000a2e:    04a4        ..      LSLS     r4,r4,#18
        0x00000a30:    1b2d        -.      SUBS     r5,r5,r4
        0x00000a32:    9503        ..      STR      r5,[sp,#0xc]
        0x00000a34:    2501        .%      MOVS     r5,#1
        0x00000a36:    052d        -.      LSLS     r5,r5,#20
        0x00000a38:    02db        ..      LSLS     r3,r3,#11
        0x00000a3a:    0adb        ..      LSRS     r3,r3,#11
        0x00000a3c:    02c9        ..      LSLS     r1,r1,#11
        0x00000a3e:    432b        +C      ORRS     r3,r3,r5
        0x00000a40:    0ac9        ..      LSRS     r1,r1,#11
        0x00000a42:    4329        )C      ORRS     r1,r1,r5
        0x00000a44:    011e        ..      LSLS     r6,r3,#4
        0x00000a46:    0109        ..      LSLS     r1,r1,#4
        0x00000a48:    0f04        ..      LSRS     r4,r0,#28
        0x00000a4a:    0f13        ..      LSRS     r3,r2,#28
        0x00000a4c:    0105        ..      LSLS     r5,r0,#4
        0x00000a4e:    4321        !C      ORRS     r1,r1,r4
        0x00000a50:    0117        ..      LSLS     r7,r2,#4
        0x00000a52:    0b88        ..      LSRS     r0,r1,#14
        0x00000a54:    0382        ..      LSLS     r2,r0,#14
        0x00000a56:    4391        .C      BICS     r1,r1,r2
        0x00000a58:    092d        -.      LSRS     r5,r5,#4
        0x00000a5a:    468c        .F      MOV      r12,r1
        0x00000a5c:    0ba9        ..      LSRS     r1,r5,#14
        0x00000a5e:    431e        .C      ORRS     r6,r6,r3
        0x00000a60:    038a        ..      LSLS     r2,r1,#14
        0x00000a62:    4395        .C      BICS     r5,r5,r2
        0x00000a64:    0bb3        ..      LSRS     r3,r6,#14
        0x00000a66:    039a        ..      LSLS     r2,r3,#14
        0x00000a68:    4396        .C      BICS     r6,r6,r2
        0x00000a6a:    093f        ?.      LSRS     r7,r7,#4
        0x00000a6c:    0bba        ..      LSRS     r2,r7,#14
        0x00000a6e:    0394        ..      LSLS     r4,r2,#14
        0x00000a70:    43a7        .C      BICS     r7,r7,r4
        0x00000a72:    9602        ..      STR      r6,[sp,#8]
        0x00000a74:    462e        .F      MOV      r6,r5
        0x00000a76:    437e        ~C      MULS     r6,r7,r6
        0x00000a78:    9704        ..      STR      r7,[sp,#0x10]
        0x00000a7a:    46b6        .F      MOV      lr,r6
        0x00000a7c:    194e        N.      ADDS     r6,r1,r5
        0x00000a7e:    19d7        ..      ADDS     r7,r2,r7
        0x00000a80:    460c        .F      MOV      r4,r1
        0x00000a82:    9601        ..      STR      r6,[sp,#4]
        0x00000a84:    4354        TC      MULS     r4,r2,r4
        0x00000a86:    9705        ..      STR      r7,[sp,#0x14]
        0x00000a88:    437e        ~C      MULS     r6,r7,r6
        0x00000a8a:    1b37        7.      SUBS     r7,r6,r4
        0x00000a8c:    4676        vF      MOV      r6,lr
        0x00000a8e:    1bbf        ..      SUBS     r7,r7,r6
        0x00000a90:    0136        6.      LSLS     r6,r6,#4
        0x00000a92:    46b6        .F      MOV      lr,r6
        0x00000a94:    0bbe        ..      LSRS     r6,r7,#14
        0x00000a96:    1936        6.      ADDS     r6,r6,r4
        0x00000a98:    9600        ..      STR      r6,[sp,#0]
        0x00000a9a:    4676        vF      MOV      r6,lr
        0x00000a9c:    04bc        ..      LSLS     r4,r7,#18
        0x00000a9e:    1937        7.      ADDS     r7,r6,r4
        0x00000aa0:    9c00        ..      LDR      r4,[sp,#0]
        0x00000aa2:    d301        ..      BCC      0xaa8 ; __aeabi_dmul + 168
        0x00000aa4:    1c64        d.      ADDS     r4,r4,#1
        0x00000aa6:    9400        ..      STR      r4,[sp,#0]
        0x00000aa8:    0064        d.      LSLS     r4,r4,#1
        0x00000aaa:    2f00        ./      CMP      r7,#0
        0x00000aac:    d001        ..      BEQ      0xab2 ; __aeabi_dmul + 178
        0x00000aae:    2601        .&      MOVS     r6,#1
        0x00000ab0:    4334        4C      ORRS     r4,r4,r6
        0x00000ab2:    9e02        ..      LDR      r6,[sp,#8]
        0x00000ab4:    9f04        ..      LDR      r7,[sp,#0x10]
        0x00000ab6:    4375        uC      MULS     r5,r6,r5
        0x00000ab8:    4666        fF      MOV      r6,r12
        0x00000aba:    437e        ~C      MULS     r6,r7,r6
        0x00000abc:    9604        ..      STR      r6,[sp,#0x10]
        0x00000abe:    0076        v.      LSLS     r6,r6,#1
        0x00000ac0:    1934        4.      ADDS     r4,r6,r4
        0x00000ac2:    006e        n.      LSLS     r6,r5,#1
        0x00000ac4:    1934        4.      ADDS     r4,r6,r4
        0x00000ac6:    9400        ..      STR      r4,[sp,#0]
        0x00000ac8:    9c02        ..      LDR      r4,[sp,#8]
        0x00000aca:    9e01        ..      LDR      r6,[sp,#4]
        0x00000acc:    191c        ..      ADDS     r4,r3,r4
        0x00000ace:    4366        fC      MULS     r6,r4,r6
        0x00000ad0:    1b75        u.      SUBS     r5,r6,r5
        0x00000ad2:    46ae        .F      MOV      lr,r5
        0x00000ad4:    9406        ..      STR      r4,[sp,#0x18]
        0x00000ad6:    4665        eF      MOV      r5,r12
        0x00000ad8:    1945        E.      ADDS     r5,r0,r5
        0x00000ada:    9c05        ..      LDR      r4,[sp,#0x14]
        0x00000adc:    9505        ..      STR      r5,[sp,#0x14]
        0x00000ade:    436c        lC      MULS     r4,r5,r4
        0x00000ae0:    4359        YC      MULS     r1,r3,r1
        0x00000ae2:    4675        uF      MOV      r5,lr
        0x00000ae4:    9108        ..      STR      r1,[sp,#0x20]
        0x00000ae6:    1a69        i.      SUBS     r1,r5,r1
        0x00000ae8:    9101        ..      STR      r1,[sp,#4]
        0x00000aea:    9e04        ..      LDR      r6,[sp,#0x10]
        0x00000aec:    4601        .F      MOV      r1,r0
        0x00000aee:    4351        QC      MULS     r1,r2,r1
        0x00000af0:    1ba4        ..      SUBS     r4,r4,r6
        0x00000af2:    9104        ..      STR      r1,[sp,#0x10]
        0x00000af4:    1a61        a.      SUBS     r1,r4,r1
        0x00000af6:    9c00        ..      LDR      r4,[sp,#0]
        0x00000af8:    9107        ..      STR      r1,[sp,#0x1c]
        0x00000afa:    06e1        ..      LSLS     r1,r4,#27
        0x00000afc:    d005        ..      BEQ      0xb0a ; __aeabi_dmul + 266
        0x00000afe:    0961        a.      LSRS     r1,r4,#5
        0x00000b00:    2201        ."      MOVS     r2,#1
        0x00000b02:    4311        .C      ORRS     r1,r1,r2
        0x00000b04:    e002        ..      B        0xb0c ; __aeabi_dmul + 268
        0x00000b06:    e072        r.      B        0xbee ; __aeabi_dmul + 494
        0x00000b08:    e06e        n.      B        0xbe8 ; __aeabi_dmul + 488
        0x00000b0a:    0961        a.      LSRS     r1,r4,#5
        0x00000b0c:    9d08        ..      LDR      r5,[sp,#0x20]
        0x00000b0e:    2700        .'      MOVS     r7,#0
        0x00000b10:    0a2c        ,.      LSRS     r4,r5,#8
        0x00000b12:    062d        -.      LSLS     r5,r5,#24
        0x00000b14:    1869        i.      ADDS     r1,r5,r1
        0x00000b16:    9d04        ..      LDR      r5,[sp,#0x10]
        0x00000b18:    417c        |A      ADCS     r4,r4,r7
        0x00000b1a:    0a2a        *.      LSRS     r2,r5,#8
        0x00000b1c:    062d        -.      LSLS     r5,r5,#24
        0x00000b1e:    1869        i.      ADDS     r1,r5,r1
        0x00000b20:    9d01        ..      LDR      r5,[sp,#4]
        0x00000b22:    4162        bA      ADCS     r2,r2,r4
        0x00000b24:    0dac        ..      LSRS     r4,r5,#22
        0x00000b26:    02ad        ..      LSLS     r5,r5,#10
        0x00000b28:    186d        m.      ADDS     r5,r5,r1
        0x00000b2a:    4154        TA      ADCS     r4,r4,r2
        0x00000b2c:    9a07        ..      LDR      r2,[sp,#0x1c]
        0x00000b2e:    0d91        ..      LSRS     r1,r2,#22
        0x00000b30:    0292        ..      LSLS     r2,r2,#10
        0x00000b32:    1955        U.      ADDS     r5,r2,r5
        0x00000b34:    4161        aA      ADCS     r1,r1,r4
        0x00000b36:    9a02        ..      LDR      r2,[sp,#8]
        0x00000b38:    4664        dF      MOV      r4,r12
        0x00000b3a:    4358        XC      MULS     r0,r3,r0
        0x00000b3c:    4354        TC      MULS     r4,r2,r4
        0x00000b3e:    9b06        ..      LDR      r3,[sp,#0x18]
        0x00000b40:    9a05        ..      LDR      r2,[sp,#0x14]
        0x00000b42:    435a        ZC      MULS     r2,r3,r2
        0x00000b44:    1a12        ..      SUBS     r2,r2,r0
        0x00000b46:    1b13        ..      SUBS     r3,r2,r4
        0x00000b48:    0e9a        ..      LSRS     r2,r3,#26
        0x00000b4a:    019b        ..      LSLS     r3,r3,#6
        0x00000b4c:    185b        [.      ADDS     r3,r3,r1
        0x00000b4e:    417a        zA      ADCS     r2,r2,r7
        0x00000b50:    0b01        ..      LSRS     r1,r0,#12
        0x00000b52:    0500        ..      LSLS     r0,r0,#20
        0x00000b54:    18c3        ..      ADDS     r3,r0,r3
        0x00000b56:    4151        QA      ADCS     r1,r1,r2
        0x00000b58:    0a22        ".      LSRS     r2,r4,#8
        0x00000b5a:    0620         .      LSLS     r0,r4,#24
        0x00000b5c:    1944        D.      ADDS     r4,r0,r5
        0x00000b5e:    415a        ZA      ADCS     r2,r2,r3
        0x00000b60:    429a        .B      CMP      r2,r3
        0x00000b62:    d200        ..      BCS      0xb66 ; __aeabi_dmul + 358
        0x00000b64:    1c49        I.      ADDS     r1,r1,#1
        0x00000b66:    2001        .       MOVS     r0,#1
        0x00000b68:    0240        @.      LSLS     r0,r0,#9
        0x00000b6a:    4281        .B      CMP      r1,r0
        0x00000b6c:    d303        ..      BCC      0xb76 ; __aeabi_dmul + 374
        0x00000b6e:    2315        .#      MOVS     r3,#0x15
        0x00000b70:    2602        .&      MOVS     r6,#2
        0x00000b72:    43f6        .C      MVNS     r6,r6
        0x00000b74:    e002        ..      B        0xb7c ; __aeabi_dmul + 380
        0x00000b76:    2314        .#      MOVS     r3,#0x14
        0x00000b78:    2603        .&      MOVS     r6,#3
        0x00000b7a:    43f6        .C      MVNS     r6,r6
        0x00000b7c:    2020                MOVS     r0,#0x20
        0x00000b7e:    1ac5        ..      SUBS     r5,r0,r3
        0x00000b80:    40a9        .@      LSLS     r1,r1,r5
        0x00000b82:    4617        .F      MOV      r7,r2
        0x00000b84:    40af        .@      LSLS     r7,r7,r5
        0x00000b86:    40da        .@      LSRS     r2,r2,r3
        0x00000b88:    430a        .C      ORRS     r2,r2,r1
        0x00000b8a:    4620         F      MOV      r0,r4
        0x00000b8c:    9903        ..      LDR      r1,[sp,#0xc]
        0x00000b8e:    40d8        .@      LSRS     r0,r0,r3
        0x00000b90:    1409        ..      ASRS     r1,r1,#16
        0x00000b92:    1873        s.      ADDS     r3,r6,r1
        0x00000b94:    0519        ..      LSLS     r1,r3,#20
        0x00000b96:    1851        Q.      ADDS     r1,r2,r1
        0x00000b98:    9a03        ..      LDR      r2,[sp,#0xc]
        0x00000b9a:    4338        8C      ORRS     r0,r0,r7
        0x00000b9c:    07d2        ..      LSLS     r2,r2,#31
        0x00000b9e:    4051        Q@      EORS     r1,r1,r2
        0x00000ba0:    40ac        .@      LSLS     r4,r4,r5
        0x00000ba2:    d009        ..      BEQ      0xbb8 ; __aeabi_dmul + 440
        0x00000ba4:    2201        ."      MOVS     r2,#1
        0x00000ba6:    4094        .@      LSLS     r4,r4,r2
        0x00000ba8:    d306        ..      BCC      0xbb8 ; __aeabi_dmul + 440
        0x00000baa:    2200        ."      MOVS     r2,#0
        0x00000bac:    1c40        @.      ADDS     r0,r0,#1
        0x00000bae:    4151        QA      ADCS     r1,r1,r2
        0x00000bb0:    2c00        .,      CMP      r4,#0
        0x00000bb2:    d101        ..      BNE      0xbb8 ; __aeabi_dmul + 440
        0x00000bb4:    0840        @.      LSRS     r0,r0,#1
        0x00000bb6:    0040        @.      LSLS     r0,r0,#1
        0x00000bb8:    4a1e        .J      LDR      r2,[pc,#120] ; [0xc34] = 0x7fe
        0x00000bba:    4293        .B      CMP      r3,r2
        0x00000bbc:    d312        ..      BCC      0xbe4 ; __aeabi_dmul + 484
        0x00000bbe:    2201        ."      MOVS     r2,#1
        0x00000bc0:    9803        ..      LDR      r0,[sp,#0xc]
        0x00000bc2:    0692        ..      LSLS     r2,r2,#26
        0x00000bc4:    4290        .B      CMP      r0,r2
        0x00000bc6:    db07        ..      BLT      0xbd8 ; __aeabi_dmul + 472
        0x00000bc8:    2005        .       MOVS     r0,#5
        0x00000bca:    0740        @.      LSLS     r0,r0,#29
        0x00000bcc:    1809        ..      ADDS     r1,r1,r0
        0x00000bce:    481a        .H      LDR      r0,[pc,#104] ; [0xc38] = 0x7fffffff
        0x00000bd0:    4301        .C      ORRS     r1,r1,r0
        0x00000bd2:    12c0        ..      ASRS     r0,r0,#11
        0x00000bd4:    4041        A@      EORS     r1,r1,r0
        0x00000bd6:    e004        ..      B        0xbe2 ; __aeabi_dmul + 482
        0x00000bd8:    2003        .       MOVS     r0,#3
        0x00000bda:    0740        @.      LSLS     r0,r0,#29
        0x00000bdc:    1808        ..      ADDS     r0,r1,r0
        0x00000bde:    0fc1        ..      LSRS     r1,r0,#31
        0x00000be0:    07c9        ..      LSLS     r1,r1,#31
        0x00000be2:    2000        .       MOVS     r0,#0
        0x00000be4:    b009        ..      ADD      sp,sp,#0x24
        0x00000be6:    bdf0        ..      POP      {r4-r7,pc}
        0x00000be8:    2000        .       MOVS     r0,#0
        0x00000bea:    07f1        ..      LSLS     r1,r6,#31
        0x00000bec:    e7fa        ..      B        0xbe4 ; __aeabi_dmul + 484
        0x00000bee:    1805        ..      ADDS     r5,r0,r0
        0x00000bf0:    460c        .F      MOV      r4,r1
        0x00000bf2:    414c        LA      ADCS     r4,r4,r1
        0x00000bf4:    4811        .H      LDR      r0,[pc,#68] ; [0xc3c] = 0xffe00000
        0x00000bf6:    426d        mB      RSBS     r5,r5,#0
        0x00000bf8:    41a0        .A      SBCS     r0,r0,r4
        0x00000bfa:    d315        ..      BCC      0xc28 ; __aeabi_dmul + 552
        0x00000bfc:    1894        ..      ADDS     r4,r2,r2
        0x00000bfe:    461a        .F      MOV      r2,r3
        0x00000c00:    415a        ZA      ADCS     r2,r2,r3
        0x00000c02:    480e        .H      LDR      r0,[pc,#56] ; [0xc3c] = 0xffe00000
        0x00000c04:    4264        dB      RSBS     r4,r4,#0
        0x00000c06:    4190        .A      SBCS     r0,r0,r2
        0x00000c08:    d30e        ..      BCC      0xc28 ; __aeabi_dmul + 552
        0x00000c0a:    2001        .       MOVS     r0,#1
        0x00000c0c:    004a        J.      LSLS     r2,r1,#1
        0x00000c0e:    0540        @.      LSLS     r0,r0,#21
        0x00000c10:    4282        .B      CMP      r2,r0
        0x00000c12:    d309        ..      BCC      0xc28 ; __aeabi_dmul + 552
        0x00000c14:    005a        Z.      LSLS     r2,r3,#1
        0x00000c16:    4282        .B      CMP      r2,r0
        0x00000c18:    d306        ..      BCC      0xc28 ; __aeabi_dmul + 552
        0x00000c1a:    4059        Y@      EORS     r1,r1,r3
        0x00000c1c:    0fc9        ..      LSRS     r1,r1,#31
        0x00000c1e:    4a08        .J      LDR      r2,[pc,#32] ; [0xc40] = 0x7ff00000
        0x00000c20:    07c9        ..      LSLS     r1,r1,#31
        0x00000c22:    2000        .       MOVS     r0,#0
        0x00000c24:    4311        .C      ORRS     r1,r1,r2
        0x00000c26:    e7dd        ..      B        0xbe4 ; __aeabi_dmul + 484
        0x00000c28:    2000        .       MOVS     r0,#0
        0x00000c2a:    4906        .I      LDR      r1,[pc,#24] ; [0xc44] = 0x7ff80000
        0x00000c2c:    e7da        ..      B        0xbe4 ; __aeabi_dmul + 484
    $d
        0x00000c2e:    0000        ..      DCW    0
        0x00000c30:    07ff0000    ....    DCD    134152192
        0x00000c34:    000007fe    ....    DCD    2046
        0x00000c38:    7fffffff    ....    DCD    2147483647
        0x00000c3c:    ffe00000    ....    DCD    4292870144
        0x00000c40:    7ff00000    ....    DCD    2146435072
        0x00000c44:    7ff80000    ....    DCD    2146959360
    $t
    .text
    __ARM_scalbn
        0x00000c48:    b570        p.      PUSH     {r4-r6,lr}
        0x00000c4a:    4605        .F      MOV      r5,r0
        0x00000c4c:    0048        H.      LSLS     r0,r1,#1
        0x00000c4e:    0d44        D.      LSRS     r4,r0,#21
        0x00000c50:    4b12        .K      LDR      r3,[pc,#72] ; [0xc9c] = 0x7ff
        0x00000c52:    2000        .       MOVS     r0,#0
        0x00000c54:    2c00        .,      CMP      r4,#0
        0x00000c56:    d00a        ..      BEQ      0xc6e ; __ARM_scalbn + 38
        0x00000c58:    4063        c@      EORS     r3,r3,r4
        0x00000c5a:    d008        ..      BEQ      0xc6e ; __ARM_scalbn + 38
        0x00000c5c:    429a        .B      CMP      r2,r3
        0x00000c5e:    da06        ..      BGE      0xc6e ; __ARM_scalbn + 38
        0x00000c60:    4266        fB      RSBS     r6,r4,#0
        0x00000c62:    42b2        .B      CMP      r2,r6
        0x00000c64:    dd03        ..      BLE      0xc6e ; __ARM_scalbn + 38
        0x00000c66:    0512        ..      LSLS     r2,r2,#20
        0x00000c68:    1940        @.      ADDS     r0,r0,r5
        0x00000c6a:    4151        QA      ADCS     r1,r1,r2
        0x00000c6c:    bd70        p.      POP      {r4-r6,pc}
        0x00000c6e:    2c00        .,      CMP      r4,#0
        0x00000c70:    d008        ..      BEQ      0xc84 ; __ARM_scalbn + 60
        0x00000c72:    2b00        .+      CMP      r3,#0
        0x00000c74:    d009        ..      BEQ      0xc8a ; __ARM_scalbn + 66
        0x00000c76:    0fc9        ..      LSRS     r1,r1,#31
        0x00000c78:    07c9        ..      LSLS     r1,r1,#31
        0x00000c7a:    2a00        .*      CMP      r2,#0
        0x00000c7c:    dbf6        ..      BLT      0xc6c ; __ARM_scalbn + 36
        0x00000c7e:    4a08        .J      LDR      r2,[pc,#32] ; [0xca0] = 0x7ff00000
        0x00000c80:    4311        .C      ORRS     r1,r1,r2
        0x00000c82:    bd70        p.      POP      {r4-r6,pc}
        0x00000c84:    0fc9        ..      LSRS     r1,r1,#31
        0x00000c86:    07c9        ..      LSLS     r1,r1,#31
        0x00000c88:    bd70        p.      POP      {r4-r6,pc}
        0x00000c8a:    4628        (F      MOV      r0,r5
        0x00000c8c:    030a        ..      LSLS     r2,r1,#12
        0x00000c8e:    4310        .C      ORRS     r0,r0,r2
        0x00000c90:    d002        ..      BEQ      0xc98 ; __ARM_scalbn + 80
        0x00000c92:    2000        .       MOVS     r0,#0
        0x00000c94:    4903        .I      LDR      r1,[pc,#12] ; [0xca4] = 0x7ff80000
        0x00000c96:    bd70        p.      POP      {r4-r6,pc}
        0x00000c98:    4628        (F      MOV      r0,r5
        0x00000c9a:    bd70        p.      POP      {r4-r6,pc}
    $d
        0x00000c9c:    000007ff    ....    DCD    2047
        0x00000ca0:    7ff00000    ....    DCD    2146435072
        0x00000ca4:    7ff80000    ....    DCD    2146959360
    $t
    .text
    __aeabi_f2d
    _f2d
        0x00000ca8:    2101        .!      MOVS     r1,#1
        0x00000caa:    05c9        ..      LSLS     r1,r1,#23
        0x00000cac:    2301        .#      MOVS     r3,#1
        0x00000cae:    1841        A.      ADDS     r1,r0,r1
        0x00000cb0:    0042        B.      LSLS     r2,r0,#1
        0x00000cb2:    061b        ..      LSLS     r3,r3,#24
        0x00000cb4:    18d3        ..      ADDS     r3,r2,r3
        0x00000cb6:    0e5b        [.      LSRS     r3,r3,#25
        0x00000cb8:    d00a        ..      BEQ      0xcd0 ; __aeabi_f2d + 40
        0x00000cba:    10c1        ..      ASRS     r1,r0,#3
        0x00000cbc:    2207        ."      MOVS     r2,#7
        0x00000cbe:    06d2        ..      LSLS     r2,r2,#27
        0x00000cc0:    1889        ..      ADDS     r1,r1,r2
        0x00000cc2:    0740        @.      LSLS     r0,r0,#29
        0x00000cc4:    4252        RB      RSBS     r2,r2,#0
        0x00000cc6:    42d1        .B      CMN      r1,r2
        0x00000cc8:    d501        ..      BPL      0xcce ; __aeabi_f2d + 38
        0x00000cca:    0052        R.      LSLS     r2,r2,#1
        0x00000ccc:    1889        ..      ADDS     r1,r1,r2
        0x00000cce:    4770        pG      BX       lr
        0x00000cd0:    0209        ..      LSLS     r1,r1,#8
        0x00000cd2:    d508        ..      BPL      0xce6 ; __aeabi_f2d + 62
        0x00000cd4:    4601        .F      MOV      r1,r0
        0x00000cd6:    2a00        .*      CMP      r2,#0
        0x00000cd8:    d003        ..      BEQ      0xce2 ; __aeabi_f2d + 58
        0x00000cda:    0fc1        ..      LSRS     r1,r0,#31
        0x00000cdc:    07c9        ..      LSLS     r1,r1,#31
        0x00000cde:    2000        .       MOVS     r0,#0
        0x00000ce0:    4770        pG      BX       lr
        0x00000ce2:    4610        .F      MOV      r0,r2
        0x00000ce4:    4770        pG      BX       lr
        0x00000ce6:    0242        B.      LSLS     r2,r0,#9
        0x00000ce8:    d002        ..      BEQ      0xcf0 ; __aeabi_f2d + 72
        0x00000cea:    2000        .       MOVS     r0,#0
        0x00000cec:    4902        .I      LDR      r1,[pc,#8] ; [0xcf8] = 0x7ff80000
        0x00000cee:    4770        pG      BX       lr
        0x00000cf0:    2107        .!      MOVS     r1,#7
        0x00000cf2:    0509        ..      LSLS     r1,r1,#20
        0x00000cf4:    4301        .C      ORRS     r1,r1,r0
        0x00000cf6:    e7f4        ..      B        0xce2 ; __aeabi_f2d + 58
    $d
        0x00000cf8:    7ff80000    ....    DCD    2146959360
    $t
    .text
    __aeabi_i2f_normalise
        0x00000cfc:    221f        ."      MOVS     r2,#0x1f
        0x00000cfe:    0c03        ..      LSRS     r3,r0,#16
        0x00000d00:    d102        ..      BNE      0xd08 ; __aeabi_i2f_normalise + 12
        0x00000d02:    220f        ."      MOVS     r2,#0xf
        0x00000d04:    0400        ..      LSLS     r0,r0,#16
        0x00000d06:    d01c        ..      BEQ      0xd42 ; __aeabi_i2f_normalise + 70
        0x00000d08:    0e03        ..      LSRS     r3,r0,#24
        0x00000d0a:    d101        ..      BNE      0xd10 ; __aeabi_i2f_normalise + 20
        0x00000d0c:    0200        ..      LSLS     r0,r0,#8
        0x00000d0e:    3a08        .:      SUBS     r2,r2,#8
        0x00000d10:    0f03        ..      LSRS     r3,r0,#28
        0x00000d12:    d101        ..      BNE      0xd18 ; __aeabi_i2f_normalise + 28
        0x00000d14:    0100        ..      LSLS     r0,r0,#4
        0x00000d16:    1f12        ..      SUBS     r2,r2,#4
        0x00000d18:    0f83        ..      LSRS     r3,r0,#30
        0x00000d1a:    d101        ..      BNE      0xd20 ; __aeabi_i2f_normalise + 36
        0x00000d1c:    0080        ..      LSLS     r0,r0,#2
        0x00000d1e:    1e92        ..      SUBS     r2,r2,#2
        0x00000d20:    2800        .(      CMP      r0,#0
        0x00000d22:    db01        ..      BLT      0xd28 ; __aeabi_i2f_normalise + 44
        0x00000d24:    0040        @.      LSLS     r0,r0,#1
        0x00000d26:    1e52        R.      SUBS     r2,r2,#1
        0x00000d28:    05d2        ..      LSLS     r2,r2,#23
        0x00000d2a:    1851        Q.      ADDS     r1,r2,r1
        0x00000d2c:    1202        ..      ASRS     r2,r0,#8
        0x00000d2e:    1851        Q.      ADDS     r1,r2,r1
        0x00000d30:    2219        ."      MOVS     r2,#0x19
        0x00000d32:    4090        .@      LSLS     r0,r0,r2
        0x00000d34:    d304        ..      BCC      0xd40 ; __aeabi_i2f_normalise + 68
        0x00000d36:    1c49        I.      ADDS     r1,r1,#1
        0x00000d38:    2800        .(      CMP      r0,#0
        0x00000d3a:    d101        ..      BNE      0xd40 ; __aeabi_i2f_normalise + 68
        0x00000d3c:    0849        I.      LSRS     r1,r1,#1
        0x00000d3e:    0049        I.      LSLS     r1,r1,#1
        0x00000d40:    4608        .F      MOV      r0,r1
        0x00000d42:    4770        pG      BX       lr
    __aeabi_i2f
    _fflt
        0x00000d44:    0fc1        ..      LSRS     r1,r0,#31
        0x00000d46:    07c9        ..      LSLS     r1,r1,#31
        0x00000d48:    d000        ..      BEQ      0xd4c ; __aeabi_i2f + 8
        0x00000d4a:    4240        @B      RSBS     r0,r0,#0
        0x00000d4c:    2201        ."      MOVS     r2,#1
        0x00000d4e:    0792        ..      LSLS     r2,r2,#30
        0x00000d50:    4311        .C      ORRS     r1,r1,r2
        0x00000d52:    e7d3        ..      B        __aeabi_i2f_normalise ; 0xcfc
    __aeabi_ui2f
    _ffltu
        0x00000d54:    2101        .!      MOVS     r1,#1
        0x00000d56:    0789        ..      LSLS     r1,r1,#30
        0x00000d58:    e7d0        ..      B        __aeabi_i2f_normalise ; 0xcfc
    .text
    __aeabi_errno_addr
    __errno$twolibspace
    __rt_errno_addr$twolibspace
        0x00000d5a:    b510        ..      PUSH     {r4,lr}
        0x00000d5c:    f002fc0e    ....    BL       __user_perthread_libspace ; 0x357c
        0x00000d60:    bd10        ..      POP      {r4,pc}
    .text
    _printf_int_common
        0x00000d62:    b5ff        ..      PUSH     {r0-r7,lr}
        0x00000d64:    4604        .F      MOV      r4,r0
        0x00000d66:    460d        .F      MOV      r5,r1
        0x00000d68:    b081        ..      SUB      sp,sp,#4
        0x00000d6a:    3024        $0      ADDS     r0,r0,#0x24
        0x00000d6c:    9000        ..      STR      r0,[sp,#0]
        0x00000d6e:    6821        !h      LDR      r1,[r4,#0]
        0x00000d70:    0688        ..      LSLS     r0,r1,#26
        0x00000d72:    d504        ..      BPL      0xd7e ; _printf_int_common + 28
        0x00000d74:    2210        ."      MOVS     r2,#0x10
        0x00000d76:    69e0        .i      LDR      r0,[r4,#0x1c]
        0x00000d78:    4391        .C      BICS     r1,r1,r2
        0x00000d7a:    6021        !`      STR      r1,[r4,#0]
        0x00000d7c:    e000        ..      B        0xd80 ; _printf_int_common + 30
        0x00000d7e:    2001        .       MOVS     r0,#1
        0x00000d80:    42a8        .B      CMP      r0,r5
        0x00000d82:    dd01        ..      BLE      0xd88 ; _printf_int_common + 38
        0x00000d84:    1b47        G.      SUBS     r7,r0,r5
        0x00000d86:    e000        ..      B        0xd8a ; _printf_int_common + 40
        0x00000d88:    2700        .'      MOVS     r7,#0
        0x00000d8a:    9804        ..      LDR      r0,[sp,#0x10]
        0x00000d8c:    69a1        .i      LDR      r1,[r4,#0x18]
        0x00000d8e:    197a        z.      ADDS     r2,r7,r5
        0x00000d90:    1810        ..      ADDS     r0,r2,r0
        0x00000d92:    1a08        ..      SUBS     r0,r1,r0
        0x00000d94:    61a0        .a      STR      r0,[r4,#0x18]
        0x00000d96:    7820         x      LDRB     r0,[r4,#0]
        0x00000d98:    06c0        ..      LSLS     r0,r0,#27
        0x00000d9a:    d402        ..      BMI      0xda2 ; _printf_int_common + 64
        0x00000d9c:    4620         F      MOV      r0,r4
        0x00000d9e:    46c0        .F      MOV      r8,r8
        0x00000da0:    46c0        .F      MOV      r8,r8
        0x00000da2:    2600        .&      MOVS     r6,#0
        0x00000da4:    e008        ..      B        0xdb8 ; _printf_int_common + 86
        0x00000da6:    9803        ..      LDR      r0,[sp,#0xc]
        0x00000da8:    6862        bh      LDR      r2,[r4,#4]
        0x00000daa:    68a1        .h      LDR      r1,[r4,#8]
        0x00000dac:    5d80        .]      LDRB     r0,[r0,r6]
        0x00000dae:    4790        .G      BLX      r2
        0x00000db0:    6a20         j      LDR      r0,[r4,#0x20]
        0x00000db2:    1c40        @.      ADDS     r0,r0,#1
        0x00000db4:    1c76        v.      ADDS     r6,r6,#1
        0x00000db6:    6220         b      STR      r0,[r4,#0x20]
        0x00000db8:    9804        ..      LDR      r0,[sp,#0x10]
        0x00000dba:    4286        .B      CMP      r6,r0
        0x00000dbc:    dbf3        ..      BLT      0xda6 ; _printf_int_common + 68
        0x00000dbe:    7820         x      LDRB     r0,[r4,#0]
        0x00000dc0:    06c0        ..      LSLS     r0,r0,#27
        0x00000dc2:    d50a        ..      BPL      0xdda ; _printf_int_common + 120
        0x00000dc4:    4620         F      MOV      r0,r4
        0x00000dc6:    46c0        .F      MOV      r8,r8
        0x00000dc8:    46c0        .F      MOV      r8,r8
        0x00000dca:    e006        ..      B        0xdda ; _printf_int_common + 120
        0x00000dcc:    6862        bh      LDR      r2,[r4,#4]
        0x00000dce:    68a1        .h      LDR      r1,[r4,#8]
        0x00000dd0:    2030        0       MOVS     r0,#0x30
        0x00000dd2:    4790        .G      BLX      r2
        0x00000dd4:    6a20         j      LDR      r0,[r4,#0x20]
        0x00000dd6:    1c40        @.      ADDS     r0,r0,#1
        0x00000dd8:    6220         b      STR      r0,[r4,#0x20]
        0x00000dda:    4638        8F      MOV      r0,r7
        0x00000ddc:    1e7f        ..      SUBS     r7,r7,#1
        0x00000dde:    2800        .(      CMP      r0,#0
        0x00000de0:    dcf4        ..      BGT      0xdcc ; _printf_int_common + 106
        0x00000de2:    e007        ..      B        0xdf4 ; _printf_int_common + 146
        0x00000de4:    9800        ..      LDR      r0,[sp,#0]
        0x00000de6:    6862        bh      LDR      r2,[r4,#4]
        0x00000de8:    68a1        .h      LDR      r1,[r4,#8]
        0x00000dea:    5d40        @]      LDRB     r0,[r0,r5]
        0x00000dec:    4790        .G      BLX      r2
        0x00000dee:    6a20         j      LDR      r0,[r4,#0x20]
        0x00000df0:    1c40        @.      ADDS     r0,r0,#1
        0x00000df2:    6220         b      STR      r0,[r4,#0x20]
        0x00000df4:    4628        (F      MOV      r0,r5
        0x00000df6:    1e6d        m.      SUBS     r5,r5,#1
        0x00000df8:    2800        .(      CMP      r0,#0
        0x00000dfa:    dcf3        ..      BGT      0xde4 ; _printf_int_common + 130
        0x00000dfc:    4620         F      MOV      r0,r4
        0x00000dfe:    46c0        .F      MOV      r8,r8
        0x00000e00:    46c0        .F      MOV      r8,r8
        0x00000e02:    7820         x      LDRB     r0,[r4,#0]
        0x00000e04:    0600        ..      LSLS     r0,r0,#24
        0x00000e06:    d502        ..      BPL      0xe0e ; _printf_int_common + 172
        0x00000e08:    2002        .       MOVS     r0,#2
        0x00000e0a:    b005        ..      ADD      sp,sp,#0x14
        0x00000e0c:    bdf0        ..      POP      {r4-r7,pc}
        0x00000e0e:    2001        .       MOVS     r0,#1
        0x00000e10:    e7fb        ..      B        0xe0a ; _printf_int_common + 168
        0x00000e12:    0000        ..      MOVS     r0,r0
    .text
    __lib_sel_fp_printf
        0x00000e14:    4770        pG      BX       lr
    _fp_digits
        0x00000e16:    b5ff        ..      PUSH     {r0-r7,lr}
        0x00000e18:    460c        .F      MOV      r4,r1
        0x00000e1a:    461e        .F      MOV      r6,r3
        0x00000e1c:    b08f        ..      SUB      sp,sp,#0x3c
        0x00000e1e:    ca03        ..      LDM      r2!,{r0,r1}
        0x00000e20:    9008        ..      STR      r0,[sp,#0x20]
        0x00000e22:    9109        ..      STR      r1,[sp,#0x24]
        0x00000e24:    004f        O.      LSLS     r7,r1,#1
        0x00000e26:    0d7d        }.      LSRS     r5,r7,#21
        0x00000e28:    d100        ..      BNE      0xe2c ; _fp_digits + 22
        0x00000e2a:    1e6d        m.      SUBS     r5,r5,#1
        0x00000e2c:    2100        .!      MOVS     r1,#0
        0x00000e2e:    4608        .F      MOV      r0,r1
        0x00000e30:    2000        .       MOVS     r0,#0
        0x00000e32:    46c0        .F      MOV      r8,r8
        0x00000e34:    2103        .!      MOVS     r1,#3
        0x00000e36:    9a09        ..      LDR      r2,[sp,#0x24]
        0x00000e38:    0589        ..      LSLS     r1,r1,#22
        0x00000e3a:    4008        .@      ANDS     r0,r0,r1
        0x00000e3c:    2a00        .*      CMP      r2,#0
        0x00000e3e:    da03        ..      BGE      0xe48 ; _fp_digits + 50
        0x00000e40:    0082        ..      LSLS     r2,r0,#2
        0x00000e42:    1880        ..      ADDS     r0,r0,r2
        0x00000e44:    0840        @.      LSRS     r0,r0,#1
        0x00000e46:    4008        .@      ANDS     r0,r0,r1
        0x00000e48:    0d80        ..      LSRS     r0,r0,#22
        0x00000e4a:    2801        .(      CMP      r0,#1
        0x00000e4c:    900a        ..      STR      r0,[sp,#0x28]
        0x00000e4e:    dd02        ..      BLE      0xe56 ; _fp_digits + 64
        0x00000e50:    2000        .       MOVS     r0,#0
        0x00000e52:    43c0        .C      MVNS     r0,r0
        0x00000e54:    900a        ..      STR      r0,[sp,#0x28]
        0x00000e56:    9808        ..      LDR      r0,[sp,#0x20]
        0x00000e58:    4307        .C      ORRS     r7,r7,r0
        0x00000e5a:    d00d        ..      BEQ      0xe78 ; _fp_digits + 98
        0x00000e5c:    48f0        .H      LDR      r0,[pc,#960] ; [0x1220] = 0xfffffc01
        0x00000e5e:    49f1        .I      LDR      r1,[pc,#964] ; [0x1224] = 0x4d10
        0x00000e60:    1828        (.      ADDS     r0,r5,r0
        0x00000e62:    4348        HC      MULS     r0,r1,r0
        0x00000e64:    1407        ..      ASRS     r7,r0,#16
        0x00000e66:    9818        ..      LDR      r0,[sp,#0x60]
        0x00000e68:    2800        .(      CMP      r0,#0
        0x00000e6a:    d01d        ..      BEQ      0xea8 ; _fp_digits + 146
        0x00000e6c:    4275        uB      RSBS     r5,r6,#0
        0x00000e6e:    1e29        ).      SUBS     r1,r5,#0
        0x00000e70:    dd1d        ..      BLE      0xeae ; _fp_digits + 152
        0x00000e72:    980a        ..      LDR      r0,[sp,#0x28]
        0x00000e74:    4242        BB      RSBS     r2,r0,#0
        0x00000e76:    e01b        ..      B        0xeb0 ; _fp_digits + 154
        0x00000e78:    9818        ..      LDR      r0,[sp,#0x60]
        0x00000e7a:    2801        .(      CMP      r0,#1
        0x00000e7c:    d002        ..      BEQ      0xe84 ; _fp_digits + 110
        0x00000e7e:    2000        .       MOVS     r0,#0
        0x00000e80:    2130        0!      MOVS     r1,#0x30
        0x00000e82:    e004        ..      B        0xe8e ; _fp_digits + 120
        0x00000e84:    2000        .       MOVS     r0,#0
        0x00000e86:    43f2        .C      MVNS     r2,r6
        0x00000e88:    e005        ..      B        0xe96 ; _fp_digits + 128
        0x00000e8a:    5421        !T      STRB     r1,[r4,r0]
        0x00000e8c:    1c40        @.      ADDS     r0,r0,#1
        0x00000e8e:    42b0        .B      CMP      r0,r6
        0x00000e90:    dbfb        ..      BLT      0xe8a ; _fp_digits + 116
        0x00000e92:    4630        0F      MOV      r0,r6
        0x00000e94:    2200        ."      MOVS     r2,#0
        0x00000e96:    9b18        ..      LDR      r3,[sp,#0x60]
        0x00000e98:    2100        .!      MOVS     r1,#0
        0x00000e9a:    5421        !T      STRB     r1,[r4,r0]
        0x00000e9c:    990f        ..      LDR      r1,[sp,#0x3c]
        0x00000e9e:    608b        .`      STR      r3,[r1,#8]
        0x00000ea0:    600a        .`      STR      r2,[r1,#0]
        0x00000ea2:    6048        H`      STR      r0,[r1,#4]
        0x00000ea4:    b013        ..      ADD      sp,sp,#0x4c
        0x00000ea6:    bdf0        ..      POP      {r4-r7,pc}
        0x00000ea8:    1bbd        ..      SUBS     r5,r7,r6
        0x00000eaa:    1c6d        m.      ADDS     r5,r5,#1
        0x00000eac:    e7df        ..      B        0xe6e ; _fp_digits + 88
        0x00000eae:    9a0a        ..      LDR      r2,[sp,#0x28]
        0x00000eb0:    2900        .)      CMP      r1,#0
        0x00000eb2:    da00        ..      BGE      0xeb6 ; _fp_digits + 160
        0x00000eb4:    4269        iB      RSBS     r1,r5,#0
        0x00000eb6:    a80b        ..      ADD      r0,sp,#0x2c
        0x00000eb8:    f000fb2e    ....    BL       _btod_etento ; 0x1518
        0x00000ebc:    ab0b        ..      ADD      r3,sp,#0x2c
        0x00000ebe:    cb07        ..      LDM      r3!,{r0-r2}
        0x00000ec0:    ab03        ..      ADD      r3,sp,#0xc
        0x00000ec2:    c307        ..      STM      r3!,{r0-r2}
        0x00000ec4:    9908        ..      LDR      r1,[sp,#0x20]
        0x00000ec6:    9809        ..      LDR      r0,[sp,#0x24]
        0x00000ec8:    f000fb92    ....    BL       _btod_d2e ; 0x15f0
        0x00000ecc:    466b        kF      MOV      r3,sp
        0x00000ece:    c307        ..      STM      r3!,{r0-r2}
        0x00000ed0:    4601        .F      MOV      r1,r0
        0x00000ed2:    48d5        .H      LDR      r0,[pc,#852] ; [0x1228] = 0xffffdfe1
        0x00000ed4:    1809        ..      ADDS     r1,r1,r0
        0x00000ed6:    2d00        .-      CMP      r5,#0
        0x00000ed8:    9100        ..      STR      r1,[sp,#0]
        0x00000eda:    dd0b        ..      BLE      0xef4 ; _fp_digits + 222
        0x00000edc:    49d2        .I      LDR      r1,[pc,#840] ; [0x1228] = 0xffffdfe1
        0x00000ede:    9803        ..      LDR      r0,[sp,#0xc]
        0x00000ee0:    9a0a        ..      LDR      r2,[sp,#0x28]
        0x00000ee2:    4249        IB      RSBS     r1,r1,#0
        0x00000ee4:    1840        @.      ADDS     r0,r0,r1
        0x00000ee6:    2300        .#      MOVS     r3,#0
        0x00000ee8:    a903        ..      ADD      r1,sp,#0xc
        0x00000eea:    9003        ..      STR      r0,[sp,#0xc]
        0x00000eec:    4668        hF      MOV      r0,sp
        0x00000eee:    f000fdef    ....    BL       _btod_ediv ; 0x1ad0
        0x00000ef2:    e008        ..      B        0xf06 ; _fp_digits + 240
        0x00000ef4:    9903        ..      LDR      r1,[sp,#0xc]
        0x00000ef6:    9a0a        ..      LDR      r2,[sp,#0x28]
        0x00000ef8:    2300        .#      MOVS     r3,#0
        0x00000efa:    1808        ..      ADDS     r0,r1,r0
        0x00000efc:    a903        ..      ADD      r1,sp,#0xc
        0x00000efe:    9003        ..      STR      r0,[sp,#0xc]
        0x00000f00:    4668        hF      MOV      r0,sp
        0x00000f02:    f000fd8f    ....    BL       _btod_emul ; 0x1a24
        0x00000f06:    466b        kF      MOV      r3,sp
        0x00000f08:    c307        ..      STM      r3!,{r0-r2}
        0x00000f0a:    0400        ..      LSLS     r0,r0,#16
        0x00000f0c:    0c00        ..      LSRS     r0,r0,#16
        0x00000f0e:    d003        ..      BEQ      0xf18 ; _fp_digits + 258
        0x00000f10:    2000        .       MOVS     r0,#0
        0x00000f12:    43c0        .C      MVNS     r0,r0
        0x00000f14:    0841        A.      LSRS     r1,r0,#1
        0x00000f16:    e000        ..      B        0xf1a ; _fp_digits + 260
        0x00000f18:    4610        .F      MOV      r0,r2
        0x00000f1a:    9a18        ..      LDR      r2,[sp,#0x60]
        0x00000f1c:    2a00        .*      CMP      r2,#0
        0x00000f1e:    d003        ..      BEQ      0xf28 ; _fp_digits + 274
        0x00000f20:    2200        ."      MOVS     r2,#0
        0x00000f22:    9200        ..      STR      r2,[sp,#0]
        0x00000f24:    4615        .F      MOV      r5,r2
        0x00000f26:    e01e        ..      B        0xf66 ; _fp_digits + 336
        0x00000f28:    1e75        u.      SUBS     r5,r6,#1
        0x00000f2a:    d405        ..      BMI      0xf38 ; _fp_digits + 290
        0x00000f2c:    f000fa1f    ....    BL       _ll_udiv10 ; 0x136e
        0x00000f30:    3230        02      ADDS     r2,r2,#0x30
        0x00000f32:    5562        bU      STRB     r2,[r4,r5]
        0x00000f34:    1e6d        m.      SUBS     r5,r5,#1
        0x00000f36:    d5f9        ..      BPL      0xf2c ; _fp_digits + 278
        0x00000f38:    2201        ."      MOVS     r2,#1
        0x00000f3a:    4308        .C      ORRS     r0,r0,r1
        0x00000f3c:    9607        ..      STR      r6,[sp,#0x1c]
        0x00000f3e:    d002        ..      BEQ      0xf46 ; _fp_digits + 304
        0x00000f40:    2200        ."      MOVS     r2,#0
        0x00000f42:    1c7f        ..      ADDS     r7,r7,#1
        0x00000f44:    e004        ..      B        0xf50 ; _fp_digits + 314
        0x00000f46:    7820         x      LDRB     r0,[r4,#0]
        0x00000f48:    2830        0(      CMP      r0,#0x30
        0x00000f4a:    d101        ..      BNE      0xf50 ; _fp_digits + 314
        0x00000f4c:    2200        ."      MOVS     r2,#0
        0x00000f4e:    1e7f        ..      SUBS     r7,r7,#1
        0x00000f50:    2a00        .*      CMP      r2,#0
        0x00000f52:    9706        ..      STR      r7,[sp,#0x18]
        0x00000f54:    d087        ..      BEQ      0xe66 ; _fp_digits + 80
        0x00000f56:    e01e        ..      B        0xf96 ; _fp_digits + 384
        0x00000f58:    2d11        .-      CMP      r5,#0x11
        0x00000f5a:    da07        ..      BGE      0xf6c ; _fp_digits + 342
        0x00000f5c:    f000fa07    ....    BL       _ll_udiv10 ; 0x136e
        0x00000f60:    3230        02      ADDS     r2,r2,#0x30
        0x00000f62:    5562        bU      STRB     r2,[r4,r5]
        0x00000f64:    1c6d        m.      ADDS     r5,r5,#1
        0x00000f66:    4602        .F      MOV      r2,r0
        0x00000f68:    430a        .C      ORRS     r2,r2,r1
        0x00000f6a:    d1f5        ..      BNE      0xf58 ; _fp_digits + 322
        0x00000f6c:    4308        .C      ORRS     r0,r0,r1
        0x00000f6e:    d003        ..      BEQ      0xf78 ; _fp_digits + 354
        0x00000f70:    9800        ..      LDR      r0,[sp,#0]
        0x00000f72:    2800        .(      CMP      r0,#0
        0x00000f74:    d019        ..      BEQ      0xfaa ; _fp_digits + 404
        0x00000f76:    e00e        ..      B        0xf96 ; _fp_digits + 384
        0x00000f78:    2100        .!      MOVS     r1,#0
        0x00000f7a:    1e68        h.      SUBS     r0,r5,#1
        0x00000f7c:    e005        ..      B        0xf8a ; _fp_digits + 372
        0x00000f7e:    5c23        #\      LDRB     r3,[r4,r0]
        0x00000f80:    5c62        b\      LDRB     r2,[r4,r1]
        0x00000f82:    5463        cT      STRB     r3,[r4,r1]
        0x00000f84:    5422        "T      STRB     r2,[r4,r0]
        0x00000f86:    1e40        @.      SUBS     r0,r0,#1
        0x00000f88:    1c49        I.      ADDS     r1,r1,#1
        0x00000f8a:    4281        .B      CMP      r1,r0
        0x00000f8c:    dbf7        ..      BLT      0xf7e ; _fp_digits + 360
        0x00000f8e:    1ba8        ..      SUBS     r0,r5,r6
        0x00000f90:    1e40        @.      SUBS     r0,r0,#1
        0x00000f92:    9507        ..      STR      r5,[sp,#0x1c]
        0x00000f94:    9006        ..      STR      r0,[sp,#0x18]
        0x00000f96:    9a07        ..      LDR      r2,[sp,#0x1c]
        0x00000f98:    9918        ..      LDR      r1,[sp,#0x60]
        0x00000f9a:    2000        .       MOVS     r0,#0
        0x00000f9c:    54a0        .T      STRB     r0,[r4,r2]
        0x00000f9e:    980f        ..      LDR      r0,[sp,#0x3c]
        0x00000fa0:    9b07        ..      LDR      r3,[sp,#0x1c]
        0x00000fa2:    9a06        ..      LDR      r2,[sp,#0x18]
        0x00000fa4:    6081        .`      STR      r1,[r0,#8]
        0x00000fa6:    c00c        ..      STM      r0!,{r2,r3}
        0x00000fa8:    e77c        |.      B        0xea4 ; _fp_digits + 142
        0x00000faa:    2611        .&      MOVS     r6,#0x11
        0x00000fac:    2000        .       MOVS     r0,#0
        0x00000fae:    9018        ..      STR      r0,[sp,#0x60]
        0x00000fb0:    e759        Y.      B        0xe66 ; _fp_digits + 80
    _printf_fp_dec_real
        0x00000fb2:    1dd2        ..      ADDS     r2,r2,#7
        0x00000fb4:    b5f0        ..      PUSH     {r4-r7,lr}
        0x00000fb6:    460d        .F      MOV      r5,r1
        0x00000fb8:    4604        .F      MOV      r4,r0
        0x00000fba:    08d1        ..      LSRS     r1,r2,#3
        0x00000fbc:    b093        ..      SUB      sp,sp,#0x4c
        0x00000fbe:    00c9        ..      LSLS     r1,r1,#3
        0x00000fc0:    c903        ..      LDM      r1,{r0,r1}
        0x00000fc2:    900c        ..      STR      r0,[sp,#0x30]
        0x00000fc4:    910d        ..      STR      r1,[sp,#0x34]
        0x00000fc6:    f002fab7    ....    BL       __ARM_fpclassify ; 0x3538
        0x00000fca:    4602        .F      MOV      r2,r0
        0x00000fcc:    980d        ..      LDR      r0,[sp,#0x34]
        0x00000fce:    0fc0        ..      LSRS     r0,r0,#31
        0x00000fd0:    d001        ..      BEQ      0xfd6 ; _printf_fp_dec_real + 36
        0x00000fd2:    202d        -       MOVS     r0,#0x2d
        0x00000fd4:    e007        ..      B        0xfe6 ; _printf_fp_dec_real + 52
        0x00000fd6:    6820         h      LDR      r0,[r4,#0]
        0x00000fd8:    0781        ..      LSLS     r1,r0,#30
        0x00000fda:    d501        ..      BPL      0xfe0 ; _printf_fp_dec_real + 46
        0x00000fdc:    202b        +       MOVS     r0,#0x2b
        0x00000fde:    e002        ..      B        0xfe6 ; _printf_fp_dec_real + 52
        0x00000fe0:    0740        @.      LSLS     r0,r0,#29
        0x00000fe2:    0fc0        ..      LSRS     r0,r0,#31
        0x00000fe4:    0140        @.      LSLS     r0,r0,#5
        0x00000fe6:    2a03        .*      CMP      r2,#3
        0x00000fe8:    900f        ..      STR      r0,[sp,#0x3c]
        0x00000fea:    d001        ..      BEQ      0xff0 ; _printf_fp_dec_real + 62
        0x00000fec:    2a07        .*      CMP      r2,#7
        0x00000fee:    db05        ..      BLT      0xffc ; _printf_fp_dec_real + 74
        0x00000ff0:    4603        .F      MOV      r3,r0
        0x00000ff2:    4629        )F      MOV      r1,r5
        0x00000ff4:    4620         F      MOV      r0,r4
        0x00000ff6:    f000f9f7    ....    BL       _printf_fp_infnan ; 0x13e8
        0x00000ffa:    e10e        ..      B        0x121a ; _printf_fp_dec_real + 616
        0x00000ffc:    7820         x      LDRB     r0,[r4,#0]
        0x00000ffe:    0680        ..      LSLS     r0,r0,#26
        0x00001000:    d501        ..      BPL      0x1006 ; _printf_fp_dec_real + 84
        0x00001002:    69e7        .i      LDR      r7,[r4,#0x1c]
        0x00001004:    e000        ..      B        0x1008 ; _printf_fp_dec_real + 86
        0x00001006:    2706        .'      MOVS     r7,#6
        0x00001008:    4628        (F      MOV      r0,r5
        0x0000100a:    2d65        e-      CMP      r5,#0x65
        0x0000100c:    d004        ..      BEQ      0x1018 ; _printf_fp_dec_real + 102
        0x0000100e:    2866        f(      CMP      r0,#0x66
        0x00001010:    d014        ..      BEQ      0x103c ; _printf_fp_dec_real + 138
        0x00001012:    2d67        g-      CMP      r5,#0x67
        0x00001014:    d169        i.      BNE      0x10ea ; _printf_fp_dec_real + 312
        0x00001016:    e02d        -.      B        0x1074 ; _printf_fp_dec_real + 194
        0x00001018:    2000        .       MOVS     r0,#0
        0x0000101a:    2f11        ./      CMP      r7,#0x11
        0x0000101c:    9000        ..      STR      r0,[sp,#0]
        0x0000101e:    db01        ..      BLT      0x1024 ; _printf_fp_dec_real + 114
        0x00001020:    2311        .#      MOVS     r3,#0x11
        0x00001022:    e000        ..      B        0x1026 ; _printf_fp_dec_real + 116
        0x00001024:    1c7b        {.      ADDS     r3,r7,#1
        0x00001026:    aa0c        ..      ADD      r2,sp,#0x30
        0x00001028:    a903        ..      ADD      r1,sp,#0xc
        0x0000102a:    a810        ..      ADD      r0,sp,#0x40
        0x0000102c:    f7fffef3    ....    BL       _fp_digits ; 0xe16
        0x00001030:    9911        ..      LDR      r1,[sp,#0x44]
        0x00001032:    2600        .&      MOVS     r6,#0
        0x00001034:    9810        ..      LDR      r0,[sp,#0x40]
        0x00001036:    1c7d        }.      ADDS     r5,r7,#1
        0x00001038:    910e        ..      STR      r1,[sp,#0x38]
        0x0000103a:    e042        B.      B        0x10c2 ; _printf_fp_dec_real + 272
        0x0000103c:    2001        .       MOVS     r0,#1
        0x0000103e:    463b        ;F      MOV      r3,r7
        0x00001040:    aa0c        ..      ADD      r2,sp,#0x30
        0x00001042:    07c0        ..      LSLS     r0,r0,#31
        0x00001044:    900b        ..      STR      r0,[sp,#0x2c]
        0x00001046:    2001        .       MOVS     r0,#1
        0x00001048:    9000        ..      STR      r0,[sp,#0]
        0x0000104a:    a903        ..      ADD      r1,sp,#0xc
        0x0000104c:    a810        ..      ADD      r0,sp,#0x40
        0x0000104e:    f7fffee2    ....    BL       _fp_digits ; 0xe16
        0x00001052:    9d11        ..      LDR      r5,[sp,#0x44]
        0x00001054:    9812        ..      LDR      r0,[sp,#0x48]
        0x00001056:    9910        ..      LDR      r1,[sp,#0x40]
        0x00001058:    2600        .&      MOVS     r6,#0
        0x0000105a:    2800        .(      CMP      r0,#0
        0x0000105c:    950e        ..      STR      r5,[sp,#0x38]
        0x0000105e:    d101        ..      BNE      0x1064 ; _printf_fp_dec_real + 178
        0x00001060:    1c78        x.      ADDS     r0,r7,#1
        0x00001062:    180d        ..      ADDS     r5,r1,r0
        0x00001064:    1b78        x.      SUBS     r0,r7,r5
        0x00001066:    d402        ..      BMI      0x106e ; _printf_fp_dec_real + 188
        0x00001068:    4246        FB      RSBS     r6,r0,#0
        0x0000106a:    1c7d        }.      ADDS     r5,r7,#1
        0x0000106c:    1e76        v.      SUBS     r6,r6,#1
        0x0000106e:    1be8        ..      SUBS     r0,r5,r7
        0x00001070:    9000        ..      STR      r0,[sp,#0]
        0x00001072:    e03a        :.      B        0x10ea ; _printf_fp_dec_real + 312
        0x00001074:    2f01        ./      CMP      r7,#1
        0x00001076:    da00        ..      BGE      0x107a ; _printf_fp_dec_real + 200
        0x00001078:    2701        .'      MOVS     r7,#1
        0x0000107a:    2000        .       MOVS     r0,#0
        0x0000107c:    2f11        ./      CMP      r7,#0x11
        0x0000107e:    9000        ..      STR      r0,[sp,#0]
        0x00001080:    dd01        ..      BLE      0x1086 ; _printf_fp_dec_real + 212
        0x00001082:    2311        .#      MOVS     r3,#0x11
        0x00001084:    e000        ..      B        0x1088 ; _printf_fp_dec_real + 214
        0x00001086:    463b        ;F      MOV      r3,r7
        0x00001088:    aa0c        ..      ADD      r2,sp,#0x30
        0x0000108a:    a903        ..      ADD      r1,sp,#0xc
        0x0000108c:    a810        ..      ADD      r0,sp,#0x40
        0x0000108e:    f7fffec2    ....    BL       _fp_digits ; 0xe16
        0x00001092:    9911        ..      LDR      r1,[sp,#0x44]
        0x00001094:    463d        =F      MOV      r5,r7
        0x00001096:    9810        ..      LDR      r0,[sp,#0x40]
        0x00001098:    2600        .&      MOVS     r6,#0
        0x0000109a:    910e        ..      STR      r1,[sp,#0x38]
        0x0000109c:    7821        !x      LDRB     r1,[r4,#0]
        0x0000109e:    0709        ..      LSLS     r1,r1,#28
        0x000010a0:    d40b        ..      BMI      0x10ba ; _printf_fp_dec_real + 264
        0x000010a2:    990e        ..      LDR      r1,[sp,#0x38]
        0x000010a4:    42a9        .B      CMP      r1,r5
        0x000010a6:    da00        ..      BGE      0x10aa ; _printf_fp_dec_real + 248
        0x000010a8:    460d        .F      MOV      r5,r1
        0x000010aa:    a903        ..      ADD      r1,sp,#0xc
        0x000010ac:    2d01        .-      CMP      r5,#1
        0x000010ae:    dd04        ..      BLE      0x10ba ; _printf_fp_dec_real + 264
        0x000010b0:    194a        J.      ADDS     r2,r1,r5
        0x000010b2:    3a20         :      SUBS     r2,r2,#0x20
        0x000010b4:    7fd2        ..      LDRB     r2,[r2,#0x1f]
        0x000010b6:    2a30        0*      CMP      r2,#0x30
        0x000010b8:    d006        ..      BEQ      0x10c8 ; _printf_fp_dec_real + 278
        0x000010ba:    42b8        .B      CMP      r0,r7
        0x000010bc:    da01        ..      BGE      0x10c2 ; _printf_fp_dec_real + 272
        0x000010be:    1d01        ..      ADDS     r1,r0,#4
        0x000010c0:    da04        ..      BGE      0x10cc ; _printf_fp_dec_real + 282
        0x000010c2:    2101        .!      MOVS     r1,#1
        0x000010c4:    9100        ..      STR      r1,[sp,#0]
        0x000010c6:    e00f        ..      B        0x10e8 ; _printf_fp_dec_real + 310
        0x000010c8:    1e6d        m.      SUBS     r5,r5,#1
        0x000010ca:    e7ef        ..      B        0x10ac ; _printf_fp_dec_real + 250
        0x000010cc:    2800        .(      CMP      r0,#0
        0x000010ce:    dc02        ..      BGT      0x10d6 ; _printf_fp_dec_real + 292
        0x000010d0:    1986        ..      ADDS     r6,r0,r6
        0x000010d2:    1a2d        -.      SUBS     r5,r5,r0
        0x000010d4:    e003        ..      B        0x10de ; _printf_fp_dec_real + 300
        0x000010d6:    1c41        A.      ADDS     r1,r0,#1
        0x000010d8:    42a9        .B      CMP      r1,r5
        0x000010da:    dd00        ..      BLE      0x10de ; _printf_fp_dec_real + 300
        0x000010dc:    460d        .F      MOV      r5,r1
        0x000010de:    1b80        ..      SUBS     r0,r0,r6
        0x000010e0:    1c40        @.      ADDS     r0,r0,#1
        0x000010e2:    9000        ..      STR      r0,[sp,#0]
        0x000010e4:    2001        .       MOVS     r0,#1
        0x000010e6:    07c0        ..      LSLS     r0,r0,#31
        0x000010e8:    900b        ..      STR      r0,[sp,#0x2c]
        0x000010ea:    7820         x      LDRB     r0,[r4,#0]
        0x000010ec:    0700        ..      LSLS     r0,r0,#28
        0x000010ee:    d405        ..      BMI      0x10fc ; _printf_fp_dec_real + 330
        0x000010f0:    9800        ..      LDR      r0,[sp,#0]
        0x000010f2:    42a8        .B      CMP      r0,r5
        0x000010f4:    db02        ..      BLT      0x10fc ; _printf_fp_dec_real + 330
        0x000010f6:    2000        .       MOVS     r0,#0
        0x000010f8:    43c0        .C      MVNS     r0,r0
        0x000010fa:    9000        ..      STR      r0,[sp,#0]
        0x000010fc:    4669        iF      MOV      r1,sp
        0x000010fe:    2000        .       MOVS     r0,#0
        0x00001100:    72c8        .r      STRB     r0,[r1,#0xb]
        0x00001102:    980b        ..      LDR      r0,[sp,#0x2c]
        0x00001104:    2101        .!      MOVS     r1,#1
        0x00001106:    af02        ..      ADD      r7,sp,#8
        0x00001108:    3703        .7      ADDS     r7,#3
        0x0000110a:    07c9        ..      LSLS     r1,r1,#31
        0x0000110c:    4288        .B      CMP      r0,r1
        0x0000110e:    d025        %.      BEQ      0x115c ; _printf_fp_dec_real + 426
        0x00001110:    2002        .       MOVS     r0,#2
        0x00001112:    9010        ..      STR      r0,[sp,#0x40]
        0x00001114:    202b        +       MOVS     r0,#0x2b
        0x00001116:    9011        ..      STR      r0,[sp,#0x44]
        0x00001118:    980b        ..      LDR      r0,[sp,#0x2c]
        0x0000111a:    2800        .(      CMP      r0,#0
        0x0000111c:    da0b        ..      BGE      0x1136 ; _printf_fp_dec_real + 388
        0x0000111e:    4240        @B      RSBS     r0,r0,#0
        0x00001120:    900b        ..      STR      r0,[sp,#0x2c]
        0x00001122:    202d        -       MOVS     r0,#0x2d
        0x00001124:    9011        ..      STR      r0,[sp,#0x44]
        0x00001126:    e006        ..      B        0x1136 ; _printf_fp_dec_real + 388
        0x00001128:    980b        ..      LDR      r0,[sp,#0x2c]
        0x0000112a:    f000f8ff    ....    BL       __rt_udiv10 ; 0x132c
        0x0000112e:    3130        01      ADDS     r1,r1,#0x30
        0x00001130:    1e7f        ..      SUBS     r7,r7,#1
        0x00001132:    900b        ..      STR      r0,[sp,#0x2c]
        0x00001134:    7039        9p      STRB     r1,[r7,#0]
        0x00001136:    9910        ..      LDR      r1,[sp,#0x40]
        0x00001138:    1e48        H.      SUBS     r0,r1,#1
        0x0000113a:    2900        .)      CMP      r1,#0
        0x0000113c:    9010        ..      STR      r0,[sp,#0x40]
        0x0000113e:    dcf3        ..      BGT      0x1128 ; _printf_fp_dec_real + 374
        0x00001140:    980b        ..      LDR      r0,[sp,#0x2c]
        0x00001142:    2800        .(      CMP      r0,#0
        0x00001144:    d1f0        ..      BNE      0x1128 ; _printf_fp_dec_real + 374
        0x00001146:    9811        ..      LDR      r0,[sp,#0x44]
        0x00001148:    1e7f        ..      SUBS     r7,r7,#1
        0x0000114a:    7038        8p      STRB     r0,[r7,#0]
        0x0000114c:    8820         .      LDRH     r0,[r4,#0]
        0x0000114e:    0500        ..      LSLS     r0,r0,#20
        0x00001150:    d501        ..      BPL      0x1156 ; _printf_fp_dec_real + 420
        0x00001152:    2045        E       MOVS     r0,#0x45
        0x00001154:    e000        ..      B        0x1158 ; _printf_fp_dec_real + 422
        0x00001156:    2065        e       MOVS     r0,#0x65
        0x00001158:    1e7f        ..      SUBS     r7,r7,#1
        0x0000115a:    7038        8p      STRB     r0,[r7,#0]
        0x0000115c:    a801        ..      ADD      r0,sp,#4
        0x0000115e:    1bc0        ..      SUBS     r0,r0,r7
        0x00001160:    1dc0        ..      ADDS     r0,r0,#7
        0x00001162:    900b        ..      STR      r0,[sp,#0x2c]
        0x00001164:    980f        ..      LDR      r0,[sp,#0x3c]
        0x00001166:    2800        .(      CMP      r0,#0
        0x00001168:    d000        ..      BEQ      0x116c ; _printf_fp_dec_real + 442
        0x0000116a:    2001        .       MOVS     r0,#1
        0x0000116c:    1941        A.      ADDS     r1,r0,r5
        0x0000116e:    9800        ..      LDR      r0,[sp,#0]
        0x00001170:    17c0        ..      ASRS     r0,r0,#31
        0x00001172:    1809        ..      ADDS     r1,r1,r0
        0x00001174:    980b        ..      LDR      r0,[sp,#0x2c]
        0x00001176:    1808        ..      ADDS     r0,r1,r0
        0x00001178:    69a1        .i      LDR      r1,[r4,#0x18]
        0x0000117a:    1a08        ..      SUBS     r0,r1,r0
        0x0000117c:    1e40        @.      SUBS     r0,r0,#1
        0x0000117e:    61a0        .a      STR      r0,[r4,#0x18]
        0x00001180:    7820         x      LDRB     r0,[r4,#0]
        0x00001182:    06c0        ..      LSLS     r0,r0,#27
        0x00001184:    d402        ..      BMI      0x118c ; _printf_fp_dec_real + 474
        0x00001186:    4620         F      MOV      r0,r4
        0x00001188:    46c0        .F      MOV      r8,r8
        0x0000118a:    46c0        .F      MOV      r8,r8
        0x0000118c:    980f        ..      LDR      r0,[sp,#0x3c]
        0x0000118e:    2800        .(      CMP      r0,#0
        0x00001190:    d005        ..      BEQ      0x119e ; _printf_fp_dec_real + 492
        0x00001192:    6862        bh      LDR      r2,[r4,#4]
        0x00001194:    68a1        .h      LDR      r1,[r4,#8]
        0x00001196:    4790        .G      BLX      r2
        0x00001198:    6a20         j      LDR      r0,[r4,#0x20]
        0x0000119a:    1c40        @.      ADDS     r0,r0,#1
        0x0000119c:    6220         b      STR      r0,[r4,#0x20]
        0x0000119e:    7820         x      LDRB     r0,[r4,#0]
        0x000011a0:    06c0        ..      LSLS     r0,r0,#27
        0x000011a2:    d525        %.      BPL      0x11f0 ; _printf_fp_dec_real + 574
        0x000011a4:    4620         F      MOV      r0,r4
        0x000011a6:    46c0        .F      MOV      r8,r8
        0x000011a8:    46c0        .F      MOV      r8,r8
        0x000011aa:    e021        !.      B        0x11f0 ; _printf_fp_dec_real + 574
        0x000011ac:    2e00        ..      CMP      r6,#0
        0x000011ae:    db07        ..      BLT      0x11c0 ; _printf_fp_dec_real + 526
        0x000011b0:    980e        ..      LDR      r0,[sp,#0x38]
        0x000011b2:    42b0        .B      CMP      r0,r6
        0x000011b4:    dd04        ..      BLE      0x11c0 ; _printf_fp_dec_real + 526
        0x000011b6:    a803        ..      ADD      r0,sp,#0xc
        0x000011b8:    6862        bh      LDR      r2,[r4,#4]
        0x000011ba:    5d80        .]      LDRB     r0,[r0,r6]
        0x000011bc:    68a1        .h      LDR      r1,[r4,#8]
        0x000011be:    e002        ..      B        0x11c6 ; _printf_fp_dec_real + 532
        0x000011c0:    6862        bh      LDR      r2,[r4,#4]
        0x000011c2:    68a1        .h      LDR      r1,[r4,#8]
        0x000011c4:    2030        0       MOVS     r0,#0x30
        0x000011c6:    4790        .G      BLX      r2
        0x000011c8:    6a20         j      LDR      r0,[r4,#0x20]
        0x000011ca:    1c76        v.      ADDS     r6,r6,#1
        0x000011cc:    1c40        @.      ADDS     r0,r0,#1
        0x000011ce:    6220         b      STR      r0,[r4,#0x20]
        0x000011d0:    9800        ..      LDR      r0,[sp,#0]
        0x000011d2:    1e40        @.      SUBS     r0,r0,#1
        0x000011d4:    2800        .(      CMP      r0,#0
        0x000011d6:    9000        ..      STR      r0,[sp,#0]
        0x000011d8:    d10a        ..      BNE      0x11f0 ; _printf_fp_dec_real + 574
        0x000011da:    f000f8c3    ....    BL       __rt_locale ; 0x1364
        0x000011de:    68c0        .h      LDR      r0,[r0,#0xc]
        0x000011e0:    6862        bh      LDR      r2,[r4,#4]
        0x000011e2:    6801        .h      LDR      r1,[r0,#0]
        0x000011e4:    5c40        @\      LDRB     r0,[r0,r1]
        0x000011e6:    68a1        .h      LDR      r1,[r4,#8]
        0x000011e8:    4790        .G      BLX      r2
        0x000011ea:    6a20         j      LDR      r0,[r4,#0x20]
        0x000011ec:    1c40        @.      ADDS     r0,r0,#1
        0x000011ee:    6220         b      STR      r0,[r4,#0x20]
        0x000011f0:    4628        (F      MOV      r0,r5
        0x000011f2:    1e6d        m.      SUBS     r5,r5,#1
        0x000011f4:    2800        .(      CMP      r0,#0
        0x000011f6:    dcd9        ..      BGT      0x11ac ; _printf_fp_dec_real + 506
        0x000011f8:    e007        ..      B        0x120a ; _printf_fp_dec_real + 600
        0x000011fa:    6862        bh      LDR      r2,[r4,#4]
        0x000011fc:    7838        8x      LDRB     r0,[r7,#0]
        0x000011fe:    68a1        .h      LDR      r1,[r4,#8]
        0x00001200:    1c7f        ..      ADDS     r7,r7,#1
        0x00001202:    4790        .G      BLX      r2
        0x00001204:    6a20         j      LDR      r0,[r4,#0x20]
        0x00001206:    1c40        @.      ADDS     r0,r0,#1
        0x00001208:    6220         b      STR      r0,[r4,#0x20]
        0x0000120a:    990b        ..      LDR      r1,[sp,#0x2c]
        0x0000120c:    1e48        H.      SUBS     r0,r1,#1
        0x0000120e:    2900        .)      CMP      r1,#0
        0x00001210:    900b        ..      STR      r0,[sp,#0x2c]
        0x00001212:    dcf2        ..      BGT      0x11fa ; _printf_fp_dec_real + 584
        0x00001214:    4620         F      MOV      r0,r4
        0x00001216:    46c0        .F      MOV      r8,r8
        0x00001218:    46c0        .F      MOV      r8,r8
        0x0000121a:    2003        .       MOVS     r0,#3
        0x0000121c:    e642        B.      B        0xea4 ; _fp_digits + 142
    $d
        0x0000121e:    0000        ..      DCW    0
        0x00001220:    fffffc01    ....    DCD    4294966273
        0x00001224:    00004d10    .M..    DCD    19728
        0x00001228:    ffffdfe1    ....    DCD    4294959073
    $t
    .text
    _printf_input_char
        0x0000122c:    6901        .i      LDR      r1,[r0,#0x10]
        0x0000122e:    1c4a        J.      ADDS     r2,r1,#1
        0x00001230:    6102        .a      STR      r2,[r0,#0x10]
        0x00001232:    7808        .x      LDRB     r0,[r1,#0]
        0x00001234:    4770        pG      BX       lr
    _printf_char_common
        0x00001236:    b500        ..      PUSH     {lr}
        0x00001238:    b08f        ..      SUB      sp,sp,#0x3c
        0x0000123a:    9102        ..      STR      r1,[sp,#8]
        0x0000123c:    2100        .!      MOVS     r1,#0
        0x0000123e:    9105        ..      STR      r1,[sp,#0x14]
        0x00001240:    4905        .I      LDR      r1,[pc,#20] ; [0x1258] = 0xffffffe5
        0x00001242:    9301        ..      STR      r3,[sp,#4]
        0x00001244:    4479        yD      ADD      r1,r1,pc
        0x00001246:    9103        ..      STR      r1,[sp,#0xc]
        0x00001248:    4611        .F      MOV      r1,r2
        0x0000124a:    9004        ..      STR      r0,[sp,#0x10]
        0x0000124c:    4668        hF      MOV      r0,sp
        0x0000124e:    f7fff9eb    ....    BL       __printf ; 0x628
        0x00001252:    b00f        ..      ADD      sp,sp,#0x3c
        0x00001254:    bd00        ..      POP      {pc}
    $d
        0x00001256:    0000        ..      DCW    0
        0x00001258:    ffffffe5    ....    DCD    4294967269
    $t
    .text
    _sputc
        0x0000125c:    680a        .h      LDR      r2,[r1,#0]
        0x0000125e:    7010        .p      STRB     r0,[r2,#0]
        0x00001260:    1c52        R.      ADDS     r2,r2,#1
        0x00001262:    600a        .`      STR      r2,[r1,#0]
        0x00001264:    4770        pG      BX       lr
    .text
    _printf_cs_common
        0x00001266:    b510        ..      PUSH     {r4,lr}
        0x00001268:    6943        Ci      LDR      r3,[r0,#0x14]
        0x0000126a:    2b00        .+      CMP      r3,#0
        0x0000126c:    d002        ..      BEQ      0x1274 ; _printf_cs_common + 14
        0x0000126e:    46c0        .F      MOV      r8,r8
        0x00001270:    46c0        .F      MOV      r8,r8
        0x00001272:    e001        ..      B        0x1278 ; _printf_cs_common + 18
        0x00001274:    f7fff94c    ..L.    BL       _printf_str ; 0x510
        0x00001278:    2001        .       MOVS     r0,#1
        0x0000127a:    bd10        ..      POP      {r4,pc}
    _printf_char
        0x0000127c:    7812        .x      LDRB     r2,[r2,#0]
        0x0000127e:    4601        .F      MOV      r1,r0
        0x00001280:    3124        $1      ADDS     r1,r1,#0x24
        0x00001282:    700a        .p      STRB     r2,[r1,#0]
        0x00001284:    2200        ."      MOVS     r2,#0
        0x00001286:    704a        Jp      STRB     r2,[r1,#1]
        0x00001288:    2201        ."      MOVS     r2,#1
        0x0000128a:    e7ec        ..      B        _printf_cs_common ; 0x1266
    _printf_string
        0x0000128c:    6811        .h      LDR      r1,[r2,#0]
        0x0000128e:    2200        ."      MOVS     r2,#0
        0x00001290:    43d2        .C      MVNS     r2,r2
        0x00001292:    e7e8        ..      B        _printf_cs_common ; 0x1266
    .text
    _printf_char_file
        0x00001294:    4b08        .K      LDR      r3,[pc,#32] ; [0x12b8] = 0x2747
        0x00001296:    b570        p.      PUSH     {r4-r6,lr}
        0x00001298:    460d        .F      MOV      r5,r1
        0x0000129a:    447b        {D      ADD      r3,r3,pc
        0x0000129c:    f7ffffcb    ....    BL       _printf_char_common ; 0x1236
        0x000012a0:    4604        .F      MOV      r4,r0
        0x000012a2:    4628        (F      MOV      r0,r5
        0x000012a4:    f002fb1e    ....    BL       ferror ; 0x38e4
        0x000012a8:    2800        .(      CMP      r0,#0
        0x000012aa:    d002        ..      BEQ      0x12b2 ; _printf_char_file + 30
        0x000012ac:    2000        .       MOVS     r0,#0
        0x000012ae:    43c0        .C      MVNS     r0,r0
        0x000012b0:    bd70        p.      POP      {r4-r6,pc}
        0x000012b2:    4620         F      MOV      r0,r4
        0x000012b4:    bd70        p.      POP      {r4-r6,pc}
    $d
        0x000012b6:    0000        ..      DCW    0
        0x000012b8:    00002747    G'..    DCD    10055
    $t
    .text
    strtol
        0x000012bc:    b5f7        ..      PUSH     {r0-r2,r4-r7,lr}
        0x000012be:    460f        .F      MOV      r7,r1
        0x000012c0:    2600        .&      MOVS     r6,#0
        0x000012c2:    9c00        ..      LDR      r4,[sp,#0]
        0x000012c4:    7825        %x      LDRB     r5,[r4,#0]
        0x000012c6:    1c64        d.      ADDS     r4,r4,#1
        0x000012c8:    2d00        .-      CMP      r5,#0
        0x000012ca:    d005        ..      BEQ      0x12d8 ; strtol + 28
        0x000012cc:    f000f842    ..B.    BL       __rt_ctype_table ; 0x1354
        0x000012d0:    6800        .h      LDR      r0,[r0,#0]
        0x000012d2:    5d40        @]      LDRB     r0,[r0,r5]
        0x000012d4:    07c0        ..      LSLS     r0,r0,#31
        0x000012d6:    d1f5        ..      BNE      0x12c4 ; strtol + 8
        0x000012d8:    2d2b        +-      CMP      r5,#0x2b
        0x000012da:    d002        ..      BEQ      0x12e2 ; strtol + 38
        0x000012dc:    2d2d        --      CMP      r5,#0x2d
        0x000012de:    d018        ..      BEQ      0x1312 ; strtol + 86
        0x000012e0:    1e64        d.      SUBS     r4,r4,#1
        0x000012e2:    4639        9F      MOV      r1,r7
        0x000012e4:    9a02        ..      LDR      r2,[sp,#8]
        0x000012e6:    4620         F      MOV      r0,r4
        0x000012e8:    f000f8c2    ....    BL       _strtoul ; 0x1470
        0x000012ec:    2f00        ./      CMP      r7,#0
        0x000012ee:    d004        ..      BEQ      0x12fa ; strtol + 62
        0x000012f0:    6839        9h      LDR      r1,[r7,#0]
        0x000012f2:    42a1        .B      CMP      r1,r4
        0x000012f4:    d101        ..      BNE      0x12fa ; strtol + 62
        0x000012f6:    9900        ..      LDR      r1,[sp,#0]
        0x000012f8:    6039        9`      STR      r1,[r7,#0]
        0x000012fa:    0571        q.      LSLS     r1,r6,#21
        0x000012fc:    2402        .$      MOVS     r4,#2
        0x000012fe:    2900        .)      CMP      r1,#0
        0x00001300:    da0b        ..      BGE      0x131a ; strtol + 94
        0x00001302:    4240        @B      RSBS     r0,r0,#0
        0x00001304:    2800        .(      CMP      r0,#0
        0x00001306:    dd03        ..      BLE      0x1310 ; strtol + 84
        0x00001308:    f7fffd27    ..'.    BL       __aeabi_errno_addr ; 0xd5a
        0x0000130c:    6004        .`      STR      r4,[r0,#0]
        0x0000130e:    07a0        ..      LSLS     r0,r4,#30
        0x00001310:    bdfe        ..      POP      {r1-r7,pc}
        0x00001312:    2001        .       MOVS     r0,#1
        0x00001314:    0280        ..      LSLS     r0,r0,#10
        0x00001316:    4306        .C      ORRS     r6,r6,r0
        0x00001318:    e7e3        ..      B        0x12e2 ; strtol + 38
        0x0000131a:    2800        .(      CMP      r0,#0
        0x0000131c:    daf8        ..      BGE      0x1310 ; strtol + 84
        0x0000131e:    f7fffd1c    ....    BL       __aeabi_errno_addr ; 0xd5a
        0x00001322:    6004        .`      STR      r4,[r0,#0]
        0x00001324:    4800        .H      LDR      r0,[pc,#0] ; [0x1328] = 0x7fffffff
        0x00001326:    bdfe        ..      POP      {r1-r7,pc}
    $d
        0x00001328:    7fffffff    ....    DCD    2147483647
    $t
    .text
    __rt_udiv10
        0x0000132c:    4601        .F      MOV      r1,r0
        0x0000132e:    0880        ..      LSRS     r0,r0,#2
        0x00001330:    1a08        ..      SUBS     r0,r1,r0
        0x00001332:    0902        ..      LSRS     r2,r0,#4
        0x00001334:    1810        ..      ADDS     r0,r2,r0
        0x00001336:    0a02        ..      LSRS     r2,r0,#8
        0x00001338:    1810        ..      ADDS     r0,r2,r0
        0x0000133a:    0c02        ..      LSRS     r2,r0,#16
        0x0000133c:    1810        ..      ADDS     r0,r2,r0
        0x0000133e:    08c0        ..      LSRS     r0,r0,#3
        0x00001340:    0082        ..      LSLS     r2,r0,#2
        0x00001342:    1812        ..      ADDS     r2,r2,r0
        0x00001344:    0052        R.      LSLS     r2,r2,#1
        0x00001346:    1a89        ..      SUBS     r1,r1,r2
        0x00001348:    e001        ..      B        0x134e ; __rt_udiv10 + 34
        0x0000134a:    1c40        @.      ADDS     r0,r0,#1
        0x0000134c:    390a        .9      SUBS     r1,r1,#0xa
        0x0000134e:    290a        .)      CMP      r1,#0xa
        0x00001350:    d2fb        ..      BCS      0x134a ; __rt_udiv10 + 30
        0x00001352:    4770        pG      BX       lr
    .text
    __rt_ctype_table
        0x00001354:    b510        ..      PUSH     {r4,lr}
        0x00001356:    f000f805    ....    BL       __rt_locale ; 0x1364
        0x0000135a:    1d00        ..      ADDS     r0,r0,#4
        0x0000135c:    bd10        ..      POP      {r4,pc}
        0x0000135e:    bf00        ..      NOP      
    $d
        0x00001360:    00003c4d    M<..    DCD    15437
    $t
    .text
    __rt_locale
        0x00001364:    b510        ..      PUSH     {r4,lr}
        0x00001366:    f7fff82b    ..+.    BL       __user_libspace ; 0x3c0
        0x0000136a:    3020         0      ADDS     r0,r0,#0x20
        0x0000136c:    bd10        ..      POP      {r4,pc}
    .text
    _ll_udiv10
        0x0000136e:    460b        .F      MOV      r3,r1
        0x00001370:    b570        p.      PUSH     {r4-r6,lr}
        0x00001372:    4602        .F      MOV      r2,r0
        0x00001374:    0789        ..      LSLS     r1,r1,#30
        0x00001376:    0880        ..      LSRS     r0,r0,#2
        0x00001378:    4308        .C      ORRS     r0,r0,r1
        0x0000137a:    4619        .F      MOV      r1,r3
        0x0000137c:    089d        ..      LSRS     r5,r3,#2
        0x0000137e:    1a14        ..      SUBS     r4,r2,r0
        0x00001380:    41a9        .A      SBCS     r1,r1,r5
        0x00001382:    0925        %.      LSRS     r5,r4,#4
        0x00001384:    0708        ..      LSLS     r0,r1,#28
        0x00001386:    4305        .C      ORRS     r5,r5,r0
        0x00001388:    0908        ..      LSRS     r0,r1,#4
        0x0000138a:    192c        ,.      ADDS     r4,r5,r4
        0x0000138c:    4148        HA      ADCS     r0,r0,r1
        0x0000138e:    0a25        %.      LSRS     r5,r4,#8
        0x00001390:    0601        ..      LSLS     r1,r0,#24
        0x00001392:    430d        .C      ORRS     r5,r5,r1
        0x00001394:    0a01        ..      LSRS     r1,r0,#8
        0x00001396:    192c        ,.      ADDS     r4,r5,r4
        0x00001398:    4141        AA      ADCS     r1,r1,r0
        0x0000139a:    0c20         .      LSRS     r0,r4,#16
        0x0000139c:    040d        ..      LSLS     r5,r1,#16
        0x0000139e:    4328        (C      ORRS     r0,r0,r5
        0x000013a0:    0c0d        ..      LSRS     r5,r1,#16
        0x000013a2:    1900        ..      ADDS     r0,r0,r4
        0x000013a4:    414d        MA      ADCS     r5,r5,r1
        0x000013a6:    2100        .!      MOVS     r1,#0
        0x000013a8:    1940        @.      ADDS     r0,r0,r5
        0x000013aa:    414d        MA      ADCS     r5,r5,r1
        0x000013ac:    08c0        ..      LSRS     r0,r0,#3
        0x000013ae:    0769        i.      LSLS     r1,r5,#29
        0x000013b0:    4308        .C      ORRS     r0,r0,r1
        0x000013b2:    08e9        ..      LSRS     r1,r5,#3
        0x000013b4:    0f84        ..      LSRS     r4,r0,#30
        0x000013b6:    008d        ..      LSLS     r5,r1,#2
        0x000013b8:    4325        %C      ORRS     r5,r5,r4
        0x000013ba:    0084        ..      LSLS     r4,r0,#2
        0x000013bc:    1824        $.      ADDS     r4,r4,r0
        0x000013be:    414d        MA      ADCS     r5,r5,r1
        0x000013c0:    1924        $.      ADDS     r4,r4,r4
        0x000013c2:    416d        mA      ADCS     r5,r5,r5
        0x000013c4:    1b12        ..      SUBS     r2,r2,r4
        0x000013c6:    41ab        .A      SBCS     r3,r3,r5
        0x000013c8:    e007        ..      B        0x13da ; _ll_udiv10 + 108
        0x000013ca:    2509        .%      MOVS     r5,#9
        0x000013cc:    43ed        .C      MVNS     r5,r5
        0x000013ce:    112c        ,.      ASRS     r4,r5,#4
        0x000013d0:    1952        R.      ADDS     r2,r2,r5
        0x000013d2:    4163        cA      ADCS     r3,r3,r4
        0x000013d4:    2400        .$      MOVS     r4,#0
        0x000013d6:    1c40        @.      ADDS     r0,r0,#1
        0x000013d8:    4161        aA      ADCS     r1,r1,r4
        0x000013da:    461c        .F      MOV      r4,r3
        0x000013dc:    250a        .%      MOVS     r5,#0xa
        0x000013de:    2600        .&      MOVS     r6,#0
        0x000013e0:    1b55        U.      SUBS     r5,r2,r5
        0x000013e2:    41b4        .A      SBCS     r4,r4,r6
        0x000013e4:    d2f1        ..      BCS      0x13ca ; _ll_udiv10 + 92
        0x000013e6:    bd70        p.      POP      {r4-r6,pc}
    .text
    _printf_fp_infnan
        0x000013e8:    b5f8        ..      PUSH     {r3-r7,lr}
        0x000013ea:    461f        .F      MOV      r7,r3
        0x000013ec:    4604        .F      MOV      r4,r0
        0x000013ee:    2301        .#      MOVS     r3,#1
        0x000013f0:    6800        .h      LDR      r0,[r0,#0]
        0x000013f2:    02db        ..      LSLS     r3,r3,#11
        0x000013f4:    2603        .&      MOVS     r6,#3
        0x000013f6:    4601        .F      MOV      r1,r0
        0x000013f8:    4018        .@      ANDS     r0,r0,r3
        0x000013fa:    2a07        .*      CMP      r2,#7
        0x000013fc:    db05        ..      BLT      0x140a ; _printf_fp_infnan + 34
        0x000013fe:    2800        .(      CMP      r0,#0
        0x00001400:    d001        ..      BEQ      0x1406 ; _printf_fp_infnan + 30
        0x00001402:    a517        ..      ADR      r5,{pc}+0x5e ; 0x1460
        0x00001404:    e006        ..      B        0x1414 ; _printf_fp_infnan + 44
        0x00001406:    a517        ..      ADR      r5,{pc}+0x5e ; 0x1464
        0x00001408:    e004        ..      B        0x1414 ; _printf_fp_infnan + 44
        0x0000140a:    2800        .(      CMP      r0,#0
        0x0000140c:    d001        ..      BEQ      0x1412 ; _printf_fp_infnan + 42
        0x0000140e:    a516        ..      ADR      r5,{pc}+0x5a ; 0x1468
        0x00001410:    e000        ..      B        0x1414 ; _printf_fp_infnan + 44
        0x00001412:    a516        ..      ADR      r5,{pc}+0x5a ; 0x146c
        0x00001414:    2010        .       MOVS     r0,#0x10
        0x00001416:    4381        .C      BICS     r1,r1,r0
        0x00001418:    6021        !`      STR      r1,[r4,#0]
        0x0000141a:    69a0        .i      LDR      r0,[r4,#0x18]
        0x0000141c:    1ec0        ..      SUBS     r0,r0,#3
        0x0000141e:    2f00        ./      CMP      r7,#0
        0x00001420:    61a0        .a      STR      r0,[r4,#0x18]
        0x00001422:    d001        ..      BEQ      0x1428 ; _printf_fp_infnan + 64
        0x00001424:    1e40        @.      SUBS     r0,r0,#1
        0x00001426:    61a0        .a      STR      r0,[r4,#0x18]
        0x00001428:    4620         F      MOV      r0,r4
        0x0000142a:    46c0        .F      MOV      r8,r8
        0x0000142c:    46c0        .F      MOV      r8,r8
        0x0000142e:    2f00        ./      CMP      r7,#0
        0x00001430:    d009        ..      BEQ      0x1446 ; _printf_fp_infnan + 94
        0x00001432:    4638        8F      MOV      r0,r7
        0x00001434:    6862        bh      LDR      r2,[r4,#4]
        0x00001436:    68a1        .h      LDR      r1,[r4,#8]
        0x00001438:    4790        .G      BLX      r2
        0x0000143a:    6a20         j      LDR      r0,[r4,#0x20]
        0x0000143c:    1c40        @.      ADDS     r0,r0,#1
        0x0000143e:    6220         b      STR      r0,[r4,#0x20]
        0x00001440:    1cc0        ..      ADDS     r0,r0,#3
        0x00001442:    6220         b      STR      r0,[r4,#0x20]
        0x00001444:    e006        ..      B        0x1454 ; _printf_fp_infnan + 108
        0x00001446:    6a20         j      LDR      r0,[r4,#0x20]
        0x00001448:    e7fa        ..      B        0x1440 ; _printf_fp_infnan + 88
        0x0000144a:    6862        bh      LDR      r2,[r4,#4]
        0x0000144c:    7828        (x      LDRB     r0,[r5,#0]
        0x0000144e:    68a1        .h      LDR      r1,[r4,#8]
        0x00001450:    1c6d        m.      ADDS     r5,r5,#1
        0x00001452:    4790        .G      BLX      r2
        0x00001454:    1e76        v.      SUBS     r6,r6,#1
        0x00001456:    d2f8        ..      BCS      0x144a ; _printf_fp_infnan + 98
        0x00001458:    4620         F      MOV      r0,r4
        0x0000145a:    46c0        .F      MOV      r8,r8
        0x0000145c:    46c0        .F      MOV      r8,r8
        0x0000145e:    bdf8        ..      POP      {r3-r7,pc}
    $d
        0x00001460:    004e414e    NAN.    DCD    5128526
        0x00001464:    006e616e    nan.    DCD    7233902
        0x00001468:    00464e49    INF.    DCD    4607561
        0x0000146c:    00666e69    inf.    DCD    6712937
    $t
    .text
    _strtoul
        0x00001470:    b5f7        ..      PUSH     {r0-r2,r4-r7,lr}
        0x00001472:    4615        .F      MOV      r5,r2
        0x00001474:    b082        ..      SUB      sp,sp,#8
        0x00001476:    2700        .'      MOVS     r7,#0
        0x00001478:    9c02        ..      LDR      r4,[sp,#8]
        0x0000147a:    7820         x      LDRB     r0,[r4,#0]
        0x0000147c:    1c64        d.      ADDS     r4,r4,#1
        0x0000147e:    9701        ..      STR      r7,[sp,#4]
        0x00001480:    2830        0(      CMP      r0,#0x30
        0x00001482:    d002        ..      BEQ      0x148a ; _strtoul + 26
        0x00001484:    2d00        .-      CMP      r5,#0
        0x00001486:    d015        ..      BEQ      0x14b4 ; _strtoul + 68
        0x00001488:    e015        ..      B        0x14b6 ; _strtoul + 70
        0x0000148a:    7820         x      LDRB     r0,[r4,#0]
        0x0000148c:    2701        .'      MOVS     r7,#1
        0x0000148e:    1c64        d.      ADDS     r4,r4,#1
        0x00001490:    2878        x(      CMP      r0,#0x78
        0x00001492:    d004        ..      BEQ      0x149e ; _strtoul + 46
        0x00001494:    2858        X(      CMP      r0,#0x58
        0x00001496:    d002        ..      BEQ      0x149e ; _strtoul + 46
        0x00001498:    2d00        .-      CMP      r5,#0
        0x0000149a:    d009        ..      BEQ      0x14b0 ; _strtoul + 64
        0x0000149c:    e00b        ..      B        0x14b6 ; _strtoul + 70
        0x0000149e:    2d00        .-      CMP      r5,#0
        0x000014a0:    d001        ..      BEQ      0x14a6 ; _strtoul + 54
        0x000014a2:    2d10        .-      CMP      r5,#0x10
        0x000014a4:    d107        ..      BNE      0x14b6 ; _strtoul + 70
        0x000014a6:    7820         x      LDRB     r0,[r4,#0]
        0x000014a8:    2700        .'      MOVS     r7,#0
        0x000014aa:    2510        .%      MOVS     r5,#0x10
        0x000014ac:    1c64        d.      ADDS     r4,r4,#1
        0x000014ae:    e002        ..      B        0x14b6 ; _strtoul + 70
        0x000014b0:    2508        .%      MOVS     r5,#8
        0x000014b2:    e000        ..      B        0x14b6 ; _strtoul + 70
        0x000014b4:    250a        .%      MOVS     r5,#0xa
        0x000014b6:    2600        .&      MOVS     r6,#0
        0x000014b8:    9600        ..      STR      r6,[sp,#0]
        0x000014ba:    e010        ..      B        0x14de ; _strtoul + 110
        0x000014bc:    9900        ..      LDR      r1,[sp,#0]
        0x000014be:    2701        .'      MOVS     r7,#1
        0x000014c0:    4369        iC      MULS     r1,r5,r1
        0x000014c2:    1808        ..      ADDS     r0,r1,r0
        0x000014c4:    4629        )F      MOV      r1,r5
        0x000014c6:    4371        qC      MULS     r1,r6,r1
        0x000014c8:    0c02        ..      LSRS     r2,r0,#16
        0x000014ca:    b280        ..      UXTH     r0,r0
        0x000014cc:    9000        ..      STR      r0,[sp,#0]
        0x000014ce:    188e        ..      ADDS     r6,r1,r2
        0x000014d0:    0438        8.      LSLS     r0,r7,#16
        0x000014d2:    4286        .B      CMP      r6,r0
        0x000014d4:    d301        ..      BCC      0x14da ; _strtoul + 106
        0x000014d6:    2001        .       MOVS     r0,#1
        0x000014d8:    9001        ..      STR      r0,[sp,#4]
        0x000014da:    7820         x      LDRB     r0,[r4,#0]
        0x000014dc:    1c64        d.      ADDS     r4,r4,#1
        0x000014de:    4629        )F      MOV      r1,r5
        0x000014e0:    f000fb6b    ..k.    BL       _chval ; 0x1bba
        0x000014e4:    2800        .(      CMP      r0,#0
        0x000014e6:    dae9        ..      BGE      0x14bc ; _strtoul + 76
        0x000014e8:    9803        ..      LDR      r0,[sp,#0xc]
        0x000014ea:    2800        .(      CMP      r0,#0
        0x000014ec:    d005        ..      BEQ      0x14fa ; _strtoul + 138
        0x000014ee:    2f00        ./      CMP      r7,#0
        0x000014f0:    d001        ..      BEQ      0x14f6 ; _strtoul + 134
        0x000014f2:    1e64        d.      SUBS     r4,r4,#1
        0x000014f4:    e000        ..      B        0x14f8 ; _strtoul + 136
        0x000014f6:    9c02        ..      LDR      r4,[sp,#8]
        0x000014f8:    6004        .`      STR      r4,[r0,#0]
        0x000014fa:    9801        ..      LDR      r0,[sp,#4]
        0x000014fc:    2800        .(      CMP      r0,#0
        0x000014fe:    d006        ..      BEQ      0x150e ; _strtoul + 158
        0x00001500:    f7fffc2b    ..+.    BL       __aeabi_errno_addr ; 0xd5a
        0x00001504:    2102        .!      MOVS     r1,#2
        0x00001506:    6001        .`      STR      r1,[r0,#0]
        0x00001508:    1ec8        ..      SUBS     r0,r1,#3
        0x0000150a:    b005        ..      ADD      sp,sp,#0x14
        0x0000150c:    bdf0        ..      POP      {r4-r7,pc}
        0x0000150e:    9900        ..      LDR      r1,[sp,#0]
        0x00001510:    0430        0.      LSLS     r0,r6,#16
        0x00001512:    4308        .C      ORRS     r0,r0,r1
        0x00001514:    e7f9        ..      B        0x150a ; _strtoul + 154
        0x00001516:    0000        ..      MOVS     r0,r0
    .text
    _btod_etento
        0x00001518:    b5f7        ..      PUSH     {r0-r2,r4-r7,lr}
        0x0000151a:    4616        .F      MOV      r6,r2
        0x0000151c:    b08a        ..      SUB      sp,sp,#0x28
        0x0000151e:    4833        3H      LDR      r0,[pc,#204] ; [0x15ec] = 0x3be4
        0x00001520:    4478        xD      ADD      r0,r0,pc
        0x00001522:    466c        lF      MOV      r4,sp
        0x00001524:    4603        .F      MOV      r3,r0
        0x00001526:    337c        |3      ADDS     r3,r3,#0x7c
        0x00001528:    6fc0        .o      LDR      r0,[r0,#0x7c]
        0x0000152a:    685a        Zh      LDR      r2,[r3,#4]
        0x0000152c:    689b        .h      LDR      r3,[r3,#8]
        0x0000152e:    c40d        ..      STM      r4!,{r0,r2,r3}
        0x00001530:    482e        .H      LDR      r0,[pc,#184] ; [0x15ec] = 0x3be4
        0x00001532:    4478        xD      ADD      r0,r0,pc
        0x00001534:    3076        v0      ADDS     r0,r0,#0x76
        0x00001536:    ac03        ..      ADD      r4,sp,#0xc
        0x00001538:    c80d        ..      LDM      r0,{r0,r2,r3}
        0x0000153a:    c40d        ..      STM      r4!,{r0,r2,r3}
        0x0000153c:    2037        7       MOVS     r0,#0x37
        0x0000153e:    01c0        ..      LSLS     r0,r0,#7
        0x00001540:    1808        ..      ADDS     r0,r1,r0
        0x00001542:    2137        7!      MOVS     r1,#0x37
        0x00001544:    301b        .0      ADDS     r0,r0,#0x1b
        0x00001546:    f7fff977    ..w.    BL       __aeabi_idiv ; 0x838
        0x0000154a:    4605        .F      MOV      r5,r0
        0x0000154c:    460c        .F      MOV      r4,r1
        0x0000154e:    3d80        .=      SUBS     r5,r5,#0x80
        0x00001550:    3c1b        .<      SUBS     r4,r4,#0x1b
        0x00001552:    d502        ..      BPL      0x155a ; _btod_etento + 66
        0x00001554:    4264        dB      RSBS     r4,r4,#0
        0x00001556:    2001        .       MOVS     r0,#1
        0x00001558:    e000        ..      B        0x155c ; _btod_etento + 68
        0x0000155a:    2000        .       MOVS     r0,#0
        0x0000155c:    2700        .'      MOVS     r7,#0
        0x0000155e:    9009        ..      STR      r0,[sp,#0x24]
        0x00001560:    e010        ..      B        0x1584 ; _btod_etento + 108
        0x00001562:    07e0        ..      LSLS     r0,r4,#31
        0x00001564:    d00c        ..      BEQ      0x1580 ; _btod_etento + 104
        0x00001566:    200c        .       MOVS     r0,#0xc
        0x00001568:    4920         I      LDR      r1,[pc,#128] ; [0x15ec] = 0x3be4
        0x0000156a:    4378        xC      MULS     r0,r7,r0
        0x0000156c:    4479        yD      ADD      r1,r1,pc
        0x0000156e:    4632        2F      MOV      r2,r6
        0x00001570:    394c        L9      SUBS     r1,r1,#0x4c
        0x00001572:    1841        A.      ADDS     r1,r0,r1
        0x00001574:    4668        hF      MOV      r0,sp
        0x00001576:    2301        .#      MOVS     r3,#1
        0x00001578:    f000fa54    ..T.    BL       _btod_emul ; 0x1a24
        0x0000157c:    466b        kF      MOV      r3,sp
        0x0000157e:    c307        ..      STM      r3!,{r0-r2}
        0x00001580:    1064        d.      ASRS     r4,r4,#1
        0x00001582:    1c7f        ..      ADDS     r7,r7,#1
        0x00001584:    2c00        .,      CMP      r4,#0
        0x00001586:    d1ec        ..      BNE      0x1562 ; _btod_etento + 74
        0x00001588:    4f18        .O      LDR      r7,[pc,#96] ; [0x15ec] = 0x3be4
        0x0000158a:    447f        .D      ADD      r7,r7,pc
        0x0000158c:    3f2e        .?      SUBS     r7,r7,#0x2e
        0x0000158e:    e016        ..      B        0x15be ; _btod_etento + 166
        0x00001590:    07e8        ..      LSLS     r0,r5,#31
        0x00001592:    d012        ..      BEQ      0x15ba ; _btod_etento + 162
        0x00001594:    0120         .      LSLS     r0,r4,#4
        0x00001596:    19c0        ..      ADDS     r0,r0,r7
        0x00001598:    c80e        ..      LDM      r0!,{r1-r3}
        0x0000159a:    9106        ..      STR      r1,[sp,#0x18]
        0x0000159c:    9308        ..      STR      r3,[sp,#0x20]
        0x0000159e:    9207        ..      STR      r2,[sp,#0x1c]
        0x000015a0:    6800        .h      LDR      r0,[r0,#0]
        0x000015a2:    42f0        .B      CMN      r0,r6
        0x000015a4:    d101        ..      BNE      0x15aa ; _btod_etento + 146
        0x000015a6:    1998        ..      ADDS     r0,r3,r6
        0x000015a8:    9008        ..      STR      r0,[sp,#0x20]
        0x000015aa:    4632        2F      MOV      r2,r6
        0x000015ac:    2301        .#      MOVS     r3,#1
        0x000015ae:    a906        ..      ADD      r1,sp,#0x18
        0x000015b0:    a803        ..      ADD      r0,sp,#0xc
        0x000015b2:    f000fa37    ..7.    BL       _btod_emul ; 0x1a24
        0x000015b6:    ab03        ..      ADD      r3,sp,#0xc
        0x000015b8:    c307        ..      STM      r3!,{r0-r2}
        0x000015ba:    106d        m.      ASRS     r5,r5,#1
        0x000015bc:    1c64        d.      ADDS     r4,r4,#1
        0x000015be:    2d00        .-      CMP      r5,#0
        0x000015c0:    d1e6        ..      BNE      0x1590 ; _btod_etento + 120
        0x000015c2:    9809        ..      LDR      r0,[sp,#0x24]
        0x000015c4:    2800        .(      CMP      r0,#0
        0x000015c6:    d006        ..      BEQ      0x15d6 ; _btod_etento + 190
        0x000015c8:    4632        2F      MOV      r2,r6
        0x000015ca:    4669        iF      MOV      r1,sp
        0x000015cc:    2301        .#      MOVS     r3,#1
        0x000015ce:    a803        ..      ADD      r0,sp,#0xc
        0x000015d0:    f000fa7e    ..~.    BL       _btod_ediv ; 0x1ad0
        0x000015d4:    e005        ..      B        0x15e2 ; _btod_etento + 202
        0x000015d6:    2301        .#      MOVS     r3,#1
        0x000015d8:    4632        2F      MOV      r2,r6
        0x000015da:    4669        iF      MOV      r1,sp
        0x000015dc:    a803        ..      ADD      r0,sp,#0xc
        0x000015de:    f000fa21    ..!.    BL       _btod_emul ; 0x1a24
        0x000015e2:    9b0a        ..      LDR      r3,[sp,#0x28]
        0x000015e4:    c307        ..      STM      r3!,{r0-r2}
        0x000015e6:    b00d        ..      ADD      sp,sp,#0x34
        0x000015e8:    bdf0        ..      POP      {r4-r7,pc}
    $d
        0x000015ea:    0000        ..      DCW    0
        0x000015ec:    00003be4    .;..    DCD    15332
    $t
    .text
    _btod_d2e
        0x000015f0:    4603        .F      MOV      r3,r0
        0x000015f2:    0040        @.      LSLS     r0,r0,#1
        0x000015f4:    460a        .F      MOV      r2,r1
        0x000015f6:    b510        ..      PUSH     {r4,lr}
        0x000015f8:    0d40        @.      LSRS     r0,r0,#21
        0x000015fa:    d00b        ..      BEQ      0x1614 ; _btod_d2e + 36
        0x000015fc:    2101        .!      MOVS     r1,#1
        0x000015fe:    07c9        ..      LSLS     r1,r1,#31
        0x00001600:    240f        .$      MOVS     r4,#0xf
        0x00001602:    02a4        ..      LSLS     r4,r4,#10
        0x00001604:    1900        ..      ADDS     r0,r0,r4
        0x00001606:    031c        ..      LSLS     r4,r3,#12
        0x00001608:    0864        d.      LSRS     r4,r4,#1
        0x0000160a:    4321        !C      ORRS     r1,r1,r4
        0x0000160c:    0d54        T.      LSRS     r4,r2,#21
        0x0000160e:    4321        !C      ORRS     r1,r1,r4
        0x00001610:    02d2        ..      LSLS     r2,r2,#11
        0x00001612:    e007        ..      B        0x1624 ; _btod_d2e + 52
        0x00001614:    2100        .!      MOVS     r1,#0
        0x00001616:    2001        .       MOVS     r0,#1
        0x00001618:    e7f2        ..      B        0x1600 ; _btod_d2e + 16
        0x0000161a:    0fd4        ..      LSRS     r4,r2,#31
        0x0000161c:    0049        I.      LSLS     r1,r1,#1
        0x0000161e:    4321        !C      ORRS     r1,r1,r4
        0x00001620:    0052        R.      LSLS     r2,r2,#1
        0x00001622:    1e40        @.      SUBS     r0,r0,#1
        0x00001624:    2900        .)      CMP      r1,#0
        0x00001626:    daf8        ..      BGE      0x161a ; _btod_d2e + 42
        0x00001628:    0fdb        ..      LSRS     r3,r3,#31
        0x0000162a:    07db        ..      LSLS     r3,r3,#31
        0x0000162c:    4318        .C      ORRS     r0,r0,r3
        0x0000162e:    bd10        ..      POP      {r4,pc}
    btod_internal_mul
        0x00001630:    b5ff        ..      PUSH     {r0-r7,lr}
        0x00001632:    460d        .F      MOV      r5,r1
        0x00001634:    4614        .F      MOV      r4,r2
        0x00001636:    b085        ..      SUB      sp,sp,#0x14
        0x00001638:    6848        Hh      LDR      r0,[r1,#4]
        0x0000163a:    6851        Qh      LDR      r1,[r2,#4]
        0x0000163c:    f001ff64    ..d.    BL       __ARM_common_ll_muluu ; 0x3508
        0x00001640:    9100        ..      STR      r1,[sp,#0]
        0x00001642:    9001        ..      STR      r0,[sp,#4]
        0x00001644:    68a8        .h      LDR      r0,[r5,#8]
        0x00001646:    68a1        .h      LDR      r1,[r4,#8]
        0x00001648:    f001ff5e    ..^.    BL       __ARM_common_ll_muluu ; 0x3508
        0x0000164c:    9102        ..      STR      r1,[sp,#8]
        0x0000164e:    9003        ..      STR      r0,[sp,#0xc]
        0x00001650:    68a8        .h      LDR      r0,[r5,#8]
        0x00001652:    6861        ah      LDR      r1,[r4,#4]
        0x00001654:    f001ff58    ..X.    BL       __ARM_common_ll_muluu ; 0x3508
        0x00001658:    9a02        ..      LDR      r2,[sp,#8]
        0x0000165a:    1812        ..      ADDS     r2,r2,r0
        0x0000165c:    4282        .B      CMP      r2,r0
        0x0000165e:    9202        ..      STR      r2,[sp,#8]
        0x00001660:    d201        ..      BCS      0x1666 ; btod_internal_mul + 54
        0x00001662:    2001        .       MOVS     r0,#1
        0x00001664:    e000        ..      B        0x1668 ; btod_internal_mul + 56
        0x00001666:    2000        .       MOVS     r0,#0
        0x00001668:    9a01        ..      LDR      r2,[sp,#4]
        0x0000166a:    180b        ..      ADDS     r3,r1,r0
        0x0000166c:    18d2        ..      ADDS     r2,r2,r3
        0x0000166e:    2800        .(      CMP      r0,#0
        0x00001670:    9201        ..      STR      r2,[sp,#4]
        0x00001672:    d002        ..      BEQ      0x167a ; btod_internal_mul + 74
        0x00001674:    428a        .B      CMP      r2,r1
        0x00001676:    d902        ..      BLS      0x167e ; btod_internal_mul + 78
        0x00001678:    e003        ..      B        0x1682 ; btod_internal_mul + 82
        0x0000167a:    428a        .B      CMP      r2,r1
        0x0000167c:    d201        ..      BCS      0x1682 ; btod_internal_mul + 82
        0x0000167e:    2001        .       MOVS     r0,#1
        0x00001680:    e000        ..      B        0x1684 ; btod_internal_mul + 84
        0x00001682:    2000        .       MOVS     r0,#0
        0x00001684:    9900        ..      LDR      r1,[sp,#0]
        0x00001686:    1808        ..      ADDS     r0,r1,r0
        0x00001688:    9000        ..      STR      r0,[sp,#0]
        0x0000168a:    6868        hh      LDR      r0,[r5,#4]
        0x0000168c:    68a1        .h      LDR      r1,[r4,#8]
        0x0000168e:    f001ff3b    ..;.    BL       __ARM_common_ll_muluu ; 0x3508
        0x00001692:    9a02        ..      LDR      r2,[sp,#8]
        0x00001694:    1812        ..      ADDS     r2,r2,r0
        0x00001696:    4282        .B      CMP      r2,r0
        0x00001698:    9202        ..      STR      r2,[sp,#8]
        0x0000169a:    d201        ..      BCS      0x16a0 ; btod_internal_mul + 112
        0x0000169c:    2001        .       MOVS     r0,#1
        0x0000169e:    e000        ..      B        0x16a2 ; btod_internal_mul + 114
        0x000016a0:    2000        .       MOVS     r0,#0
        0x000016a2:    9a01        ..      LDR      r2,[sp,#4]
        0x000016a4:    180b        ..      ADDS     r3,r1,r0
        0x000016a6:    18d2        ..      ADDS     r2,r2,r3
        0x000016a8:    2800        .(      CMP      r0,#0
        0x000016aa:    9201        ..      STR      r2,[sp,#4]
        0x000016ac:    d002        ..      BEQ      0x16b4 ; btod_internal_mul + 132
        0x000016ae:    428a        .B      CMP      r2,r1
        0x000016b0:    d902        ..      BLS      0x16b8 ; btod_internal_mul + 136
        0x000016b2:    e003        ..      B        0x16bc ; btod_internal_mul + 140
        0x000016b4:    428a        .B      CMP      r2,r1
        0x000016b6:    d201        ..      BCS      0x16bc ; btod_internal_mul + 140
        0x000016b8:    2001        .       MOVS     r0,#1
        0x000016ba:    e000        ..      B        0x16be ; btod_internal_mul + 142
        0x000016bc:    2000        .       MOVS     r0,#0
        0x000016be:    9900        ..      LDR      r1,[sp,#0]
        0x000016c0:    1808        ..      ADDS     r0,r1,r0
        0x000016c2:    9000        ..      STR      r0,[sp,#0]
        0x000016c4:    6828        (h      LDR      r0,[r5,#0]
        0x000016c6:    6821        !h      LDR      r1,[r4,#0]
        0x000016c8:    0040        @.      LSLS     r0,r0,#1
        0x000016ca:    0049        I.      LSLS     r1,r1,#1
        0x000016cc:    0840        @.      LSRS     r0,r0,#1
        0x000016ce:    0849        I.      LSRS     r1,r1,#1
        0x000016d0:    1840        @.      ADDS     r0,r0,r1
        0x000016d2:    49fa        .I      LDR      r1,[pc,#1000] ; [0x1abc] = 0xffffc002
        0x000016d4:    1847        G.      ADDS     r7,r0,r1
        0x000016d6:    e014        ..      B        0x1702 ; btod_internal_mul + 210
        0x000016d8:    9901        ..      LDR      r1,[sp,#4]
        0x000016da:    0040        @.      LSLS     r0,r0,#1
        0x000016dc:    0fc9        ..      LSRS     r1,r1,#31
        0x000016de:    4308        .C      ORRS     r0,r0,r1
        0x000016e0:    9000        ..      STR      r0,[sp,#0]
        0x000016e2:    9801        ..      LDR      r0,[sp,#4]
        0x000016e4:    9902        ..      LDR      r1,[sp,#8]
        0x000016e6:    0040        @.      LSLS     r0,r0,#1
        0x000016e8:    0fc9        ..      LSRS     r1,r1,#31
        0x000016ea:    4308        .C      ORRS     r0,r0,r1
        0x000016ec:    9001        ..      STR      r0,[sp,#4]
        0x000016ee:    9802        ..      LDR      r0,[sp,#8]
        0x000016f0:    9903        ..      LDR      r1,[sp,#0xc]
        0x000016f2:    0040        @.      LSLS     r0,r0,#1
        0x000016f4:    0fc9        ..      LSRS     r1,r1,#31
        0x000016f6:    4308        .C      ORRS     r0,r0,r1
        0x000016f8:    9002        ..      STR      r0,[sp,#8]
        0x000016fa:    9803        ..      LDR      r0,[sp,#0xc]
        0x000016fc:    0040        @.      LSLS     r0,r0,#1
        0x000016fe:    1e7f        ..      SUBS     r7,r7,#1
        0x00001700:    9003        ..      STR      r0,[sp,#0xc]
        0x00001702:    9800        ..      LDR      r0,[sp,#0]
        0x00001704:    2800        .(      CMP      r0,#0
        0x00001706:    dae7        ..      BGE      0x16d8 ; btod_internal_mul + 168
        0x00001708:    9808        ..      LDR      r0,[sp,#0x20]
        0x0000170a:    2800        .(      CMP      r0,#0
        0x0000170c:    d001        ..      BEQ      0x1712 ; btod_internal_mul + 226
        0x0000170e:    4eec        .N      LDR      r6,[pc,#944] ; [0x1ac0] = 0x3c01
        0x00001710:    e000        ..      B        0x1714 ; btod_internal_mul + 228
        0x00001712:    2600        .&      MOVS     r6,#0
        0x00001714:    42b7        .B      CMP      r7,r6
        0x00001716:    da01        ..      BGE      0x171c ; btod_internal_mul + 236
        0x00001718:    2001        .       MOVS     r0,#1
        0x0000171a:    e000        ..      B        0x171e ; btod_internal_mul + 238
        0x0000171c:    2000        .       MOVS     r0,#0
        0x0000171e:    2800        .(      CMP      r0,#0
        0x00001720:    9004        ..      STR      r0,[sp,#0x10]
        0x00001722:    d02a        *.      BEQ      0x177a ; btod_internal_mul + 330
        0x00001724:    1bf7        ..      SUBS     r7,r6,r7
        0x00001726:    06f8        ..      LSLS     r0,r7,#27
        0x00001728:    0ec0        ..      LSRS     r0,r0,#27
        0x0000172a:    d015        ..      BEQ      0x1758 ; btod_internal_mul + 296
        0x0000172c:    9b02        ..      LDR      r3,[sp,#8]
        0x0000172e:    2120         !      MOVS     r1,#0x20
        0x00001730:    1a09        ..      SUBS     r1,r1,r0
        0x00001732:    9a03        ..      LDR      r2,[sp,#0xc]
        0x00001734:    408b        .@      LSLS     r3,r3,r1
        0x00001736:    431a        .C      ORRS     r2,r2,r3
        0x00001738:    9203        ..      STR      r2,[sp,#0xc]
        0x0000173a:    9a02        ..      LDR      r2,[sp,#8]
        0x0000173c:    9b01        ..      LDR      r3,[sp,#4]
        0x0000173e:    40c2        .@      LSRS     r2,r2,r0
        0x00001740:    408b        .@      LSLS     r3,r3,r1
        0x00001742:    431a        .C      ORRS     r2,r2,r3
        0x00001744:    9202        ..      STR      r2,[sp,#8]
        0x00001746:    9a01        ..      LDR      r2,[sp,#4]
        0x00001748:    9b00        ..      LDR      r3,[sp,#0]
        0x0000174a:    40c2        .@      LSRS     r2,r2,r0
        0x0000174c:    408b        .@      LSLS     r3,r3,r1
        0x0000174e:    9900        ..      LDR      r1,[sp,#0]
        0x00001750:    431a        .C      ORRS     r2,r2,r3
        0x00001752:    9201        ..      STR      r2,[sp,#4]
        0x00001754:    40c1        .@      LSRS     r1,r1,r0
        0x00001756:    9100        ..      STR      r1,[sp,#0]
        0x00001758:    117b        {.      ASRS     r3,r7,#5
        0x0000175a:    d00d        ..      BEQ      0x1778 ; btod_internal_mul + 328
        0x0000175c:    466f        oF      MOV      r7,sp
        0x0000175e:    2003        .       MOVS     r0,#3
        0x00001760:    1ac1        ..      SUBS     r1,r0,r3
        0x00001762:    d503        ..      BPL      0x176c ; btod_internal_mul + 316
        0x00001764:    2100        .!      MOVS     r1,#0
        0x00001766:    0082        ..      LSLS     r2,r0,#2
        0x00001768:    50b9        .P      STR      r1,[r7,r2]
        0x0000176a:    e003        ..      B        0x1774 ; btod_internal_mul + 324
        0x0000176c:    008a        ..      LSLS     r2,r1,#2
        0x0000176e:    0081        ..      LSLS     r1,r0,#2
        0x00001770:    58ba        .X      LDR      r2,[r7,r2]
        0x00001772:    507a        zP      STR      r2,[r7,r1]
        0x00001774:    1e40        @.      SUBS     r0,r0,#1
        0x00001776:    d5f3        ..      BPL      0x1760 ; btod_internal_mul + 304
        0x00001778:    4637        7F      MOV      r7,r6
        0x0000177a:    9803        ..      LDR      r0,[sp,#0xc]
        0x0000177c:    9902        ..      LDR      r1,[sp,#8]
        0x0000177e:    2800        .(      CMP      r0,#0
        0x00001780:    d000        ..      BEQ      0x1784 ; btod_internal_mul + 340
        0x00001782:    2001        .       MOVS     r0,#1
        0x00001784:    4301        .C      ORRS     r1,r1,r0
        0x00001786:    9808        ..      LDR      r0,[sp,#0x20]
        0x00001788:    9102        ..      STR      r1,[sp,#8]
        0x0000178a:    2800        .(      CMP      r0,#0
        0x0000178c:    4608        .F      MOV      r0,r1
        0x0000178e:    d00c        ..      BEQ      0x17aa ; btod_internal_mul + 378
        0x00001790:    2800        .(      CMP      r0,#0
        0x00001792:    d000        ..      BEQ      0x1796 ; btod_internal_mul + 358
        0x00001794:    2001        .       MOVS     r0,#1
        0x00001796:    9901        ..      LDR      r1,[sp,#4]
        0x00001798:    9a01        ..      LDR      r2,[sp,#4]
        0x0000179a:    0549        I.      LSLS     r1,r1,#21
        0x0000179c:    4308        .C      ORRS     r0,r0,r1
        0x0000179e:    2101        .!      MOVS     r1,#1
        0x000017a0:    0ad2        ..      LSRS     r2,r2,#11
        0x000017a2:    02c9        ..      LSLS     r1,r1,#11
        0x000017a4:    02d2        ..      LSLS     r2,r2,#11
        0x000017a6:    9201        ..      STR      r2,[sp,#4]
        0x000017a8:    e000        ..      B        0x17ac ; btod_internal_mul + 380
        0x000017aa:    2101        .!      MOVS     r1,#1
        0x000017ac:    9b0e        ..      LDR      r3,[sp,#0x38]
        0x000017ae:    2201        ."      MOVS     r2,#1
        0x000017b0:    07d2        ..      LSLS     r2,r2,#31
        0x000017b2:    2b01        .+      CMP      r3,#1
        0x000017b4:    d002        ..      BEQ      0x17bc ; btod_internal_mul + 396
        0x000017b6:    2b00        .+      CMP      r3,#0
        0x000017b8:    d003        ..      BEQ      0x17c2 ; btod_internal_mul + 402
        0x000017ba:    e013        ..      B        0x17e4 ; btod_internal_mul + 436
        0x000017bc:    2800        .(      CMP      r0,#0
        0x000017be:    d107        ..      BNE      0x17d0 ; btod_internal_mul + 416
        0x000017c0:    e020         .      B        0x1804 ; btod_internal_mul + 468
        0x000017c2:    4290        .B      CMP      r0,r2
        0x000017c4:    d804        ..      BHI      0x17d0 ; btod_internal_mul + 416
        0x000017c6:    4290        .B      CMP      r0,r2
        0x000017c8:    d10c        ..      BNE      0x17e4 ; btod_internal_mul + 436
        0x000017ca:    9b01        ..      LDR      r3,[sp,#4]
        0x000017cc:    420b        .B      TST      r3,r1
        0x000017ce:    d009        ..      BEQ      0x17e4 ; btod_internal_mul + 436
        0x000017d0:    9b01        ..      LDR      r3,[sp,#4]
        0x000017d2:    1859        Y.      ADDS     r1,r3,r1
        0x000017d4:    9101        ..      STR      r1,[sp,#4]
        0x000017d6:    d105        ..      BNE      0x17e4 ; btod_internal_mul + 436
        0x000017d8:    9900        ..      LDR      r1,[sp,#0]
        0x000017da:    1c49        I.      ADDS     r1,r1,#1
        0x000017dc:    9100        ..      STR      r1,[sp,#0]
        0x000017de:    d101        ..      BNE      0x17e4 ; btod_internal_mul + 436
        0x000017e0:    1c7f        ..      ADDS     r7,r7,#1
        0x000017e2:    9200        ..      STR      r2,[sp,#0]
        0x000017e4:    2800        .(      CMP      r0,#0
        0x000017e6:    d00d        ..      BEQ      0x1804 ; btod_internal_mul + 468
        0x000017e8:    2110        .!      MOVS     r1,#0x10
        0x000017ea:    4608        .F      MOV      r0,r1
        0x000017ec:    2000        .       MOVS     r0,#0
        0x000017ee:    46c0        .F      MOV      r8,r8
        0x000017f0:    9804        ..      LDR      r0,[sp,#0x10]
        0x000017f2:    2800        .(      CMP      r0,#0
        0x000017f4:    d006        ..      BEQ      0x1804 ; btod_internal_mul + 468
        0x000017f6:    980f        ..      LDR      r0,[sp,#0x3c]
        0x000017f8:    2800        .(      CMP      r0,#0
        0x000017fa:    d003        ..      BEQ      0x1804 ; btod_internal_mul + 468
        0x000017fc:    2108        .!      MOVS     r1,#8
        0x000017fe:    4608        .F      MOV      r0,r1
        0x00001800:    2000        .       MOVS     r0,#0
        0x00001802:    46c0        .F      MOV      r8,r8
        0x00001804:    6828        (h      LDR      r0,[r5,#0]
        0x00001806:    6821        !h      LDR      r1,[r4,#0]
        0x00001808:    9b01        ..      LDR      r3,[sp,#4]
        0x0000180a:    9a00        ..      LDR      r2,[sp,#0]
        0x0000180c:    4048        H@      EORS     r0,r0,r1
        0x0000180e:    0fc1        ..      LSRS     r1,r0,#31
        0x00001810:    9805        ..      LDR      r0,[sp,#0x14]
        0x00001812:    07c9        ..      LSLS     r1,r1,#31
        0x00001814:    4339        9C      ORRS     r1,r1,r7
        0x00001816:    c00e        ..      STM      r0!,{r1-r3}
        0x00001818:    b009        ..      ADD      sp,sp,#0x24
        0x0000181a:    bdf0        ..      POP      {r4-r7,pc}
    btod_internal_div
        0x0000181c:    b5ff        ..      PUSH     {r0-r7,lr}
        0x0000181e:    b087        ..      SUB      sp,sp,#0x1c
        0x00001820:    9a09        ..      LDR      r2,[sp,#0x24]
        0x00001822:    9808        ..      LDR      r0,[sp,#0x20]
        0x00001824:    9908        ..      LDR      r1,[sp,#0x20]
        0x00001826:    6853        Sh      LDR      r3,[r2,#4]
        0x00001828:    6892        .h      LDR      r2,[r2,#8]
        0x0000182a:    6840        @h      LDR      r0,[r0,#4]
        0x0000182c:    6889        .h      LDR      r1,[r1,#8]
        0x0000182e:    4696        .F      MOV      lr,r2
        0x00001830:    2200        ."      MOVS     r2,#0
        0x00001832:    9303        ..      STR      r3,[sp,#0xc]
        0x00001834:    4617        .F      MOV      r7,r2
        0x00001836:    4694        .F      MOV      r12,r2
        0x00001838:    9a08        ..      LDR      r2,[sp,#0x20]
        0x0000183a:    6812        .h      LDR      r2,[r2,#0]
        0x0000183c:    0053        S.      LSLS     r3,r2,#1
        0x0000183e:    9a09        ..      LDR      r2,[sp,#0x24]
        0x00001840:    085b        [.      LSRS     r3,r3,#1
        0x00001842:    6812        .h      LDR      r2,[r2,#0]
        0x00001844:    0052        R.      LSLS     r2,r2,#1
        0x00001846:    0852        R.      LSRS     r2,r2,#1
        0x00001848:    1a9a        ..      SUBS     r2,r3,r2
        0x0000184a:    4b9e        .K      LDR      r3,[pc,#632] ; [0x1ac4] = 0x3fff
        0x0000184c:    18d4        ..      ADDS     r4,r2,r3
        0x0000184e:    9a0a        ..      LDR      r2,[sp,#0x28]
        0x00001850:    2a00        .*      CMP      r2,#0
        0x00001852:    d001        ..      BEQ      0x1858 ; btod_internal_div + 60
        0x00001854:    2235        5"      MOVS     r2,#0x35
        0x00001856:    e000        ..      B        0x185a ; btod_internal_div + 62
        0x00001858:    2240        @"      MOVS     r2,#0x40
        0x0000185a:    9206        ..      STR      r2,[sp,#0x18]
        0x0000185c:    2200        ."      MOVS     r2,#0
        0x0000185e:    2301        .#      MOVS     r3,#1
        0x00001860:    4615        .F      MOV      r5,r2
        0x00001862:    9204        ..      STR      r2,[sp,#0x10]
        0x00001864:    07db        ..      LSLS     r3,r3,#31
        0x00001866:    9305        ..      STR      r3,[sp,#0x14]
        0x00001868:    e024        $.      B        0x18b4 ; btod_internal_div + 152
        0x0000186a:    2d00        .-      CMP      r5,#0
        0x0000186c:    d105        ..      BNE      0x187a ; btod_internal_div + 94
        0x0000186e:    4675        uF      MOV      r5,lr
        0x00001870:    4603        .F      MOV      r3,r0
        0x00001872:    9e03        ..      LDR      r6,[sp,#0xc]
        0x00001874:    1b4d        M.      SUBS     r5,r1,r5
        0x00001876:    41b3        .A      SBCS     r3,r3,r6
        0x00001878:    d309        ..      BCC      0x188e ; btod_internal_div + 114
        0x0000187a:    4675        uF      MOV      r5,lr
        0x0000187c:    4666        fF      MOV      r6,r12
        0x0000187e:    9b03        ..      LDR      r3,[sp,#0xc]
        0x00001880:    1b49        I.      SUBS     r1,r1,r5
        0x00001882:    9d04        ..      LDR      r5,[sp,#0x10]
        0x00001884:    4198        .A      SBCS     r0,r0,r3
        0x00001886:    9b05        ..      LDR      r3,[sp,#0x14]
        0x00001888:    1975        u.      ADDS     r5,r6,r5
        0x0000188a:    46ac        .F      MOV      r12,r5
        0x0000188c:    415f        _A      ADCS     r7,r7,r3
        0x0000188e:    4663        cF      MOV      r3,r12
        0x00001890:    433b        ;C      ORRS     r3,r3,r7
        0x00001892:    d008        ..      BEQ      0x18a6 ; btod_internal_div + 138
        0x00001894:    9b05        ..      LDR      r3,[sp,#0x14]
        0x00001896:    9e04        ..      LDR      r6,[sp,#0x10]
        0x00001898:    07dd        ..      LSLS     r5,r3,#31
        0x0000189a:    0876        v.      LSRS     r6,r6,#1
        0x0000189c:    432e        .C      ORRS     r6,r6,r5
        0x0000189e:    085b        [.      LSRS     r3,r3,#1
        0x000018a0:    9604        ..      STR      r6,[sp,#0x10]
        0x000018a2:    9305        ..      STR      r3,[sp,#0x14]
        0x000018a4:    e001        ..      B        0x18aa ; btod_internal_div + 142
        0x000018a6:    1e52        R.      SUBS     r2,r2,#1
        0x000018a8:    1e64        d.      SUBS     r4,r4,#1
        0x000018aa:    0fc5        ..      LSRS     r5,r0,#31
        0x000018ac:    07ed        ..      LSLS     r5,r5,#31
        0x000018ae:    1849        I.      ADDS     r1,r1,r1
        0x000018b0:    4140        @A      ADCS     r0,r0,r0
        0x000018b2:    1c52        R.      ADDS     r2,r2,#1
        0x000018b4:    9b06        ..      LDR      r3,[sp,#0x18]
        0x000018b6:    429a        .B      CMP      r2,r3
        0x000018b8:    dbd7        ..      BLT      0x186a ; btod_internal_div + 78
        0x000018ba:    2d00        .-      CMP      r5,#0
        0x000018bc:    d104        ..      BNE      0x18c8 ; btod_internal_div + 172
        0x000018be:    4675        uF      MOV      r5,lr
        0x000018c0:    9a03        ..      LDR      r2,[sp,#0xc]
        0x000018c2:    1a6b        k.      SUBS     r3,r5,r1
        0x000018c4:    4182        .A      SBCS     r2,r2,r0
        0x000018c6:    d201        ..      BCS      0x18cc ; btod_internal_div + 176
        0x000018c8:    2003        .       MOVS     r0,#3
        0x000018ca:    e00c        ..      B        0x18e6 ; btod_internal_div + 202
        0x000018cc:    9a03        ..      LDR      r2,[sp,#0xc]
        0x000018ce:    460b        .F      MOV      r3,r1
        0x000018d0:    406b        k@      EORS     r3,r3,r5
        0x000018d2:    4042        B@      EORS     r2,r2,r0
        0x000018d4:    4313        .C      ORRS     r3,r3,r2
        0x000018d6:    d003        ..      BEQ      0x18e0 ; btod_internal_div + 196
        0x000018d8:    4301        .C      ORRS     r1,r1,r0
        0x000018da:    d003        ..      BEQ      0x18e4 ; btod_internal_div + 200
        0x000018dc:    2001        .       MOVS     r0,#1
        0x000018de:    e002        ..      B        0x18e6 ; btod_internal_div + 202
        0x000018e0:    2002        .       MOVS     r0,#2
        0x000018e2:    e000        ..      B        0x18e6 ; btod_internal_div + 202
        0x000018e4:    2000        .       MOVS     r0,#0
        0x000018e6:    4661        aF      MOV      r1,r12
        0x000018e8:    9101        ..      STR      r1,[sp,#4]
        0x000018ea:    2100        .!      MOVS     r1,#0
        0x000018ec:    9700        ..      STR      r7,[sp,#0]
        0x000018ee:    9102        ..      STR      r1,[sp,#8]
        0x000018f0:    990a        ..      LDR      r1,[sp,#0x28]
        0x000018f2:    2900        .)      CMP      r1,#0
        0x000018f4:    d005        ..      BEQ      0x1902 ; btod_internal_div + 230
        0x000018f6:    4661        aF      MOV      r1,r12
        0x000018f8:    0240        @.      LSLS     r0,r0,#9
        0x000018fa:    4301        .C      ORRS     r1,r1,r0
        0x000018fc:    4b70        pK      LDR      r3,[pc,#448] ; [0x1ac0] = 0x3c01
        0x000018fe:    9101        ..      STR      r1,[sp,#4]
        0x00001900:    e002        ..      B        0x1908 ; btod_internal_div + 236
        0x00001902:    0780        ..      LSLS     r0,r0,#30
        0x00001904:    2300        .#      MOVS     r3,#0
        0x00001906:    9002        ..      STR      r0,[sp,#8]
        0x00001908:    429c        .B      CMP      r4,r3
        0x0000190a:    da01        ..      BGE      0x1910 ; btod_internal_div + 244
        0x0000190c:    2001        .       MOVS     r0,#1
        0x0000190e:    e000        ..      B        0x1912 ; btod_internal_div + 246
        0x00001910:    2000        .       MOVS     r0,#0
        0x00001912:    0007        ..      MOVS     r7,r0
        0x00001914:    d03a        :.      BEQ      0x198c ; btod_internal_div + 368
        0x00001916:    1b1a        ..      SUBS     r2,r3,r4
        0x00001918:    06d0        ..      LSLS     r0,r2,#27
        0x0000191a:    0ec0        ..      LSRS     r0,r0,#27
        0x0000191c:    d015        ..      BEQ      0x194a ; btod_internal_div + 302
        0x0000191e:    9d02        ..      LDR      r5,[sp,#8]
        0x00001920:    2120         !      MOVS     r1,#0x20
        0x00001922:    9c01        ..      LDR      r4,[sp,#4]
        0x00001924:    1a09        ..      SUBS     r1,r1,r0
        0x00001926:    40c5        .@      LSRS     r5,r5,r0
        0x00001928:    408c        .@      LSLS     r4,r4,r1
        0x0000192a:    4325        %C      ORRS     r5,r5,r4
        0x0000192c:    9c02        ..      LDR      r4,[sp,#8]
        0x0000192e:    408c        .@      LSLS     r4,r4,r1
        0x00001930:    d000        ..      BEQ      0x1934 ; btod_internal_div + 280
        0x00001932:    2401        .$      MOVS     r4,#1
        0x00001934:    4325        %C      ORRS     r5,r5,r4
        0x00001936:    9c01        ..      LDR      r4,[sp,#4]
        0x00001938:    9502        ..      STR      r5,[sp,#8]
        0x0000193a:    9d00        ..      LDR      r5,[sp,#0]
        0x0000193c:    40c4        .@      LSRS     r4,r4,r0
        0x0000193e:    408d        .@      LSLS     r5,r5,r1
        0x00001940:    9900        ..      LDR      r1,[sp,#0]
        0x00001942:    432c        ,C      ORRS     r4,r4,r5
        0x00001944:    9401        ..      STR      r4,[sp,#4]
        0x00001946:    40c1        .@      LSRS     r1,r1,r0
        0x00001948:    9100        ..      STR      r1,[sp,#0]
        0x0000194a:    1154        T.      ASRS     r4,r2,#5
        0x0000194c:    d01d        ..      BEQ      0x198a ; btod_internal_div + 366
        0x0000194e:    466d        mF      MOV      r5,sp
        0x00001950:    2102        .!      MOVS     r1,#2
        0x00001952:    2200        ."      MOVS     r2,#0
        0x00001954:    2902        .)      CMP      r1,#2
        0x00001956:    d10c        ..      BNE      0x1972 ; btod_internal_div + 342
        0x00001958:    2003        .       MOVS     r0,#3
        0x0000195a:    1b00        ..      SUBS     r0,r0,r4
        0x0000195c:    e007        ..      B        0x196e ; btod_internal_div + 338
        0x0000195e:    2800        .(      CMP      r0,#0
        0x00001960:    db04        ..      BLT      0x196c ; btod_internal_div + 336
        0x00001962:    0086        ..      LSLS     r6,r0,#2
        0x00001964:    59ae        .Y      LDR      r6,[r5,r6]
        0x00001966:    2e00        ..      CMP      r6,#0
        0x00001968:    d000        ..      BEQ      0x196c ; btod_internal_div + 336
        0x0000196a:    2201        ."      MOVS     r2,#1
        0x0000196c:    1c40        @.      ADDS     r0,r0,#1
        0x0000196e:    2803        .(      CMP      r0,#3
        0x00001970:    dbf5        ..      BLT      0x195e ; btod_internal_div + 322
        0x00001972:    1b08        ..      SUBS     r0,r1,r4
        0x00001974:    d502        ..      BPL      0x197c ; btod_internal_div + 352
        0x00001976:    0088        ..      LSLS     r0,r1,#2
        0x00001978:    502a        *P      STR      r2,[r5,r0]
        0x0000197a:    e004        ..      B        0x1986 ; btod_internal_div + 362
        0x0000197c:    0080        ..      LSLS     r0,r0,#2
        0x0000197e:    5828        (X      LDR      r0,[r5,r0]
        0x00001980:    4310        .C      ORRS     r0,r0,r2
        0x00001982:    008a        ..      LSLS     r2,r1,#2
        0x00001984:    50a8        .P      STR      r0,[r5,r2]
        0x00001986:    1e49        I.      SUBS     r1,r1,#1
        0x00001988:    d5e3        ..      BPL      0x1952 ; btod_internal_div + 310
        0x0000198a:    461c        .F      MOV      r4,r3
        0x0000198c:    980a        ..      LDR      r0,[sp,#0x28]
        0x0000198e:    2800        .(      CMP      r0,#0
        0x00001990:    9802        ..      LDR      r0,[sp,#8]
        0x00001992:    d00c        ..      BEQ      0x19ae ; btod_internal_div + 402
        0x00001994:    2800        .(      CMP      r0,#0
        0x00001996:    d000        ..      BEQ      0x199a ; btod_internal_div + 382
        0x00001998:    2001        .       MOVS     r0,#1
        0x0000199a:    9901        ..      LDR      r1,[sp,#4]
        0x0000199c:    9a01        ..      LDR      r2,[sp,#4]
        0x0000199e:    0549        I.      LSLS     r1,r1,#21
        0x000019a0:    4308        .C      ORRS     r0,r0,r1
        0x000019a2:    2101        .!      MOVS     r1,#1
        0x000019a4:    0ad2        ..      LSRS     r2,r2,#11
        0x000019a6:    02c9        ..      LSLS     r1,r1,#11
        0x000019a8:    02d2        ..      LSLS     r2,r2,#11
        0x000019aa:    9201        ..      STR      r2,[sp,#4]
        0x000019ac:    e000        ..      B        0x19b0 ; btod_internal_div + 404
        0x000019ae:    2101        .!      MOVS     r1,#1
        0x000019b0:    9b10        ..      LDR      r3,[sp,#0x40]
        0x000019b2:    2201        ."      MOVS     r2,#1
        0x000019b4:    07d2        ..      LSLS     r2,r2,#31
        0x000019b6:    2b01        .+      CMP      r3,#1
        0x000019b8:    d002        ..      BEQ      0x19c0 ; btod_internal_div + 420
        0x000019ba:    2b00        .+      CMP      r3,#0
        0x000019bc:    d003        ..      BEQ      0x19c6 ; btod_internal_div + 426
        0x000019be:    e013        ..      B        0x19e8 ; btod_internal_div + 460
        0x000019c0:    2800        .(      CMP      r0,#0
        0x000019c2:    d107        ..      BNE      0x19d4 ; btod_internal_div + 440
        0x000019c4:    e01f        ..      B        0x1a06 ; btod_internal_div + 490
        0x000019c6:    4290        .B      CMP      r0,r2
        0x000019c8:    d804        ..      BHI      0x19d4 ; btod_internal_div + 440
        0x000019ca:    4290        .B      CMP      r0,r2
        0x000019cc:    d10c        ..      BNE      0x19e8 ; btod_internal_div + 460
        0x000019ce:    9b01        ..      LDR      r3,[sp,#4]
        0x000019d0:    420b        .B      TST      r3,r1
        0x000019d2:    d009        ..      BEQ      0x19e8 ; btod_internal_div + 460
        0x000019d4:    9b01        ..      LDR      r3,[sp,#4]
        0x000019d6:    1859        Y.      ADDS     r1,r3,r1
        0x000019d8:    9101        ..      STR      r1,[sp,#4]
        0x000019da:    d105        ..      BNE      0x19e8 ; btod_internal_div + 460
        0x000019dc:    9900        ..      LDR      r1,[sp,#0]
        0x000019de:    1c49        I.      ADDS     r1,r1,#1
        0x000019e0:    9100        ..      STR      r1,[sp,#0]
        0x000019e2:    d101        ..      BNE      0x19e8 ; btod_internal_div + 460
        0x000019e4:    1c64        d.      ADDS     r4,r4,#1
        0x000019e6:    9200        ..      STR      r2,[sp,#0]
        0x000019e8:    2800        .(      CMP      r0,#0
        0x000019ea:    d00c        ..      BEQ      0x1a06 ; btod_internal_div + 490
        0x000019ec:    2110        .!      MOVS     r1,#0x10
        0x000019ee:    4608        .F      MOV      r0,r1
        0x000019f0:    2000        .       MOVS     r0,#0
        0x000019f2:    46c0        .F      MOV      r8,r8
        0x000019f4:    2f00        ./      CMP      r7,#0
        0x000019f6:    d006        ..      BEQ      0x1a06 ; btod_internal_div + 490
        0x000019f8:    9811        ..      LDR      r0,[sp,#0x44]
        0x000019fa:    2800        .(      CMP      r0,#0
        0x000019fc:    d003        ..      BEQ      0x1a06 ; btod_internal_div + 490
        0x000019fe:    2108        .!      MOVS     r1,#8
        0x00001a00:    4608        .F      MOV      r0,r1
        0x00001a02:    2000        .       MOVS     r0,#0
        0x00001a04:    46c0        .F      MOV      r8,r8
        0x00001a06:    9808        ..      LDR      r0,[sp,#0x20]
        0x00001a08:    9909        ..      LDR      r1,[sp,#0x24]
        0x00001a0a:    9a01        ..      LDR      r2,[sp,#4]
        0x00001a0c:    9b00        ..      LDR      r3,[sp,#0]
        0x00001a0e:    6800        .h      LDR      r0,[r0,#0]
        0x00001a10:    6809        .h      LDR      r1,[r1,#0]
        0x00001a12:    4048        H@      EORS     r0,r0,r1
        0x00001a14:    0fc1        ..      LSRS     r1,r0,#31
        0x00001a16:    9807        ..      LDR      r0,[sp,#0x1c]
        0x00001a18:    07c9        ..      LSLS     r1,r1,#31
        0x00001a1a:    4321        !C      ORRS     r1,r1,r4
        0x00001a1c:    6082        .`      STR      r2,[r0,#8]
        0x00001a1e:    c00a        ..      STM      r0!,{r1,r3}
        0x00001a20:    b00b        ..      ADD      sp,sp,#0x2c
        0x00001a22:    bdf0        ..      POP      {r4-r7,pc}
    _btod_emul
        0x00001a24:    b500        ..      PUSH     {lr}
        0x00001a26:    b085        ..      SUB      sp,sp,#0x14
        0x00001a28:    9301        ..      STR      r3,[sp,#4]
        0x00001a2a:    9200        ..      STR      r2,[sp,#0]
        0x00001a2c:    460a        .F      MOV      r2,r1
        0x00001a2e:    4601        .F      MOV      r1,r0
        0x00001a30:    2300        .#      MOVS     r3,#0
        0x00001a32:    a802        ..      ADD      r0,sp,#8
        0x00001a34:    f7fffdfc    ....    BL       btod_internal_mul ; 0x1630
        0x00001a38:    a802        ..      ADD      r0,sp,#8
        0x00001a3a:    c807        ..      LDM      r0,{r0-r2}
        0x00001a3c:    b005        ..      ADD      sp,sp,#0x14
        0x00001a3e:    bd00        ..      POP      {pc}
    _btod_emuld
        0x00001a40:    b5ff        ..      PUSH     {r0-r7,lr}
        0x00001a42:    460a        .F      MOV      r2,r1
        0x00001a44:    461f        .F      MOV      r7,r3
        0x00001a46:    b085        ..      SUB      sp,sp,#0x14
        0x00001a48:    9907        ..      LDR      r1,[sp,#0x1c]
        0x00001a4a:    9301        ..      STR      r3,[sp,#4]
        0x00001a4c:    2301        .#      MOVS     r3,#1
        0x00001a4e:    9100        ..      STR      r1,[sp,#0]
        0x00001a50:    4601        .F      MOV      r1,r0
        0x00001a52:    a802        ..      ADD      r0,sp,#8
        0x00001a54:    f7fffdec    ....    BL       btod_internal_mul ; 0x1630
        0x00001a58:    9902        ..      LDR      r1,[sp,#8]
        0x00001a5a:    9803        ..      LDR      r0,[sp,#0xc]
        0x00001a5c:    9e04        ..      LDR      r6,[sp,#0x10]
        0x00001a5e:    0fca        ..      LSRS     r2,r1,#31
        0x00001a60:    0049        I.      LSLS     r1,r1,#1
        0x00001a62:    07d2        ..      LSLS     r2,r2,#31
        0x00001a64:    9200        ..      STR      r2,[sp,#0]
        0x00001a66:    220f        ."      MOVS     r2,#0xf
        0x00001a68:    0849        I.      LSRS     r1,r1,#1
        0x00001a6a:    0292        ..      LSLS     r2,r2,#10
        0x00001a6c:    1a8c        ..      SUBS     r4,r1,r2
        0x00001a6e:    2100        .!      MOVS     r1,#0
        0x00001a70:    2800        .(      CMP      r0,#0
        0x00001a72:    db00        ..      BLT      0x1a76 ; _btod_emuld + 54
        0x00001a74:    460c        .F      MOV      r4,r1
        0x00001a76:    0045        E.      LSLS     r5,r0,#1
        0x00001a78:    4813        .H      LDR      r0,[pc,#76] ; [0x1ac8] = 0x7ff
        0x00001a7a:    086d        m.      LSRS     r5,r5,#1
        0x00001a7c:    4284        .B      CMP      r4,r0
        0x00001a7e:    d314        ..      BCC      0x1aaa ; _btod_emuld + 106
        0x00001a80:    9a07        ..      LDR      r2,[sp,#0x1c]
        0x00001a82:    2a00        .*      CMP      r2,#0
        0x00001a84:    da04        ..      BGE      0x1a90 ; _btod_emuld + 80
        0x00001a86:    1e44        D.      SUBS     r4,r0,#1
        0x00001a88:    2600        .&      MOVS     r6,#0
        0x00001a8a:    4d10        .M      LDR      r5,[pc,#64] ; [0x1acc] = 0x7fffffff
        0x00001a8c:    43f6        .C      MVNS     r6,r6
        0x00001a8e:    e002        ..      B        0x1a96 ; _btod_emuld + 86
        0x00001a90:    4604        .F      MOV      r4,r0
        0x00001a92:    460d        .F      MOV      r5,r1
        0x00001a94:    460e        .F      MOV      r6,r1
        0x00001a96:    2110        .!      MOVS     r1,#0x10
        0x00001a98:    4608        .F      MOV      r0,r1
        0x00001a9a:    2000        .       MOVS     r0,#0
        0x00001a9c:    46c0        .F      MOV      r8,r8
        0x00001a9e:    2f00        ./      CMP      r7,#0
        0x00001aa0:    d003        ..      BEQ      0x1aaa ; _btod_emuld + 106
        0x00001aa2:    2104        .!      MOVS     r1,#4
        0x00001aa4:    4608        .F      MOV      r0,r1
        0x00001aa6:    2000        .       MOVS     r0,#0
        0x00001aa8:    46c0        .F      MOV      r8,r8
        0x00001aaa:    0520         .      LSLS     r0,r4,#20
        0x00001aac:    0ae9        ..      LSRS     r1,r5,#11
        0x00001aae:    4308        .C      ORRS     r0,r0,r1
        0x00001ab0:    9900        ..      LDR      r1,[sp,#0]
        0x00001ab2:    4308        .C      ORRS     r0,r0,r1
        0x00001ab4:    0569        i.      LSLS     r1,r5,#21
        0x00001ab6:    0af2        ..      LSRS     r2,r6,#11
        0x00001ab8:    4311        .C      ORRS     r1,r1,r2
        0x00001aba:    e6ad        ..      B        0x1818 ; btod_internal_mul + 488
    $d
        0x00001abc:    ffffc002    ....    DCD    4294950914
        0x00001ac0:    00003c01    .<..    DCD    15361
        0x00001ac4:    00003fff    .?..    DCD    16383
        0x00001ac8:    000007ff    ....    DCD    2047
        0x00001acc:    7fffffff    ....    DCD    2147483647
    $t
    _btod_ediv
        0x00001ad0:    b500        ..      PUSH     {lr}
        0x00001ad2:    b085        ..      SUB      sp,sp,#0x14
        0x00001ad4:    9301        ..      STR      r3,[sp,#4]
        0x00001ad6:    9200        ..      STR      r2,[sp,#0]
        0x00001ad8:    460a        .F      MOV      r2,r1
        0x00001ada:    4601        .F      MOV      r1,r0
        0x00001adc:    2300        .#      MOVS     r3,#0
        0x00001ade:    a802        ..      ADD      r0,sp,#8
        0x00001ae0:    f7fffe9c    ....    BL       btod_internal_div ; 0x181c
        0x00001ae4:    a802        ..      ADD      r0,sp,#8
        0x00001ae6:    c807        ..      LDM      r0,{r0-r2}
        0x00001ae8:    e7a8        ..      B        0x1a3c ; _btod_emul + 24
    _btod_edivd
        0x00001aea:    b5ff        ..      PUSH     {r0-r7,lr}
        0x00001aec:    460a        .F      MOV      r2,r1
        0x00001aee:    461f        .F      MOV      r7,r3
        0x00001af0:    b085        ..      SUB      sp,sp,#0x14
        0x00001af2:    9907        ..      LDR      r1,[sp,#0x1c]
        0x00001af4:    9301        ..      STR      r3,[sp,#4]
        0x00001af6:    2301        .#      MOVS     r3,#1
        0x00001af8:    9100        ..      STR      r1,[sp,#0]
        0x00001afa:    4601        .F      MOV      r1,r0
        0x00001afc:    a802        ..      ADD      r0,sp,#8
        0x00001afe:    f7fffe8d    ....    BL       btod_internal_div ; 0x181c
        0x00001b02:    9902        ..      LDR      r1,[sp,#8]
        0x00001b04:    9803        ..      LDR      r0,[sp,#0xc]
        0x00001b06:    9e04        ..      LDR      r6,[sp,#0x10]
        0x00001b08:    0fca        ..      LSRS     r2,r1,#31
        0x00001b0a:    0049        I.      LSLS     r1,r1,#1
        0x00001b0c:    07d2        ..      LSLS     r2,r2,#31
        0x00001b0e:    9200        ..      STR      r2,[sp,#0]
        0x00001b10:    220f        ."      MOVS     r2,#0xf
        0x00001b12:    0849        I.      LSRS     r1,r1,#1
        0x00001b14:    0292        ..      LSLS     r2,r2,#10
        0x00001b16:    1a8c        ..      SUBS     r4,r1,r2
        0x00001b18:    2100        .!      MOVS     r1,#0
        0x00001b1a:    2800        .(      CMP      r0,#0
        0x00001b1c:    db00        ..      BLT      0x1b20 ; _btod_edivd + 54
        0x00001b1e:    460c        .F      MOV      r4,r1
        0x00001b20:    0045        E.      LSLS     r5,r0,#1
        0x00001b22:    4811        .H      LDR      r0,[pc,#68] ; [0x1b68] = 0x7ff
        0x00001b24:    086d        m.      LSRS     r5,r5,#1
        0x00001b26:    4284        .B      CMP      r4,r0
        0x00001b28:    d314        ..      BCC      0x1b54 ; _btod_edivd + 106
        0x00001b2a:    9a07        ..      LDR      r2,[sp,#0x1c]
        0x00001b2c:    2a00        .*      CMP      r2,#0
        0x00001b2e:    da04        ..      BGE      0x1b3a ; _btod_edivd + 80
        0x00001b30:    1e44        D.      SUBS     r4,r0,#1
        0x00001b32:    2600        .&      MOVS     r6,#0
        0x00001b34:    4d0d        .M      LDR      r5,[pc,#52] ; [0x1b6c] = 0x7fffffff
        0x00001b36:    43f6        .C      MVNS     r6,r6
        0x00001b38:    e002        ..      B        0x1b40 ; _btod_edivd + 86
        0x00001b3a:    4604        .F      MOV      r4,r0
        0x00001b3c:    460d        .F      MOV      r5,r1
        0x00001b3e:    460e        .F      MOV      r6,r1
        0x00001b40:    2110        .!      MOVS     r1,#0x10
        0x00001b42:    4608        .F      MOV      r0,r1
        0x00001b44:    2000        .       MOVS     r0,#0
        0x00001b46:    46c0        .F      MOV      r8,r8
        0x00001b48:    2f00        ./      CMP      r7,#0
        0x00001b4a:    d003        ..      BEQ      0x1b54 ; _btod_edivd + 106
        0x00001b4c:    2104        .!      MOVS     r1,#4
        0x00001b4e:    4608        .F      MOV      r0,r1
        0x00001b50:    2000        .       MOVS     r0,#0
        0x00001b52:    46c0        .F      MOV      r8,r8
        0x00001b54:    0520         .      LSLS     r0,r4,#20
        0x00001b56:    0ae9        ..      LSRS     r1,r5,#11
        0x00001b58:    4308        .C      ORRS     r0,r0,r1
        0x00001b5a:    9900        ..      LDR      r1,[sp,#0]
        0x00001b5c:    4308        .C      ORRS     r0,r0,r1
        0x00001b5e:    0569        i.      LSLS     r1,r5,#21
        0x00001b60:    0af2        ..      LSRS     r2,r6,#11
        0x00001b62:    4311        .C      ORRS     r1,r1,r2
        0x00001b64:    e658        X.      B        0x1818 ; btod_internal_mul + 488
    $d
        0x00001b66:    0000        ..      DCW    0
        0x00001b68:    000007ff    ....    DCD    2047
        0x00001b6c:    7fffffff    ....    DCD    2147483647
    $t
    .text
    _sys_exit
        0x00001b70:    4901        .I      LDR      r1,[pc,#4] ; [0x1b78] = 0x20026
        0x00001b72:    2018        .       MOVS     r0,#0x18
        0x00001b74:    beab        ..      BKPT     #0xab
        0x00001b76:    e7fe        ..      B        0x1b76 ; _sys_exit + 6
    $d
        0x00001b78:    00020026    &...    DCD    131110
    $t
    .text
    __user_setup_stackheap
        0x00001b7c:    4675        uF      MOV      r5,lr
        0x00001b7e:    f7fefc1f    ....    BL       __user_libspace ; 0x3c0
        0x00001b82:    46ae        .F      MOV      lr,r5
        0x00001b84:    0005        ..      MOVS     r5,r0
        0x00001b86:    4669        iF      MOV      r1,sp
        0x00001b88:    4653        SF      MOV      r3,r10
        0x00001b8a:    08c0        ..      LSRS     r0,r0,#3
        0x00001b8c:    00c0        ..      LSLS     r0,r0,#3
        0x00001b8e:    4685        .F      MOV      sp,r0
        0x00001b90:    b018        ..      ADD      sp,sp,#0x60
        0x00001b92:    b520         .      PUSH     {r5,lr}
        0x00001b94:    f7fefbf8    ....    BL       __user_initial_stackheap ; 0x388
        0x00001b98:    bc60        `.      POP      {r5,r6}
        0x00001b9a:    2700        .'      MOVS     r7,#0
        0x00001b9c:    0849        I.      LSRS     r1,r1,#1
        0x00001b9e:    46b6        .F      MOV      lr,r6
        0x00001ba0:    2600        .&      MOVS     r6,#0
        0x00001ba2:    c5c0        ..      STM      r5!,{r6,r7}
        0x00001ba4:    c5c0        ..      STM      r5!,{r6,r7}
        0x00001ba6:    c5c0        ..      STM      r5!,{r6,r7}
        0x00001ba8:    c5c0        ..      STM      r5!,{r6,r7}
        0x00001baa:    c5c0        ..      STM      r5!,{r6,r7}
        0x00001bac:    c5c0        ..      STM      r5!,{r6,r7}
        0x00001bae:    c5c0        ..      STM      r5!,{r6,r7}
        0x00001bb0:    c5c0        ..      STM      r5!,{r6,r7}
        0x00001bb2:    3d40        @=      SUBS     r5,r5,#0x40
        0x00001bb4:    0049        I.      LSLS     r1,r1,#1
        0x00001bb6:    468d        .F      MOV      sp,r1
        0x00001bb8:    4770        pG      BX       lr
    .text
    _chval
        0x00001bba:    283a        :(      CMP      r0,#0x3a
        0x00001bbc:    d200        ..      BCS      0x1bc0 ; _chval + 6
        0x00001bbe:    3830        08      SUBS     r0,r0,#0x30
        0x00001bc0:    2320         #      MOVS     r3,#0x20
        0x00001bc2:    4602        .F      MOV      r2,r0
        0x00001bc4:    439a        .C      BICS     r2,r2,r3
        0x00001bc6:    2a41        A*      CMP      r2,#0x41
        0x00001bc8:    d301        ..      BCC      0x1bce ; _chval + 20
        0x00001bca:    4610        .F      MOV      r0,r2
        0x00001bcc:    3837        78      SUBS     r0,r0,#0x37
        0x00001bce:    4288        .B      CMP      r0,r1
        0x00001bd0:    d301        ..      BCC      0x1bd6 ; _chval + 28
        0x00001bd2:    2000        .       MOVS     r0,#0
        0x00001bd4:    43c0        .C      MVNS     r0,r0
        0x00001bd6:    4770        pG      BX       lr
    .text
    strcmp
        0x00001bd8:    4602        .F      MOV      r2,r0
        0x00001bda:    b570        p.      PUSH     {r4-r6,lr}
        0x00001bdc:    430a        .C      ORRS     r2,r2,r1
        0x00001bde:    0792        ..      LSLS     r2,r2,#30
        0x00001be0:    d12a        *.      BNE      0x1c38 ; strcmp + 96
        0x00001be2:    4d1e        .M      LDR      r5,[pc,#120] ; [0x1c5c] = 0x1010101
        0x00001be4:    01ee        ..      LSLS     r6,r5,#7
        0x00001be6:    c804        ..      LDM      r0!,{r2}
        0x00001be8:    c908        ..      LDM      r1!,{r3}
        0x00001bea:    1b54        T.      SUBS     r4,r2,r5
        0x00001bec:    4394        .C      BICS     r4,r4,r2
        0x00001bee:    4034        4@      ANDS     r4,r4,r6
        0x00001bf0:    d017        ..      BEQ      0x1c22 ; strcmp + 74
        0x00001bf2:    b2d0        ..      UXTB     r0,r2
        0x00001bf4:    b2d9        ..      UXTB     r1,r3
        0x00001bf6:    1a40        @.      SUBS     r0,r0,r1
        0x00001bf8:    0621        !.      LSLS     r1,r4,#24
        0x00001bfa:    4301        .C      ORRS     r1,r1,r0
        0x00001bfc:    d110        ..      BNE      0x1c20 ; strcmp + 72
        0x00001bfe:    b290        ..      UXTH     r0,r2
        0x00001c00:    b299        ..      UXTH     r1,r3
        0x00001c02:    1a40        @.      SUBS     r0,r0,r1
        0x00001c04:    0421        !.      LSLS     r1,r4,#16
        0x00001c06:    4301        .C      ORRS     r1,r1,r0
        0x00001c08:    d10a        ..      BNE      0x1c20 ; strcmp + 72
        0x00001c0a:    0210        ..      LSLS     r0,r2,#8
        0x00001c0c:    0219        ..      LSLS     r1,r3,#8
        0x00001c0e:    0a00        ..      LSRS     r0,r0,#8
        0x00001c10:    0a09        ..      LSRS     r1,r1,#8
        0x00001c12:    1a40        @.      SUBS     r0,r0,r1
        0x00001c14:    0221        !.      LSLS     r1,r4,#8
        0x00001c16:    4301        .C      ORRS     r1,r1,r0
        0x00001c18:    d102        ..      BNE      0x1c20 ; strcmp + 72
        0x00001c1a:    0e10        ..      LSRS     r0,r2,#24
        0x00001c1c:    0e19        ..      LSRS     r1,r3,#24
        0x00001c1e:    1a40        @.      SUBS     r0,r0,r1
        0x00001c20:    bd70        p.      POP      {r4-r6,pc}
        0x00001c22:    429a        .B      CMP      r2,r3
        0x00001c24:    d0df        ..      BEQ      0x1be6 ; strcmp + 14
        0x00001c26:    ba10        ..      REV      r0,r2
        0x00001c28:    ba19        ..      REV      r1,r3
        0x00001c2a:    4288        .B      CMP      r0,r1
        0x00001c2c:    d901        ..      BLS      0x1c32 ; strcmp + 90
        0x00001c2e:    2001        .       MOVS     r0,#1
        0x00001c30:    bd70        p.      POP      {r4-r6,pc}
        0x00001c32:    2000        .       MOVS     r0,#0
        0x00001c34:    43c0        .C      MVNS     r0,r0
        0x00001c36:    bd70        p.      POP      {r4-r6,pc}
        0x00001c38:    7802        .x      LDRB     r2,[r0,#0]
        0x00001c3a:    780b        .x      LDRB     r3,[r1,#0]
        0x00001c3c:    1c40        @.      ADDS     r0,r0,#1
        0x00001c3e:    1c49        I.      ADDS     r1,r1,#1
        0x00001c40:    2a00        .*      CMP      r2,#0
        0x00001c42:    d009        ..      BEQ      0x1c58 ; strcmp + 128
        0x00001c44:    429a        .B      CMP      r2,r3
        0x00001c46:    d107        ..      BNE      0x1c58 ; strcmp + 128
        0x00001c48:    7802        .x      LDRB     r2,[r0,#0]
        0x00001c4a:    780b        .x      LDRB     r3,[r1,#0]
        0x00001c4c:    1c40        @.      ADDS     r0,r0,#1
        0x00001c4e:    1c49        I.      ADDS     r1,r1,#1
        0x00001c50:    2a00        .*      CMP      r2,#0
        0x00001c52:    d001        ..      BEQ      0x1c58 ; strcmp + 128
        0x00001c54:    429a        .B      CMP      r2,r3
        0x00001c56:    d0ef        ..      BEQ      0x1c38 ; strcmp + 96
        0x00001c58:    1ad0        ..      SUBS     r0,r2,r3
        0x00001c5a:    bd70        p.      POP      {r4-r6,pc}
    $d
        0x00001c5c:    01010101    ....    DCD    16843009
    $t
    .text
    __I$use$semihosting
    __use_no_semihosting_swi
        0x00001c60:    4770        pG      BX       lr
    .text
    __semihosting_library_function
        0x00001c62:    0000        ..      MOVS     r0,r0
    $d
    SVC_TABLE
    SVC_Count
        0x00001c64:    00000000    ....    DCD    0
    $t
    i.CLK_EnableModuleClock
    CLK_EnableModuleClock
    SVC_Table
        0x00001c68:    b51f        ..      PUSH     {r0-r4,lr}
        0x00001c6a:    4909        .I      LDR      r1,[pc,#36] ; [0x1c90] = 0x5090
        0x00001c6c:    c91e        ..      LDM      r1,{r1-r4}
        0x00001c6e:    9403        ..      STR      r4,[sp,#0xc]
        0x00001c70:    466c        lF      MOV      r4,sp
        0x00001c72:    c40e        ..      STM      r4!,{r1-r3}
        0x00001c74:    0f81        ..      LSRS     r1,r0,#30
        0x00001c76:    008a        ..      LSLS     r2,r1,#2
        0x00001c78:    4669        iF      MOV      r1,sp
        0x00001c7a:    588a        .X      LDR      r2,[r1,r2]
        0x00001c7c:    4905        .I      LDR      r1,[pc,#20] ; [0x1c94] = 0x50000200
        0x00001c7e:    1851        Q.      ADDS     r1,r2,r1
        0x00001c80:    684a        Jh      LDR      r2,[r1,#4]
        0x00001c82:    06c3        ..      LSLS     r3,r0,#27
        0x00001c84:    0edb        ..      LSRS     r3,r3,#27
        0x00001c86:    2001        .       MOVS     r0,#1
        0x00001c88:    4098        .@      LSLS     r0,r0,r3
        0x00001c8a:    4302        .C      ORRS     r2,r2,r0
        0x00001c8c:    604a        J`      STR      r2,[r1,#4]
        0x00001c8e:    bd1f        ..      POP      {r0-r4,pc}
    $d
        0x00001c90:    00005090    .P..    DCD    20624
        0x00001c94:    50000200    ...P    DCD    1342177792
    $t
    i.CLK_EnablePLL
    CLK_EnablePLL
        0x00001c98:    b5f0        ..      PUSH     {r4-r7,lr}
        0x00001c9a:    0007        ..      MOVS     r7,r0
        0x00001c9c:    460c        .F      MOV      r4,r1
        0x00001c9e:    4856        VH      LDR      r0,[pc,#344] ; [0x1df8] = 0x50000200
        0x00001ca0:    b085        ..      SUB      sp,sp,#0x14
        0x00001ca2:    4954        TI      LDR      r1,[pc,#336] ; [0x1df4] = 0x10000
        0x00001ca4:    6201        .b      STR      r1,[r0,#0x20]
        0x00001ca6:    4e55        UN      LDR      r6,[pc,#340] ; [0x1dfc] = 0xb71b00
        0x00001ca8:    6801        .h      LDR      r1,[r0,#0]
        0x00001caa:    d013        ..      BEQ      0x1cd4 ; CLK_EnablePLL + 60
        0x00001cac:    2204        ."      MOVS     r2,#4
        0x00001cae:    4311        .C      ORRS     r1,r1,r2
        0x00001cb0:    6001        .`      STR      r1,[r0,#0]
        0x00001cb2:    2010        .       MOVS     r0,#0x10
        0x00001cb4:    f000f9b6    ....    BL       CLK_WaitClockReady ; 0x2024
        0x00001cb8:    2001        .       MOVS     r0,#1
        0x00001cba:    04c0        ..      LSLS     r0,r0,#19
        0x00001cbc:    9002        ..      STR      r0,[sp,#8]
        0x00001cbe:    4850        PH      LDR      r0,[pc,#320] ; [0x1e00] = 0x1518000
        0x00001cc0:    2504        .%      MOVS     r5,#4
        0x00001cc2:    9003        ..      STR      r0,[sp,#0xc]
        0x00001cc4:    484f        OH      LDR      r0,[pc,#316] ; [0x1e04] = 0xfa0a1eff
        0x00001cc6:    4950        PI      LDR      r1,[pc,#320] ; [0x1e08] = 0x5f5e0ff
        0x00001cc8:    1820         .      ADDS     r0,r4,r0
        0x00001cca:    4288        .B      CMP      r0,r1
        0x00001ccc:    d80d        ..      BHI      0x1cea ; CLK_EnablePLL + 82
        0x00001cce:    2000        .       MOVS     r0,#0
        0x00001cd0:    9004        ..      STR      r0,[sp,#0x10]
        0x00001cd2:    e01c        ..      B        0x1d0e ; CLK_EnablePLL + 118
        0x00001cd4:    2201        ."      MOVS     r2,#1
        0x00001cd6:    4311        .C      ORRS     r1,r1,r2
        0x00001cd8:    6001        .`      STR      r1,[r0,#0]
        0x00001cda:    4610        .F      MOV      r0,r2
        0x00001cdc:    f000f9a2    ....    BL       CLK_WaitClockReady ; 0x2024
        0x00001ce0:    2000        .       MOVS     r0,#0
        0x00001ce2:    2502        .%      MOVS     r5,#2
        0x00001ce4:    9603        ..      STR      r6,[sp,#0xc]
        0x00001ce6:    9002        ..      STR      r0,[sp,#8]
        0x00001ce8:    e7ec        ..      B        0x1cc4 ; CLK_EnablePLL + 44
        0x00001cea:    4848        HH      LDR      r0,[pc,#288] ; [0x1e0c] = 0xfd050f7f
        0x00001cec:    4948        HI      LDR      r1,[pc,#288] ; [0x1e10] = 0x2faf07f
        0x00001cee:    1820         .      ADDS     r0,r4,r0
        0x00001cf0:    4288        .B      CMP      r0,r1
        0x00001cf2:    d803        ..      BHI      0x1cfc ; CLK_EnablePLL + 100
        0x00001cf4:    2001        .       MOVS     r0,#1
        0x00001cf6:    0064        d.      LSLS     r4,r4,#1
        0x00001cf8:    9004        ..      STR      r0,[sp,#0x10]
        0x00001cfa:    e008        ..      B        0x1d0e ; CLK_EnablePLL + 118
        0x00001cfc:    4845        EH      LDR      r0,[pc,#276] ; [0x1e14] = 0xfe8287c0
        0x00001cfe:    4945        EI      LDR      r1,[pc,#276] ; [0x1e14] = 0xfe8287c0
        0x00001d00:    1820         .      ADDS     r0,r4,r0
        0x00001d02:    4249        IB      RSBS     r1,r1,#0
        0x00001d04:    4288        .B      CMP      r0,r1
        0x00001d06:    d849        I.      BHI      0x1d9c ; CLK_EnablePLL + 260
        0x00001d08:    2003        .       MOVS     r0,#3
        0x00001d0a:    00a4        ..      LSLS     r4,r4,#2
        0x00001d0c:    9004        ..      STR      r0,[sp,#0x10]
        0x00001d0e:    2600        .&      MOVS     r6,#0
        0x00001d10:    43f6        .C      MVNS     r6,r6
        0x00001d12:    2000        .       MOVS     r0,#0
        0x00001d14:    9000        ..      STR      r0,[sp,#0]
        0x00001d16:    9001        ..      STR      r0,[sp,#4]
        0x00001d18:    e021        !.      B        0x1d5e ; CLK_EnablePLL + 198
        0x00001d1a:    4629        )F      MOV      r1,r5
        0x00001d1c:    9803        ..      LDR      r0,[sp,#0xc]
        0x00001d1e:    f7fefd81    ....    BL       __aeabi_uidiv ; 0x824
        0x00001d22:    493d        =I      LDR      r1,[pc,#244] ; [0x1e18] = 0xffe795ff
        0x00001d24:    4a3d        =J      LDR      r2,[pc,#244] ; [0x1e1c] = 0xcc77bf
        0x00001d26:    1841        A.      ADDS     r1,r0,r1
        0x00001d28:    4291        .B      CMP      r1,r2
        0x00001d2a:    d217        ..      BCS      0x1d5c ; CLK_EnablePLL + 196
        0x00001d2c:    2202        ."      MOVS     r2,#2
        0x00001d2e:    4b35        5K      LDR      r3,[pc,#212] ; [0x1e04] = 0xfa0a1eff
        0x00001d30:    4601        .F      MOV      r1,r0
        0x00001d32:    4351        QC      MULS     r1,r2,r1
        0x00001d34:    1c5b        [.      ADDS     r3,r3,#1
        0x00001d36:    18cf        ..      ADDS     r7,r1,r3
        0x00001d38:    425b        [B      RSBS     r3,r3,#0
        0x00001d3a:    429f        .B      CMP      r7,r3
        0x00001d3c:    d80a        ..      BHI      0x1d54 ; CLK_EnablePLL + 188
        0x00001d3e:    42a1        .B      CMP      r1,r4
        0x00001d40:    d901        ..      BLS      0x1d46 ; CLK_EnablePLL + 174
        0x00001d42:    1b0b        ..      SUBS     r3,r1,r4
        0x00001d44:    e000        ..      B        0x1d48 ; CLK_EnablePLL + 176
        0x00001d46:    1a63        c.      SUBS     r3,r4,r1
        0x00001d48:    42b3        .B      CMP      r3,r6
        0x00001d4a:    d203        ..      BCS      0x1d54 ; CLK_EnablePLL + 188
        0x00001d4c:    001e        ..      MOVS     r6,r3
        0x00001d4e:    9500        ..      STR      r5,[sp,#0]
        0x00001d50:    9201        ..      STR      r2,[sp,#4]
        0x00001d52:    d003        ..      BEQ      0x1d5c ; CLK_EnablePLL + 196
        0x00001d54:    4932        2I      LDR      r1,[pc,#200] ; [0x1e20] = 0x201
        0x00001d56:    1c52        R.      ADDS     r2,r2,#1
        0x00001d58:    428a        .B      CMP      r2,r1
        0x00001d5a:    d9e8        ..      BLS      0x1d2e ; CLK_EnablePLL + 150
        0x00001d5c:    1c6d        m.      ADDS     r5,r5,#1
        0x00001d5e:    2d21        !-      CMP      r5,#0x21
        0x00001d60:    d9db        ..      BLS      0x1d1a ; CLK_EnablePLL + 130
        0x00001d62:    9804        ..      LDR      r0,[sp,#0x10]
        0x00001d64:    9902        ..      LDR      r1,[sp,#8]
        0x00001d66:    0380        ..      LSLS     r0,r0,#14
        0x00001d68:    4308        .C      ORRS     r0,r0,r1
        0x00001d6a:    9900        ..      LDR      r1,[sp,#0]
        0x00001d6c:    2201        ."      MOVS     r2,#1
        0x00001d6e:    0249        I.      LSLS     r1,r1,#9
        0x00001d70:    0292        ..      LSLS     r2,r2,#10
        0x00001d72:    1a89        ..      SUBS     r1,r1,r2
        0x00001d74:    4308        .C      ORRS     r0,r0,r1
        0x00001d76:    9901        ..      LDR      r1,[sp,#4]
        0x00001d78:    1e89        ..      SUBS     r1,r1,#2
        0x00001d7a:    4308        .C      ORRS     r0,r0,r1
        0x00001d7c:    491e        .I      LDR      r1,[pc,#120] ; [0x1df8] = 0x50000200
        0x00001d7e:    6208        .b      STR      r0,[r1,#0x20]
        0x00001d80:    2004        .       MOVS     r0,#4
        0x00001d82:    f000f94f    ..O.    BL       CLK_WaitClockReady ; 0x2024
        0x00001d86:    9904        ..      LDR      r1,[sp,#0x10]
        0x00001d88:    9800        ..      LDR      r0,[sp,#0]
        0x00001d8a:    1c49        I.      ADDS     r1,r1,#1
        0x00001d8c:    4341        AC      MULS     r1,r0,r1
        0x00001d8e:    9803        ..      LDR      r0,[sp,#0xc]
        0x00001d90:    f7fefd48    ..H.    BL       __aeabi_uidiv ; 0x824
        0x00001d94:    9901        ..      LDR      r1,[sp,#4]
        0x00001d96:    4348        HC      MULS     r0,r1,r0
        0x00001d98:    b005        ..      ADD      sp,sp,#0x14
        0x00001d9a:    bdf0        ..      POP      {r4-r7,pc}
        0x00001d9c:    2f00        ./      CMP      r7,#0
        0x00001d9e:    d00f        ..      BEQ      0x1dc0 ; CLK_EnablePLL + 296
        0x00001da0:    4920         I      LDR      r1,[pc,#128] ; [0x1e24] = 0xd66f
        0x00001da2:    4815        .H      LDR      r0,[pc,#84] ; [0x1df8] = 0x50000200
        0x00001da4:    6201        .b      STR      r1,[r0,#0x20]
        0x00001da6:    2004        .       MOVS     r0,#4
        0x00001da8:    f000f93c    ..<.    BL       CLK_WaitClockReady ; 0x2024
        0x00001dac:    a01e        ..      ADR      r0,{pc}+0x7c ; 0x1e28
        0x00001dae:    6800        .h      LDR      r0,[r0,#0]
        0x00001db0:    9000        ..      STR      r0,[sp,#0]
        0x00001db2:    4811        .H      LDR      r0,[pc,#68] ; [0x1df8] = 0x50000200
        0x00001db4:    6a01        .j      LDR      r1,[r0,#0x20]
        0x00001db6:    1300        ..      ASRS     r0,r0,#12
        0x00001db8:    4201        .B      TST      r1,r0
        0x00001dba:    d003        ..      BEQ      0x1dc4 ; CLK_EnablePLL + 300
        0x00001dbc:    2000        .       MOVS     r0,#0
        0x00001dbe:    e7eb        ..      B        0x1d98 ; CLK_EnablePLL + 256
        0x00001dc0:    491a        .I      LDR      r1,[pc,#104] ; [0x1e2c] = 0xc22e
        0x00001dc2:    e7ee        ..      B        0x1da2 ; CLK_EnablePLL + 266
        0x00001dc4:    0308        ..      LSLS     r0,r1,#12
        0x00001dc6:    d500        ..      BPL      0x1dca ; CLK_EnablePLL + 306
        0x00001dc8:    4e0d        .N      LDR      r6,[pc,#52] ; [0x1e00] = 0x1518000
        0x00001dca:    0388        ..      LSLS     r0,r1,#14
        0x00001dcc:    d501        ..      BPL      0x1dd2 ; CLK_EnablePLL + 314
        0x00001dce:    4630        0F      MOV      r0,r6
        0x00001dd0:    e7e2        ..      B        0x1d98 ; CLK_EnablePLL + 256
        0x00001dd2:    0408        ..      LSLS     r0,r1,#16
        0x00001dd4:    0f80        ..      LSRS     r0,r0,#30
        0x00001dd6:    466a        jF      MOV      r2,sp
        0x00001dd8:    5c10        .\      LDRB     r0,[r2,r0]
        0x00001dda:    05ca        ..      LSLS     r2,r1,#23
        0x00001ddc:    0489        ..      LSLS     r1,r1,#18
        0x00001dde:    0ec9        ..      LSRS     r1,r1,#27
        0x00001de0:    1c89        ..      ADDS     r1,r1,#2
        0x00001de2:    0dd2        ..      LSRS     r2,r2,#23
        0x00001de4:    4341        AC      MULS     r1,r0,r1
        0x00001de6:    08b0        ..      LSRS     r0,r6,#2
        0x00001de8:    1c92        ..      ADDS     r2,r2,#2
        0x00001dea:    4350        PC      MULS     r0,r2,r0
        0x00001dec:    f7fefd1a    ....    BL       __aeabi_uidiv ; 0x824
        0x00001df0:    0080        ..      LSLS     r0,r0,#2
        0x00001df2:    e7d1        ..      B        0x1d98 ; CLK_EnablePLL + 256
    $d
        0x00001df4:    00010000    ....    DCD    65536
        0x00001df8:    50000200    ...P    DCD    1342177792
        0x00001dfc:    00b71b00    ....    DCD    12000000
        0x00001e00:    01518000    ..Q.    DCD    22118400
        0x00001e04:    fa0a1eff    ....    DCD    4194967295
        0x00001e08:    05f5e0ff    ....    DCD    99999999
        0x00001e0c:    fd050f7f    ....    DCD    4244967295
        0x00001e10:    02faf07f    ....    DCD    49999999
        0x00001e14:    fe8287c0    ....    DCD    4269967296
        0x00001e18:    ffe795ff    ....    DCD    4293367295
        0x00001e1c:    00cc77bf    .w..    DCD    13399999
        0x00001e20:    00000201    ....    DCD    513
        0x00001e24:    0000d66f    o...    DCD    54895
        0x00001e28:    04020201    ....    DCD    67240449
        0x00001e2c:    0000c22e    ....    DCD    49710
    $t
    i.CLK_EnableXtalRC
    CLK_EnableXtalRC
        0x00001e30:    4902        .I      LDR      r1,[pc,#8] ; [0x1e3c] = 0x50000200
        0x00001e32:    680a        .h      LDR      r2,[r1,#0]
        0x00001e34:    4302        .C      ORRS     r2,r2,r0
        0x00001e36:    600a        .`      STR      r2,[r1,#0]
        0x00001e38:    4770        pG      BX       lr
    $d
        0x00001e3a:    0000        ..      DCW    0
        0x00001e3c:    50000200    ...P    DCD    1342177792
    $t
    i.CLK_GetPLLClockFreq
    CLK_GetPLLClockFreq
        0x00001e40:    b508        ..      PUSH     {r3,lr}
        0x00001e42:    a011        ..      ADR      r0,{pc}+0x46 ; 0x1e88
        0x00001e44:    6800        .h      LDR      r0,[r0,#0]
        0x00001e46:    9000        ..      STR      r0,[sp,#0]
        0x00001e48:    4810        .H      LDR      r0,[pc,#64] ; [0x1e8c] = 0x50000200
        0x00001e4a:    6a01        .j      LDR      r1,[r0,#0x20]
        0x00001e4c:    1300        ..      ASRS     r0,r0,#12
        0x00001e4e:    4201        .B      TST      r1,r0
        0x00001e50:    d001        ..      BEQ      0x1e56 ; CLK_GetPLLClockFreq + 22
        0x00001e52:    2000        .       MOVS     r0,#0
        0x00001e54:    bd08        ..      POP      {r3,pc}
        0x00001e56:    0308        ..      LSLS     r0,r1,#12
        0x00001e58:    d501        ..      BPL      0x1e5e ; CLK_GetPLLClockFreq + 30
        0x00001e5a:    480d        .H      LDR      r0,[pc,#52] ; [0x1e90] = 0x1518000
        0x00001e5c:    e000        ..      B        0x1e60 ; CLK_GetPLLClockFreq + 32
        0x00001e5e:    480d        .H      LDR      r0,[pc,#52] ; [0x1e94] = 0xb71b00
        0x00001e60:    038a        ..      LSLS     r2,r1,#14
        0x00001e62:    d4f7        ..      BMI      0x1e54 ; CLK_GetPLLClockFreq + 20
        0x00001e64:    040a        ..      LSLS     r2,r1,#16
        0x00001e66:    0f92        ..      LSRS     r2,r2,#30
        0x00001e68:    466b        kF      MOV      r3,sp
        0x00001e6a:    5c9b        .\      LDRB     r3,[r3,r2]
        0x00001e6c:    05ca        ..      LSLS     r2,r1,#23
        0x00001e6e:    0489        ..      LSLS     r1,r1,#18
        0x00001e70:    0dd2        ..      LSRS     r2,r2,#23
        0x00001e72:    0ec9        ..      LSRS     r1,r1,#27
        0x00001e74:    1c89        ..      ADDS     r1,r1,#2
        0x00001e76:    0880        ..      LSRS     r0,r0,#2
        0x00001e78:    1c92        ..      ADDS     r2,r2,#2
        0x00001e7a:    4359        YC      MULS     r1,r3,r1
        0x00001e7c:    4350        PC      MULS     r0,r2,r0
        0x00001e7e:    f7fefcd1    ....    BL       __aeabi_uidiv ; 0x824
        0x00001e82:    0080        ..      LSLS     r0,r0,#2
        0x00001e84:    bd08        ..      POP      {r3,pc}
    $d
        0x00001e86:    0000        ..      DCW    0
        0x00001e88:    04020201    ....    DCD    67240449
        0x00001e8c:    50000200    ...P    DCD    1342177792
        0x00001e90:    01518000    ..Q.    DCD    22118400
        0x00001e94:    00b71b00    ....    DCD    12000000
    $t
    i.CLK_SetCoreClock
    CLK_SetCoreClock
        0x00001e98:    b5f8        ..      PUSH     {r3-r7,lr}
        0x00001e9a:    4c1b        .L      LDR      r4,[pc,#108] ; [0x1f08] = 0x50000200
        0x00001e9c:    68e5        .h      LDR      r5,[r4,#0xc]
        0x00001e9e:    2110        .!      MOVS     r1,#0x10
        0x00001ea0:    400d        .@      ANDS     r5,r5,r1
        0x00001ea2:    491a        .I      LDR      r1,[pc,#104] ; [0x1f0c] = 0x2faf080
        0x00001ea4:    4288        .B      CMP      r0,r1
        0x00001ea6:    d802        ..      BHI      0x1eae ; CLK_SetCoreClock + 22
        0x00001ea8:    1049        I.      ASRS     r1,r1,#1
        0x00001eaa:    4288        .B      CMP      r0,r1
        0x00001eac:    d200        ..      BCS      0x1eb0 ; CLK_SetCoreClock + 24
        0x00001eae:    4608        .F      MOV      r0,r1
        0x00001eb0:    6821        !h      LDR      r1,[r4,#0]
        0x00001eb2:    2604        .&      MOVS     r6,#4
        0x00001eb4:    4331        1C      ORRS     r1,r1,r6
        0x00001eb6:    6021        !`      STR      r1,[r4,#0]
        0x00001eb8:    68e1        .h      LDR      r1,[r4,#0xc]
        0x00001eba:    06c9        ..      LSLS     r1,r1,#27
        0x00001ebc:    d5fc        ..      BPL      0x1eb8 ; CLK_SetCoreClock + 32
        0x00001ebe:    6921        !i      LDR      r1,[r4,#0x10]
        0x00001ec0:    2207        ."      MOVS     r2,#7
        0x00001ec2:    4311        .C      ORRS     r1,r1,r2
        0x00001ec4:    6121        !a      STR      r1,[r4,#0x10]
        0x00001ec6:    6a21        !j      LDR      r1,[r4,#0x20]
        0x00001ec8:    2201        ."      MOVS     r2,#1
        0x00001eca:    0412        ..      LSLS     r2,r2,#16
        0x00001ecc:    4311        .C      ORRS     r1,r1,r2
        0x00001ece:    6221        !b      STR      r1,[r4,#0x20]
        0x00001ed0:    6821        !h      LDR      r1,[r4,#0]
        0x00001ed2:    07c9        ..      LSLS     r1,r1,#31
        0x00001ed4:    4601        .F      MOV      r1,r0
        0x00001ed6:    d004        ..      BEQ      0x1ee2 ; CLK_SetCoreClock + 74
        0x00001ed8:    2000        .       MOVS     r0,#0
        0x00001eda:    f7fffedd    ....    BL       CLK_EnablePLL ; 0x1c98
        0x00001ede:    4607        .F      MOV      r7,r0
        0x00001ee0:    e007        ..      B        0x1ef2 ; CLK_SetCoreClock + 90
        0x00001ee2:    2001        .       MOVS     r0,#1
        0x00001ee4:    04c0        ..      LSLS     r0,r0,#19
        0x00001ee6:    f7fffed7    ....    BL       CLK_EnablePLL ; 0x1c98
        0x00001eea:    68e5        .h      LDR      r5,[r4,#0xc]
        0x00001eec:    4607        .F      MOV      r7,r0
        0x00001eee:    2010        .       MOVS     r0,#0x10
        0x00001ef0:    4005        .@      ANDS     r5,r5,r0
        0x00001ef2:    2100        .!      MOVS     r1,#0
        0x00001ef4:    2002        .       MOVS     r0,#2
        0x00001ef6:    f000f80b    ....    BL       CLK_SetHCLK ; 0x1f10
        0x00001efa:    2d00        .-      CMP      r5,#0
        0x00001efc:    d102        ..      BNE      0x1f04 ; CLK_SetCoreClock + 108
        0x00001efe:    6820         h      LDR      r0,[r4,#0]
        0x00001f00:    43b0        .C      BICS     r0,r0,r6
        0x00001f02:    6020         `      STR      r0,[r4,#0]
        0x00001f04:    4638        8F      MOV      r0,r7
        0x00001f06:    bdf8        ..      POP      {r3-r7,pc}
    $d
        0x00001f08:    50000200    ...P    DCD    1342177792
        0x00001f0c:    02faf080    ....    DCD    50000000
    $t
    i.CLK_SetHCLK
    CLK_SetHCLK
        0x00001f10:    b570        p.      PUSH     {r4-r6,lr}
        0x00001f12:    4c10        .L      LDR      r4,[pc,#64] ; [0x1f54] = 0x50000200
        0x00001f14:    68e5        .h      LDR      r5,[r4,#0xc]
        0x00001f16:    2610        .&      MOVS     r6,#0x10
        0x00001f18:    6822        "h      LDR      r2,[r4,#0]
        0x00001f1a:    4035        5@      ANDS     r5,r5,r6
        0x00001f1c:    2304        .#      MOVS     r3,#4
        0x00001f1e:    431a        .C      ORRS     r2,r2,r3
        0x00001f20:    6022        "`      STR      r2,[r4,#0]
        0x00001f22:    68e2        .h      LDR      r2,[r4,#0xc]
        0x00001f24:    06d2        ..      LSLS     r2,r2,#27
        0x00001f26:    d5fc        ..      BPL      0x1f22 ; CLK_SetHCLK + 18
        0x00001f28:    6922        "i      LDR      r2,[r4,#0x10]
        0x00001f2a:    2307        .#      MOVS     r3,#7
        0x00001f2c:    431a        .C      ORRS     r2,r2,r3
        0x00001f2e:    6122        "a      STR      r2,[r4,#0x10]
        0x00001f30:    69a2        .i      LDR      r2,[r4,#0x18]
        0x00001f32:    0912        ..      LSRS     r2,r2,#4
        0x00001f34:    0112        ..      LSLS     r2,r2,#4
        0x00001f36:    430a        .C      ORRS     r2,r2,r1
        0x00001f38:    61a2        .a      STR      r2,[r4,#0x18]
        0x00001f3a:    6921        !i      LDR      r1,[r4,#0x10]
        0x00001f3c:    4399        .C      BICS     r1,r1,r3
        0x00001f3e:    4301        .C      ORRS     r1,r1,r0
        0x00001f40:    6121        !a      STR      r1,[r4,#0x10]
        0x00001f42:    f000ff39    ..9.    BL       SystemCoreClockUpdate ; 0x2db8
        0x00001f46:    2d00        .-      CMP      r5,#0
        0x00001f48:    d102        ..      BNE      0x1f50 ; CLK_SetHCLK + 64
        0x00001f4a:    6820         h      LDR      r0,[r4,#0]
        0x00001f4c:    43b0        .C      BICS     r0,r0,r6
        0x00001f4e:    6020         `      STR      r0,[r4,#0]
        0x00001f50:    bd70        p.      POP      {r4-r6,pc}
    $d
        0x00001f52:    0000        ..      DCW    0
        0x00001f54:    50000200    ...P    DCD    1342177792
    $t
    i.CLK_SetModuleClock
    CLK_SetModuleClock
        0x00001f58:    b5f0        ..      PUSH     {r4-r7,lr}
        0x00001f5a:    4b2c        ,K      LDR      r3,[pc,#176] ; [0x200c] = 0x5078
        0x00001f5c:    b086        ..      SUB      sp,sp,#0x18
        0x00001f5e:    461c        .F      MOV      r4,r3
        0x00001f60:    3408        .4      ADDS     r4,r4,#8
        0x00001f62:    ccf0        ..      LDM      r4,{r4-r7}
        0x00001f64:    9400        ..      STR      r4,[sp,#0]
        0x00001f66:    ac01        ..      ADD      r4,sp,#4
        0x00001f68:    c4e0        ..      STM      r4!,{r5-r7}
        0x00001f6a:    cb18        ..      LDM      r3,{r3,r4}
        0x00001f6c:    9304        ..      STR      r3,[sp,#0x10]
        0x00001f6e:    0e43        C.      LSRS     r3,r0,#25
        0x00001f70:    9405        ..      STR      r4,[sp,#0x14]
        0x00001f72:    075b        [.      LSLS     r3,r3,#29
        0x00001f74:    d034        4.      BEQ      0x1fe0 ; CLK_SetModuleClock + 136
        0x00001f76:    0083        ..      LSLS     r3,r0,#2
        0x00001f78:    0f9b        ..      LSRS     r3,r3,#30
        0x00001f7a:    009b        ..      LSLS     r3,r3,#2
        0x00001f7c:    466c        lF      MOV      r4,sp
        0x00001f7e:    58e3        .X      LDR      r3,[r4,r3]
        0x00001f80:    4c23        #L      LDR      r4,[pc,#140] ; [0x2010] = 0x50000210
        0x00001f82:    191b        ..      ADDS     r3,r3,r4
        0x00001f84:    0104        ..      LSLS     r4,r0,#4
        0x00001f86:    0f65        e.      LSRS     r5,r4,#29
        0x00001f88:    01c4        ..      LSLS     r4,r0,#7
        0x00001f8a:    0ee4        ..      LSRS     r4,r4,#27
        0x00001f8c:    40a5        .@      LSLS     r5,r5,r4
        0x00001f8e:    681c        .h      LDR      r4,[r3,#0]
        0x00001f90:    43ac        .C      BICS     r4,r4,r5
        0x00001f92:    430c        .C      ORRS     r4,r4,r1
        0x00001f94:    601c        .`      STR      r4,[r3,#0]
        0x00001f96:    4b1e        .K      LDR      r3,[pc,#120] ; [0x2010] = 0x50000210
        0x00001f98:    4c1e        .L      LDR      r4,[pc,#120] ; [0x2014] = 0x57c00014
        0x00001f9a:    3b10        .;      SUBS     r3,r3,#0x10
        0x00001f9c:    42a0        .B      CMP      r0,r4
        0x00001f9e:    d107        ..      BNE      0x1fb0 ; CLK_SetModuleClock + 88
        0x00001fa0:    69dd        .i      LDR      r5,[r3,#0x1c]
        0x00001fa2:    24ff        .$      MOVS     r4,#0xff
        0x00001fa4:    3401        .4      ADDS     r4,#1
        0x00001fa6:    43a5        .C      BICS     r5,r5,r4
        0x00001fa8:    4021        !@      ANDS     r1,r1,r4
        0x00001faa:    430d        .C      ORRS     r5,r5,r1
        0x00001fac:    61dd        .a      STR      r5,[r3,#0x1c]
        0x00001fae:    e017        ..      B        0x1fe0 ; CLK_SetModuleClock + 136
        0x00001fb0:    4c19        .L      LDR      r4,[pc,#100] ; [0x2018] = 0x57e00015
        0x00001fb2:    42a0        .B      CMP      r0,r4
        0x00001fb4:    d103        ..      BNE      0x1fbe ; CLK_SetModuleClock + 102
        0x00001fb6:    69dc        .i      LDR      r4,[r3,#0x1c]
        0x00001fb8:    2501        .%      MOVS     r5,#1
        0x00001fba:    026d        m.      LSLS     r5,r5,#9
        0x00001fbc:    e00c        ..      B        0x1fd8 ; CLK_SetModuleClock + 128
        0x00001fbe:    4c17        .L      LDR      r4,[pc,#92] ; [0x201c] = 0x66400016
        0x00001fc0:    42a0        .B      CMP      r0,r4
        0x00001fc2:    d103        ..      BNE      0x1fcc ; CLK_SetModuleClock + 116
        0x00001fc4:    69dc        .i      LDR      r4,[r3,#0x1c]
        0x00001fc6:    2501        .%      MOVS     r5,#1
        0x00001fc8:    02ad        ..      LSLS     r5,r5,#10
        0x00001fca:    e005        ..      B        0x1fd8 ; CLK_SetModuleClock + 128
        0x00001fcc:    4c14        .L      LDR      r4,[pc,#80] ; [0x2020] = 0x66600017
        0x00001fce:    42a0        .B      CMP      r0,r4
        0x00001fd0:    d106        ..      BNE      0x1fe0 ; CLK_SetModuleClock + 136
        0x00001fd2:    69dc        .i      LDR      r4,[r3,#0x1c]
        0x00001fd4:    2501        .%      MOVS     r5,#1
        0x00001fd6:    02ed        ..      LSLS     r5,r5,#11
        0x00001fd8:    43ac        .C      BICS     r4,r4,r5
        0x00001fda:    4029        )@      ANDS     r1,r1,r5
        0x00001fdc:    430c        .C      ORRS     r4,r4,r1
        0x00001fde:    61dc        .a      STR      r4,[r3,#0x1c]
        0x00001fe0:    0a83        ..      LSRS     r3,r0,#10
        0x00001fe2:    0619        ..      LSLS     r1,r3,#24
        0x00001fe4:    0e09        ..      LSRS     r1,r1,#24
        0x00001fe6:    d00f        ..      BEQ      0x2008 ; CLK_SetModuleClock + 176
        0x00001fe8:    0301        ..      LSLS     r1,r0,#12
        0x00001fea:    0f89        ..      LSRS     r1,r1,#30
        0x00001fec:    0089        ..      LSLS     r1,r1,#2
        0x00001fee:    ac04        ..      ADD      r4,sp,#0x10
        0x00001ff0:    5861        aX      LDR      r1,[r4,r1]
        0x00001ff2:    4c07        .L      LDR      r4,[pc,#28] ; [0x2010] = 0x50000210
        0x00001ff4:    0580        ..      LSLS     r0,r0,#22
        0x00001ff6:    3408        .4      ADDS     r4,r4,#8
        0x00001ff8:    1909        ..      ADDS     r1,r1,r4
        0x00001ffa:    b2db        ..      UXTB     r3,r3
        0x00001ffc:    0ec0        ..      LSRS     r0,r0,#27
        0x00001ffe:    4083        .@      LSLS     r3,r3,r0
        0x00002000:    6808        .h      LDR      r0,[r1,#0]
        0x00002002:    4398        .C      BICS     r0,r0,r3
        0x00002004:    4310        .C      ORRS     r0,r0,r2
        0x00002006:    6008        .`      STR      r0,[r1,#0]
        0x00002008:    b006        ..      ADD      sp,sp,#0x18
        0x0000200a:    bdf0        ..      POP      {r4-r7,pc}
    $d
        0x0000200c:    00005078    xP..    DCD    20600
        0x00002010:    50000210    ...P    DCD    1342177808
        0x00002014:    57c00014    ...W    DCD    1472200724
        0x00002018:    57e00015    ...W    DCD    1474297877
        0x0000201c:    66400016    ..@f    DCD    1715470358
        0x00002020:    66600017    ..`f    DCD    1717567511
    $t
    i.CLK_WaitClockReady
    CLK_WaitClockReady
        0x00002024:    b510        ..      PUSH     {r4,lr}
        0x00002026:    4604        .F      MOV      r4,r0
        0x00002028:    4907        .I      LDR      r1,[pc,#28] ; [0x2048] = 0x124f80
        0x0000202a:    4b08        .K      LDR      r3,[pc,#32] ; [0x204c] = 0x50000200
        0x0000202c:    e005        ..      B        0x203a ; CLK_WaitClockReady + 22
        0x0000202e:    460a        .F      MOV      r2,r1
        0x00002030:    1e49        I.      SUBS     r1,r1,#1
        0x00002032:    2a00        .*      CMP      r2,#0
        0x00002034:    dc01        ..      BGT      0x203a ; CLK_WaitClockReady + 22
        0x00002036:    2000        .       MOVS     r0,#0
        0x00002038:    bd10        ..      POP      {r4,pc}
        0x0000203a:    68da        .h      LDR      r2,[r3,#0xc]
        0x0000203c:    4620         F      MOV      r0,r4
        0x0000203e:    4390        .C      BICS     r0,r0,r2
        0x00002040:    d1f5        ..      BNE      0x202e ; CLK_WaitClockReady + 10
        0x00002042:    2001        .       MOVS     r0,#1
        0x00002044:    bd10        ..      POP      {r4,pc}
    $d
        0x00002046:    0000        ..      DCW    0
        0x00002048:    00124f80    .O..    DCD    1200000
        0x0000204c:    50000200    ...P    DCD    1342177792
    $t
    i.GNSS
    GNSS
        0x00002050:    b508        ..      PUSH     {r3,lr}
        0x00002052:    2401        .$      MOVS     r4,#1
        0x00002054:    4d08        .M      LDR      r5,[pc,#32] ; [0x2078] = 0x20000004
        0x00002056:    4f09        .O      LDR      r7,[pc,#36] ; [0x207c] = 0x1324
        0x00002058:    260a        .&      MOVS     r6,#0xa
        0x0000205a:    602c        ,`      STR      r4,[r5,#0]
        0x0000205c:    a308        ..      ADR      r3,{pc}+0x24 ; 0x2080
        0x0000205e:    a20a        ..      ADR      r2,{pc}+0x2a ; 0x2088
        0x00002060:    a10a        ..      ADR      r1,{pc}+0x2c ; 0x208c
        0x00002062:    a00d        ..      ADR      r0,{pc}+0x36 ; 0x2098
        0x00002064:    9600        ..      STR      r6,[sp,#0]
        0x00002066:    f000fbe5    ....    BL       SendAT_GPS ; 0x2834
        0x0000206a:    4638        8F      MOV      r0,r7
        0x0000206c:    f001fd4e    ..N.    BL       osDelay ; 0x3b0c
        0x00002070:    200a        .       MOVS     r0,#0xa
        0x00002072:    f001fd4b    ..K.    BL       osDelay ; 0x3b0c
        0x00002076:    e7f0        ..      B        0x205a ; GNSS + 10
    $d
        0x00002078:    20000004    ...     DCD    536870916
        0x0000207c:    00001324    $...    DCD    4900
        0x00002080:    4f525245    ERRO    DCD    1330795077
        0x00002084:    00000052    R...    DCD    82
        0x00002088:    00004b4f    OK..    DCD    19279
        0x0000208c:    5350474d    MGPS    DCD    1397770061
        0x00002090:    54415453    STAT    DCD    1413567571
        0x00002094:    00005355    US..    DCD    21333
        0x00002098:    0a0d0a0d    ....    DCD    168626701
        0x0000209c:    512b5441    AT+Q    DCD    1361794113
        0x000020a0:    53534e47    GNSS    DCD    1397968455
        0x000020a4:    223d4452    RD="    DCD    574440530
        0x000020a8:    41454d4e    NMEA    DCD    1095060814
        0x000020ac:    434d522f    /RMC    DCD    1129140783
        0x000020b0:    0d0a0d22    "...    DCD    218762530
        0x000020b4:    000a0d0a    ....    DCD    658698
    $t
    i.GPIO_SetMode
    GPIO_SetMode
        0x000020b8:    b5f0        ..      PUSH     {r4-r7,lr}
        0x000020ba:    2300        .#      MOVS     r3,#0
        0x000020bc:    2701        .'      MOVS     r7,#1
        0x000020be:    463c        <F      MOV      r4,r7
        0x000020c0:    409c        .@      LSLS     r4,r4,r3
        0x000020c2:    420c        .B      TST      r4,r1
        0x000020c4:    d008        ..      BEQ      0x20d8 ; GPIO_SetMode + 32
        0x000020c6:    6805        .h      LDR      r5,[r0,#0]
        0x000020c8:    005c        \.      LSLS     r4,r3,#1
        0x000020ca:    2603        .&      MOVS     r6,#3
        0x000020cc:    40a6        .@      LSLS     r6,r6,r4
        0x000020ce:    43b5        .C      BICS     r5,r5,r6
        0x000020d0:    4616        .F      MOV      r6,r2
        0x000020d2:    40a6        .@      LSLS     r6,r6,r4
        0x000020d4:    4335        5C      ORRS     r5,r5,r6
        0x000020d6:    6005        .`      STR      r5,[r0,#0]
        0x000020d8:    1c5b        [.      ADDS     r3,r3,#1
        0x000020da:    2b10        .+      CMP      r3,#0x10
        0x000020dc:    d3ef        ..      BCC      0x20be ; GPIO_SetMode + 6
        0x000020de:    bdf0        ..      POP      {r4-r7,pc}
    i.GSM
    GSM
        0x000020e0:    b51c        ..      PUSH     {r2-r4,lr}
        0x000020e2:    2701        .'      MOVS     r7,#1
        0x000020e4:    2605        .&      MOVS     r6,#5
        0x000020e6:    4d3e        >M      LDR      r5,[pc,#248] ; [0x21e0] = 0x20000013
        0x000020e8:    240a        .$      MOVS     r4,#0xa
        0x000020ea:    a33e        >.      ADR      r3,{pc}+0xfa ; 0x21e4
        0x000020ec:    a23f        ?.      ADR      r2,{pc}+0x100 ; 0x21ec
        0x000020ee:    a143        C.      ADR      r1,{pc}+0x10e ; 0x21fc
        0x000020f0:    a043        C.      ADR      r0,{pc}+0x110 ; 0x2200
        0x000020f2:    9700        ..      STR      r7,[sp,#0]
        0x000020f4:    f000fa78    ..x.    BL       SendAT ; 0x25e8
        0x000020f8:    f001fb1a    ....    BL       cpinquerry ; 0x3730
        0x000020fc:    4844        DH      LDR      r0,[pc,#272] ; [0x2210] = 0x20000011
        0x000020fe:    7800        .x      LDRB     r0,[r0,#0]
        0x00002100:    2801        .(      CMP      r0,#1
        0x00002102:    d129        ).      BNE      0x2158 ; GSM + 120
        0x00002104:    f001fb72    ..r.    BL       cregquerry ; 0x37ec
        0x00002108:    4842        BH      LDR      r0,[pc,#264] ; [0x2214] = 0x20000012
        0x0000210a:    7800        .x      LDRB     r0,[r0,#0]
        0x0000210c:    2801        .(      CMP      r0,#1
        0x0000210e:    d123        #.      BNE      0x2158 ; GSM + 120
        0x00002110:    a334        4.      ADR      r3,{pc}+0xd4 ; 0x21e4
        0x00002112:    a23a        :.      ADR      r2,{pc}+0xea ; 0x21fc
        0x00002114:    a140        @.      ADR      r1,{pc}+0x104 ; 0x2218
        0x00002116:    a042        B.      ADR      r0,{pc}+0x10a ; 0x2220
        0x00002118:    9600        ..      STR      r6,[sp,#0]
        0x0000211a:    f000fa65    ..e.    BL       SendAT ; 0x25e8
        0x0000211e:    a331        1.      ADR      r3,{pc}+0xc6 ; 0x21e4
        0x00002120:    a236        6.      ADR      r2,{pc}+0xdc ; 0x21fc
        0x00002122:    a13d        =.      ADR      r1,{pc}+0xf6 ; 0x2218
        0x00002124:    a042        B.      ADR      r0,{pc}+0x10c ; 0x2230
        0x00002126:    9600        ..      STR      r6,[sp,#0]
        0x00002128:    f000fa5e    ..^.    BL       SendAT ; 0x25e8
        0x0000212c:    a32d        -.      ADR      r3,{pc}+0xb8 ; 0x21e4
        0x0000212e:    a233        3.      ADR      r2,{pc}+0xce ; 0x21fc
        0x00002130:    a139        9.      ADR      r1,{pc}+0xe8 ; 0x2218
        0x00002132:    a046        F.      ADR      r0,{pc}+0x11a ; 0x224c
        0x00002134:    9600        ..      STR      r6,[sp,#0]
        0x00002136:    f000fa57    ..W.    BL       SendAT ; 0x25e8
        0x0000213a:    a32a        *.      ADR      r3,{pc}+0xaa ; 0x21e4
        0x0000213c:    a22f        /.      ADR      r2,{pc}+0xc0 ; 0x21fc
        0x0000213e:    a136        6.      ADR      r1,{pc}+0xda ; 0x2218
        0x00002140:    a047        G.      ADR      r0,{pc}+0x120 ; 0x2260
        0x00002142:    9600        ..      STR      r6,[sp,#0]
        0x00002144:    f000fa50    ..P.    BL       SendAT ; 0x25e8
        0x00002148:    2002        .       MOVS     r0,#2
        0x0000214a:    9000        ..      STR      r0,[sp,#0]
        0x0000214c:    a325        %.      ADR      r3,{pc}+0x98 ; 0x21e4
        0x0000214e:    a22b        +.      ADR      r2,{pc}+0xae ; 0x21fc
        0x00002150:    a131        1.      ADR      r1,{pc}+0xc8 ; 0x2218
        0x00002152:    a047        G.      ADR      r0,{pc}+0x11e ; 0x2270
        0x00002154:    f000fa48    ..H.    BL       SendAT ; 0x25e8
        0x00002158:    a322        ".      ADR      r3,{pc}+0x8c ; 0x21e4
        0x0000215a:    a228        (.      ADR      r2,{pc}+0xa2 ; 0x21fc
        0x0000215c:    a12e        ..      ADR      r1,{pc}+0xbc ; 0x2218
        0x0000215e:    a049        I.      ADR      r0,{pc}+0x126 ; 0x2284
        0x00002160:    9600        ..      STR      r6,[sp,#0]
        0x00002162:    f000fa41    ..A.    BL       SendAT ; 0x25e8
        0x00002166:    2004        .       MOVS     r0,#4
        0x00002168:    9000        ..      STR      r0,[sp,#0]
        0x0000216a:    a31e        ..      ADR      r3,{pc}+0x7a ; 0x21e4
        0x0000216c:    a223        #.      ADR      r2,{pc}+0x90 ; 0x21fc
        0x0000216e:    a12a        *.      ADR      r1,{pc}+0xaa ; 0x2218
        0x00002170:    a049        I.      ADR      r0,{pc}+0x128 ; 0x2298
        0x00002172:    f000fa39    ..9.    BL       SendAT ; 0x25e8
        0x00002176:    a34c        L.      ADR      r3,{pc}+0x132 ; 0x22a8
        0x00002178:    a21a        ..      ADR      r2,{pc}+0x6c ; 0x21e4
        0x0000217a:    a14d        M.      ADR      r1,{pc}+0x136 ; 0x22b0
        0x0000217c:    a04e        N.      ADR      r0,{pc}+0x13c ; 0x22b8
        0x0000217e:    9400        ..      STR      r4,[sp,#0]
        0x00002180:    f000fa32    ..2.    BL       SendAT ; 0x25e8
        0x00002184:    2000        .       MOVS     r0,#0
        0x00002186:    7028        (p      STRB     r0,[r5,#0]
        0x00002188:    a057        W.      ADR      r0,{pc}+0x160 ; 0x22e8
        0x0000218a:    9000        ..      STR      r0,[sp,#0]
        0x0000218c:    a315        ..      ADR      r3,{pc}+0x58 ; 0x21e4
        0x0000218e:    a258        X.      ADR      r2,{pc}+0x162 ; 0x22f0
        0x00002190:    4958        XI      LDR      r1,[pc,#352] ; [0x22f4] = 0x200000d0
        0x00002192:    9401        ..      STR      r4,[sp,#4]
        0x00002194:    a058        X.      ADR      r0,{pc}+0x164 ; 0x22f8
        0x00002196:    f000fe59    ..Y.    BL       TCP_Send ; 0x2e4c
        0x0000219a:    7828        (x      LDRB     r0,[r5,#0]
        0x0000219c:    2801        .(      CMP      r0,#1
        0x0000219e:    d004        ..      BEQ      0x21aa ; GSM + 202
        0x000021a0:    207d        }       MOVS     r0,#0x7d
        0x000021a2:    0200        ..      LSLS     r0,r0,#8
        0x000021a4:    f001fcb2    ....    BL       osDelay ; 0x3b0c
        0x000021a8:    e79f        ..      B        0x20ea ; GSM + 10
        0x000021aa:    f000f969    ..i.    BL       Save_FS ; 0x2480
        0x000021ae:    a33e        >.      ADR      r3,{pc}+0xfa ; 0x22a8
        0x000021b0:    a20c        ..      ADR      r2,{pc}+0x34 ; 0x21e4
        0x000021b2:    a156        V.      ADR      r1,{pc}+0x15a ; 0x230c
        0x000021b4:    a058        X.      ADR      r0,{pc}+0x164 ; 0x2318
        0x000021b6:    9400        ..      STR      r4,[sp,#0]
        0x000021b8:    f000fa16    ....    BL       SendAT ; 0x25e8
        0x000021bc:    a309        ..      ADR      r3,{pc}+0x28 ; 0x21e4
        0x000021be:    a20b        ..      ADR      r2,{pc}+0x2e ; 0x21ec
        0x000021c0:    a10e        ..      ADR      r1,{pc}+0x3c ; 0x21fc
        0x000021c2:    a05a        Z.      ADR      r0,{pc}+0x16a ; 0x232c
        0x000021c4:    9400        ..      STR      r4,[sp,#0]
        0x000021c6:    f000fa0f    ....    BL       SendAT ; 0x25e8
        0x000021ca:    a306        ..      ADR      r3,{pc}+0x1a ; 0x21e4
        0x000021cc:    a207        ..      ADR      r2,{pc}+0x20 ; 0x21ec
        0x000021ce:    a112        ..      ADR      r1,{pc}+0x4a ; 0x2218
        0x000021d0:    a00b        ..      ADR      r0,{pc}+0x30 ; 0x2200
        0x000021d2:    9400        ..      STR      r4,[sp,#0]
        0x000021d4:    f000fa08    ....    BL       SendAT ; 0x25e8
        0x000021d8:    20c8        .       MOVS     r0,#0xc8
        0x000021da:    f001fc89    ....    BL       manualdelay ; 0x3af0
        0x000021de:    e784        ..      B        0x20ea ; GSM + 10
    $d
        0x000021e0:    20000013    ...     DCD    536870931
        0x000021e4:    4f525245    ERRO    DCD    1330795077
        0x000021e8:    00000052    R...    DCD    82
        0x000021ec:    20544f4e    NOT     DCD    542396238
        0x000021f0:    45534e49    INSE    DCD    1163087433
        0x000021f4:    44455452    RTED    DCD    1145394258
        0x000021f8:    00000000    ....    DCD    0
        0x000021fc:    00004b4f    OK..    DCD    19279
        0x00002200:    54410a0d    ..AT    DCD    1413548557
        0x00002204:    5546432b    +CFU    DCD    1430668075
        0x00002208:    0d313d4e    N=1.    DCD    221330766
        0x0000220c:    000a0d0a    ....    DCD    658698
        0x00002210:    20000011    ...     DCD    536870929
        0x00002214:    20000012    ...     DCD    536870930
        0x00002218:    64616552    Read    DCD    1684104530
        0x0000221c:    00000079    y...    DCD    121
        0x00002220:    54410a0d    ..AT    DCD    1413548557
        0x00002224:    5247432b    +CGR    DCD    1380401963
        0x00002228:    0d3f4745    EG?.    DCD    222250821
        0x0000222c:    000a0d0a    ....    DCD    658698
        0x00002230:    54410a0d    ..AT    DCD    1413548557
        0x00002234:    5249512b    +QIR    DCD    1380536619
        0x00002238:    50414745    EGAP    DCD    1346455365
        0x0000223c:    69223d50    P="i    DCD    1763851600
        0x00002240:    65666173    safe    DCD    1701208435
        0x00002244:    0d0a0d22    "...    DCD    218762530
        0x00002248:    0000000a    ....    DCD    10
        0x0000224c:    54410a0d    ..AT    DCD    1413548557
        0x00002250:    5249512b    +QIR    DCD    1380536619
        0x00002254:    50414745    EGAP    DCD    1346455365
        0x00002258:    0d0a0d50    P...    DCD    218762576
        0x0000225c:    0000000a    ....    DCD    10
        0x00002260:    54410a0d    ..AT    DCD    1413548557
        0x00002264:    4149512b    +QIA    DCD    1095323947
        0x00002268:    0a0d5443    CT..    DCD    168645699
        0x0000226c:    00000a0d    ....    DCD    2573
        0x00002270:    54410a0d    ..AT    DCD    1413548557
        0x00002274:    4c49512b    +QIL    DCD    1279873323
        0x00002278:    5049434f    OCIP    DCD    1346978639
        0x0000227c:    0a0d0a0d    ....    DCD    168626701
        0x00002280:    00000000    ....    DCD    0
        0x00002284:    54410a0d    ..AT    DCD    1413548557
        0x00002288:    4353512b    +QSC    DCD    1129533739
        0x0000228c:    313d4b4c    LK=1    DCD    826100556
        0x00002290:    0a0d0a0d    ....    DCD    168626701
        0x00002294:    00000000    ....    DCD    0
        0x00002298:    54410a0d    ..AT    DCD    1413548557
        0x0000229c:    5153432b    +CSQ    DCD    1364411179
        0x000022a0:    0a0d0a0d    ....    DCD    168626701
        0x000022a4:    00000000    ....    DCD    0
        0x000022a8:    4c494146    FAIL    DCD    1279869254
        0x000022ac:    00000000    ....    DCD    0
        0x000022b0:    4e4e4f43    CONN    DCD    1313754947
        0x000022b4:    00544345    ECT.    DCD    5522245
        0x000022b8:    54410a0d    ..AT    DCD    1413548557
        0x000022bc:    4f49512b    +QIO    DCD    1330204971
        0x000022c0:    3d4e4550    PEN=    DCD    1028539728
        0x000022c4:    50435422    "TCP    DCD    1346589730
        0x000022c8:    31222c22    ","1    DCD    824323106
        0x000022cc:    322e3430    04.2    DCD    841888816
        0x000022d0:    322e3633    36.2    DCD    841889331
        0x000022d4:    342e3330    03.4    DCD    875442992
        0x000022d8:    35222c22    ","5    DCD    891431970
        0x000022dc:    22363535    556"    DCD    573977909
        0x000022e0:    0a0d0a0d    ....    DCD    168626701
        0x000022e4:    00000000    ....    DCD    0
        0x000022e8:    444e4553    SEND    DCD    1145980243
        0x000022ec:    004b4f20     OK.    DCD    4935456
        0x000022f0:    0000003e    >...    DCD    62
        0x000022f4:    200000d0    ...     DCD    536871120
        0x000022f8:    54410a0d    ..AT    DCD    1413548557
        0x000022fc:    5349512b    +QIS    DCD    1397313835
        0x00002300:    0d444e45    END.    DCD    222580293
        0x00002304:    0d0a0d0a    ....    DCD    218762506
        0x00002308:    0000000a    ....    DCD    10
        0x0000230c:    534f4c43    CLOS    DCD    1397705795
        0x00002310:    4b4f2045    E OK    DCD    1263476805
        0x00002314:    00000a0d    ....    DCD    2573
        0x00002318:    54410a0d    ..AT    DCD    1413548557
        0x0000231c:    4349512b    +QIC    DCD    1128878379
        0x00002320:    45534f4c    LOSE    DCD    1163087692
        0x00002324:    0a0d0a0d    ....    DCD    168626701
        0x00002328:    00000000    ....    DCD    0
        0x0000232c:    54410a0d    ..AT    DCD    1413548557
        0x00002330:    5546432b    +CFU    DCD    1430668075
        0x00002334:    0d303d4e    N=0.    DCD    221265230
        0x00002338:    000a0d0a    ....    DCD    658698
    $t
    i.Hard_Fault_Handler
    Hard_Fault_Handler
    __tagsym$$used
        0x0000233c:    4604        .F      MOV      r4,r0
        0x0000233e:    a003        ..      ADR      r0,{pc}+0xe ; 0x234c
        0x00002340:    f7fef8c4    ....    BL       __2printf ; 0x4cc
        0x00002344:    4620         F      MOV      r0,r4
        0x00002346:    f002fc01    ....    BL       stackDump ; 0x4b4c
        0x0000234a:    e7fe        ..      B        0x234a ; Hard_Fault_Handler + 14
    $d
        0x0000234c:    48206e49    In H    DCD    1210084937
        0x00002350:    20647261    ard     DCD    543453793
        0x00002354:    6c756146    Faul    DCD    1819631942
        0x00002358:    61482074    t Ha    DCD    1632116852
        0x0000235c:    656c646e    ndle    DCD    1701602414
        0x00002360:    00000a72    r...    DCD    2674
    $t
    i.Init_Thread
    Init_Thread
        0x00002364:    b570        p.      PUSH     {r4-r6,lr}
        0x00002366:    2100        .!      MOVS     r1,#0
        0x00002368:    480a        .H      LDR      r0,[pc,#40] ; [0x2394] = 0x4fe8
        0x0000236a:    f001fc51    ..Q.    BL       osThreadCreate ; 0x3c10
        0x0000236e:    4d0a        .M      LDR      r5,[pc,#40] ; [0x2398] = 0x20000004
        0x00002370:    2400        .$      MOVS     r4,#0
        0x00002372:    43e4        .C      MVNS     r4,r4
        0x00002374:    6068        h`      STR      r0,[r5,#4]
        0x00002376:    2800        .(      CMP      r0,#0
        0x00002378:    d009        ..      BEQ      0x238e ; Init_Thread + 42
        0x0000237a:    4806        .H      LDR      r0,[pc,#24] ; [0x2394] = 0x4fe8
        0x0000237c:    2100        .!      MOVS     r1,#0
        0x0000237e:    3010        .0      ADDS     r0,r0,#0x10
        0x00002380:    f001fc46    ..F.    BL       osThreadCreate ; 0x3c10
        0x00002384:    60a8        .`      STR      r0,[r5,#8]
        0x00002386:    2800        .(      CMP      r0,#0
        0x00002388:    d001        ..      BEQ      0x238e ; Init_Thread + 42
        0x0000238a:    2000        .       MOVS     r0,#0
        0x0000238c:    bd70        p.      POP      {r4-r6,pc}
        0x0000238e:    4620         F      MOV      r0,r4
        0x00002390:    bd70        p.      POP      {r4-r6,pc}
    $d
        0x00002392:    0000        ..      DCW    0
        0x00002394:    00004fe8    .O..    DCD    20456
        0x00002398:    20000004    ...     DCD    536870916
    $t
    i.Init_Timers
    Init_Timers
        0x0000239c:    b510        ..      PUSH     {r4,lr}
        0x0000239e:    4c10        .L      LDR      r4,[pc,#64] ; [0x23e0] = 0x20000048
        0x000023a0:    2001        .       MOVS     r0,#1
        0x000023a2:    4622        "F      MOV      r2,r4
        0x000023a4:    60e0        .`      STR      r0,[r4,#0xc]
        0x000023a6:    320c        .2      ADDS     r2,r2,#0xc
        0x000023a8:    2100        .!      MOVS     r1,#0
        0x000023aa:    480e        .H      LDR      r0,[pc,#56] ; [0x23e4] = 0x5008
        0x000023ac:    f001fc5e    ..^.    BL       osTimerCreate ; 0x3c6c
        0x000023b0:    60a0        .`      STR      r0,[r4,#8]
        0x000023b2:    2800        .(      CMP      r0,#0
        0x000023b4:    d002        ..      BEQ      0x23bc ; Init_Timers + 32
        0x000023b6:    2164        d!      MOVS     r1,#0x64
        0x000023b8:    f001fc72    ..r.    BL       osTimerStart ; 0x3ca0
        0x000023bc:    2002        .       MOVS     r0,#2
        0x000023be:    6160        `a      STR      r0,[r4,#0x14]
        0x000023c0:    4a07        .J      LDR      r2,[pc,#28] ; [0x23e0] = 0x20000048
        0x000023c2:    4808        .H      LDR      r0,[pc,#32] ; [0x23e4] = 0x5008
        0x000023c4:    3214        .2      ADDS     r2,r2,#0x14
        0x000023c6:    2101        .!      MOVS     r1,#1
        0x000023c8:    3008        .0      ADDS     r0,r0,#8
        0x000023ca:    f001fc4f    ..O.    BL       osTimerCreate ; 0x3c6c
        0x000023ce:    6120         a      STR      r0,[r4,#0x10]
        0x000023d0:    2800        .(      CMP      r0,#0
        0x000023d2:    d003        ..      BEQ      0x23dc ; Init_Timers + 64
        0x000023d4:    217d        }!      MOVS     r1,#0x7d
        0x000023d6:    0109        ..      LSLS     r1,r1,#4
        0x000023d8:    f001fc62    ..b.    BL       osTimerStart ; 0x3ca0
        0x000023dc:    bd10        ..      POP      {r4,pc}
    $d
        0x000023de:    0000        ..      DCW    0
        0x000023e0:    20000048    H..     DCD    536870984
        0x000023e4:    00005008    .P..    DCD    20488
    $t
    i.SYS_Init
    SYS_Init
        0x000023e8:    b510        ..      PUSH     {r4,lr}
        0x000023ea:    2004        .       MOVS     r0,#4
        0x000023ec:    f7fffd20    .. .    BL       CLK_EnableXtalRC ; 0x1e30
        0x000023f0:    2010        .       MOVS     r0,#0x10
        0x000023f2:    f7fffe17    ....    BL       CLK_WaitClockReady ; 0x2024
        0x000023f6:    2100        .!      MOVS     r1,#0
        0x000023f8:    2007        .       MOVS     r0,#7
        0x000023fa:    f7fffd89    ....    BL       CLK_SetHCLK ; 0x1f10
        0x000023fe:    2001        .       MOVS     r0,#1
        0x00002400:    f7fffd16    ....    BL       CLK_EnableXtalRC ; 0x1e30
        0x00002404:    2001        .       MOVS     r0,#1
        0x00002406:    f7fffe0d    ....    BL       CLK_WaitClockReady ; 0x2024
        0x0000240a:    481b        .H      LDR      r0,[pc,#108] ; [0x2478] = 0xb71b00
        0x0000240c:    f7fffd44    ..D.    BL       CLK_SetCoreClock ; 0x1e98
        0x00002410:    4c1a        .L      LDR      r4,[pc,#104] ; [0x247c] = 0x57803d10
        0x00002412:    4620         F      MOV      r0,r4
        0x00002414:    f7fffc28    ..(.    BL       CLK_EnableModuleClock ; 0x1c68
        0x00002418:    2200        ."      MOVS     r2,#0
        0x0000241a:    4611        .F      MOV      r1,r2
        0x0000241c:    4620         F      MOV      r0,r4
        0x0000241e:    f7fffd9b    ....    BL       CLK_SetModuleClock ; 0x1f58
        0x00002422:    1c64        d.      ADDS     r4,r4,#1
        0x00002424:    4620         F      MOV      r0,r4
        0x00002426:    f7fffc1f    ....    BL       CLK_EnableModuleClock ; 0x1c68
        0x0000242a:    2200        ."      MOVS     r2,#0
        0x0000242c:    4611        .F      MOV      r1,r2
        0x0000242e:    4620         F      MOV      r0,r4
        0x00002430:    f7fffd92    ....    BL       CLK_SetModuleClock ; 0x1f58
        0x00002434:    1c64        d.      ADDS     r4,r4,#1
        0x00002436:    4620         F      MOV      r0,r4
        0x00002438:    f7fffc16    ....    BL       CLK_EnableModuleClock ; 0x1c68
        0x0000243c:    2200        ."      MOVS     r2,#0
        0x0000243e:    4611        .F      MOV      r1,r2
        0x00002440:    4620         F      MOV      r0,r4
        0x00002442:    f7fffd89    ....    BL       CLK_SetModuleClock ; 0x1f58
        0x00002446:    2005        .       MOVS     r0,#5
        0x00002448:    0700        ..      LSLS     r0,r0,#28
        0x0000244a:    6b41        Ak      LDR      r1,[r0,#0x34]
        0x0000244c:    0889        ..      LSRS     r1,r1,#2
        0x0000244e:    0089        ..      LSLS     r1,r1,#2
        0x00002450:    6341        Ac      STR      r1,[r0,#0x34]
        0x00002452:    6b41        Ak      LDR      r1,[r0,#0x34]
        0x00002454:    2203        ."      MOVS     r2,#3
        0x00002456:    4311        .C      ORRS     r1,r1,r2
        0x00002458:    6341        Ac      STR      r1,[r0,#0x34]
        0x0000245a:    6b42        Bk      LDR      r2,[r0,#0x34]
        0x0000245c:    2130        0!      MOVS     r1,#0x30
        0x0000245e:    438a        .C      BICS     r2,r2,r1
        0x00002460:    6342        Bc      STR      r2,[r0,#0x34]
        0x00002462:    6b42        Bk      LDR      r2,[r0,#0x34]
        0x00002464:    430a        .C      ORRS     r2,r2,r1
        0x00002466:    6342        Bc      STR      r2,[r0,#0x34]
        0x00002468:    6bc2        .k      LDR      r2,[r0,#0x3c]
        0x0000246a:    0289        ..      LSLS     r1,r1,#10
        0x0000246c:    438a        .C      BICS     r2,r2,r1
        0x0000246e:    63c2        .c      STR      r2,[r0,#0x3c]
        0x00002470:    6bc2        .k      LDR      r2,[r0,#0x3c]
        0x00002472:    430a        .C      ORRS     r2,r2,r1
        0x00002474:    63c2        .c      STR      r2,[r0,#0x3c]
        0x00002476:    bd10        ..      POP      {r4,pc}
    $d
        0x00002478:    00b71b00    ....    DCD    12000000
        0x0000247c:    57803d10    .=.W    DCD    1468022032
    $t
    i.Save_FS
    Save_FS
        0x00002480:    b5f8        ..      PUSH     {r3-r7,lr}
        0x00002482:    4e35        5N      LDR      r6,[pc,#212] ; [0x2558] = 0x20000010
        0x00002484:    2100        .!      MOVS     r1,#0
        0x00002486:    43c9        .C      MVNS     r1,r1
        0x00002488:    6b30        0k      LDR      r0,[r6,#0x30]
        0x0000248a:    f001fbb3    ....    BL       osMutexWait ; 0x3bf4
        0x0000248e:    f001fa51    ..Q.    BL       fileopen ; 0x3934
        0x00002492:    2032        2       MOVS     r0,#0x32
        0x00002494:    9000        ..      STR      r0,[sp,#0]
        0x00002496:    a331        1.      ADR      r3,{pc}+0xc6 ; 0x255c
        0x00002498:    a232        2.      ADR      r2,{pc}+0xcc ; 0x2564
        0x0000249a:    a133        3.      ADR      r1,{pc}+0xce ; 0x2568
        0x0000249c:    a034        4.      ADR      r0,{pc}+0xd4 ; 0x2570
        0x0000249e:    f000f8a3    ....    BL       SendAT ; 0x25e8
        0x000024a2:    2164        d!      MOVS     r1,#0x64
        0x000024a4:    4837        7H      LDR      r0,[pc,#220] ; [0x2584] = 0x200010e8
        0x000024a6:    f7fef9b9    ....    BL       __aeabi_memclr ; 0x81c
        0x000024aa:    4a36        6J      LDR      r2,[pc,#216] ; [0x2584] = 0x200010e8
        0x000024ac:    a136        6.      ADR      r1,{pc}+0xdc ; 0x2588
        0x000024ae:    3a14        .:      SUBS     r2,r2,#0x14
        0x000024b0:    4834        4H      LDR      r0,[pc,#208] ; [0x2584] = 0x200010e8
        0x000024b2:    f7fef819    ....    BL       __2sprintf ; 0x4e8
        0x000024b6:    250a        .%      MOVS     r5,#0xa
        0x000024b8:    a328        (.      ADR      r3,{pc}+0xa4 ; 0x255c
        0x000024ba:    a22a        *.      ADR      r2,{pc}+0xaa ; 0x2564
        0x000024bc:    a138        8.      ADR      r1,{pc}+0xe4 ; 0x25a0
        0x000024be:    4831        1H      LDR      r0,[pc,#196] ; [0x2584] = 0x200010e8
        0x000024c0:    9500        ..      STR      r5,[sp,#0]
        0x000024c2:    f000f891    ....    BL       SendAT ; 0x25e8
        0x000024c6:    4838        8H      LDR      r0,[pc,#224] ; [0x25a8] = 0x200000d0
        0x000024c8:    f7fef95e    ..^.    BL       strlen ; 0x788
        0x000024cc:    a137        7.      ADR      r1,{pc}+0xe0 ; 0x25ac
        0x000024ce:    4836        6H      LDR      r0,[pc,#216] ; [0x25a8] = 0x200000d0
        0x000024d0:    f7fef97c    ..|.    BL       strcat ; 0x7cc
        0x000024d4:    4834        4H      LDR      r0,[pc,#208] ; [0x25a8] = 0x200000d0
        0x000024d6:    f7fef957    ..W.    BL       strlen ; 0x788
        0x000024da:    4604        .F      MOV      r4,r0
        0x000024dc:    231a        .#      MOVS     r3,#0x1a
        0x000024de:    200a        .       MOVS     r0,#0xa
        0x000024e0:    4a31        1J      LDR      r2,[pc,#196] ; [0x25a8] = 0x200000d0
        0x000024e2:    2100        .!      MOVS     r1,#0
        0x000024e4:    e003        ..      B        0x24ee ; Save_FS + 110
        0x000024e6:    429f        .B      CMP      r7,r3
        0x000024e8:    d100        ..      BNE      0x24ec ; Save_FS + 108
        0x000024ea:    5450        PT      STRB     r0,[r2,r1]
        0x000024ec:    1c49        I.      ADDS     r1,r1,#1
        0x000024ee:    5c57        W\      LDRB     r7,[r2,r1]
        0x000024f0:    2f00        ./      CMP      r7,#0
        0x000024f2:    d1f8        ..      BNE      0x24e6 ; Save_FS + 102
        0x000024f4:    2164        d!      MOVS     r1,#0x64
        0x000024f6:    4823        #H      LDR      r0,[pc,#140] ; [0x2584] = 0x200010e8
        0x000024f8:    f7fef990    ....    BL       __aeabi_memclr ; 0x81c
        0x000024fc:    4a21        !J      LDR      r2,[pc,#132] ; [0x2584] = 0x200010e8
        0x000024fe:    4623        #F      MOV      r3,r4
        0x00002500:    3a14        .:      SUBS     r2,r2,#0x14
        0x00002502:    a12c        ,.      ADR      r1,{pc}+0xb2 ; 0x25b4
        0x00002504:    481f        .H      LDR      r0,[pc,#124] ; [0x2584] = 0x200010e8
        0x00002506:    f7fdffef    ....    BL       __2sprintf ; 0x4e8
        0x0000250a:    a314        ..      ADR      r3,{pc}+0x52 ; 0x255c
        0x0000250c:    a215        ..      ADR      r2,{pc}+0x58 ; 0x2564
        0x0000250e:    a124        $.      ADR      r1,{pc}+0x92 ; 0x25a0
        0x00002510:    481c        .H      LDR      r0,[pc,#112] ; [0x2584] = 0x200010e8
        0x00002512:    9500        ..      STR      r5,[sp,#0]
        0x00002514:    f000f868    ..h.    BL       SendAT ; 0x25e8
        0x00002518:    4823        #H      LDR      r0,[pc,#140] ; [0x25a8] = 0x200000d0
        0x0000251a:    f7fef935    ..5.    BL       strlen ; 0x788
        0x0000251e:    221a        ."      MOVS     r2,#0x1a
        0x00002520:    210d        .!      MOVS     r1,#0xd
        0x00002522:    4821        !H      LDR      r0,[pc,#132] ; [0x25a8] = 0x200000d0
        0x00002524:    f001fc38    ..8.    BL       remove_all_chars ; 0x3d98
        0x00002528:    2014        .       MOVS     r0,#0x14
        0x0000252a:    9000        ..      STR      r0,[sp,#0]
        0x0000252c:    a30b        ..      ADR      r3,{pc}+0x30 ; 0x255c
        0x0000252e:    a20d        ..      ADR      r2,{pc}+0x36 ; 0x2564
        0x00002530:    a126        &.      ADR      r1,{pc}+0x9c ; 0x25cc
        0x00002532:    481d        .H      LDR      r0,[pc,#116] ; [0x25a8] = 0x200000d0
        0x00002534:    f000f8f6    ....    BL       SendAT_FS ; 0x2724
        0x00002538:    a126        &.      ADR      r1,{pc}+0x9c ; 0x25d4
        0x0000253a:    4829        )H      LDR      r0,[pc,#164] ; [0x25e0] = 0x20000e7c
        0x0000253c:    f7fef910    ....    BL       strstr ; 0x760
        0x00002540:    2800        .(      CMP      r0,#0
        0x00002542:    d003        ..      BEQ      0x254c ; Save_FS + 204
        0x00002544:    4927        'I      LDR      r1,[pc,#156] ; [0x25e4] = 0xdac
        0x00002546:    4818        .H      LDR      r0,[pc,#96] ; [0x25a8] = 0x200000d0
        0x00002548:    f7fef968    ..h.    BL       __aeabi_memclr ; 0x81c
        0x0000254c:    f001f9ce    ....    BL       fileclose ; 0x38ec
        0x00002550:    6b30        0k      LDR      r0,[r6,#0x30]
        0x00002552:    f001fb41    ..A.    BL       osMutexRelease ; 0x3bd8
        0x00002556:    bdf8        ..      POP      {r3-r7,pc}
    $d
        0x00002558:    20000010    ...     DCD    536870928
        0x0000255c:    4f525245    ERRO    DCD    1330795077
        0x00002560:    00000052    R...    DCD    82
        0x00002564:    00004b4f    OK..    DCD    19279
        0x00002568:    64616552    Read    DCD    1684104530
        0x0000256c:    00000079    y...    DCD    121
        0x00002570:    54410a0d    ..AT    DCD    1413548557
        0x00002574:    4c46512b    +QFL    DCD    1279676715
        0x00002578:    223d5344    DS="    DCD    574444356
        0x0000257c:    22534655    UFS"    DCD    575882837
        0x00002580:    00000a0d    ....    DCD    2573
        0x00002584:    200010e8    ...     DCD    536875240
        0x00002588:    54410a0d    ..AT    DCD    1413548557
        0x0000258c:    5346512b    +QFS    DCD    1397117227
        0x00002590:    3d4b4545    EEK=    DCD    1028343109
        0x00002594:    302c7325    %s,0    DCD    808219429
        0x00002598:    0a0d322c    ,2..    DCD    168636972
        0x0000259c:    00000000    ....    DCD    0
        0x000025a0:    4e4e4f43    CONN    DCD    1313754947
        0x000025a4:    00544345    ECT.    DCD    5522245
        0x000025a8:    200000d0    ...     DCD    536871120
        0x000025ac:    0a0a0a0a    ....    DCD    168430090
        0x000025b0:    0000000a    ....    DCD    10
        0x000025b4:    54410a0d    ..AT    DCD    1413548557
        0x000025b8:    5746512b    +QFW    DCD    1464226091
        0x000025bc:    45544952    RITE    DCD    1163151698
        0x000025c0:    2c73253d    =%s,    DCD    745743677
        0x000025c4:    332c6425    %d,3    DCD    858547237
        0x000025c8:    00000a0d    ....    DCD    2573
        0x000025cc:    49525751    QWRI    DCD    1230133073
        0x000025d0:    00004554    TE..    DCD    17748
        0x000025d4:    5746512b    +QFW    DCD    1464226091
        0x000025d8:    45544952    RITE    DCD    1163151698
        0x000025dc:    00000000    ....    DCD    0
        0x000025e0:    20000e7c    |..     DCD    536874620
        0x000025e4:    00000dac    ....    DCD    3500
    $t
    i.SendAT
    SendAT
        0x000025e8:    b5ff        ..      PUSH     {r0-r7,lr}
        0x000025ea:    b081        ..      SUB      sp,sp,#4
        0x000025ec:    461f        .F      MOV      r7,r3
        0x000025ee:    2064        d       MOVS     r0,#0x64
        0x000025f0:    9e0a        ..      LDR      r6,[sp,#0x28]
        0x000025f2:    f001fa8b    ....    BL       osDelay ; 0x3b0c
        0x000025f6:    4c34        4L      LDR      r4,[pc,#208] ; [0x26c8] = 0x20000010
        0x000025f8:    2100        .!      MOVS     r1,#0
        0x000025fa:    43c9        .C      MVNS     r1,r1
        0x000025fc:    6b20         k      LDR      r0,[r4,#0x30]
        0x000025fe:    f001faf9    ....    BL       osMutexWait ; 0x3bf4
        0x00002602:    2500        .%      MOVS     r5,#0
        0x00002604:    60a5        .`      STR      r5,[r4,#8]
        0x00002606:    6265        eb      STR      r5,[r4,#0x24]
        0x00002608:    62a5        .b      STR      r5,[r4,#0x28]
        0x0000260a:    62e5        .b      STR      r5,[r4,#0x2c]
        0x0000260c:    21ff        .!      MOVS     r1,#0xff
        0x0000260e:    31f5        .1      ADDS     r1,r1,#0xf5
        0x00002610:    482e        .H      LDR      r0,[pc,#184] ; [0x26cc] = 0x20000e7c
        0x00002612:    6065        e`      STR      r5,[r4,#4]
        0x00002614:    f7fef902    ....    BL       __aeabi_memclr ; 0x81c
        0x00002618:    211a        .!      MOVS     r1,#0x1a
        0x0000261a:    a02d        -.      ADR      r0,{pc}+0xb6 ; 0x26d0
        0x0000261c:    f7fdff56    ..V.    BL       __2printf ; 0x4cc
        0x00002620:    f001f87c    ..|.    BL       clear ; 0x371c
        0x00002624:    9801        ..      LDR      r0,[sp,#4]
        0x00002626:    f7fdff51    ..Q.    BL       __2printf ; 0x4cc
        0x0000262a:    4828        (H      LDR      r0,[pc,#160] ; [0x26cc] = 0x20000e7c
        0x0000262c:    9902        ..      LDR      r1,[sp,#8]
        0x0000262e:    f7fef897    ....    BL       strstr ; 0x760
        0x00002632:    6260        `b      STR      r0,[r4,#0x24]
        0x00002634:    4825        %H      LDR      r0,[pc,#148] ; [0x26cc] = 0x20000e7c
        0x00002636:    9903        ..      LDR      r1,[sp,#0xc]
        0x00002638:    f7fef892    ....    BL       strstr ; 0x760
        0x0000263c:    62a0        .b      STR      r0,[r4,#0x28]
        0x0000263e:    4639        9F      MOV      r1,r7
        0x00002640:    4822        "H      LDR      r0,[pc,#136] ; [0x26cc] = 0x20000e7c
        0x00002642:    f7fef88d    ....    BL       strstr ; 0x760
        0x00002646:    62e0        .b      STR      r0,[r4,#0x2c]
        0x00002648:    6aa2        .j      LDR      r2,[r4,#0x28]
        0x0000264a:    6a61        aj      LDR      r1,[r4,#0x24]
        0x0000264c:    4311        .C      ORRS     r1,r1,r2
        0x0000264e:    4301        .C      ORRS     r1,r1,r0
        0x00002650:    d102        ..      BNE      0x2658 ; SendAT + 112
        0x00002652:    68a0        .h      LDR      r0,[r4,#8]
        0x00002654:    42b0        .B      CMP      r0,r6
        0x00002656:    dbe8        ..      BLT      0x262a ; SendAT + 66
        0x00002658:    a11e        ..      ADR      r1,{pc}+0x7c ; 0x26d4
        0x0000265a:    9801        ..      LDR      r0,[sp,#4]
        0x0000265c:    f7fef880    ....    BL       strstr ; 0x760
        0x00002660:    2800        .(      CMP      r0,#0
        0x00002662:    d10c        ..      BNE      0x267e ; SendAT + 150
        0x00002664:    a11d        ..      ADR      r1,{pc}+0x78 ; 0x26dc
        0x00002666:    9801        ..      LDR      r0,[sp,#4]
        0x00002668:    f7fef87a    ..z.    BL       strstr ; 0x760
        0x0000266c:    2800        .(      CMP      r0,#0
        0x0000266e:    d106        ..      BNE      0x267e ; SendAT + 150
        0x00002670:    6aa1        .j      LDR      r1,[r4,#0x28]
        0x00002672:    6a60        `j      LDR      r0,[r4,#0x24]
        0x00002674:    4308        .C      ORRS     r0,r0,r1
        0x00002676:    6ae1        .j      LDR      r1,[r4,#0x2c]
        0x00002678:    4308        .C      ORRS     r0,r0,r1
        0x0000267a:    d008        ..      BEQ      0x268e ; SendAT + 166
        0x0000267c:    61e5        .a      STR      r5,[r4,#0x1c]
        0x0000267e:    6b20         k      LDR      r0,[r4,#0x30]
        0x00002680:    f001faaa    ....    BL       osMutexRelease ; 0x3bd8
        0x00002684:    200a        .       MOVS     r0,#0xa
        0x00002686:    f001fa41    ..A.    BL       osDelay ; 0x3b0c
        0x0000268a:    b005        ..      ADD      sp,sp,#0x14
        0x0000268c:    bdf0        ..      POP      {r4-r7,pc}
        0x0000268e:    4e15        .N      LDR      r6,[pc,#84] ; [0x26e4] = 0x50004200
        0x00002690:    2001        .       MOVS     r0,#1
        0x00002692:    6370        pc      STR      r0,[r6,#0x34]
        0x00002694:    69e0        .i      LDR      r0,[r4,#0x1c]
        0x00002696:    1c40        @.      ADDS     r0,r0,#1
        0x00002698:    61e0        .a      STR      r0,[r4,#0x1c]
        0x0000269a:    2803        .(      CMP      r0,#3
        0x0000269c:    dd11        ..      BLE      0x26c2 ; SendAT + 218
        0x0000269e:    a012        ..      ADR      r0,{pc}+0x4a ; 0x26e8
        0x000026a0:    f7fdff14    ....    BL       __2printf ; 0x4cc
        0x000026a4:    2064        d       MOVS     r0,#0x64
        0x000026a6:    f001fa23    ..#.    BL       manualdelay ; 0x3af0
        0x000026aa:    f001f91f    ....    BL       fileclose ; 0x38ec
        0x000026ae:    f001f941    ..A.    BL       fileopen ; 0x3934
        0x000026b2:    200a        .       MOVS     r0,#0xa
        0x000026b4:    9000        ..      STR      r0,[sp,#0]
        0x000026b6:    a311        ..      ADR      r3,{pc}+0x46 ; 0x26fc
        0x000026b8:    a212        ..      ADR      r2,{pc}+0x4c ; 0x2704
        0x000026ba:    a114        ..      ADR      r1,{pc}+0x52 ; 0x270c
        0x000026bc:    a014        ..      ADR      r0,{pc}+0x54 ; 0x2710
        0x000026be:    f7ffff93    ....    BL       SendAT ; 0x25e8
        0x000026c2:    6375        uc      STR      r5,[r6,#0x34]
        0x000026c4:    e7db        ..      B        0x267e ; SendAT + 150
    $d
        0x000026c6:    0000        ..      DCW    0
        0x000026c8:    20000010    ...     DCD    536870928
        0x000026cc:    20000e7c    |..     DCD    536874620
        0x000026d0:    00006325    %c..    DCD    25381
        0x000026d4:    4f4c4951    QILO    DCD    1330399569
        0x000026d8:    00504943    CIP.    DCD    5261635
        0x000026dc:    534e4751    QGNS    DCD    1397638993
        0x000026e0:    00004353    SC..    DCD    17235
        0x000026e4:    50004200    .B.P    DCD    1342194176
        0x000026e8:    0a0d0a0d    ....    DCD    168626701
        0x000026ec:    432b5441    AT+C    DCD    1126913089
        0x000026f0:    3d4e5546    FUN=    DCD    1028543814
        0x000026f4:    0d312c31    1,1.    DCD    221326385
        0x000026f8:    000a0d0a    ....    DCD    658698
        0x000026fc:    33303137    7103    DCD    858796343
        0x00002700:    00000000    ....    DCD    0
        0x00002704:    4f525245    ERRO    DCD    1330795077
        0x00002708:    00000052    R...    DCD    82
        0x0000270c:    00004b4f    OK..    DCD    19279
        0x00002710:    54410a0d    ..AT    DCD    1413548557
        0x00002714:    4e47512b    +QGN    DCD    1313296683
        0x00002718:    3d435353    SSC=    DCD    1027822419
        0x0000271c:    0d0a0d31    1...    DCD    218762545
        0x00002720:    0000000a    ....    DCD    10
    $t
    i.SendAT_FS
    SendAT_FS
        0x00002724:    b5ff        ..      PUSH     {r0-r7,lr}
        0x00002726:    4c2f        /L      LDR      r4,[pc,#188] ; [0x27e4] = 0x20000010
        0x00002728:    b081        ..      SUB      sp,sp,#4
        0x0000272a:    2100        .!      MOVS     r1,#0
        0x0000272c:    461f        .F      MOV      r7,r3
        0x0000272e:    43c9        .C      MVNS     r1,r1
        0x00002730:    9e0a        ..      LDR      r6,[sp,#0x28]
        0x00002732:    6b20         k      LDR      r0,[r4,#0x30]
        0x00002734:    f001fa5e    ..^.    BL       osMutexWait ; 0x3bf4
        0x00002738:    2500        .%      MOVS     r5,#0
        0x0000273a:    2064        d       MOVS     r0,#0x64
        0x0000273c:    60a5        .`      STR      r5,[r4,#8]
        0x0000273e:    f001f9e5    ....    BL       osDelay ; 0x3b0c
        0x00002742:    6265        eb      STR      r5,[r4,#0x24]
        0x00002744:    62a5        .b      STR      r5,[r4,#0x28]
        0x00002746:    62e5        .b      STR      r5,[r4,#0x2c]
        0x00002748:    21ff        .!      MOVS     r1,#0xff
        0x0000274a:    31f5        .1      ADDS     r1,r1,#0xf5
        0x0000274c:    4826        &H      LDR      r0,[pc,#152] ; [0x27e8] = 0x20000e7c
        0x0000274e:    6065        e`      STR      r5,[r4,#4]
        0x00002750:    f7fef864    ..d.    BL       __aeabi_memclr ; 0x81c
        0x00002754:    f000ffe2    ....    BL       clear ; 0x371c
        0x00002758:    9801        ..      LDR      r0,[sp,#4]
        0x0000275a:    f7fdfeb7    ....    BL       __2printf ; 0x4cc
        0x0000275e:    4822        "H      LDR      r0,[pc,#136] ; [0x27e8] = 0x20000e7c
        0x00002760:    9902        ..      LDR      r1,[sp,#8]
        0x00002762:    f7fdfffd    ....    BL       strstr ; 0x760
        0x00002766:    6260        `b      STR      r0,[r4,#0x24]
        0x00002768:    481f        .H      LDR      r0,[pc,#124] ; [0x27e8] = 0x20000e7c
        0x0000276a:    9903        ..      LDR      r1,[sp,#0xc]
        0x0000276c:    f7fdfff8    ....    BL       strstr ; 0x760
        0x00002770:    62a0        .b      STR      r0,[r4,#0x28]
        0x00002772:    4639        9F      MOV      r1,r7
        0x00002774:    481c        .H      LDR      r0,[pc,#112] ; [0x27e8] = 0x20000e7c
        0x00002776:    f7fdfff3    ....    BL       strstr ; 0x760
        0x0000277a:    62e0        .b      STR      r0,[r4,#0x2c]
        0x0000277c:    6aa2        .j      LDR      r2,[r4,#0x28]
        0x0000277e:    6a61        aj      LDR      r1,[r4,#0x24]
        0x00002780:    4311        .C      ORRS     r1,r1,r2
        0x00002782:    4301        .C      ORRS     r1,r1,r0
        0x00002784:    d102        ..      BNE      0x278c ; SendAT_FS + 104
        0x00002786:    68a0        .h      LDR      r0,[r4,#8]
        0x00002788:    42b0        .B      CMP      r0,r6
        0x0000278a:    dbe8        ..      BLT      0x275e ; SendAT_FS + 58
        0x0000278c:    f000ffc6    ....    BL       clear ; 0x371c
        0x00002790:    a116        ..      ADR      r1,{pc}+0x5c ; 0x27ec
        0x00002792:    9801        ..      LDR      r0,[sp,#4]
        0x00002794:    f7fdffe4    ....    BL       strstr ; 0x760
        0x00002798:    2800        .(      CMP      r0,#0
        0x0000279a:    d11b        ..      BNE      0x27d4 ; SendAT_FS + 176
        0x0000279c:    6aa1        .j      LDR      r1,[r4,#0x28]
        0x0000279e:    6a60        `j      LDR      r0,[r4,#0x24]
        0x000027a0:    4308        .C      ORRS     r0,r0,r1
        0x000027a2:    6ae1        .j      LDR      r1,[r4,#0x2c]
        0x000027a4:    4308        .C      ORRS     r0,r0,r1
        0x000027a6:    d115        ..      BNE      0x27d4 ; SendAT_FS + 176
        0x000027a8:    4e12        .N      LDR      r6,[pc,#72] ; [0x27f4] = 0x50004200
        0x000027aa:    2001        .       MOVS     r0,#1
        0x000027ac:    6370        pc      STR      r0,[r6,#0x34]
        0x000027ae:    a012        ..      ADR      r0,{pc}+0x4a ; 0x27f8
        0x000027b0:    f7fdfe8c    ....    BL       __2printf ; 0x4cc
        0x000027b4:    2064        d       MOVS     r0,#0x64
        0x000027b6:    f001f99b    ....    BL       manualdelay ; 0x3af0
        0x000027ba:    f001f897    ....    BL       fileclose ; 0x38ec
        0x000027be:    f001f8b9    ....    BL       fileopen ; 0x3934
        0x000027c2:    200a        .       MOVS     r0,#0xa
        0x000027c4:    9000        ..      STR      r0,[sp,#0]
        0x000027c6:    a311        ..      ADR      r3,{pc}+0x46 ; 0x280c
        0x000027c8:    a212        ..      ADR      r2,{pc}+0x4c ; 0x2814
        0x000027ca:    a114        ..      ADR      r1,{pc}+0x52 ; 0x281c
        0x000027cc:    a014        ..      ADR      r0,{pc}+0x54 ; 0x2820
        0x000027ce:    f7ffff0b    ....    BL       SendAT ; 0x25e8
        0x000027d2:    6375        uc      STR      r5,[r6,#0x34]
        0x000027d4:    6b20         k      LDR      r0,[r4,#0x30]
        0x000027d6:    f001f9ff    ....    BL       osMutexRelease ; 0x3bd8
        0x000027da:    200a        .       MOVS     r0,#0xa
        0x000027dc:    f001f996    ....    BL       osDelay ; 0x3b0c
        0x000027e0:    b005        ..      ADD      sp,sp,#0x14
        0x000027e2:    bdf0        ..      POP      {r4-r7,pc}
    $d
        0x000027e4:    20000010    ...     DCD    536870928
        0x000027e8:    20000e7c    |..     DCD    536874620
        0x000027ec:    4f4c4951    QILO    DCD    1330399569
        0x000027f0:    00504943    CIP.    DCD    5261635
        0x000027f4:    50004200    .B.P    DCD    1342194176
        0x000027f8:    0a0d0a0d    ....    DCD    168626701
        0x000027fc:    432b5441    AT+C    DCD    1126913089
        0x00002800:    3d4e5546    FUN=    DCD    1028543814
        0x00002804:    0d312c31    1,1.    DCD    221326385
        0x00002808:    000a0d0a    ....    DCD    658698
        0x0000280c:    33303137    7103    DCD    858796343
        0x00002810:    00000000    ....    DCD    0
        0x00002814:    4f525245    ERRO    DCD    1330795077
        0x00002818:    00000052    R...    DCD    82
        0x0000281c:    00004b4f    OK..    DCD    19279
        0x00002820:    54410a0d    ..AT    DCD    1413548557
        0x00002824:    4e47512b    +QGN    DCD    1313296683
        0x00002828:    3d435353    SSC=    DCD    1027822419
        0x0000282c:    0d0a0d31    1...    DCD    218762545
        0x00002830:    0000000a    ....    DCD    10
    $t
    i.SendAT_GPS
    SendAT_GPS
        0x00002834:    b5ff        ..      PUSH     {r0-r7,lr}
        0x00002836:    b083        ..      SUB      sp,sp,#0xc
        0x00002838:    2005        .       MOVS     r0,#5
        0x0000283a:    9000        ..      STR      r0,[sp,#0]
        0x0000283c:    9c0c        ..      LDR      r4,[sp,#0x30]
        0x0000283e:    a382        ..      ADR      r3,{pc}+0x20a ; 0x2a48
        0x00002840:    a283        ..      ADR      r2,{pc}+0x210 ; 0x2a50
        0x00002842:    a183        ..      ADR      r1,{pc}+0x20e ; 0x2a50
        0x00002844:    a083        ..      ADR      r0,{pc}+0x210 ; 0x2a54
        0x00002846:    f7fffecf    ....    BL       SendAT ; 0x25e8
        0x0000284a:    2064        d       MOVS     r0,#0x64
        0x0000284c:    f001f95e    ..^.    BL       osDelay ; 0x3b0c
        0x00002850:    4e85        .N      LDR      r6,[pc,#532] ; [0x2a68] = 0x20000010
        0x00002852:    2100        .!      MOVS     r1,#0
        0x00002854:    43c9        .C      MVNS     r1,r1
        0x00002856:    6b30        0k      LDR      r0,[r6,#0x30]
        0x00002858:    f001f9cc    ....    BL       osMutexWait ; 0x3bf4
        0x0000285c:    2700        .'      MOVS     r7,#0
        0x0000285e:    60b7        .`      STR      r7,[r6,#8]
        0x00002860:    6277        wb      STR      r7,[r6,#0x24]
        0x00002862:    62b7        .b      STR      r7,[r6,#0x28]
        0x00002864:    62f7        .b      STR      r7,[r6,#0x2c]
        0x00002866:    21ff        .!      MOVS     r1,#0xff
        0x00002868:    31f5        .1      ADDS     r1,r1,#0xf5
        0x0000286a:    4880        .H      LDR      r0,[pc,#512] ; [0x2a6c] = 0x20000e7c
        0x0000286c:    6077        w`      STR      r7,[r6,#4]
        0x0000286e:    f7fdffd5    ....    BL       __aeabi_memclr ; 0x81c
        0x00002872:    f000ff53    ..S.    BL       clear ; 0x371c
        0x00002876:    487e        ~H      LDR      r0,[pc,#504] ; [0x2a70] = 0x2000114c
        0x00002878:    f000ff3e    ..>.    BL       checkallnumsinstring ; 0x36f8
        0x0000287c:    2800        .(      CMP      r0,#0
        0x0000287e:    d104        ..      BNE      0x288a ; SendAT_GPS + 86
        0x00002880:    487b        {H      LDR      r0,[pc,#492] ; [0x2a70] = 0x2000114c
        0x00002882:    f7fdff81    ....    BL       strlen ; 0x788
        0x00002886:    2805        .(      CMP      r0,#5
        0x00002888:    d238        8.      BCS      0x28fc ; SendAT_GPS + 200
        0x0000288a:    a07a        z.      ADR      r0,{pc}+0x1ea ; 0x2a74
        0x0000288c:    f7fdfe1e    ....    BL       __2printf ; 0x4cc
        0x00002890:    4876        vH      LDR      r0,[pc,#472] ; [0x2a6c] = 0x20000e7c
        0x00002892:    9904        ..      LDR      r1,[sp,#0x10]
        0x00002894:    f7fdff64    ..d.    BL       strstr ; 0x760
        0x00002898:    6270        pb      STR      r0,[r6,#0x24]
        0x0000289a:    4874        tH      LDR      r0,[pc,#464] ; [0x2a6c] = 0x20000e7c
        0x0000289c:    9905        ..      LDR      r1,[sp,#0x14]
        0x0000289e:    f7fdff5f    .._.    BL       strstr ; 0x760
        0x000028a2:    62b0        .b      STR      r0,[r6,#0x28]
        0x000028a4:    4871        qH      LDR      r0,[pc,#452] ; [0x2a6c] = 0x20000e7c
        0x000028a6:    9906        ..      LDR      r1,[sp,#0x18]
        0x000028a8:    f7fdff5a    ..Z.    BL       strstr ; 0x760
        0x000028ac:    62f0        .b      STR      r0,[r6,#0x2c]
        0x000028ae:    6ab2        .j      LDR      r2,[r6,#0x28]
        0x000028b0:    6a71        qj      LDR      r1,[r6,#0x24]
        0x000028b2:    4311        .C      ORRS     r1,r1,r2
        0x000028b4:    4301        .C      ORRS     r1,r1,r0
        0x000028b6:    d102        ..      BNE      0x28be ; SendAT_GPS + 138
        0x000028b8:    68b0        .h      LDR      r0,[r6,#8]
        0x000028ba:    42a0        .B      CMP      r0,r4
        0x000028bc:    dbe8        ..      BLT      0x2890 ; SendAT_GPS + 92
        0x000028be:    2119        .!      MOVS     r1,#0x19
        0x000028c0:    486b        kH      LDR      r0,[pc,#428] ; [0x2a70] = 0x2000114c
        0x000028c2:    f7fdffab    ....    BL       __aeabi_memclr ; 0x81c
        0x000028c6:    6177        wa      STR      r7,[r6,#0x14]
        0x000028c8:    4d69        iM      LDR      r5,[pc,#420] ; [0x2a70] = 0x2000114c
        0x000028ca:    61b7        .a      STR      r7,[r6,#0x18]
        0x000028cc:    e00b        ..      B        0x28e6 ; SendAT_GPS + 178
        0x000028ce:    4867        gH      LDR      r0,[pc,#412] ; [0x2a6c] = 0x20000e7c
        0x000028d0:    5c42        B\      LDRB     r2,[r0,r1]
        0x000028d2:    4610        .F      MOV      r0,r2
        0x000028d4:    3830        08      SUBS     r0,r0,#0x30
        0x000028d6:    280a        .(      CMP      r0,#0xa
        0x000028d8:    d203        ..      BCS      0x28e2 ; SendAT_GPS + 174
        0x000028da:    6970        pi      LDR      r0,[r6,#0x14]
        0x000028dc:    542a        *T      STRB     r2,[r5,r0]
        0x000028de:    1c40        @.      ADDS     r0,r0,#1
        0x000028e0:    6170        pa      STR      r0,[r6,#0x14]
        0x000028e2:    1c49        I.      ADDS     r1,r1,#1
        0x000028e4:    61b1        .a      STR      r1,[r6,#0x18]
        0x000028e6:    4861        aH      LDR      r0,[pc,#388] ; [0x2a6c] = 0x20000e7c
        0x000028e8:    f7fdff4e    ..N.    BL       strlen ; 0x788
        0x000028ec:    69b1        .i      LDR      r1,[r6,#0x18]
        0x000028ee:    4288        .B      CMP      r0,r1
        0x000028f0:    d8ed        ..      BHI      0x28ce ; SendAT_GPS + 154
        0x000028f2:    221a        ."      MOVS     r2,#0x1a
        0x000028f4:    210d        .!      MOVS     r1,#0xd
        0x000028f6:    485e        ^H      LDR      r0,[pc,#376] ; [0x2a70] = 0x2000114c
        0x000028f8:    f001fa4e    ..N.    BL       remove_all_chars ; 0x3d98
        0x000028fc:    60b7        .`      STR      r7,[r6,#8]
        0x000028fe:    6277        wb      STR      r7,[r6,#0x24]
        0x00002900:    62b7        .b      STR      r7,[r6,#0x28]
        0x00002902:    62f7        .b      STR      r7,[r6,#0x2c]
        0x00002904:    21ff        .!      MOVS     r1,#0xff
        0x00002906:    31f5        .1      ADDS     r1,r1,#0xf5
        0x00002908:    4858        XH      LDR      r0,[pc,#352] ; [0x2a6c] = 0x20000e7c
        0x0000290a:    6077        w`      STR      r7,[r6,#4]
        0x0000290c:    f7fdff86    ....    BL       __aeabi_memclr ; 0x81c
        0x00002910:    f000ff04    ....    BL       clear ; 0x371c
        0x00002914:    9803        ..      LDR      r0,[sp,#0xc]
        0x00002916:    f7fdfdd9    ....    BL       __2printf ; 0x4cc
        0x0000291a:    4854        TH      LDR      r0,[pc,#336] ; [0x2a6c] = 0x20000e7c
        0x0000291c:    9904        ..      LDR      r1,[sp,#0x10]
        0x0000291e:    f7fdff1f    ....    BL       strstr ; 0x760
        0x00002922:    6270        pb      STR      r0,[r6,#0x24]
        0x00002924:    4851        QH      LDR      r0,[pc,#324] ; [0x2a6c] = 0x20000e7c
        0x00002926:    9905        ..      LDR      r1,[sp,#0x14]
        0x00002928:    f7fdff1a    ....    BL       strstr ; 0x760
        0x0000292c:    62b0        .b      STR      r0,[r6,#0x28]
        0x0000292e:    484f        OH      LDR      r0,[pc,#316] ; [0x2a6c] = 0x20000e7c
        0x00002930:    9906        ..      LDR      r1,[sp,#0x18]
        0x00002932:    f7fdff15    ....    BL       strstr ; 0x760
        0x00002936:    62f0        .b      STR      r0,[r6,#0x2c]
        0x00002938:    6ab2        .j      LDR      r2,[r6,#0x28]
        0x0000293a:    6a71        qj      LDR      r1,[r6,#0x24]
        0x0000293c:    4311        .C      ORRS     r1,r1,r2
        0x0000293e:    4301        .C      ORRS     r1,r1,r0
        0x00002940:    d102        ..      BNE      0x2948 ; SendAT_GPS + 276
        0x00002942:    68b0        .h      LDR      r0,[r6,#8]
        0x00002944:    42a0        .B      CMP      r0,r4
        0x00002946:    dbe8        ..      BLT      0x291a ; SendAT_GPS + 230
        0x00002948:    f000fee8    ....    BL       clear ; 0x371c
        0x0000294c:    a14d        M.      ADR      r1,{pc}+0x138 ; 0x2a84
        0x0000294e:    4847        GH      LDR      r0,[pc,#284] ; [0x2a6c] = 0x20000e7c
        0x00002950:    f7fdff06    ....    BL       strstr ; 0x760
        0x00002954:    2800        .(      CMP      r0,#0
        0x00002956:    d05c        \.      BEQ      0x2a12 ; SendAT_GPS + 478
        0x00002958:    484c        LH      LDR      r0,[pc,#304] ; [0x2a8c] = 0x400e0000
        0x0000295a:    6a01        .j      LDR      r1,[r0,#0x20]
        0x0000295c:    2201        ."      MOVS     r2,#1
        0x0000295e:    02d2        ..      LSLS     r2,r2,#11
        0x00002960:    4311        .C      ORRS     r1,r1,r2
        0x00002962:    6201        .b      STR      r1,[r0,#0x20]
        0x00002964:    6800        .h      LDR      r0,[r0,#0]
        0x00002966:    b280        ..      UXTH     r0,r0
        0x00002968:    f7fef9f4    ....    BL       __aeabi_ui2f ; 0xd54
        0x0000296c:    f7fef99c    ....    BL       __aeabi_f2d ; 0xca8
        0x00002970:    4a47        GJ      LDR      r2,[pc,#284] ; [0x2a90] = 0xdb22d0e5
        0x00002972:    4b48        HK      LDR      r3,[pc,#288] ; [0x2a94] = 0x400a7ef9
        0x00002974:    f7fef844    ..D.    BL       __aeabi_dmul ; 0xa00
        0x00002978:    220b        ."      MOVS     r2,#0xb
        0x0000297a:    43d2        .C      MVNS     r2,r2
        0x0000297c:    f7fef964    ..d.    BL       __ARM_scalbn ; 0xc48
        0x00002980:    4a45        EJ      LDR      r2,[pc,#276] ; [0x2a98] = 0xe737ca49
        0x00002982:    4b46        FK      LDR      r3,[pc,#280] ; [0x2a9c] = 0x3ffe15ba
        0x00002984:    f7fef83c    ..<.    BL       __aeabi_dmul ; 0xa00
        0x00002988:    f7fdfffc    ....    BL       __aeabi_d2f ; 0x984
        0x0000298c:    6230        0b      STR      r0,[r6,#0x20]
        0x0000298e:    4838        8H      LDR      r0,[pc,#224] ; [0x2a70] = 0x2000114c
        0x00002990:    2164        d!      MOVS     r1,#0x64
        0x00002992:    3864        d8      SUBS     r0,r0,#0x64
        0x00002994:    f7fdff42    ..B.    BL       __aeabi_memclr ; 0x81c
        0x00002998:    4935        5I      LDR      r1,[pc,#212] ; [0x2a70] = 0x2000114c
        0x0000299a:    202c        ,       MOVS     r0,#0x2c
        0x0000299c:    3964        d9      SUBS     r1,r1,#0x64
        0x0000299e:    9101        ..      STR      r1,[sp,#4]
        0x000029a0:    9000        ..      STR      r0,[sp,#0]
        0x000029a2:    2343        C#      MOVS     r3,#0x43
        0x000029a4:    220a        ."      MOVS     r2,#0xa
        0x000029a6:    2102        .!      MOVS     r1,#2
        0x000029a8:    4830        0H      LDR      r0,[pc,#192] ; [0x2a6c] = 0x20000e7c
        0x000029aa:    f001f9b7    ....    BL       parse_g ; 0x3d1c
        0x000029ae:    4930        0I      LDR      r1,[pc,#192] ; [0x2a70] = 0x2000114c
        0x000029b0:    483b        ;H      LDR      r0,[pc,#236] ; [0x2aa0] = 0x200000d0
        0x000029b2:    f7fdff0b    ....    BL       strcat ; 0x7cc
        0x000029b6:    a13b        ;.      ADR      r1,{pc}+0xee ; 0x2aa4
        0x000029b8:    4839        9H      LDR      r0,[pc,#228] ; [0x2aa0] = 0x200000d0
        0x000029ba:    f7fdff07    ....    BL       strcat ; 0x7cc
        0x000029be:    492c        ,I      LDR      r1,[pc,#176] ; [0x2a70] = 0x2000114c
        0x000029c0:    4837        7H      LDR      r0,[pc,#220] ; [0x2aa0] = 0x200000d0
        0x000029c2:    3964        d9      SUBS     r1,r1,#0x64
        0x000029c4:    f7fdff02    ....    BL       strcat ; 0x7cc
        0x000029c8:    4829        )H      LDR      r0,[pc,#164] ; [0x2a70] = 0x2000114c
        0x000029ca:    2164        d!      MOVS     r1,#0x64
        0x000029cc:    3864        d8      SUBS     r0,r0,#0x64
        0x000029ce:    f7fdff25    ..%.    BL       __aeabi_memclr ; 0x81c
        0x000029d2:    6a30        0j      LDR      r0,[r6,#0x20]
        0x000029d4:    f7fef968    ..h.    BL       __aeabi_f2d ; 0xca8
        0x000029d8:    4602        .F      MOV      r2,r0
        0x000029da:    4825        %H      LDR      r0,[pc,#148] ; [0x2a70] = 0x2000114c
        0x000029dc:    460b        .F      MOV      r3,r1
        0x000029de:    a132        2.      ADR      r1,{pc}+0xca ; 0x2aa8
        0x000029e0:    3864        d8      SUBS     r0,r0,#0x64
        0x000029e2:    f7fdfd81    ....    BL       __2sprintf ; 0x4e8
        0x000029e6:    4922        "I      LDR      r1,[pc,#136] ; [0x2a70] = 0x2000114c
        0x000029e8:    482d        -H      LDR      r0,[pc,#180] ; [0x2aa0] = 0x200000d0
        0x000029ea:    3964        d9      SUBS     r1,r1,#0x64
        0x000029ec:    f7fdfeee    ....    BL       strcat ; 0x7cc
        0x000029f0:    481f        .H      LDR      r0,[pc,#124] ; [0x2a70] = 0x2000114c
        0x000029f2:    2164        d!      MOVS     r1,#0x64
        0x000029f4:    3864        d8      SUBS     r0,r0,#0x64
        0x000029f6:    f7fdff11    ....    BL       __aeabi_memclr ; 0x81c
        0x000029fa:    482d        -H      LDR      r0,[pc,#180] ; [0x2ab0] = 0x2000004c
        0x000029fc:    a12d        -.      ADR      r1,{pc}+0xb8 ; 0x2ab4
        0x000029fe:    6802        .h      LDR      r2,[r0,#0]
        0x00002a00:    481b        .H      LDR      r0,[pc,#108] ; [0x2a70] = 0x2000114c
        0x00002a02:    3864        d8      SUBS     r0,r0,#0x64
        0x00002a04:    f7fdfd70    ..p.    BL       __2sprintf ; 0x4e8
        0x00002a08:    4919        .I      LDR      r1,[pc,#100] ; [0x2a70] = 0x2000114c
        0x00002a0a:    4825        %H      LDR      r0,[pc,#148] ; [0x2aa0] = 0x200000d0
        0x00002a0c:    3964        d9      SUBS     r1,r1,#0x64
        0x00002a0e:    f7fdfedd    ....    BL       strcat ; 0x7cc
        0x00002a12:    4823        #H      LDR      r0,[pc,#140] ; [0x2aa0] = 0x200000d0
        0x00002a14:    f7fdfeb8    ....    BL       strlen ; 0x788
        0x00002a18:    4929        )I      LDR      r1,[pc,#164] ; [0x2ac0] = 0xb54
        0x00002a1a:    4288        .B      CMP      r0,r1
        0x00002a1c:    d90b        ..      BLS      0x2a36 ; SendAT_GPS + 514
        0x00002a1e:    4929        )I      LDR      r1,[pc,#164] ; [0x2ac4] = 0xdac
        0x00002a20:    481f        .H      LDR      r0,[pc,#124] ; [0x2aa0] = 0x200000d0
        0x00002a22:    f7fdfefb    ....    BL       __aeabi_memclr ; 0x81c
        0x00002a26:    4912        .I      LDR      r1,[pc,#72] ; [0x2a70] = 0x2000114c
        0x00002a28:    481d        .H      LDR      r0,[pc,#116] ; [0x2aa0] = 0x200000d0
        0x00002a2a:    f7fdfecf    ....    BL       strcat ; 0x7cc
        0x00002a2e:    a126        &.      ADR      r1,{pc}+0x9a ; 0x2ac8
        0x00002a30:    481b        .H      LDR      r0,[pc,#108] ; [0x2aa0] = 0x200000d0
        0x00002a32:    f7fdfecb    ....    BL       strcat ; 0x7cc
        0x00002a36:    6b30        0k      LDR      r0,[r6,#0x30]
        0x00002a38:    f001f8ce    ....    BL       osMutexRelease ; 0x3bd8
        0x00002a3c:    2005        .       MOVS     r0,#5
        0x00002a3e:    f001f865    ..e.    BL       osDelay ; 0x3b0c
        0x00002a42:    b007        ..      ADD      sp,sp,#0x1c
        0x00002a44:    bdf0        ..      POP      {r4-r7,pc}
    $d
        0x00002a46:    0000        ..      DCW    0
        0x00002a48:    4f525245    ERRO    DCD    1330795077
        0x00002a4c:    00000052    R...    DCD    82
        0x00002a50:    00004b4f    OK..    DCD    19279
        0x00002a54:    54410a0d    ..AT    DCD    1413548557
        0x00002a58:    4e47512b    +QGN    DCD    1313296683
        0x00002a5c:    3d435353    SSC=    DCD    1027822419
        0x00002a60:    0d0a0d31    1...    DCD    218762545
        0x00002a64:    0000000a    ....    DCD    10
        0x00002a68:    20000010    ...     DCD    536870928
        0x00002a6c:    20000e7c    |..     DCD    536874620
        0x00002a70:    2000114c    L..     DCD    536875340
        0x00002a74:    0a0d0a0d    ....    DCD    168626701
        0x00002a78:    472b5441    AT+G    DCD    1194021953
        0x00002a7c:    0a0d4e53    SN..    DCD    168644179
        0x00002a80:    00000a0d    ....    DCD    2573
        0x00002a84:    4d524e47    GNRM    DCD    1297239623
        0x00002a88:    00000043    C...    DCD    67
        0x00002a8c:    400e0000    ...@    DCD    1074659328
        0x00002a90:    db22d0e5    ..".    DCD    3676492005
        0x00002a94:    400a7ef9    .~.@    DCD    1074429689
        0x00002a98:    e737ca49    I.7.    DCD    3879193161
        0x00002a9c:    3ffe15ba    ...?    DCD    1073616314
        0x00002aa0:    200000d0    ...     DCD    536871120
        0x00002aa4:    0000002c    ,...    DCD    44
        0x00002aa8:    253d462c    ,F=%    DCD    624772652
        0x00002aac:    0066312e    .1f.    DCD    6697262
        0x00002ab0:    2000004c    L..     DCD    536870988
        0x00002ab4:    46494c2c    ,LIF    DCD    1179208748
        0x00002ab8:    64253d45    E=%d    DCD    1680162117
        0x00002abc:    0000000a    ....    DCD    10
        0x00002ac0:    00000b54    T...    DCD    2900
        0x00002ac4:    00000dac    ....    DCD    3500
        0x00002ac8:    6f727265    erro    DCD    1869771365
        0x00002acc:    41523a72    r:RA    DCD    1095907954
        0x00002ad0:    6c75664d    Mful    DCD    1819633229
        0x00002ad4:    00000a6c    l...    DCD    2668
    $t
    i.SendAT_GPS_WO_MUTEX
    SendAT_GPS_WO_MUTEX
        0x00002ad8:    b5ff        ..      PUSH     {r0-r7,lr}
        0x00002ada:    25ff        .%      MOVS     r5,#0xff
        0x00002adc:    b083        ..      SUB      sp,sp,#0xc
        0x00002ade:    35f5        .5      ADDS     r5,r5,#0xf5
        0x00002ae0:    4628        (F      MOV      r0,r5
        0x00002ae2:    9c0c        ..      LDR      r4,[sp,#0x30]
        0x00002ae4:    f001f812    ....    BL       osDelay ; 0x3b0c
        0x00002ae8:    4e7a        zN      LDR      r6,[pc,#488] ; [0x2cd4] = 0x20000010
        0x00002aea:    2700        .'      MOVS     r7,#0
        0x00002aec:    60b7        .`      STR      r7,[r6,#8]
        0x00002aee:    6277        wb      STR      r7,[r6,#0x24]
        0x00002af0:    62b7        .b      STR      r7,[r6,#0x28]
        0x00002af2:    62f7        .b      STR      r7,[r6,#0x2c]
        0x00002af4:    4629        )F      MOV      r1,r5
        0x00002af6:    4878        xH      LDR      r0,[pc,#480] ; [0x2cd8] = 0x20000e7c
        0x00002af8:    6077        w`      STR      r7,[r6,#4]
        0x00002afa:    f7fdfe8f    ....    BL       __aeabi_memclr ; 0x81c
        0x00002afe:    211a        .!      MOVS     r1,#0x1a
        0x00002b00:    a076        v.      ADR      r0,{pc}+0x1dc ; 0x2cdc
        0x00002b02:    f7fdfce3    ....    BL       __2printf ; 0x4cc
        0x00002b06:    f000fe09    ....    BL       clear ; 0x371c
        0x00002b0a:    4875        uH      LDR      r0,[pc,#468] ; [0x2ce0] = 0x2000114c
        0x00002b0c:    f000fdf4    ....    BL       checkallnumsinstring ; 0x36f8
        0x00002b10:    2800        .(      CMP      r0,#0
        0x00002b12:    d104        ..      BNE      0x2b1e ; SendAT_GPS_WO_MUTEX + 70
        0x00002b14:    4872        rH      LDR      r0,[pc,#456] ; [0x2ce0] = 0x2000114c
        0x00002b16:    f7fdfe37    ..7.    BL       strlen ; 0x788
        0x00002b1a:    2805        .(      CMP      r0,#5
        0x00002b1c:    d238        8.      BCS      0x2b90 ; SendAT_GPS_WO_MUTEX + 184
        0x00002b1e:    a071        q.      ADR      r0,{pc}+0x1c6 ; 0x2ce4
        0x00002b20:    f7fdfcd4    ....    BL       __2printf ; 0x4cc
        0x00002b24:    486c        lH      LDR      r0,[pc,#432] ; [0x2cd8] = 0x20000e7c
        0x00002b26:    9904        ..      LDR      r1,[sp,#0x10]
        0x00002b28:    f7fdfe1a    ....    BL       strstr ; 0x760
        0x00002b2c:    6270        pb      STR      r0,[r6,#0x24]
        0x00002b2e:    486a        jH      LDR      r0,[pc,#424] ; [0x2cd8] = 0x20000e7c
        0x00002b30:    9905        ..      LDR      r1,[sp,#0x14]
        0x00002b32:    f7fdfe15    ....    BL       strstr ; 0x760
        0x00002b36:    62b0        .b      STR      r0,[r6,#0x28]
        0x00002b38:    4867        gH      LDR      r0,[pc,#412] ; [0x2cd8] = 0x20000e7c
        0x00002b3a:    9906        ..      LDR      r1,[sp,#0x18]
        0x00002b3c:    f7fdfe10    ....    BL       strstr ; 0x760
        0x00002b40:    62f0        .b      STR      r0,[r6,#0x2c]
        0x00002b42:    6ab2        .j      LDR      r2,[r6,#0x28]
        0x00002b44:    6a71        qj      LDR      r1,[r6,#0x24]
        0x00002b46:    4311        .C      ORRS     r1,r1,r2
        0x00002b48:    4301        .C      ORRS     r1,r1,r0
        0x00002b4a:    d102        ..      BNE      0x2b52 ; SendAT_GPS_WO_MUTEX + 122
        0x00002b4c:    68b0        .h      LDR      r0,[r6,#8]
        0x00002b4e:    42a0        .B      CMP      r0,r4
        0x00002b50:    dbe8        ..      BLT      0x2b24 ; SendAT_GPS_WO_MUTEX + 76
        0x00002b52:    2119        .!      MOVS     r1,#0x19
        0x00002b54:    4862        bH      LDR      r0,[pc,#392] ; [0x2ce0] = 0x2000114c
        0x00002b56:    f7fdfe61    ..a.    BL       __aeabi_memclr ; 0x81c
        0x00002b5a:    6177        wa      STR      r7,[r6,#0x14]
        0x00002b5c:    4d60        `M      LDR      r5,[pc,#384] ; [0x2ce0] = 0x2000114c
        0x00002b5e:    61b7        .a      STR      r7,[r6,#0x18]
        0x00002b60:    e00b        ..      B        0x2b7a ; SendAT_GPS_WO_MUTEX + 162
        0x00002b62:    485d        ]H      LDR      r0,[pc,#372] ; [0x2cd8] = 0x20000e7c
        0x00002b64:    5c42        B\      LDRB     r2,[r0,r1]
        0x00002b66:    4610        .F      MOV      r0,r2
        0x00002b68:    3830        08      SUBS     r0,r0,#0x30
        0x00002b6a:    280a        .(      CMP      r0,#0xa
        0x00002b6c:    d203        ..      BCS      0x2b76 ; SendAT_GPS_WO_MUTEX + 158
        0x00002b6e:    6970        pi      LDR      r0,[r6,#0x14]
        0x00002b70:    542a        *T      STRB     r2,[r5,r0]
        0x00002b72:    1c40        @.      ADDS     r0,r0,#1
        0x00002b74:    6170        pa      STR      r0,[r6,#0x14]
        0x00002b76:    1c49        I.      ADDS     r1,r1,#1
        0x00002b78:    61b1        .a      STR      r1,[r6,#0x18]
        0x00002b7a:    4857        WH      LDR      r0,[pc,#348] ; [0x2cd8] = 0x20000e7c
        0x00002b7c:    f7fdfe04    ....    BL       strlen ; 0x788
        0x00002b80:    69b1        .i      LDR      r1,[r6,#0x18]
        0x00002b82:    4288        .B      CMP      r0,r1
        0x00002b84:    d8ed        ..      BHI      0x2b62 ; SendAT_GPS_WO_MUTEX + 138
        0x00002b86:    221a        ."      MOVS     r2,#0x1a
        0x00002b88:    210d        .!      MOVS     r1,#0xd
        0x00002b8a:    4855        UH      LDR      r0,[pc,#340] ; [0x2ce0] = 0x2000114c
        0x00002b8c:    f001f904    ....    BL       remove_all_chars ; 0x3d98
        0x00002b90:    60b7        .`      STR      r7,[r6,#8]
        0x00002b92:    6277        wb      STR      r7,[r6,#0x24]
        0x00002b94:    62b7        .b      STR      r7,[r6,#0x28]
        0x00002b96:    62f7        .b      STR      r7,[r6,#0x2c]
        0x00002b98:    21ff        .!      MOVS     r1,#0xff
        0x00002b9a:    31f5        .1      ADDS     r1,r1,#0xf5
        0x00002b9c:    484e        NH      LDR      r0,[pc,#312] ; [0x2cd8] = 0x20000e7c
        0x00002b9e:    6077        w`      STR      r7,[r6,#4]
        0x00002ba0:    f7fdfe3c    ..<.    BL       __aeabi_memclr ; 0x81c
        0x00002ba4:    f000fdba    ....    BL       clear ; 0x371c
        0x00002ba8:    211a        .!      MOVS     r1,#0x1a
        0x00002baa:    a04c        L.      ADR      r0,{pc}+0x132 ; 0x2cdc
        0x00002bac:    f7fdfc8e    ....    BL       __2printf ; 0x4cc
        0x00002bb0:    9803        ..      LDR      r0,[sp,#0xc]
        0x00002bb2:    f7fdfc8b    ....    BL       __2printf ; 0x4cc
        0x00002bb6:    4848        HH      LDR      r0,[pc,#288] ; [0x2cd8] = 0x20000e7c
        0x00002bb8:    9904        ..      LDR      r1,[sp,#0x10]
        0x00002bba:    f7fdfdd1    ....    BL       strstr ; 0x760
        0x00002bbe:    6270        pb      STR      r0,[r6,#0x24]
        0x00002bc0:    4845        EH      LDR      r0,[pc,#276] ; [0x2cd8] = 0x20000e7c
        0x00002bc2:    9905        ..      LDR      r1,[sp,#0x14]
        0x00002bc4:    f7fdfdcc    ....    BL       strstr ; 0x760
        0x00002bc8:    62b0        .b      STR      r0,[r6,#0x28]
        0x00002bca:    4843        CH      LDR      r0,[pc,#268] ; [0x2cd8] = 0x20000e7c
        0x00002bcc:    9906        ..      LDR      r1,[sp,#0x18]
        0x00002bce:    f7fdfdc7    ....    BL       strstr ; 0x760
        0x00002bd2:    62f0        .b      STR      r0,[r6,#0x2c]
        0x00002bd4:    6ab2        .j      LDR      r2,[r6,#0x28]
        0x00002bd6:    6a71        qj      LDR      r1,[r6,#0x24]
        0x00002bd8:    4311        .C      ORRS     r1,r1,r2
        0x00002bda:    4301        .C      ORRS     r1,r1,r0
        0x00002bdc:    d102        ..      BNE      0x2be4 ; SendAT_GPS_WO_MUTEX + 268
        0x00002bde:    68b0        .h      LDR      r0,[r6,#8]
        0x00002be0:    42a0        .B      CMP      r0,r4
        0x00002be2:    dbe8        ..      BLT      0x2bb6 ; SendAT_GPS_WO_MUTEX + 222
        0x00002be4:    a142        B.      ADR      r1,{pc}+0x10c ; 0x2cf0
        0x00002be6:    483c        <H      LDR      r0,[pc,#240] ; [0x2cd8] = 0x20000e7c
        0x00002be8:    f7fdfdba    ....    BL       strstr ; 0x760
        0x00002bec:    2800        .(      CMP      r0,#0
        0x00002bee:    d05c        \.      BEQ      0x2caa ; SendAT_GPS_WO_MUTEX + 466
        0x00002bf0:    4841        AH      LDR      r0,[pc,#260] ; [0x2cf8] = 0x400e0000
        0x00002bf2:    6a01        .j      LDR      r1,[r0,#0x20]
        0x00002bf4:    2201        ."      MOVS     r2,#1
        0x00002bf6:    02d2        ..      LSLS     r2,r2,#11
        0x00002bf8:    4311        .C      ORRS     r1,r1,r2
        0x00002bfa:    6201        .b      STR      r1,[r0,#0x20]
        0x00002bfc:    6800        .h      LDR      r0,[r0,#0]
        0x00002bfe:    b280        ..      UXTH     r0,r0
        0x00002c00:    f7fef8a8    ....    BL       __aeabi_ui2f ; 0xd54
        0x00002c04:    f7fef850    ..P.    BL       __aeabi_f2d ; 0xca8
        0x00002c08:    4a3c        <J      LDR      r2,[pc,#240] ; [0x2cfc] = 0xdb22d0e5
        0x00002c0a:    4b3d        =K      LDR      r3,[pc,#244] ; [0x2d00] = 0x400a7ef9
        0x00002c0c:    f7fdfef8    ....    BL       __aeabi_dmul ; 0xa00
        0x00002c10:    220b        ."      MOVS     r2,#0xb
        0x00002c12:    43d2        .C      MVNS     r2,r2
        0x00002c14:    f7fef818    ....    BL       __ARM_scalbn ; 0xc48
        0x00002c18:    4a3a        :J      LDR      r2,[pc,#232] ; [0x2d04] = 0xe737ca49
        0x00002c1a:    4b3b        ;K      LDR      r3,[pc,#236] ; [0x2d08] = 0x3ffe15ba
        0x00002c1c:    f7fdfef0    ....    BL       __aeabi_dmul ; 0xa00
        0x00002c20:    f7fdfeb0    ....    BL       __aeabi_d2f ; 0x984
        0x00002c24:    6230        0b      STR      r0,[r6,#0x20]
        0x00002c26:    482e        .H      LDR      r0,[pc,#184] ; [0x2ce0] = 0x2000114c
        0x00002c28:    2164        d!      MOVS     r1,#0x64
        0x00002c2a:    3864        d8      SUBS     r0,r0,#0x64
        0x00002c2c:    f7fdfdf6    ....    BL       __aeabi_memclr ; 0x81c
        0x00002c30:    492b        +I      LDR      r1,[pc,#172] ; [0x2ce0] = 0x2000114c
        0x00002c32:    202c        ,       MOVS     r0,#0x2c
        0x00002c34:    3964        d9      SUBS     r1,r1,#0x64
        0x00002c36:    9101        ..      STR      r1,[sp,#4]
        0x00002c38:    9000        ..      STR      r0,[sp,#0]
        0x00002c3a:    2343        C#      MOVS     r3,#0x43
        0x00002c3c:    220a        ."      MOVS     r2,#0xa
        0x00002c3e:    2102        .!      MOVS     r1,#2
        0x00002c40:    4825        %H      LDR      r0,[pc,#148] ; [0x2cd8] = 0x20000e7c
        0x00002c42:    f001f86b    ..k.    BL       parse_g ; 0x3d1c
        0x00002c46:    4926        &I      LDR      r1,[pc,#152] ; [0x2ce0] = 0x2000114c
        0x00002c48:    4830        0H      LDR      r0,[pc,#192] ; [0x2d0c] = 0x200000d0
        0x00002c4a:    f7fdfdbf    ....    BL       strcat ; 0x7cc
        0x00002c4e:    a130        0.      ADR      r1,{pc}+0xc2 ; 0x2d10
        0x00002c50:    482e        .H      LDR      r0,[pc,#184] ; [0x2d0c] = 0x200000d0
        0x00002c52:    f7fdfdbb    ....    BL       strcat ; 0x7cc
        0x00002c56:    4922        "I      LDR      r1,[pc,#136] ; [0x2ce0] = 0x2000114c
        0x00002c58:    482c        ,H      LDR      r0,[pc,#176] ; [0x2d0c] = 0x200000d0
        0x00002c5a:    3964        d9      SUBS     r1,r1,#0x64
        0x00002c5c:    f7fdfdb6    ....    BL       strcat ; 0x7cc
        0x00002c60:    481f        .H      LDR      r0,[pc,#124] ; [0x2ce0] = 0x2000114c
        0x00002c62:    2164        d!      MOVS     r1,#0x64
        0x00002c64:    3864        d8      SUBS     r0,r0,#0x64
        0x00002c66:    f7fdfdd9    ....    BL       __aeabi_memclr ; 0x81c
        0x00002c6a:    6a30        0j      LDR      r0,[r6,#0x20]
        0x00002c6c:    f7fef81c    ....    BL       __aeabi_f2d ; 0xca8
        0x00002c70:    4602        .F      MOV      r2,r0
        0x00002c72:    481b        .H      LDR      r0,[pc,#108] ; [0x2ce0] = 0x2000114c
        0x00002c74:    460b        .F      MOV      r3,r1
        0x00002c76:    a127        '.      ADR      r1,{pc}+0x9e ; 0x2d14
        0x00002c78:    3864        d8      SUBS     r0,r0,#0x64
        0x00002c7a:    f7fdfc35    ..5.    BL       __2sprintf ; 0x4e8
        0x00002c7e:    4918        .I      LDR      r1,[pc,#96] ; [0x2ce0] = 0x2000114c
        0x00002c80:    4822        "H      LDR      r0,[pc,#136] ; [0x2d0c] = 0x200000d0
        0x00002c82:    3964        d9      SUBS     r1,r1,#0x64
        0x00002c84:    f7fdfda2    ....    BL       strcat ; 0x7cc
        0x00002c88:    4815        .H      LDR      r0,[pc,#84] ; [0x2ce0] = 0x2000114c
        0x00002c8a:    2164        d!      MOVS     r1,#0x64
        0x00002c8c:    3864        d8      SUBS     r0,r0,#0x64
        0x00002c8e:    f7fdfdc5    ....    BL       __aeabi_memclr ; 0x81c
        0x00002c92:    4822        "H      LDR      r0,[pc,#136] ; [0x2d1c] = 0x2000004c
        0x00002c94:    a122        ".      ADR      r1,{pc}+0x8c ; 0x2d20
        0x00002c96:    6802        .h      LDR      r2,[r0,#0]
        0x00002c98:    4811        .H      LDR      r0,[pc,#68] ; [0x2ce0] = 0x2000114c
        0x00002c9a:    3864        d8      SUBS     r0,r0,#0x64
        0x00002c9c:    f7fdfc24    ..$.    BL       __2sprintf ; 0x4e8
        0x00002ca0:    490f        .I      LDR      r1,[pc,#60] ; [0x2ce0] = 0x2000114c
        0x00002ca2:    481a        .H      LDR      r0,[pc,#104] ; [0x2d0c] = 0x200000d0
        0x00002ca4:    3964        d9      SUBS     r1,r1,#0x64
        0x00002ca6:    f7fdfd91    ....    BL       strcat ; 0x7cc
        0x00002caa:    4818        .H      LDR      r0,[pc,#96] ; [0x2d0c] = 0x200000d0
        0x00002cac:    f7fdfd6c    ..l.    BL       strlen ; 0x788
        0x00002cb0:    491e        .I      LDR      r1,[pc,#120] ; [0x2d2c] = 0xb54
        0x00002cb2:    4288        .B      CMP      r0,r1
        0x00002cb4:    d90b        ..      BLS      0x2cce ; SendAT_GPS_WO_MUTEX + 502
        0x00002cb6:    491e        .I      LDR      r1,[pc,#120] ; [0x2d30] = 0xdac
        0x00002cb8:    4814        .H      LDR      r0,[pc,#80] ; [0x2d0c] = 0x200000d0
        0x00002cba:    f7fdfdaf    ....    BL       __aeabi_memclr ; 0x81c
        0x00002cbe:    4908        .I      LDR      r1,[pc,#32] ; [0x2ce0] = 0x2000114c
        0x00002cc0:    4812        .H      LDR      r0,[pc,#72] ; [0x2d0c] = 0x200000d0
        0x00002cc2:    f7fdfd83    ....    BL       strcat ; 0x7cc
        0x00002cc6:    a11b        ..      ADR      r1,{pc}+0x6e ; 0x2d34
        0x00002cc8:    4810        .H      LDR      r0,[pc,#64] ; [0x2d0c] = 0x200000d0
        0x00002cca:    f7fdfd7f    ....    BL       strcat ; 0x7cc
        0x00002cce:    b007        ..      ADD      sp,sp,#0x1c
        0x00002cd0:    bdf0        ..      POP      {r4-r7,pc}
    $d
        0x00002cd2:    0000        ..      DCW    0
        0x00002cd4:    20000010    ...     DCD    536870928
        0x00002cd8:    20000e7c    |..     DCD    536874620
        0x00002cdc:    00006325    %c..    DCD    25381
        0x00002ce0:    2000114c    L..     DCD    536875340
        0x00002ce4:    54410a0d    ..AT    DCD    1413548557
        0x00002ce8:    4e53472b    +GSN    DCD    1314080555
        0x00002cec:    00000a0d    ....    DCD    2573
        0x00002cf0:    4d524e47    GNRM    DCD    1297239623
        0x00002cf4:    00000043    C...    DCD    67
        0x00002cf8:    400e0000    ...@    DCD    1074659328
        0x00002cfc:    db22d0e5    ..".    DCD    3676492005
        0x00002d00:    400a7ef9    .~.@    DCD    1074429689
        0x00002d04:    e737ca49    I.7.    DCD    3879193161
        0x00002d08:    3ffe15ba    ...?    DCD    1073616314
        0x00002d0c:    200000d0    ...     DCD    536871120
        0x00002d10:    0000002c    ,...    DCD    44
        0x00002d14:    253d462c    ,F=%    DCD    624772652
        0x00002d18:    0066312e    .1f.    DCD    6697262
        0x00002d1c:    2000004c    L..     DCD    536870988
        0x00002d20:    46494c2c    ,LIF    DCD    1179208748
        0x00002d24:    64253d45    E=%d    DCD    1680162117
        0x00002d28:    0000000a    ....    DCD    10
        0x00002d2c:    00000b54    T...    DCD    2900
        0x00002d30:    00000dac    ....    DCD    3500
        0x00002d34:    6f727265    erro    DCD    1869771365
        0x00002d38:    41523a72    r:RA    DCD    1095907954
        0x00002d3c:    6c75664d    Mful    DCD    1819633229
        0x00002d40:    00000a6c    l...    DCD    2668
    $t
    i.SendChar
    SendChar
        0x00002d44:    b500        ..      PUSH     {lr}
        0x00002d46:    f000f801    ....    BL       SendChar_ToUART ; 0x2d4c
        0x00002d4a:    bd00        ..      POP      {pc}
    i.SendChar_ToUART
    SendChar_ToUART
        0x00002d4c:    4906        .I      LDR      r1,[pc,#24] ; [0x2d68] = 0x40150000
        0x00002d4e:    698a        .i      LDR      r2,[r1,#0x18]
        0x00002d50:    0212        ..      LSLS     r2,r2,#8
        0x00002d52:    d4fc        ..      BMI      0x2d4e ; SendChar_ToUART + 2
        0x00002d54:    6008        .`      STR      r0,[r1,#0]
        0x00002d56:    280a        .(      CMP      r0,#0xa
        0x00002d58:    d104        ..      BNE      0x2d64 ; SendChar_ToUART + 24
        0x00002d5a:    6988        .i      LDR      r0,[r1,#0x18]
        0x00002d5c:    0200        ..      LSLS     r0,r0,#8
        0x00002d5e:    d4fc        ..      BMI      0x2d5a ; SendChar_ToUART + 14
        0x00002d60:    200d        .       MOVS     r0,#0xd
        0x00002d62:    6008        .`      STR      r0,[r1,#0]
        0x00002d64:    4770        pG      BX       lr
    $d
        0x00002d66:    0000        ..      DCW    0
        0x00002d68:    40150000    ...@    DCD    1075118080
    $t
    i.Send_FS
    Send_FS
        0x00002d6c:    b51c        ..      PUSH     {r2-r4,lr}
        0x00002d6e:    4807        .H      LDR      r0,[pc,#28] ; [0x2d8c] = 0x20000010
        0x00002d70:    7800        .x      LDRB     r0,[r0,#0]
        0x00002d72:    2801        .(      CMP      r0,#1
        0x00002d74:    d109        ..      BNE      0x2d8a ; Send_FS + 30
        0x00002d76:    210a        .!      MOVS     r1,#0xa
        0x00002d78:    a005        ..      ADR      r0,{pc}+0x18 ; 0x2d90
        0x00002d7a:    9101        ..      STR      r1,[sp,#4]
        0x00002d7c:    9000        ..      STR      r0,[sp,#0]
        0x00002d7e:    a306        ..      ADR      r3,{pc}+0x1a ; 0x2d98
        0x00002d80:    a207        ..      ADR      r2,{pc}+0x20 ; 0x2da0
        0x00002d82:    4908        .I      LDR      r1,[pc,#32] ; [0x2da4] = 0x200000d0
        0x00002d84:    a008        ..      ADR      r0,{pc}+0x24 ; 0x2da8
        0x00002d86:    f000f929    ..).    BL       TCP_Send_ch ; 0x2fdc
        0x00002d8a:    bd1c        ..      POP      {r2-r4,pc}
    $d
        0x00002d8c:    20000010    ...     DCD    536870928
        0x00002d90:    444e4553    SEND    DCD    1145980243
        0x00002d94:    004b4f20     OK.    DCD    4935456
        0x00002d98:    4f525245    ERRO    DCD    1330795077
        0x00002d9c:    00000052    R...    DCD    82
        0x00002da0:    0000003e    >...    DCD    62
        0x00002da4:    200000d0    ...     DCD    536871120
        0x00002da8:    54410a0d    ..AT    DCD    1413548557
        0x00002dac:    5349512b    +QIS    DCD    1397313835
        0x00002db0:    0d444e45    END.    DCD    222580293
        0x00002db4:    000a0d0a    ....    DCD    658698
    $t
    i.SystemCoreClockUpdate
    SystemCoreClockUpdate
        0x00002db8:    b538        8.      PUSH     {r3-r5,lr}
        0x00002dba:    a01d        ..      ADR      r0,{pc}+0x76 ; 0x2e30
        0x00002dbc:    6800        .h      LDR      r0,[r0,#0]
        0x00002dbe:    4c1d        .L      LDR      r4,[pc,#116] ; [0x2e34] = 0x50000200
        0x00002dc0:    9000        ..      STR      r0,[sp,#0]
        0x00002dc2:    6a21        !j      LDR      r1,[r4,#0x20]
        0x00002dc4:    1320         .      ASRS     r0,r4,#12
        0x00002dc6:    4201        .B      TST      r1,r0
        0x00002dc8:    d001        ..      BEQ      0x2dce ; SystemCoreClockUpdate + 22
        0x00002dca:    2000        .       MOVS     r0,#0
        0x00002dcc:    e016        ..      B        0x2dfc ; SystemCoreClockUpdate + 68
        0x00002dce:    0308        ..      LSLS     r0,r1,#12
        0x00002dd0:    d501        ..      BPL      0x2dd6 ; SystemCoreClockUpdate + 30
        0x00002dd2:    4819        .H      LDR      r0,[pc,#100] ; [0x2e38] = 0x1518000
        0x00002dd4:    e000        ..      B        0x2dd8 ; SystemCoreClockUpdate + 32
        0x00002dd6:    4819        .H      LDR      r0,[pc,#100] ; [0x2e3c] = 0xb71b00
        0x00002dd8:    038a        ..      LSLS     r2,r1,#14
        0x00002dda:    d40f        ..      BMI      0x2dfc ; SystemCoreClockUpdate + 68
        0x00002ddc:    040a        ..      LSLS     r2,r1,#16
        0x00002dde:    0f92        ..      LSRS     r2,r2,#30
        0x00002de0:    466b        kF      MOV      r3,sp
        0x00002de2:    5c9b        .\      LDRB     r3,[r3,r2]
        0x00002de4:    05ca        ..      LSLS     r2,r1,#23
        0x00002de6:    0489        ..      LSLS     r1,r1,#18
        0x00002de8:    0dd2        ..      LSRS     r2,r2,#23
        0x00002dea:    0ec9        ..      LSRS     r1,r1,#27
        0x00002dec:    1c89        ..      ADDS     r1,r1,#2
        0x00002dee:    0880        ..      LSRS     r0,r0,#2
        0x00002df0:    1c92        ..      ADDS     r2,r2,#2
        0x00002df2:    4359        YC      MULS     r1,r3,r1
        0x00002df4:    4350        PC      MULS     r0,r2,r0
        0x00002df6:    f7fdfd15    ....    BL       __aeabi_uidiv ; 0x824
        0x00002dfa:    0080        ..      LSLS     r0,r0,#2
        0x00002dfc:    4d10        .M      LDR      r5,[pc,#64] ; [0x2e40] = 0x20000080
        0x00002dfe:    60a8        .`      STR      r0,[r5,#8]
        0x00002e00:    6921        !i      LDR      r1,[r4,#0x10]
        0x00002e02:    0749        I.      LSLS     r1,r1,#29
        0x00002e04:    0f49        I.      LSRS     r1,r1,#29
        0x00002e06:    2902        .)      CMP      r1,#2
        0x00002e08:    d003        ..      BEQ      0x2e12 ; SystemCoreClockUpdate + 90
        0x00002e0a:    0088        ..      LSLS     r0,r1,#2
        0x00002e0c:    4629        )F      MOV      r1,r5
        0x00002e0e:    310c        .1      ADDS     r1,r1,#0xc
        0x00002e10:    5808        .X      LDR      r0,[r1,r0]
        0x00002e12:    69a1        .i      LDR      r1,[r4,#0x18]
        0x00002e14:    0709        ..      LSLS     r1,r1,#28
        0x00002e16:    0f09        ..      LSRS     r1,r1,#28
        0x00002e18:    1c49        I.      ADDS     r1,r1,#1
        0x00002e1a:    f7fdfd03    ....    BL       __aeabi_uidiv ; 0x824
        0x00002e1e:    4909        .I      LDR      r1,[pc,#36] ; [0x2e44] = 0xf4240
        0x00002e20:    6028        (`      STR      r0,[r5,#0]
        0x00002e22:    104a        J.      ASRS     r2,r1,#1
        0x00002e24:    1880        ..      ADDS     r0,r0,r2
        0x00002e26:    f7fdfcfd    ....    BL       __aeabi_uidiv ; 0x824
        0x00002e2a:    6068        h`      STR      r0,[r5,#4]
        0x00002e2c:    bd38        8.      POP      {r3-r5,pc}
    $d
        0x00002e2e:    0000        ..      DCW    0
        0x00002e30:    04020201    ....    DCD    67240449
        0x00002e34:    50000200    ...P    DCD    1342177792
        0x00002e38:    01518000    ..Q.    DCD    22118400
        0x00002e3c:    00b71b00    ....    DCD    12000000
        0x00002e40:    20000080    ...     DCD    536871040
        0x00002e44:    000f4240    @B..    DCD    1000000
    $t
    i.SystemInit
    SystemInit
        0x00002e48:    4770        pG      BX       lr
        0x00002e4a:    0000        ..      MOVS     r0,r0
    i.TCP_Send
    TCP_Send
        0x00002e4c:    b5ff        ..      PUSH     {r0-r7,lr}
        0x00002e4e:    204b        K       MOVS     r0,#0x4b
        0x00002e50:    b083        ..      SUB      sp,sp,#0xc
        0x00002e52:    2600        .&      MOVS     r6,#0
        0x00002e54:    00c0        ..      LSLS     r0,r0,#3
        0x00002e56:    4c5c        \L      LDR      r4,[pc,#368] ; [0x2fc8] = 0x20000010
        0x00002e58:    9001        ..      STR      r0,[sp,#4]
        0x00002e5a:    4635        5F      MOV      r5,r6
        0x00002e5c:    1e71        q.      SUBS     r1,r6,#1
        0x00002e5e:    6b20         k      LDR      r0,[r4,#0x30]
        0x00002e60:    f000fec8    ....    BL       osMutexWait ; 0x3bf4
        0x00002e64:    2064        d       MOVS     r0,#0x64
        0x00002e66:    f000fe51    ..Q.    BL       osDelay ; 0x3b0c
        0x00002e6a:    2000        .       MOVS     r0,#0
        0x00002e6c:    60a0        .`      STR      r0,[r4,#8]
        0x00002e6e:    6260        `b      STR      r0,[r4,#0x24]
        0x00002e70:    62a0        .b      STR      r0,[r4,#0x28]
        0x00002e72:    62e0        .b      STR      r0,[r4,#0x2c]
        0x00002e74:    6060        ``      STR      r0,[r4,#4]
        0x00002e76:    2705        .'      MOVS     r7,#5
        0x00002e78:    211a        .!      MOVS     r1,#0x1a
        0x00002e7a:    a054        T.      ADR      r0,{pc}+0x152 ; 0x2fcc
        0x00002e7c:    f7fdfb26    ..&.    BL       __2printf ; 0x4cc
        0x00002e80:    9804        ..      LDR      r0,[sp,#0x10]
        0x00002e82:    f7fdfc81    ....    BL       strlen ; 0x788
        0x00002e86:    214b        K!      MOVS     r1,#0x4b
        0x00002e88:    4604        .F      MOV      r4,r0
        0x00002e8a:    00c9        ..      LSLS     r1,r1,#3
        0x00002e8c:    f7fdfcd4    ....    BL       __aeabi_idiv ; 0x838
        0x00002e90:    9102        ..      STR      r1,[sp,#8]
        0x00002e92:    2900        .)      CMP      r1,#0
        0x00002e94:    d000        ..      BEQ      0x2e98 ; TCP_Send + 76
        0x00002e96:    1c40        @.      ADDS     r0,r0,#1
        0x00002e98:    9000        ..      STR      r0,[sp,#0]
        0x00002e9a:    2c0f        .,      CMP      r4,#0xf
        0x00002e9c:    dd79        y.      BLE      0x2f92 ; TCP_Send + 326
        0x00002e9e:    f000fc3d    ..=.    BL       clear ; 0x371c
        0x00002ea2:    e06e        n.      B        0x2f82 ; TCP_Send + 310
        0x00002ea4:    4c48        HL      LDR      r4,[pc,#288] ; [0x2fc8] = 0x20000010
        0x00002ea6:    2000        .       MOVS     r0,#0
        0x00002ea8:    6060        ``      STR      r0,[r4,#4]
        0x00002eaa:    21ff        .!      MOVS     r1,#0xff
        0x00002eac:    60a0        .`      STR      r0,[r4,#8]
        0x00002eae:    31f5        .1      ADDS     r1,r1,#0xf5
        0x00002eb0:    4847        GH      LDR      r0,[pc,#284] ; [0x2fd0] = 0x20000e7c
        0x00002eb2:    f7fdfcb3    ....    BL       __aeabi_memclr ; 0x81c
        0x00002eb6:    9803        ..      LDR      r0,[sp,#0xc]
        0x00002eb8:    f7fdfb08    ....    BL       __2printf ; 0x4cc
        0x00002ebc:    4844        DH      LDR      r0,[pc,#272] ; [0x2fd0] = 0x20000e7c
        0x00002ebe:    9905        ..      LDR      r1,[sp,#0x14]
        0x00002ec0:    f7fdfc4e    ..N.    BL       strstr ; 0x760
        0x00002ec4:    6260        `b      STR      r0,[r4,#0x24]
        0x00002ec6:    4842        BH      LDR      r0,[pc,#264] ; [0x2fd0] = 0x20000e7c
        0x00002ec8:    9906        ..      LDR      r1,[sp,#0x18]
        0x00002eca:    f7fdfc49    ..I.    BL       strstr ; 0x760
        0x00002ece:    62a0        .b      STR      r0,[r4,#0x28]
        0x00002ed0:    483f        ?H      LDR      r0,[pc,#252] ; [0x2fd0] = 0x20000e7c
        0x00002ed2:    990c        ..      LDR      r1,[sp,#0x30]
        0x00002ed4:    f7fdfc44    ..D.    BL       strstr ; 0x760
        0x00002ed8:    62e0        .b      STR      r0,[r4,#0x2c]
        0x00002eda:    6aa2        .j      LDR      r2,[r4,#0x28]
        0x00002edc:    6a61        aj      LDR      r1,[r4,#0x24]
        0x00002ede:    4311        .C      ORRS     r1,r1,r2
        0x00002ee0:    4301        .C      ORRS     r1,r1,r0
        0x00002ee2:    d102        ..      BNE      0x2eea ; TCP_Send + 158
        0x00002ee4:    68a0        .h      LDR      r0,[r4,#8]
        0x00002ee6:    42b8        .B      CMP      r0,r7
        0x00002ee8:    dbe8        ..      BLT      0x2ebc ; TCP_Send + 112
        0x00002eea:    f000fc17    ....    BL       clear ; 0x371c
        0x00002eee:    4836        6H      LDR      r0,[pc,#216] ; [0x2fc8] = 0x20000010
        0x00002ef0:    2100        .!      MOVS     r1,#0
        0x00002ef2:    6081        .`      STR      r1,[r0,#8]
        0x00002ef4:    6a40        @j      LDR      r0,[r0,#0x24]
        0x00002ef6:    2800        .(      CMP      r0,#0
        0x00002ef8:    d03c        <.      BEQ      0x2f74 ; TCP_Send + 296
        0x00002efa:    4933        3I      LDR      r1,[pc,#204] ; [0x2fc8] = 0x20000010
        0x00002efc:    2000        .       MOVS     r0,#0
        0x00002efe:    6248        Hb      STR      r0,[r1,#0x24]
        0x00002f00:    6288        .b      STR      r0,[r1,#0x28]
        0x00002f02:    62c8        .b      STR      r0,[r1,#0x2c]
        0x00002f04:    6048        H`      STR      r0,[r1,#4]
        0x00002f06:    21ff        .!      MOVS     r1,#0xff
        0x00002f08:    2705        .'      MOVS     r7,#5
        0x00002f0a:    31f5        .1      ADDS     r1,r1,#0xf5
        0x00002f0c:    4830        0H      LDR      r0,[pc,#192] ; [0x2fd0] = 0x20000e7c
        0x00002f0e:    f7fdfc85    ....    BL       __aeabi_memclr ; 0x81c
        0x00002f12:    f000fc03    ....    BL       clear ; 0x371c
        0x00002f16:    9800        ..      LDR      r0,[sp,#0]
        0x00002f18:    1e40        @.      SUBS     r0,r0,#1
        0x00002f1a:    4285        .B      CMP      r5,r0
        0x00002f1c:    d101        ..      BNE      0x2f22 ; TCP_Send + 214
        0x00002f1e:    9902        ..      LDR      r1,[sp,#8]
        0x00002f20:    9101        ..      STR      r1,[sp,#4]
        0x00002f22:    2400        .$      MOVS     r4,#0
        0x00002f24:    e005        ..      B        0x2f32 ; TCP_Send + 230
        0x00002f26:    9804        ..      LDR      r0,[sp,#0x10]
        0x00002f28:    5d80        .]      LDRB     r0,[r0,r6]
        0x00002f2a:    f7ffff0b    ....    BL       SendChar ; 0x2d44
        0x00002f2e:    1c64        d.      ADDS     r4,r4,#1
        0x00002f30:    1c76        v.      ADDS     r6,r6,#1
        0x00002f32:    9801        ..      LDR      r0,[sp,#4]
        0x00002f34:    4284        .B      CMP      r4,r0
        0x00002f36:    dbf6        ..      BLT      0x2f26 ; TCP_Send + 218
        0x00002f38:    211a        .!      MOVS     r1,#0x1a
        0x00002f3a:    a024        $.      ADR      r0,{pc}+0x92 ; 0x2fcc
        0x00002f3c:    f7fdfac6    ....    BL       __2printf ; 0x4cc
        0x00002f40:    4c21        !L      LDR      r4,[pc,#132] ; [0x2fc8] = 0x20000010
        0x00002f42:    4823        #H      LDR      r0,[pc,#140] ; [0x2fd0] = 0x20000e7c
        0x00002f44:    9905        ..      LDR      r1,[sp,#0x14]
        0x00002f46:    f7fdfc0b    ....    BL       strstr ; 0x760
        0x00002f4a:    6260        `b      STR      r0,[r4,#0x24]
        0x00002f4c:    4820         H      LDR      r0,[pc,#128] ; [0x2fd0] = 0x20000e7c
        0x00002f4e:    9906        ..      LDR      r1,[sp,#0x18]
        0x00002f50:    f7fdfc06    ....    BL       strstr ; 0x760
        0x00002f54:    62a0        .b      STR      r0,[r4,#0x28]
        0x00002f56:    481e        .H      LDR      r0,[pc,#120] ; [0x2fd0] = 0x20000e7c
        0x00002f58:    990c        ..      LDR      r1,[sp,#0x30]
        0x00002f5a:    f7fdfc01    ....    BL       strstr ; 0x760
        0x00002f5e:    62e0        .b      STR      r0,[r4,#0x2c]
        0x00002f60:    6aa2        .j      LDR      r2,[r4,#0x28]
        0x00002f62:    6a61        aj      LDR      r1,[r4,#0x24]
        0x00002f64:    4311        .C      ORRS     r1,r1,r2
        0x00002f66:    4301        .C      ORRS     r1,r1,r0
        0x00002f68:    d102        ..      BNE      0x2f70 ; TCP_Send + 292
        0x00002f6a:    68a0        .h      LDR      r0,[r4,#8]
        0x00002f6c:    42b8        .B      CMP      r0,r7
        0x00002f6e:    dbe8        ..      BLT      0x2f42 ; TCP_Send + 246
        0x00002f70:    f000fbd4    ....    BL       clear ; 0x371c
        0x00002f74:    4814        .H      LDR      r0,[pc,#80] ; [0x2fc8] = 0x20000010
        0x00002f76:    6ac1        .j      LDR      r1,[r0,#0x2c]
        0x00002f78:    2900        .)      CMP      r1,#0
        0x00002f7a:    d00b        ..      BEQ      0x2f94 ; TCP_Send + 328
        0x00002f7c:    2100        .!      MOVS     r1,#0
        0x00002f7e:    70c1        .p      STRB     r1,[r0,#3]
        0x00002f80:    1c6d        m.      ADDS     r5,r5,#1
        0x00002f82:    9800        ..      LDR      r0,[sp,#0]
        0x00002f84:    4285        .B      CMP      r5,r0
        0x00002f86:    db8d        ..      BLT      0x2ea4 ; TCP_Send + 88
        0x00002f88:    4c0f        .L      LDR      r4,[pc,#60] ; [0x2fc8] = 0x20000010
        0x00002f8a:    78e0        .x      LDRB     r0,[r4,#3]
        0x00002f8c:    2800        .(      CMP      r0,#0
        0x00002f8e:    d005        ..      BEQ      0x2f9c ; TCP_Send + 336
        0x00002f90:    e00f        ..      B        0x2fb2 ; TCP_Send + 358
        0x00002f92:    e010        ..      B        0x2fb6 ; TCP_Send + 362
        0x00002f94:    490c        .I      LDR      r1,[pc,#48] ; [0x2fc8] = 0x20000010
        0x00002f96:    2001        .       MOVS     r0,#1
        0x00002f98:    70c8        .p      STRB     r0,[r1,#3]
        0x00002f9a:    e7f5        ..      B        0x2f88 ; TCP_Send + 316
        0x00002f9c:    9800        ..      LDR      r0,[sp,#0]
        0x00002f9e:    4285        .B      CMP      r5,r0
        0x00002fa0:    db07        ..      BLT      0x2fb2 ; TCP_Send + 358
        0x00002fa2:    490c        .I      LDR      r1,[pc,#48] ; [0x2fd4] = 0xdac
        0x00002fa4:    480c        .H      LDR      r0,[pc,#48] ; [0x2fd8] = 0x200000d0
        0x00002fa6:    f7fdfc39    ..9.    BL       __aeabi_memclr ; 0x81c
        0x00002faa:    f7fffedf    ....    BL       Send_FS ; 0x2d6c
        0x00002fae:    2001        .       MOVS     r0,#1
        0x00002fb0:    e000        ..      B        0x2fb4 ; TCP_Send + 360
        0x00002fb2:    2000        .       MOVS     r0,#0
        0x00002fb4:    7020         p      STRB     r0,[r4,#0]
        0x00002fb6:    4804        .H      LDR      r0,[pc,#16] ; [0x2fc8] = 0x20000010
        0x00002fb8:    6b00        .k      LDR      r0,[r0,#0x30]
        0x00002fba:    f000fe0d    ....    BL       osMutexRelease ; 0x3bd8
        0x00002fbe:    2005        .       MOVS     r0,#5
        0x00002fc0:    f000fda4    ....    BL       osDelay ; 0x3b0c
        0x00002fc4:    b007        ..      ADD      sp,sp,#0x1c
        0x00002fc6:    bdf0        ..      POP      {r4-r7,pc}
    $d
        0x00002fc8:    20000010    ...     DCD    536870928
        0x00002fcc:    00006325    %c..    DCD    25381
        0x00002fd0:    20000e7c    |..     DCD    536874620
        0x00002fd4:    00000dac    ....    DCD    3500
        0x00002fd8:    200000d0    ...     DCD    536871120
    $t
    i.TCP_Send_ch
    TCP_Send_ch
        0x00002fdc:    b5ff        ..      PUSH     {r0-r7,lr}
        0x00002fde:    2500        .%      MOVS     r5,#0
        0x00002fe0:    b0ff        ..      SUB      sp,sp,#0x1fc
        0x00002fe2:    4fbc        .O      LDR      r7,[pc,#752] ; [0x32d4] = 0x20000010
        0x00002fe4:    b09e        ..      SUB      sp,sp,#0x78
        0x00002fe6:    60fd        .`      STR      r5,[r7,#0xc]
        0x00002fe8:    462e        .F      MOV      r6,r5
        0x00002fea:    1e69        i.      SUBS     r1,r5,#1
        0x00002fec:    6b38        8k      LDR      r0,[r7,#0x30]
        0x00002fee:    f000fe01    ....    BL       osMutexWait ; 0x3bf4
        0x00002ff2:    20ff        .       MOVS     r0,#0xff
        0x00002ff4:    30f5        .0      ADDS     r0,r0,#0xf5
        0x00002ff6:    f000fd89    ....    BL       osDelay ; 0x3b0c
        0x00002ffa:    211a        .!      MOVS     r1,#0x1a
        0x00002ffc:    a0b6        ..      ADR      r0,{pc}+0x2dc ; 0x32d8
        0x00002ffe:    f7fdfa65    ..e.    BL       __2printf ; 0x4cc
        0x00003002:    60be        .`      STR      r6,[r7,#8]
        0x00003004:    627e        ~b      STR      r6,[r7,#0x24]
        0x00003006:    62be        .b      STR      r6,[r7,#0x28]
        0x00003008:    62fe        .b      STR      r6,[r7,#0x2c]
        0x0000300a:    2732        2'      MOVS     r7,#0x32
        0x0000300c:    2405        .$      MOVS     r4,#5
        0x0000300e:    a3b3        ..      ADR      r3,{pc}+0x2ce ; 0x32dc
        0x00003010:    a2b4        ..      ADR      r2,{pc}+0x2d4 ; 0x32e4
        0x00003012:    a1b5        ..      ADR      r1,{pc}+0x2d6 ; 0x32e8
        0x00003014:    a0b6        ..      ADR      r0,{pc}+0x2dc ; 0x32f0
        0x00003016:    9700        ..      STR      r7,[sp,#0]
        0x00003018:    f7fffae6    ....    BL       SendAT ; 0x25e8
        0x0000301c:    9602        ..      STR      r6,[sp,#8]
        0x0000301e:    a3af        ..      ADR      r3,{pc}+0x2be ; 0x32dc
        0x00003020:    a2b0        ..      ADR      r2,{pc}+0x2c4 ; 0x32e4
        0x00003022:    a1b1        ..      ADR      r1,{pc}+0x2c6 ; 0x32e8
        0x00003024:    a0b7        ..      ADR      r0,{pc}+0x2e0 ; 0x3304
        0x00003026:    9700        ..      STR      r7,[sp,#0]
        0x00003028:    9603        ..      STR      r6,[sp,#0xc]
        0x0000302a:    f7fffadd    ....    BL       SendAT ; 0x25e8
        0x0000302e:    a902        ..      ADD      r1,sp,#8
        0x00003030:    200a        .       MOVS     r0,#0xa
        0x00003032:    9101        ..      STR      r1,[sp,#4]
        0x00003034:    9000        ..      STR      r0,[sp,#0]
        0x00003036:    232c        ,#      MOVS     r3,#0x2c
        0x00003038:    2202        ."      MOVS     r2,#2
        0x0000303a:    2101        .!      MOVS     r1,#1
        0x0000303c:    48b7        .H      LDR      r0,[pc,#732] ; [0x331c] = 0x20000e7c
        0x0000303e:    f000fe6d    ..m.    BL       parse_g ; 0x3d1c
        0x00003042:    221a        ."      MOVS     r2,#0x1a
        0x00003044:    210d        .!      MOVS     r1,#0xd
        0x00003046:    a802        ..      ADD      r0,sp,#8
        0x00003048:    f000fea6    ....    BL       remove_all_chars ; 0x3d98
        0x0000304c:    a802        ..      ADD      r0,sp,#8
        0x0000304e:    f7fdfb72    ..r.    BL       atoi ; 0x736
        0x00003052:    9005        ..      STR      r0,[sp,#0x14]
        0x00003054:    f000fc6e    ..n.    BL       fileopen ; 0x3934
        0x00003058:    214b        K!      MOVS     r1,#0x4b
        0x0000305a:    00c9        ..      LSLS     r1,r1,#3
        0x0000305c:    9805        ..      LDR      r0,[sp,#0x14]
        0x0000305e:    f7fdfbeb    ....    BL       __aeabi_idiv ; 0x838
        0x00003062:    2900        .)      CMP      r1,#0
        0x00003064:    d000        ..      BEQ      0x3068 ; TCP_Send_ch + 140
        0x00003066:    1c40        @.      ADDS     r0,r0,#1
        0x00003068:    9004        ..      STR      r0,[sp,#0x10]
        0x0000306a:    e107        ..      B        0x327c ; TCP_Send_ch + 672
        0x0000306c:    4999        .I      LDR      r1,[pc,#612] ; [0x32d4] = 0x20000010
        0x0000306e:    2000        .       MOVS     r0,#0
        0x00003070:    6048        H`      STR      r0,[r1,#4]
        0x00003072:    9805        ..      LDR      r0,[sp,#0x14]
        0x00003074:    280f        .(      CMP      r0,#0xf
        0x00003076:    dd76        v.      BLE      0x3166 ; TCP_Send_ch + 394
        0x00003078:    f000fb50    ..P.    BL       clear ; 0x371c
        0x0000307c:    260a        .&      MOVS     r6,#0xa
        0x0000307e:    a397        ..      ADR      r3,{pc}+0x25e ; 0x32dc
        0x00003080:    a298        ..      ADR      r2,{pc}+0x264 ; 0x32e4
        0x00003082:    a1a7        ..      ADR      r1,{pc}+0x29e ; 0x3320
        0x00003084:    a0a9        ..      ADR      r0,{pc}+0x2a8 ; 0x332c
        0x00003086:    9600        ..      STR      r6,[sp,#0]
        0x00003088:    f7fffd26    ..&.    BL       SendAT_GPS_WO_MUTEX ; 0x2ad8
        0x0000308c:    2164        d!      MOVS     r1,#0x64
        0x0000308e:    48ae        .H      LDR      r0,[pc,#696] ; [0x3348] = 0x200010e8
        0x00003090:    f7fdfbc4    ....    BL       __aeabi_memclr ; 0x81c
        0x00003094:    4f8f        .O      LDR      r7,[pc,#572] ; [0x32d4] = 0x20000010
        0x00003096:    4aac        .J      LDR      r2,[pc,#688] ; [0x3348] = 0x200010e8
        0x00003098:    a1ac        ..      ADR      r1,{pc}+0x2b4 ; 0x334c
        0x0000309a:    3a14        .:      SUBS     r2,r2,#0x14
        0x0000309c:    48aa        .H      LDR      r0,[pc,#680] ; [0x3348] = 0x200010e8
        0x0000309e:    693b        ;i      LDR      r3,[r7,#0x10]
        0x000030a0:    f7fdfa22    ..".    BL       __2sprintf ; 0x4e8
        0x000030a4:    a38d        ..      ADR      r3,{pc}+0x238 ; 0x32dc
        0x000030a6:    a28f        ..      ADR      r2,{pc}+0x23e ; 0x32e4
        0x000030a8:    a1ae        ..      ADR      r1,{pc}+0x2bc ; 0x3364
        0x000030aa:    48a7        .H      LDR      r0,[pc,#668] ; [0x3348] = 0x200010e8
        0x000030ac:    9600        ..      STR      r6,[sp,#0]
        0x000030ae:    f7fffa9b    ....    BL       SendAT ; 0x25e8
        0x000030b2:    6939        9i      LDR      r1,[r7,#0x10]
        0x000030b4:    9805        ..      LDR      r0,[sp,#0x14]
        0x000030b6:    4281        .B      CMP      r1,r0
        0x000030b8:    dd0f        ..      BLE      0x30da ; TCP_Send_ch + 254
        0x000030ba:    2000        .       MOVS     r0,#0
        0x000030bc:    463c        <F      MOV      r4,r7
        0x000030be:    6120         a      STR      r0,[r4,#0x10]
        0x000030c0:    f000fc14    ....    BL       fileclose ; 0x38ec
        0x000030c4:    200a        .       MOVS     r0,#0xa
        0x000030c6:    9000        ..      STR      r0,[sp,#0]
        0x000030c8:    a384        ..      ADR      r3,{pc}+0x214 ; 0x32dc
        0x000030ca:    a286        ..      ADR      r2,{pc}+0x21a ; 0x32e4
        0x000030cc:    a186        ..      ADR      r1,{pc}+0x21c ; 0x32e8
        0x000030ce:    a0a8        ..      ADR      r0,{pc}+0x2a2 ; 0x3370
        0x000030d0:    f7fffa8a    ....    BL       SendAT ; 0x25e8
        0x000030d4:    2001        .       MOVS     r0,#1
        0x000030d6:    60e0        .`      STR      r0,[r4,#0xc]
        0x000030d8:    e0d3        ..      B        0x3282 ; TCP_Send_ch + 678
        0x000030da:    a1a2        ..      ADR      r1,{pc}+0x28a ; 0x3364
        0x000030dc:    488f        .H      LDR      r0,[pc,#572] ; [0x331c] = 0x20000e7c
        0x000030de:    f7fdfb3f    ..?.    BL       strstr ; 0x760
        0x000030e2:    2800        .(      CMP      r0,#0
        0x000030e4:    d002        ..      BEQ      0x30ec ; TCP_Send_ch + 272
        0x000030e6:    2001        .       MOVS     r0,#1
        0x000030e8:    497a        zI      LDR      r1,[pc,#488] ; [0x32d4] = 0x20000010
        0x000030ea:    e0d4        ..      B        0x3296 ; TCP_Send_ch + 698
        0x000030ec:    2164        d!      MOVS     r1,#0x64
        0x000030ee:    4896        .H      LDR      r0,[pc,#600] ; [0x3348] = 0x200010e8
        0x000030f0:    f7fdfb94    ....    BL       __aeabi_memclr ; 0x81c
        0x000030f4:    f000fb12    ....    BL       clear ; 0x371c
        0x000030f8:    4a93        .J      LDR      r2,[pc,#588] ; [0x3348] = 0x200010e8
        0x000030fa:    a1a3        ..      ADR      r1,{pc}+0x28e ; 0x3388
        0x000030fc:    3a14        .:      SUBS     r2,r2,#0x14
        0x000030fe:    4892        .H      LDR      r0,[pc,#584] ; [0x3348] = 0x200010e8
        0x00003100:    f7fdf9f2    ....    BL       __2sprintf ; 0x4e8
        0x00003104:    200a        .       MOVS     r0,#0xa
        0x00003106:    9000        ..      STR      r0,[sp,#0]
        0x00003108:    a374        t.      ADR      r3,{pc}+0x1d4 ; 0x32dc
        0x0000310a:    a276        v.      ADR      r2,{pc}+0x1da ; 0x32e4
        0x0000310c:    a195        ..      ADR      r1,{pc}+0x258 ; 0x3364
        0x0000310e:    488e        .H      LDR      r0,[pc,#568] ; [0x3348] = 0x200010e8
        0x00003110:    f7fffa6a    ..j.    BL       SendAT ; 0x25e8
        0x00003114:    f000fb02    ....    BL       clear ; 0x371c
        0x00003118:    a192        ..      ADR      r1,{pc}+0x24c ; 0x3364
        0x0000311a:    4880        .H      LDR      r0,[pc,#512] ; [0x331c] = 0x20000e7c
        0x0000311c:    f7fdfb20    .. .    BL       strstr ; 0x760
        0x00003120:    2800        .(      CMP      r0,#0
        0x00003122:    d1e0        ..      BNE      0x30e6 ; TCP_Send_ch + 266
        0x00003124:    487d        }H      LDR      r0,[pc,#500] ; [0x331c] = 0x20000e7c
        0x00003126:    f7fdfb2f    ../.    BL       strlen ; 0x788
        0x0000312a:    2864        d(      CMP      r0,#0x64
        0x0000312c:    d20a        ..      BCS      0x3144 ; TCP_Send_ch + 360
        0x0000312e:    f000fbdd    ....    BL       fileclose ; 0x38ec
        0x00003132:    200a        .       MOVS     r0,#0xa
        0x00003134:    9000        ..      STR      r0,[sp,#0]
        0x00003136:    a369        i.      ADR      r3,{pc}+0x1a6 ; 0x32dc
        0x00003138:    a26a        j.      ADR      r2,{pc}+0x1ac ; 0x32e4
        0x0000313a:    a16b        k.      ADR      r1,{pc}+0x1ae ; 0x32e8
        0x0000313c:    a08c        ..      ADR      r0,{pc}+0x234 ; 0x3370
        0x0000313e:    f7fffa53    ..S.    BL       SendAT ; 0x25e8
        0x00003142:    e7d0        ..      B        0x30e6 ; TCP_Send_ch + 266
        0x00003144:    214b        K!      MOVS     r1,#0x4b
        0x00003146:    00c9        ..      LSLS     r1,r1,#3
        0x00003148:    a806        ..      ADD      r0,sp,#0x18
        0x0000314a:    f7fdfb69    ..i.    BL       __aeabi_memclr4 ; 0x820
        0x0000314e:    221a        ."      MOVS     r2,#0x1a
        0x00003150:    210d        .!      MOVS     r1,#0xd
        0x00003152:    4872        rH      LDR      r0,[pc,#456] ; [0x331c] = 0x20000e7c
        0x00003154:    f000fe20    .. .    BL       remove_all_chars ; 0x3d98
        0x00003158:    200a        .       MOVS     r0,#0xa
        0x0000315a:    9001        ..      STR      r0,[sp,#4]
        0x0000315c:    486f        oH      LDR      r0,[pc,#444] ; [0x331c] = 0x20000e7c
        0x0000315e:    2700        .'      MOVS     r7,#0
        0x00003160:    463e        >F      MOV      r6,r7
        0x00003162:    9000        ..      STR      r0,[sp,#0]
        0x00003164:    e007        ..      B        0x3176 ; TCP_Send_ch + 410
        0x00003166:    e081        ..      B        0x326c ; TCP_Send_ch + 656
        0x00003168:    9800        ..      LDR      r0,[sp,#0]
        0x0000316a:    5d81        .]      LDRB     r1,[r0,r6]
        0x0000316c:    9801        ..      LDR      r0,[sp,#4]
        0x0000316e:    4281        .B      CMP      r1,r0
        0x00003170:    d100        ..      BNE      0x3174 ; TCP_Send_ch + 408
        0x00003172:    1c7f        ..      ADDS     r7,r7,#1
        0x00003174:    1c76        v.      ADDS     r6,r6,#1
        0x00003176:    9800        ..      LDR      r0,[sp,#0]
        0x00003178:    f7fdfb06    ....    BL       strlen ; 0x788
        0x0000317c:    42b0        .B      CMP      r0,r6
        0x0000317e:    d8f3        ..      BHI      0x3168 ; TCP_Send_ch + 396
        0x00003180:    200a        .       MOVS     r0,#0xa
        0x00003182:    a906        ..      ADD      r1,sp,#0x18
        0x00003184:    4603        .F      MOV      r3,r0
        0x00003186:    9101        ..      STR      r1,[sp,#4]
        0x00003188:    9000        ..      STR      r0,[sp,#0]
        0x0000318a:    1e7a        z.      SUBS     r2,r7,#1
        0x0000318c:    2102        .!      MOVS     r1,#2
        0x0000318e:    4863        cH      LDR      r0,[pc,#396] ; [0x331c] = 0x20000e7c
        0x00003190:    f000fdc4    ....    BL       parse_g ; 0x3d1c
        0x00003194:    2164        d!      MOVS     r1,#0x64
        0x00003196:    486c        lH      LDR      r0,[pc,#432] ; [0x3348] = 0x200010e8
        0x00003198:    f7fdfb40    ..@.    BL       __aeabi_memclr ; 0x81c
        0x0000319c:    4e4d        MN      LDR      r6,[pc,#308] ; [0x32d4] = 0x20000010
        0x0000319e:    2000        .       MOVS     r0,#0
        0x000031a0:    6070        p`      STR      r0,[r6,#4]
        0x000031a2:    21ff        .!      MOVS     r1,#0xff
        0x000031a4:    60b0        .`      STR      r0,[r6,#8]
        0x000031a6:    31f5        .1      ADDS     r1,r1,#0xf5
        0x000031a8:    485c        \H      LDR      r0,[pc,#368] ; [0x331c] = 0x20000e7c
        0x000031aa:    f7fdfb37    ..7.    BL       __aeabi_memclr ; 0x81c
        0x000031ae:    989d        ..      LDR      r0,[sp,#0x274]
        0x000031b0:    f7fdf98c    ....    BL       __2printf ; 0x4cc
        0x000031b4:    4859        YH      LDR      r0,[pc,#356] ; [0x331c] = 0x20000e7c
        0x000031b6:    999f        ..      LDR      r1,[sp,#0x27c]
        0x000031b8:    f7fdfad2    ....    BL       strstr ; 0x760
        0x000031bc:    6270        pb      STR      r0,[r6,#0x24]
        0x000031be:    4857        WH      LDR      r0,[pc,#348] ; [0x331c] = 0x20000e7c
        0x000031c0:    99a0        ..      LDR      r1,[sp,#0x280]
        0x000031c2:    f7fdfacd    ....    BL       strstr ; 0x760
        0x000031c6:    62b0        .b      STR      r0,[r6,#0x28]
        0x000031c8:    4854        TH      LDR      r0,[pc,#336] ; [0x331c] = 0x20000e7c
        0x000031ca:    99a6        ..      LDR      r1,[sp,#0x298]
        0x000031cc:    f7fdfac8    ....    BL       strstr ; 0x760
        0x000031d0:    62f0        .b      STR      r0,[r6,#0x2c]
        0x000031d2:    6ab2        .j      LDR      r2,[r6,#0x28]
        0x000031d4:    6a71        qj      LDR      r1,[r6,#0x24]
        0x000031d6:    4311        .C      ORRS     r1,r1,r2
        0x000031d8:    4301        .C      ORRS     r1,r1,r0
        0x000031da:    d102        ..      BNE      0x31e2 ; TCP_Send_ch + 518
        0x000031dc:    68b0        .h      LDR      r0,[r6,#8]
        0x000031de:    42a0        .B      CMP      r0,r4
        0x000031e0:    dbe8        ..      BLT      0x31b4 ; TCP_Send_ch + 472
        0x000031e2:    f000fa9b    ....    BL       clear ; 0x371c
        0x000031e6:    483b        ;H      LDR      r0,[pc,#236] ; [0x32d4] = 0x20000010
        0x000031e8:    2100        .!      MOVS     r1,#0
        0x000031ea:    6081        .`      STR      r1,[r0,#8]
        0x000031ec:    6a40        @j      LDR      r0,[r0,#0x24]
        0x000031ee:    2800        .(      CMP      r0,#0
        0x000031f0:    d036        6.      BEQ      0x3260 ; TCP_Send_ch + 644
        0x000031f2:    4938        8I      LDR      r1,[pc,#224] ; [0x32d4] = 0x20000010
        0x000031f4:    2000        .       MOVS     r0,#0
        0x000031f6:    6248        Hb      STR      r0,[r1,#0x24]
        0x000031f8:    6288        .b      STR      r0,[r1,#0x28]
        0x000031fa:    62c8        .b      STR      r0,[r1,#0x2c]
        0x000031fc:    6048        H`      STR      r0,[r1,#4]
        0x000031fe:    21ff        .!      MOVS     r1,#0xff
        0x00003200:    2405        .$      MOVS     r4,#5
        0x00003202:    31f5        .1      ADDS     r1,r1,#0xf5
        0x00003204:    4845        EH      LDR      r0,[pc,#276] ; [0x331c] = 0x20000e7c
        0x00003206:    f7fdfb09    ....    BL       __aeabi_memclr ; 0x81c
        0x0000320a:    f000fa87    ....    BL       clear ; 0x371c
        0x0000320e:    a806        ..      ADD      r0,sp,#0x18
        0x00003210:    f7fdfaba    ....    BL       strlen ; 0x788
        0x00003214:    4607        .F      MOV      r7,r0
        0x00003216:    2600        .&      MOVS     r6,#0
        0x00003218:    e004        ..      B        0x3224 ; TCP_Send_ch + 584
        0x0000321a:    a806        ..      ADD      r0,sp,#0x18
        0x0000321c:    5d80        .]      LDRB     r0,[r0,r6]
        0x0000321e:    f7fffd91    ....    BL       SendChar ; 0x2d44
        0x00003222:    1c76        v.      ADDS     r6,r6,#1
        0x00003224:    42be        .B      CMP      r6,r7
        0x00003226:    dbf8        ..      BLT      0x321a ; TCP_Send_ch + 574
        0x00003228:    211a        .!      MOVS     r1,#0x1a
        0x0000322a:    a02b        +.      ADR      r0,{pc}+0xae ; 0x32d8
        0x0000322c:    f7fdf94e    ..N.    BL       __2printf ; 0x4cc
        0x00003230:    4e28        (N      LDR      r6,[pc,#160] ; [0x32d4] = 0x20000010
        0x00003232:    483a        :H      LDR      r0,[pc,#232] ; [0x331c] = 0x20000e7c
        0x00003234:    999f        ..      LDR      r1,[sp,#0x27c]
        0x00003236:    f7fdfa93    ....    BL       strstr ; 0x760
        0x0000323a:    6270        pb      STR      r0,[r6,#0x24]
        0x0000323c:    4837        7H      LDR      r0,[pc,#220] ; [0x331c] = 0x20000e7c
        0x0000323e:    99a0        ..      LDR      r1,[sp,#0x280]
        0x00003240:    f7fdfa8e    ....    BL       strstr ; 0x760
        0x00003244:    62b0        .b      STR      r0,[r6,#0x28]
        0x00003246:    4835        5H      LDR      r0,[pc,#212] ; [0x331c] = 0x20000e7c
        0x00003248:    99a6        ..      LDR      r1,[sp,#0x298]
        0x0000324a:    f7fdfa89    ....    BL       strstr ; 0x760
        0x0000324e:    62f0        .b      STR      r0,[r6,#0x2c]
        0x00003250:    6ab2        .j      LDR      r2,[r6,#0x28]
        0x00003252:    6a71        qj      LDR      r1,[r6,#0x24]
        0x00003254:    4311        .C      ORRS     r1,r1,r2
        0x00003256:    4301        .C      ORRS     r1,r1,r0
        0x00003258:    d102        ..      BNE      0x3260 ; TCP_Send_ch + 644
        0x0000325a:    68b0        .h      LDR      r0,[r6,#8]
        0x0000325c:    42a0        .B      CMP      r0,r4
        0x0000325e:    dbe8        ..      BLT      0x3232 ; TCP_Send_ch + 598
        0x00003260:    481c        .H      LDR      r0,[pc,#112] ; [0x32d4] = 0x20000010
        0x00003262:    6ac1        .j      LDR      r1,[r0,#0x2c]
        0x00003264:    2900        .)      CMP      r1,#0
        0x00003266:    d013        ..      BEQ      0x3290 ; TCP_Send_ch + 692
        0x00003268:    2100        .!      MOVS     r1,#0
        0x0000326a:    70c1        .p      STRB     r1,[r0,#3]
        0x0000326c:    4819        .H      LDR      r0,[pc,#100] ; [0x32d4] = 0x20000010
        0x0000326e:    214b        K!      MOVS     r1,#0x4b
        0x00003270:    6902        .i      LDR      r2,[r0,#0x10]
        0x00003272:    00c9        ..      LSLS     r1,r1,#3
        0x00003274:    1851        Q.      ADDS     r1,r2,r1
        0x00003276:    6101        .a      STR      r1,[r0,#0x10]
        0x00003278:    9804        ..      LDR      r0,[sp,#0x10]
        0x0000327a:    1c6d        m.      ADDS     r5,r5,#1
        0x0000327c:    4285        .B      CMP      r5,r0
        0x0000327e:    da00        ..      BGE      0x3282 ; TCP_Send_ch + 678
        0x00003280:    e6f4        ..      B        0x306c ; TCP_Send_ch + 144
        0x00003282:    f000fb33    ..3.    BL       fileclose ; 0x38ec
        0x00003286:    4c13        .L      LDR      r4,[pc,#76] ; [0x32d4] = 0x20000010
        0x00003288:    78e0        .x      LDRB     r0,[r4,#3]
        0x0000328a:    2800        .(      CMP      r0,#0
        0x0000328c:    d005        ..      BEQ      0x329a ; TCP_Send_ch + 702
        0x0000328e:    e013        ..      B        0x32b8 ; TCP_Send_ch + 732
        0x00003290:    4910        .I      LDR      r1,[pc,#64] ; [0x32d4] = 0x20000010
        0x00003292:    2001        .       MOVS     r0,#1
        0x00003294:    70c8        .p      STRB     r0,[r1,#3]
        0x00003296:    60c8        .`      STR      r0,[r1,#0xc]
        0x00003298:    e7f3        ..      B        0x3282 ; TCP_Send_ch + 678
        0x0000329a:    9804        ..      LDR      r0,[sp,#0x10]
        0x0000329c:    4285        .B      CMP      r5,r0
        0x0000329e:    db0b        ..      BLT      0x32b8 ; TCP_Send_ch + 732
        0x000032a0:    f000fb24    ..$.    BL       fileclose ; 0x38ec
        0x000032a4:    2000        .       MOVS     r0,#0
        0x000032a6:    6120         a      STR      r0,[r4,#0x10]
        0x000032a8:    200a        .       MOVS     r0,#0xa
        0x000032aa:    9000        ..      STR      r0,[sp,#0]
        0x000032ac:    a30b        ..      ADR      r3,{pc}+0x30 ; 0x32dc
        0x000032ae:    a20d        ..      ADR      r2,{pc}+0x36 ; 0x32e4
        0x000032b0:    a10d        ..      ADR      r1,{pc}+0x38 ; 0x32e8
        0x000032b2:    a02f        /.      ADR      r0,{pc}+0xbe ; 0x3370
        0x000032b4:    f7fff998    ....    BL       SendAT ; 0x25e8
        0x000032b8:    2000        .       MOVS     r0,#0
        0x000032ba:    6260        `b      STR      r0,[r4,#0x24]
        0x000032bc:    62a0        .b      STR      r0,[r4,#0x28]
        0x000032be:    62e0        .b      STR      r0,[r4,#0x2c]
        0x000032c0:    6b20         k      LDR      r0,[r4,#0x30]
        0x000032c2:    f000fc89    ....    BL       osMutexRelease ; 0x3bd8
        0x000032c6:    200a        .       MOVS     r0,#0xa
        0x000032c8:    f000fc20    .. .    BL       osDelay ; 0x3b0c
        0x000032cc:    b07f        ..      ADD      sp,sp,#0x1fc
        0x000032ce:    b022        ".      ADD      sp,sp,#0x88
        0x000032d0:    bdf0        ..      POP      {r4-r7,pc}
    $d
        0x000032d2:    0000        ..      DCW    0
        0x000032d4:    20000010    ...     DCD    536870928
        0x000032d8:    00006325    %c..    DCD    25381
        0x000032dc:    4f525245    ERRO    DCD    1330795077
        0x000032e0:    00000052    R...    DCD    82
        0x000032e4:    00004b4f    OK..    DCD    19279
        0x000032e8:    64616552    Read    DCD    1684104530
        0x000032ec:    00000079    y...    DCD    121
        0x000032f0:    54410a0d    ..AT    DCD    1413548557
        0x000032f4:    4c46512b    +QFL    DCD    1279676715
        0x000032f8:    223d7344    Ds="    DCD    574452548
        0x000032fc:    22534655    UFS"    DCD    575882837
        0x00003300:    00000a0d    ....    DCD    2573
        0x00003304:    54410a0d    ..AT    DCD    1413548557
        0x00003308:    4c46512b    +QFL    DCD    1279676715
        0x0000330c:    223d5453    ST="    DCD    574444627
        0x00003310:    2e474f4c    LOG.    DCD    776425292
        0x00003314:    22545854    TXT"    DCD    575952980
        0x00003318:    00000a0d    ....    DCD    2573
        0x0000331c:    20000e7c    |..     DCD    536874620
        0x00003320:    50474d2b    +MGP    DCD    1346850091
        0x00003324:    41545353    SSTA    DCD    1096045395
        0x00003328:    00535554    TUS.    DCD    5461332
        0x0000332c:    54410a0d    ..AT    DCD    1413548557
        0x00003330:    4e47512b    +QGN    DCD    1313296683
        0x00003334:    44525353    SSRD    DCD    1146245971
        0x00003338:    4d4e223d    ="NM    DCD    1296966205
        0x0000333c:    522f4145    EA/R    DCD    1378828613
        0x00003340:    0d22434d    MC".    DCD    220349261
        0x00003344:    0000000a    ....    DCD    10
        0x00003348:    200010e8    ...     DCD    536875240
        0x0000334c:    54410a0d    ..AT    DCD    1413548557
        0x00003350:    5346512b    +QFS    DCD    1397117227
        0x00003354:    3d4b4545    EEK=    DCD    1028343109
        0x00003358:    252c7325    %s,%    DCD    623670053
        0x0000335c:    0d0a0d64    d...    DCD    218762596
        0x00003360:    0000000a    ....    DCD    10
        0x00003364:    454d432b    +CME    DCD    1162691371
        0x00003368:    52524520     ERR    DCD    1381123360
        0x0000336c:    0000524f    OR..    DCD    21071
        0x00003370:    54410a0d    ..AT    DCD    1413548557
        0x00003374:    4446512b    +QFD    DCD    1145458987
        0x00003378:    223d4c45    EL="    DCD    574442565
        0x0000337c:    2e474f4c    LOG.    DCD    776425292
        0x00003380:    22545854    TXT"    DCD    575952980
        0x00003384:    00000a0d    ....    DCD    2573
        0x00003388:    54410a0d    ..AT    DCD    1413548557
        0x0000338c:    5246512b    +QFR    DCD    1380340011
        0x00003390:    3d444145    EAD=    DCD    1027883333
        0x00003394:    362c7325    %s,6    DCD    908882725
        0x00003398:    0a0d3030    00..    DCD    168636464
        0x0000339c:    00000a0d    ....    DCD    2573
    $t
    i.Timer1_Callback
    Timer1_Callback
        0x000033a0:    4770        pG      BX       lr
        0x000033a2:    0000        ..      MOVS     r0,r0
    i.Timer2_Callback
    Timer2_Callback
        0x000033a4:    b510        ..      PUSH     {r4,lr}
        0x000033a6:    480b        .H      LDR      r0,[pc,#44] ; [0x33d4] = 0x20000018
        0x000033a8:    6801        .h      LDR      r1,[r0,#0]
        0x000033aa:    1c49        I.      ADDS     r1,r1,#1
        0x000033ac:    6001        .`      STR      r1,[r0,#0]
        0x000033ae:    490a        .I      LDR      r1,[pc,#40] ; [0x33d8] = 0x20000060
        0x000033b0:    6808        .h      LDR      r0,[r1,#0]
        0x000033b2:    1c40        @.      ADDS     r0,r0,#1
        0x000033b4:    6008        .`      STR      r0,[r1,#0]
        0x000033b6:    f000f945    ..E.    BL       batteryind ; 0x3644
        0x000033ba:    4808        .H      LDR      r0,[pc,#32] ; [0x33dc] = 0x20000048
        0x000033bc:    7801        .x      LDRB     r1,[r0,#0]
        0x000033be:    1c49        I.      ADDS     r1,r1,#1
        0x000033c0:    7001        .p      STRB     r1,[r0,#0]
        0x000033c2:    4907        .I      LDR      r1,[pc,#28] ; [0x33e0] = 0x50004240
        0x000033c4:    6b4a        Jk      LDR      r2,[r1,#0x34]
        0x000033c6:    2301        .#      MOVS     r3,#1
        0x000033c8:    405a        Z@      EORS     r2,r2,r3
        0x000033ca:    634a        Jc      STR      r2,[r1,#0x34]
        0x000033cc:    6841        Ah      LDR      r1,[r0,#4]
        0x000033ce:    1c49        I.      ADDS     r1,r1,#1
        0x000033d0:    6041        A`      STR      r1,[r0,#4]
        0x000033d2:    bd10        ..      POP      {r4,pc}
    $d
        0x000033d4:    20000018    ...     DCD    536870936
        0x000033d8:    20000060    `..     DCD    536871008
        0x000033dc:    20000048    H..     DCD    536870984
        0x000033e0:    50004240    @B.P    DCD    1342194240
    $t
    i.UART02_IRQHandler
    UART02_IRQHandler
        0x000033e4:    b510        ..      PUSH     {r4,lr}
        0x000033e6:    4906        .I      LDR      r1,[pc,#24] ; [0x3400] = 0x40154000
        0x000033e8:    4b06        .K      LDR      r3,[pc,#24] ; [0x3404] = 0x20001070
        0x000033ea:    4a07        .J      LDR      r2,[pc,#28] ; [0x3408] = 0x20000000
        0x000033ec:    e004        ..      B        0x33f8 ; UART02_IRQHandler + 20
        0x000033ee:    680c        .h      LDR      r4,[r1,#0]
        0x000033f0:    7810        .x      LDRB     r0,[r2,#0]
        0x000033f2:    541c        .T      STRB     r4,[r3,r0]
        0x000033f4:    1c40        @.      ADDS     r0,r0,#1
        0x000033f6:    7010        .p      STRB     r0,[r2,#0]
        0x000033f8:    6988        .i      LDR      r0,[r1,#0x18]
        0x000033fa:    0440        @.      LSLS     r0,r0,#17
        0x000033fc:    d5f7        ..      BPL      0x33ee ; UART02_IRQHandler + 10
        0x000033fe:    bd10        ..      POP      {r4,pc}
    $d
        0x00003400:    40154000    .@.@    DCD    1075134464
        0x00003404:    20001070    p..     DCD    536875120
        0x00003408:    20000000    ...     DCD    536870912
    $t
    i.UART1_IRQHandler
    UART1_IRQHandler
        0x0000340c:    b510        ..      PUSH     {r4,lr}
        0x0000340e:    4906        .I      LDR      r1,[pc,#24] ; [0x3428] = 0x40150000
        0x00003410:    4b06        .K      LDR      r3,[pc,#24] ; [0x342c] = 0x20000e7c
        0x00003412:    4a07        .J      LDR      r2,[pc,#28] ; [0x3430] = 0x20000014
        0x00003414:    e004        ..      B        0x3420 ; UART1_IRQHandler + 20
        0x00003416:    680c        .h      LDR      r4,[r1,#0]
        0x00003418:    6810        .h      LDR      r0,[r2,#0]
        0x0000341a:    541c        .T      STRB     r4,[r3,r0]
        0x0000341c:    1c40        @.      ADDS     r0,r0,#1
        0x0000341e:    6010        .`      STR      r0,[r2,#0]
        0x00003420:    6988        .i      LDR      r0,[r1,#0x18]
        0x00003422:    0440        @.      LSLS     r0,r0,#17
        0x00003424:    d5f7        ..      BPL      0x3416 ; UART1_IRQHandler + 10
        0x00003426:    bd10        ..      POP      {r4,pc}
    $d
        0x00003428:    40150000    ...@    DCD    1075118080
        0x0000342c:    20000e7c    |..     DCD    536874620
        0x00003430:    20000014    ...     DCD    536870932
    $t
    i.UART_Open
    UART_Open
        0x00003434:    b5f0        ..      PUSH     {r4-r7,lr}
        0x00003436:    4604        .F      MOV      r4,r0
        0x00003438:    481c        .H      LDR      r0,[pc,#112] ; [0x34ac] = 0x50b0
        0x0000343a:    460d        .F      MOV      r5,r1
        0x0000343c:    c80f        ..      LDM      r0,{r0-r3}
        0x0000343e:    b085        ..      SUB      sp,sp,#0x14
        0x00003440:    466e        nF      MOV      r6,sp
        0x00003442:    c60f        ..      STM      r6!,{r0-r3}
        0x00003444:    481a        .H      LDR      r0,[pc,#104] ; [0x34b0] = 0x50000200
        0x00003446:    6941        Ai      LDR      r1,[r0,#0x14]
        0x00003448:    6980        .i      LDR      r0,[r0,#0x18]
        0x0000344a:    018a        ..      LSLS     r2,r1,#6
        0x0000344c:    2103        .!      MOVS     r1,#3
        0x0000344e:    0f96        ..      LSRS     r6,r2,#30
        0x00003450:    0500        ..      LSLS     r0,r0,#20
        0x00003452:    0f07        ..      LSRS     r7,r0,#28
        0x00003454:    2000        .       MOVS     r0,#0
        0x00003456:    6320         c      STR      r0,[r4,#0x30]
        0x00003458:    60e1        .`      STR      r1,[r4,#0xc]
        0x0000345a:    68a0        .h      LDR      r0,[r4,#8]
        0x0000345c:    4915        .I      LDR      r1,[pc,#84] ; [0x34b4] = 0xfff0ff0f
        0x0000345e:    4008        .@      ANDS     r0,r0,r1
        0x00003460:    60a0        .`      STR      r0,[r4,#8]
        0x00003462:    2e01        ..      CMP      r6,#1
        0x00003464:    d102        ..      BNE      0x346c ; UART_Open + 56
        0x00003466:    f7fefceb    ....    BL       CLK_GetPLLClockFreq ; 0x1e40
        0x0000346a:    9001        ..      STR      r0,[sp,#4]
        0x0000346c:    2d00        .-      CMP      r5,#0
        0x0000346e:    d01b        ..      BEQ      0x34a8 ; UART_Open + 116
        0x00003470:    00b1        ..      LSLS     r1,r6,#2
        0x00003472:    4668        hF      MOV      r0,sp
        0x00003474:    5840        @X      LDR      r0,[r0,r1]
        0x00003476:    1c79        y.      ADDS     r1,r7,#1
        0x00003478:    f7fdf9d4    ....    BL       __aeabi_uidiv ; 0x824
        0x0000347c:    4606        .F      MOV      r6,r0
        0x0000347e:    0869        i.      LSRS     r1,r5,#1
        0x00003480:    1840        @.      ADDS     r0,r0,r1
        0x00003482:    4629        )F      MOV      r1,r5
        0x00003484:    f7fdf9ce    ....    BL       __aeabi_uidiv ; 0x824
        0x00003488:    490b        .I      LDR      r1,[pc,#44] ; [0x34b8] = 0xffff
        0x0000348a:    1e80        ..      SUBS     r0,r0,#2
        0x0000348c:    4288        .B      CMP      r0,r1
        0x0000348e:    d907        ..      BLS      0x34a0 ; UART_Open + 108
        0x00003490:    00e9        ..      LSLS     r1,r5,#3
        0x00003492:    1870        p.      ADDS     r0,r6,r1
        0x00003494:    4629        )F      MOV      r1,r5
        0x00003496:    f7fdf9c5    ....    BL       __aeabi_uidiv ; 0x824
        0x0000349a:    0900        ..      LSRS     r0,r0,#4
        0x0000349c:    1e80        ..      SUBS     r0,r0,#2
        0x0000349e:    e002        ..      B        0x34a6 ; UART_Open + 114
        0x000034a0:    2103        .!      MOVS     r1,#3
        0x000034a2:    0709        ..      LSLS     r1,r1,#28
        0x000034a4:    4308        .C      ORRS     r0,r0,r1
        0x000034a6:    6260        `b      STR      r0,[r4,#0x24]
        0x000034a8:    b005        ..      ADD      sp,sp,#0x14
        0x000034aa:    bdf0        ..      POP      {r4-r7,pc}
    $d
        0x000034ac:    000050b0    .P..    DCD    20656
        0x000034b0:    50000200    ...P    DCD    1342177792
        0x000034b4:    fff0ff0f    ....    DCD    4293984015
        0x000034b8:    0000ffff    ....    DCD    65535
    $t
    i.UARTs_Init
    UARTs_Init
        0x000034bc:    b570        p.      PUSH     {r4-r6,lr}
        0x000034be:    25e1        .%      MOVS     r5,#0xe1
        0x000034c0:    026d        m.      LSLS     r5,r5,#9
        0x000034c2:    4629        )F      MOV      r1,r5
        0x000034c4:    480d        .H      LDR      r0,[pc,#52] ; [0x34fc] = 0x40050000
        0x000034c6:    f7ffffb5    ....    BL       UART_Open ; 0x3434
        0x000034ca:    4c0d        .L      LDR      r4,[pc,#52] ; [0x3500] = 0x40150000
        0x000034cc:    4629        )F      MOV      r1,r5
        0x000034ce:    4620         F      MOV      r0,r4
        0x000034d0:    f7ffffb0    ....    BL       UART_Open ; 0x3434
        0x000034d4:    4629        )F      MOV      r1,r5
        0x000034d6:    4d0b        .M      LDR      r5,[pc,#44] ; [0x3504] = 0x40154000
        0x000034d8:    4628        (F      MOV      r0,r5
        0x000034da:    f7ffffab    ....    BL       UART_Open ; 0x3434
        0x000034de:    6861        ah      LDR      r1,[r4,#4]
        0x000034e0:    2601        .&      MOVS     r6,#1
        0x000034e2:    4331        1C      ORRS     r1,r1,r6
        0x000034e4:    6061        a`      STR      r1,[r4,#4]
        0x000034e6:    200d        .       MOVS     r0,#0xd
        0x000034e8:    f000f83c    ..<.    BL       __NVIC_EnableIRQ ; 0x3564
        0x000034ec:    6868        hh      LDR      r0,[r5,#4]
        0x000034ee:    4330        0C      ORRS     r0,r0,r6
        0x000034f0:    6068        h`      STR      r0,[r5,#4]
        0x000034f2:    200c        .       MOVS     r0,#0xc
        0x000034f4:    f000f836    ..6.    BL       __NVIC_EnableIRQ ; 0x3564
        0x000034f8:    bd70        p.      POP      {r4-r6,pc}
    $d
        0x000034fa:    0000        ..      DCW    0
        0x000034fc:    40050000    ...@    DCD    1074069504
        0x00003500:    40150000    ...@    DCD    1075118080
        0x00003504:    40154000    .@.@    DCD    1075134464
    $t
    i.__ARM_common_ll_muluu
    __ARM_common_ll_muluu
        0x00003508:    b5f8        ..      PUSH     {r3-r7,lr}
        0x0000350a:    0c04        ..      LSRS     r4,r0,#16
        0x0000350c:    b28b        ..      UXTH     r3,r1
        0x0000350e:    4626        &F      MOV      r6,r4
        0x00003510:    b282        ..      UXTH     r2,r0
        0x00003512:    435e        ^C      MULS     r6,r3,r6
        0x00003514:    0c0d        ..      LSRS     r5,r1,#16
        0x00003516:    4610        .F      MOV      r0,r2
        0x00003518:    0c37        7.      LSRS     r7,r6,#16
        0x0000351a:    4358        XC      MULS     r0,r3,r0
        0x0000351c:    0436        6.      LSLS     r6,r6,#16
        0x0000351e:    1980        ..      ADDS     r0,r0,r6
        0x00003520:    2100        .!      MOVS     r1,#0
        0x00003522:    4179        yA      ADCS     r1,r1,r7
        0x00003524:    4616        .F      MOV      r6,r2
        0x00003526:    436e        nC      MULS     r6,r5,r6
        0x00003528:    0c37        7.      LSRS     r7,r6,#16
        0x0000352a:    0436        6.      LSLS     r6,r6,#16
        0x0000352c:    1980        ..      ADDS     r0,r0,r6
        0x0000352e:    4179        yA      ADCS     r1,r1,r7
        0x00003530:    4626        &F      MOV      r6,r4
        0x00003532:    436e        nC      MULS     r6,r5,r6
        0x00003534:    1989        ..      ADDS     r1,r1,r6
        0x00003536:    bdf8        ..      POP      {r3-r7,pc}
    i.__ARM_fpclassify
    __ARM_fpclassify
        0x00003538:    0049        I.      LSLS     r1,r1,#1
        0x0000353a:    02ca        ..      LSLS     r2,r1,#11
        0x0000353c:    4302        .C      ORRS     r2,r2,r0
        0x0000353e:    0010        ..      MOVS     r0,r2
        0x00003540:    d000        ..      BEQ      0x3544 ; __ARM_fpclassify + 12
        0x00003542:    2004        .       MOVS     r0,#4
        0x00003544:    0d4a        J.      LSRS     r2,r1,#21
        0x00003546:    d001        ..      BEQ      0x354c ; __ARM_fpclassify + 20
        0x00003548:    2201        ."      MOVS     r2,#1
        0x0000354a:    4310        .C      ORRS     r0,r0,r2
        0x0000354c:    4a04        .J      LDR      r2,[pc,#16] ; [0x3560] = 0x7ff
        0x0000354e:    0d49        I.      LSRS     r1,r1,#21
        0x00003550:    4291        .B      CMP      r1,r2
        0x00003552:    d101        ..      BNE      0x3558 ; __ARM_fpclassify + 32
        0x00003554:    2102        .!      MOVS     r1,#2
        0x00003556:    4308        .C      ORRS     r0,r0,r1
        0x00003558:    2801        .(      CMP      r0,#1
        0x0000355a:    d100        ..      BNE      0x355e ; __ARM_fpclassify + 38
        0x0000355c:    2005        .       MOVS     r0,#5
        0x0000355e:    4770        pG      BX       lr
    $d
        0x00003560:    000007ff    ....    DCD    2047
    $t
    i.__NVIC_EnableIRQ
    __NVIC_EnableIRQ
        0x00003564:    2800        .(      CMP      r0,#0
        0x00003566:    db05        ..      BLT      0x3574 ; __NVIC_EnableIRQ + 16
        0x00003568:    06c1        ..      LSLS     r1,r0,#27
        0x0000356a:    0ec9        ..      LSRS     r1,r1,#27
        0x0000356c:    2001        .       MOVS     r0,#1
        0x0000356e:    4088        .@      LSLS     r0,r0,r1
        0x00003570:    4901        .I      LDR      r1,[pc,#4] ; [0x3578] = 0xe000e100
        0x00003572:    6008        .`      STR      r0,[r1,#0]
        0x00003574:    4770        pG      BX       lr
    $d
        0x00003576:    0000        ..      DCW    0
        0x00003578:    e000e100    ....    DCD    3758153984
    $t
    i.__user_perthread_libspace
    __user_perthread_libspace
        0x0000357c:    b510        ..      PUSH     {r4,lr}
        0x0000357e:    4808        .H      LDR      r0,[pc,#32] ; [0x35a0] = 0x200000ad
        0x00003580:    7800        .x      LDRB     r0,[r0,#0]
        0x00003582:    2800        .(      CMP      r0,#0
        0x00003584:    d009        ..      BEQ      0x359a ; __user_perthread_libspace + 30
        0x00003586:    f001fad9    ....    BL       rt_tsk_self ; 0x4b3c
        0x0000358a:    2800        .(      CMP      r0,#0
        0x0000358c:    d005        ..      BEQ      0x359a ; __user_perthread_libspace + 30
        0x0000358e:    2160        `!      MOVS     r1,#0x60
        0x00003590:    4348        HC      MULS     r0,r1,r0
        0x00003592:    4904        .I      LDR      r1,[pc,#16] ; [0x35a4] = 0x200029c8
        0x00003594:    1840        @.      ADDS     r0,r0,r1
        0x00003596:    3860        `8      SUBS     r0,r0,#0x60
        0x00003598:    bd10        ..      POP      {r4,pc}
        0x0000359a:    4803        .H      LDR      r0,[pc,#12] ; [0x35a8] = 0x20002bcc
        0x0000359c:    bd10        ..      POP      {r4,pc}
    $d
        0x0000359e:    0000        ..      DCW    0
        0x000035a0:    200000ad    ...     DCD    536871085
        0x000035a4:    200029c8    .).     DCD    536881608
        0x000035a8:    20002bcc    .+.     DCD    536882124
    $t
    i._init_box
    _init_box
        0x000035ac:    b510        ..      PUSH     {r4,lr}
        0x000035ae:    2a00        .*      CMP      r2,#0
        0x000035b0:    da06        ..      BGE      0x35c0 ; _init_box + 20
        0x000035b2:    0052        R.      LSLS     r2,r2,#1
        0x000035b4:    0852        R.      LSRS     r2,r2,#1
        0x000035b6:    1dd2        ..      ADDS     r2,r2,#7
        0x000035b8:    08d3        ..      LSRS     r3,r2,#3
        0x000035ba:    00db        ..      LSLS     r3,r3,#3
        0x000035bc:    2210        ."      MOVS     r2,#0x10
        0x000035be:    e003        ..      B        0x35c8 ; _init_box + 28
        0x000035c0:    1cd2        ..      ADDS     r2,r2,#3
        0x000035c2:    0893        ..      LSRS     r3,r2,#2
        0x000035c4:    009b        ..      LSLS     r3,r3,#2
        0x000035c6:    220c        ."      MOVS     r2,#0xc
        0x000035c8:    2b00        .+      CMP      r3,#0
        0x000035ca:    d002        ..      BEQ      0x35d2 ; _init_box + 38
        0x000035cc:    189c        ..      ADDS     r4,r3,r2
        0x000035ce:    428c        .B      CMP      r4,r1
        0x000035d0:    d901        ..      BLS      0x35d6 ; _init_box + 42
        0x000035d2:    2001        .       MOVS     r0,#1
        0x000035d4:    bd10        ..      POP      {r4,pc}
        0x000035d6:    1882        ..      ADDS     r2,r0,r2
        0x000035d8:    6083        .`      STR      r3,[r0,#8]
        0x000035da:    1841        A.      ADDS     r1,r0,r1
        0x000035dc:    6002        .`      STR      r2,[r0,#0]
        0x000035de:    6041        A`      STR      r1,[r0,#4]
        0x000035e0:    1ac9        ..      SUBS     r1,r1,r3
        0x000035e2:    18d0        ..      ADDS     r0,r2,r3
        0x000035e4:    4288        .B      CMP      r0,r1
        0x000035e6:    d802        ..      BHI      0x35ee ; _init_box + 66
        0x000035e8:    6010        .`      STR      r0,[r2,#0]
        0x000035ea:    4602        .F      MOV      r2,r0
        0x000035ec:    e7f9        ..      B        0x35e2 ; _init_box + 54
        0x000035ee:    2000        .       MOVS     r0,#0
        0x000035f0:    6010        .`      STR      r0,[r2,#0]
        0x000035f2:    bd10        ..      POP      {r4,pc}
    i._is_digit
    _is_digit
        0x000035f4:    3830        08      SUBS     r0,r0,#0x30
        0x000035f6:    280a        .(      CMP      r0,#0xa
        0x000035f8:    d201        ..      BCS      0x35fe ; _is_digit + 10
        0x000035fa:    2001        .       MOVS     r0,#1
        0x000035fc:    4770        pG      BX       lr
        0x000035fe:    2000        .       MOVS     r0,#0
        0x00003600:    4770        pG      BX       lr
        0x00003602:    0000        ..      MOVS     r0,r0
    i._mutex_acquire
    _mutex_acquire
    __tagsym$$used
        0x00003604:    b580        ..      PUSH     {r7,lr}
        0x00003606:    4905        .I      LDR      r1,[pc,#20] ; [0x361c] = 0x200000ad
        0x00003608:    7809        .x      LDRB     r1,[r1,#0]
        0x0000360a:    2900        .)      CMP      r1,#0
        0x0000360c:    d004        ..      BEQ      0x3618 ; _mutex_acquire + 20
        0x0000360e:    4f05        .O      LDR      r7,[pc,#20] ; [0x3624] = 0x43fd
        0x00003610:    6800        .h      LDR      r0,[r0,#0]
        0x00003612:    4903        .I      LDR      r1,[pc,#12] ; [0x3620] = 0xffff
        0x00003614:    46bc        .F      MOV      r12,r7
        0x00003616:    df00        ..      SVC      #0x0 ; formerly SWI
        0x00003618:    bd80        ..      POP      {r7,pc}
    $d
        0x0000361a:    0000        ..      DCW    0
        0x0000361c:    200000ad    ...     DCD    536871085
        0x00003620:    0000ffff    ....    DCD    65535
        0x00003624:    000043fd    .C..    DCD    17405
    $t
    i._mutex_release
    _mutex_release
    __tagsym$$used
        0x00003628:    b580        ..      PUSH     {r7,lr}
        0x0000362a:    4904        .I      LDR      r1,[pc,#16] ; [0x363c] = 0x200000ad
        0x0000362c:    7809        .x      LDRB     r1,[r1,#0]
        0x0000362e:    2900        .)      CMP      r1,#0
        0x00003630:    d003        ..      BEQ      0x363a ; _mutex_release + 18
        0x00003632:    4f03        .O      LDR      r7,[pc,#12] ; [0x3640] = 0x4325
        0x00003634:    6800        .h      LDR      r0,[r0,#0]
        0x00003636:    46bc        .F      MOV      r12,r7
        0x00003638:    df00        ..      SVC      #0x0 ; formerly SWI
        0x0000363a:    bd80        ..      POP      {r7,pc}
    $d
        0x0000363c:    200000ad    ...     DCD    536871085
        0x00003640:    00004325    %C..    DCD    17189
    $t
    i.batteryind
    batteryind
        0x00003644:    b570        p.      PUSH     {r4-r6,lr}
        0x00003646:    4c24        $L      LDR      r4,[pc,#144] ; [0x36d8] = 0x20000048
        0x00003648:    4924        $I      LDR      r1,[pc,#144] ; [0x36dc] = 0x50004200
        0x0000364a:    7860        `x      LDRB     r0,[r4,#1]
        0x0000364c:    2200        ."      MOVS     r2,#0
        0x0000364e:    1c40        @.      ADDS     r0,r0,#1
        0x00003650:    b240        @.      SXTB     r0,r0
        0x00003652:    7060        `p      STRB     r0,[r4,#1]
        0x00003654:    2801        .(      CMP      r0,#1
        0x00003656:    d00c        ..      BEQ      0x3672 ; batteryind + 46
        0x00003658:    4821        !H      LDR      r0,[pc,#132] ; [0x36e0] = 0x20000030
        0x0000365a:    4d22        "M      LDR      r5,[pc,#136] ; [0x36e4] = 0x40933333
        0x0000365c:    6800        .h      LDR      r0,[r0,#0]
        0x0000365e:    2301        .#      MOVS     r3,#1
        0x00003660:    42a8        .B      CMP      r0,r5
        0x00003662:    dd0b        ..      BLE      0x367c ; batteryind + 56
        0x00003664:    6988        .i      LDR      r0,[r1,#0x18]
        0x00003666:    4058        X@      EORS     r0,r0,r3
        0x00003668:    6188        .a      STR      r0,[r1,#0x18]
        0x0000366a:    6148        Ha      STR      r0,[r1,#0x14]
        0x0000366c:    6108        .a      STR      r0,[r1,#0x10]
        0x0000366e:    60c8        .`      STR      r0,[r1,#0xc]
        0x00003670:    e02f        /.      B        0x36d2 ; batteryind + 142
        0x00003672:    60ca        .`      STR      r2,[r1,#0xc]
        0x00003674:    610a        .a      STR      r2,[r1,#0x10]
        0x00003676:    614a        Ja      STR      r2,[r1,#0x14]
        0x00003678:    618a        .a      STR      r2,[r1,#0x18]
        0x0000367a:    bd70        p.      POP      {r4-r6,pc}
        0x0000367c:    4e1a        .N      LDR      r6,[pc,#104] ; [0x36e8] = 0x40500000
        0x0000367e:    4d1b        .M      LDR      r5,[pc,#108] ; [0x36ec] = 0x20000044
        0x00003680:    42b0        .B      CMP      r0,r6
        0x00003682:    da03        ..      BGE      0x368c ; batteryind + 72
        0x00003684:    68c8        .h      LDR      r0,[r1,#0xc]
        0x00003686:    4058        X@      EORS     r0,r0,r3
        0x00003688:    60c8        .`      STR      r0,[r1,#0xc]
        0x0000368a:    e021        !.      B        0x36d0 ; batteryind + 140
        0x0000368c:    4e18        .N      LDR      r6,[pc,#96] ; [0x36f0] = 0x40600000
        0x0000368e:    42b0        .B      CMP      r0,r6
        0x00003690:    da06        ..      BGE      0x36a0 ; batteryind + 92
        0x00003692:    68c8        .h      LDR      r0,[r1,#0xc]
        0x00003694:    4058        X@      EORS     r0,r0,r3
        0x00003696:    60c8        .`      STR      r0,[r1,#0xc]
        0x00003698:    6908        .i      LDR      r0,[r1,#0x10]
        0x0000369a:    4058        X@      EORS     r0,r0,r3
        0x0000369c:    6108        .a      STR      r0,[r1,#0x10]
        0x0000369e:    e017        ..      B        0x36d0 ; batteryind + 140
        0x000036a0:    4e14        .N      LDR      r6,[pc,#80] ; [0x36f4] = 0x40700000
        0x000036a2:    42b0        .B      CMP      r0,r6
        0x000036a4:    68c8        .h      LDR      r0,[r1,#0xc]
        0x000036a6:    da08        ..      BGE      0x36ba ; batteryind + 118
        0x000036a8:    4058        X@      EORS     r0,r0,r3
        0x000036aa:    60c8        .`      STR      r0,[r1,#0xc]
        0x000036ac:    6908        .i      LDR      r0,[r1,#0x10]
        0x000036ae:    4058        X@      EORS     r0,r0,r3
        0x000036b0:    6108        .a      STR      r0,[r1,#0x10]
        0x000036b2:    6948        Hi      LDR      r0,[r1,#0x14]
        0x000036b4:    4058        X@      EORS     r0,r0,r3
        0x000036b6:    6148        Ha      STR      r0,[r1,#0x14]
        0x000036b8:    e00a        ..      B        0x36d0 ; batteryind + 140
        0x000036ba:    4058        X@      EORS     r0,r0,r3
        0x000036bc:    60c8        .`      STR      r0,[r1,#0xc]
        0x000036be:    6908        .i      LDR      r0,[r1,#0x10]
        0x000036c0:    4058        X@      EORS     r0,r0,r3
        0x000036c2:    6108        .a      STR      r0,[r1,#0x10]
        0x000036c4:    6948        Hi      LDR      r0,[r1,#0x14]
        0x000036c6:    4058        X@      EORS     r0,r0,r3
        0x000036c8:    6148        Ha      STR      r0,[r1,#0x14]
        0x000036ca:    6988        .i      LDR      r0,[r1,#0x18]
        0x000036cc:    4058        X@      EORS     r0,r0,r3
        0x000036ce:    6188        .a      STR      r0,[r1,#0x18]
        0x000036d0:    702a        *p      STRB     r2,[r5,#0]
        0x000036d2:    7062        bp      STRB     r2,[r4,#1]
        0x000036d4:    bd70        p.      POP      {r4-r6,pc}
    $d
        0x000036d6:    0000        ..      DCW    0
        0x000036d8:    20000048    H..     DCD    536870984
        0x000036dc:    50004200    .B.P    DCD    1342194176
        0x000036e0:    20000030    0..     DCD    536870960
        0x000036e4:    40933333    33.@    DCD    1083388723
        0x000036e8:    40500000    ..P@    DCD    1078984704
        0x000036ec:    20000044    D..     DCD    536870980
        0x000036f0:    40600000    ..`@    DCD    1080033280
        0x000036f4:    40700000    ..p@    DCD    1081081856
    $t
    i.checkallnumsinstring
    checkallnumsinstring
        0x000036f8:    b570        p.      PUSH     {r4-r6,lr}
        0x000036fa:    4605        .F      MOV      r5,r0
        0x000036fc:    f7fdf844    ..D.    BL       strlen ; 0x788
        0x00003700:    2100        .!      MOVS     r1,#0
        0x00003702:    e005        ..      B        0x3710 ; checkallnumsinstring + 24
        0x00003704:    5c6a        j\      LDRB     r2,[r5,r1]
        0x00003706:    3a30        0:      SUBS     r2,r2,#0x30
        0x00003708:    2a0a        .*      CMP      r2,#0xa
        0x0000370a:    d205        ..      BCS      0x3718 ; checkallnumsinstring + 32
        0x0000370c:    2400        .$      MOVS     r4,#0
        0x0000370e:    1c49        I.      ADDS     r1,r1,#1
        0x00003710:    4281        .B      CMP      r1,r0
        0x00003712:    dbf7        ..      BLT      0x3704 ; checkallnumsinstring + 12
        0x00003714:    b260        `.      SXTB     r0,r4
        0x00003716:    bd70        p.      POP      {r4-r6,pc}
        0x00003718:    2401        .$      MOVS     r4,#1
        0x0000371a:    e7fb        ..      B        0x3714 ; checkallnumsinstring + 28
    i.clear
    clear
        0x0000371c:    4803        .H      LDR      r0,[pc,#12] ; [0x372c] = 0x40150000
        0x0000371e:    e000        ..      B        0x3722 ; clear + 6
        0x00003720:    6801        .h      LDR      r1,[r0,#0]
        0x00003722:    6981        .i      LDR      r1,[r0,#0x18]
        0x00003724:    0449        I.      LSLS     r1,r1,#17
        0x00003726:    d5fb        ..      BPL      0x3720 ; clear + 4
        0x00003728:    4770        pG      BX       lr
    $d
        0x0000372a:    0000        ..      DCW    0
        0x0000372c:    40150000    ...@    DCD    1075118080
    $t
    i.cpinquerry
    cpinquerry
        0x00003730:    b570        p.      PUSH     {r4-r6,lr}
        0x00003732:    2064        d       MOVS     r0,#0x64
        0x00003734:    f000f9ea    ....    BL       osDelay ; 0x3b0c
        0x00003738:    4c1f        .L      LDR      r4,[pc,#124] ; [0x37b8] = 0x20000010
        0x0000373a:    2100        .!      MOVS     r1,#0
        0x0000373c:    43c9        .C      MVNS     r1,r1
        0x0000373e:    6b20         k      LDR      r0,[r4,#0x30]
        0x00003740:    f000fa58    ..X.    BL       osMutexWait ; 0x3bf4
        0x00003744:    2600        .&      MOVS     r6,#0
        0x00003746:    60a6        .`      STR      r6,[r4,#8]
        0x00003748:    6266        fb      STR      r6,[r4,#0x24]
        0x0000374a:    62a6        .b      STR      r6,[r4,#0x28]
        0x0000374c:    62e6        .b      STR      r6,[r4,#0x2c]
        0x0000374e:    21ff        .!      MOVS     r1,#0xff
        0x00003750:    2505        .%      MOVS     r5,#5
        0x00003752:    31f5        .1      ADDS     r1,r1,#0xf5
        0x00003754:    4819        .H      LDR      r0,[pc,#100] ; [0x37bc] = 0x20000e7c
        0x00003756:    6066        f`      STR      r6,[r4,#4]
        0x00003758:    f7fdf860    ..`.    BL       __aeabi_memclr ; 0x81c
        0x0000375c:    211a        .!      MOVS     r1,#0x1a
        0x0000375e:    a018        ..      ADR      r0,{pc}+0x62 ; 0x37c0
        0x00003760:    f7fcfeb4    ....    BL       __2printf ; 0x4cc
        0x00003764:    f7ffffda    ....    BL       clear ; 0x371c
        0x00003768:    a016        ..      ADR      r0,{pc}+0x5c ; 0x37c4
        0x0000376a:    f7fcfeaf    ....    BL       __2printf ; 0x4cc
        0x0000376e:    a119        ..      ADR      r1,{pc}+0x66 ; 0x37d4
        0x00003770:    4812        .H      LDR      r0,[pc,#72] ; [0x37bc] = 0x20000e7c
        0x00003772:    f7fcfff5    ....    BL       strstr ; 0x760
        0x00003776:    6260        `b      STR      r0,[r4,#0x24]
        0x00003778:    a119        ..      ADR      r1,{pc}+0x68 ; 0x37e0
        0x0000377a:    4810        .H      LDR      r0,[pc,#64] ; [0x37bc] = 0x20000e7c
        0x0000377c:    f7fcfff0    ....    BL       strstr ; 0x760
        0x00003780:    62a0        .b      STR      r0,[r4,#0x28]
        0x00003782:    a118        ..      ADR      r1,{pc}+0x62 ; 0x37e4
        0x00003784:    480d        .H      LDR      r0,[pc,#52] ; [0x37bc] = 0x20000e7c
        0x00003786:    f7fcffeb    ....    BL       strstr ; 0x760
        0x0000378a:    62e0        .b      STR      r0,[r4,#0x2c]
        0x0000378c:    6aa2        .j      LDR      r2,[r4,#0x28]
        0x0000378e:    6a61        aj      LDR      r1,[r4,#0x24]
        0x00003790:    4311        .C      ORRS     r1,r1,r2
        0x00003792:    4301        .C      ORRS     r1,r1,r0
        0x00003794:    d102        ..      BNE      0x379c ; cpinquerry + 108
        0x00003796:    68a0        .h      LDR      r0,[r4,#8]
        0x00003798:    42a8        .B      CMP      r0,r5
        0x0000379a:    dbe8        ..      BLT      0x376e ; cpinquerry + 62
        0x0000379c:    f7ffffbe    ....    BL       clear ; 0x371c
        0x000037a0:    6a60        `j      LDR      r0,[r4,#0x24]
        0x000037a2:    2800        .(      CMP      r0,#0
        0x000037a4:    d002        ..      BEQ      0x37ac ; cpinquerry + 124
        0x000037a6:    2001        .       MOVS     r0,#1
        0x000037a8:    7060        `p      STRB     r0,[r4,#1]
        0x000037aa:    e000        ..      B        0x37ae ; cpinquerry + 126
        0x000037ac:    7066        fp      STRB     r6,[r4,#1]
        0x000037ae:    6b20         k      LDR      r0,[r4,#0x30]
        0x000037b0:    f000fa12    ....    BL       osMutexRelease ; 0x3bd8
        0x000037b4:    bd70        p.      POP      {r4-r6,pc}
    $d
        0x000037b6:    0000        ..      DCW    0
        0x000037b8:    20000010    ...     DCD    536870928
        0x000037bc:    20000e7c    |..     DCD    536874620
        0x000037c0:    00006325    %c..    DCD    25381
        0x000037c4:    54410a0d    ..AT    DCD    1413548557
        0x000037c8:    4950432b    +CPI    DCD    1229996843
        0x000037cc:    0a0d3f4e    N?..    DCD    168640334
        0x000037d0:    00000a0d    ....    DCD    2573
        0x000037d4:    4e495043    CPIN    DCD    1313427523
        0x000037d8:    4552203a    : RE    DCD    1163010106
        0x000037dc:    00594441    ADY.    DCD    5850177
        0x000037e0:    00004b4f    OK..    DCD    19279
        0x000037e4:    4f525245    ERRO    DCD    1330795077
        0x000037e8:    00000052    R...    DCD    82
    $t
    i.cregquerry
    cregquerry
        0x000037ec:    b570        p.      PUSH     {r4-r6,lr}
        0x000037ee:    b086        ..      SUB      sp,sp,#0x18
        0x000037f0:    2064        d       MOVS     r0,#0x64
        0x000037f2:    f000f98b    ....    BL       osDelay ; 0x3b0c
        0x000037f6:    4c2c        ,L      LDR      r4,[pc,#176] ; [0x38a8] = 0x20000010
        0x000037f8:    2100        .!      MOVS     r1,#0
        0x000037fa:    43c9        .C      MVNS     r1,r1
        0x000037fc:    6b20         k      LDR      r0,[r4,#0x30]
        0x000037fe:    f000f9f9    ....    BL       osMutexWait ; 0x3bf4
        0x00003802:    2600        .&      MOVS     r6,#0
        0x00003804:    60a6        .`      STR      r6,[r4,#8]
        0x00003806:    6266        fb      STR      r6,[r4,#0x24]
        0x00003808:    62a6        .b      STR      r6,[r4,#0x28]
        0x0000380a:    62e6        .b      STR      r6,[r4,#0x2c]
        0x0000380c:    21ff        .!      MOVS     r1,#0xff
        0x0000380e:    2505        .%      MOVS     r5,#5
        0x00003810:    31f5        .1      ADDS     r1,r1,#0xf5
        0x00003812:    4826        &H      LDR      r0,[pc,#152] ; [0x38ac] = 0x20000e7c
        0x00003814:    6066        f`      STR      r6,[r4,#4]
        0x00003816:    f7fdf801    ....    BL       __aeabi_memclr ; 0x81c
        0x0000381a:    211a        .!      MOVS     r1,#0x1a
        0x0000381c:    a024        $.      ADR      r0,{pc}+0x94 ; 0x38b0
        0x0000381e:    f7fcfe55    ..U.    BL       __2printf ; 0x4cc
        0x00003822:    f7ffff7b    ..{.    BL       clear ; 0x371c
        0x00003826:    a023        #.      ADR      r0,{pc}+0x8e ; 0x38b4
        0x00003828:    f7fcfe50    ..P.    BL       __2printf ; 0x4cc
        0x0000382c:    a125        %.      ADR      r1,{pc}+0x98 ; 0x38c4
        0x0000382e:    481f        .H      LDR      r0,[pc,#124] ; [0x38ac] = 0x20000e7c
        0x00003830:    f7fcff96    ....    BL       strstr ; 0x760
        0x00003834:    6260        `b      STR      r0,[r4,#0x24]
        0x00003836:    a126        &.      ADR      r1,{pc}+0x9a ; 0x38d0
        0x00003838:    481c        .H      LDR      r0,[pc,#112] ; [0x38ac] = 0x20000e7c
        0x0000383a:    f7fcff91    ....    BL       strstr ; 0x760
        0x0000383e:    62a0        .b      STR      r0,[r4,#0x28]
        0x00003840:    a124        $.      ADR      r1,{pc}+0x94 ; 0x38d4
        0x00003842:    481a        .H      LDR      r0,[pc,#104] ; [0x38ac] = 0x20000e7c
        0x00003844:    f7fcff8c    ....    BL       strstr ; 0x760
        0x00003848:    62e0        .b      STR      r0,[r4,#0x2c]
        0x0000384a:    6aa2        .j      LDR      r2,[r4,#0x28]
        0x0000384c:    6a61        aj      LDR      r1,[r4,#0x24]
        0x0000384e:    4311        .C      ORRS     r1,r1,r2
        0x00003850:    4301        .C      ORRS     r1,r1,r0
        0x00003852:    d102        ..      BNE      0x385a ; cregquerry + 110
        0x00003854:    68a0        .h      LDR      r0,[r4,#8]
        0x00003856:    42a8        .B      CMP      r0,r5
        0x00003858:    dbe8        ..      BLT      0x382c ; cregquerry + 64
        0x0000385a:    f7ffff5f    .._.    BL       clear ; 0x371c
        0x0000385e:    a802        ..      ADD      r0,sp,#8
        0x00003860:    210a        .!      MOVS     r1,#0xa
        0x00003862:    9100        ..      STR      r1,[sp,#0]
        0x00003864:    9001        ..      STR      r0,[sp,#4]
        0x00003866:    9602        ..      STR      r6,[sp,#8]
        0x00003868:    9603        ..      STR      r6,[sp,#0xc]
        0x0000386a:    232c        ,#      MOVS     r3,#0x2c
        0x0000386c:    2202        ."      MOVS     r2,#2
        0x0000386e:    9604        ..      STR      r6,[sp,#0x10]
        0x00003870:    2101        .!      MOVS     r1,#1
        0x00003872:    480e        .H      LDR      r0,[pc,#56] ; [0x38ac] = 0x20000e7c
        0x00003874:    f000fa52    ..R.    BL       parse_g ; 0x3d1c
        0x00003878:    a118        ..      ADR      r1,{pc}+0x64 ; 0x38dc
        0x0000387a:    a802        ..      ADD      r0,sp,#8
        0x0000387c:    f7fcff70    ..p.    BL       strstr ; 0x760
        0x00003880:    2800        .(      CMP      r0,#0
        0x00003882:    d105        ..      BNE      0x3890 ; cregquerry + 164
        0x00003884:    a116        ..      ADR      r1,{pc}+0x5c ; 0x38e0
        0x00003886:    a802        ..      ADD      r0,sp,#8
        0x00003888:    f7fcff6a    ..j.    BL       strstr ; 0x760
        0x0000388c:    2800        .(      CMP      r0,#0
        0x0000388e:    d002        ..      BEQ      0x3896 ; cregquerry + 170
        0x00003890:    2001        .       MOVS     r0,#1
        0x00003892:    70a0        .p      STRB     r0,[r4,#2]
        0x00003894:    e000        ..      B        0x3898 ; cregquerry + 172
        0x00003896:    70a6        .p      STRB     r6,[r4,#2]
        0x00003898:    6b20         k      LDR      r0,[r4,#0x30]
        0x0000389a:    f000f99d    ....    BL       osMutexRelease ; 0x3bd8
        0x0000389e:    2005        .       MOVS     r0,#5
        0x000038a0:    f000f934    ..4.    BL       osDelay ; 0x3b0c
        0x000038a4:    b006        ..      ADD      sp,sp,#0x18
        0x000038a6:    bd70        p.      POP      {r4-r6,pc}
    $d
        0x000038a8:    20000010    ...     DCD    536870928
        0x000038ac:    20000e7c    |..     DCD    536874620
        0x000038b0:    00006325    %c..    DCD    25381
        0x000038b4:    54410a0d    ..AT    DCD    1413548557
        0x000038b8:    4552432b    +CRE    DCD    1163019051
        0x000038bc:    0a0d3f47    G?..    DCD    168640327
        0x000038c0:    00000a0d    ....    DCD    2573
        0x000038c4:    4e495043    CPIN    DCD    1313427523
        0x000038c8:    4552203a    : RE    DCD    1163010106
        0x000038cc:    00594441    ADY.    DCD    5850177
        0x000038d0:    00004b4f    OK..    DCD    19279
        0x000038d4:    4f525245    ERRO    DCD    1330795077
        0x000038d8:    00000052    R...    DCD    82
        0x000038dc:    00000031    1...    DCD    49
        0x000038e0:    00000035    5...    DCD    53
    $t
    i.ferror
    ferror
        0x000038e4:    2000        .       MOVS     r0,#0
        0x000038e6:    43c0        .C      MVNS     r0,r0
        0x000038e8:    4770        pG      BX       lr
        0x000038ea:    0000        ..      MOVS     r0,r0
    i.fileclose
    fileclose
        0x000038ec:    b508        ..      PUSH     {r3,lr}
        0x000038ee:    2164        d!      MOVS     r1,#0x64
        0x000038f0:    480b        .H      LDR      r0,[pc,#44] ; [0x3920] = 0x200010e8
        0x000038f2:    f7fcff93    ....    BL       __aeabi_memclr ; 0x81c
        0x000038f6:    4a0a        .J      LDR      r2,[pc,#40] ; [0x3920] = 0x200010e8
        0x000038f8:    490a        .I      LDR      r1,[pc,#40] ; [0x3924] = 0x51c4
        0x000038fa:    3a14        .:      SUBS     r2,r2,#0x14
        0x000038fc:    4808        .H      LDR      r0,[pc,#32] ; [0x3920] = 0x200010e8
        0x000038fe:    f7fcfdf3    ....    BL       __2sprintf ; 0x4e8
        0x00003902:    200a        .       MOVS     r0,#0xa
        0x00003904:    9000        ..      STR      r0,[sp,#0]
        0x00003906:    4b08        .K      LDR      r3,[pc,#32] ; [0x3928] = 0x5210
        0x00003908:    4a08        .J      LDR      r2,[pc,#32] ; [0x392c] = 0x51fc
        0x0000390a:    4909        .I      LDR      r1,[pc,#36] ; [0x3930] = 0x5200
        0x0000390c:    4804        .H      LDR      r0,[pc,#16] ; [0x3920] = 0x200010e8
        0x0000390e:    f7fefe6b    ..k.    BL       SendAT ; 0x25e8
        0x00003912:    4803        .H      LDR      r0,[pc,#12] ; [0x3920] = 0x200010e8
        0x00003914:    2114        .!      MOVS     r1,#0x14
        0x00003916:    3814        .8      SUBS     r0,r0,#0x14
        0x00003918:    f7fcff80    ....    BL       __aeabi_memclr ; 0x81c
        0x0000391c:    bd08        ..      POP      {r3,pc}
    $d
        0x0000391e:    0000        ..      DCW    0
        0x00003920:    200010e8    ...     DCD    536875240
        0x00003924:    000051c4    .Q..    DCD    20932
        0x00003928:    00005210    .R..    DCD    21008
        0x0000392c:    000051fc    .Q..    DCD    20988
        0x00003930:    00005200    .R..    DCD    20992
    $t
    i.fileopen
    fileopen
        0x00003934:    b57c        |.      PUSH     {r2-r6,lr}
        0x00003936:    4820         H      LDR      r0,[pc,#128] ; [0x39b8] = 0x200010d4
        0x00003938:    f7fcff26    ..&.    BL       strlen ; 0x788
        0x0000393c:    2800        .(      CMP      r0,#0
        0x0000393e:    d139        9.      BNE      0x39b4 ; fileopen + 128
        0x00003940:    240a        .$      MOVS     r4,#0xa
        0x00003942:    4b1e        .K      LDR      r3,[pc,#120] ; [0x39bc] = 0x5210
        0x00003944:    4a1e        .J      LDR      r2,[pc,#120] ; [0x39c0] = 0x51fc
        0x00003946:    491f        .I      LDR      r1,[pc,#124] ; [0x39c4] = 0x5218
        0x00003948:    481f        .H      LDR      r0,[pc,#124] ; [0x39c8] = 0x51d8
        0x0000394a:    9400        ..      STR      r4,[sp,#0]
        0x0000394c:    f7fefe4c    ..L.    BL       SendAT ; 0x25e8
        0x00003950:    491e        .I      LDR      r1,[pc,#120] ; [0x39cc] = 0x520c
        0x00003952:    481f        .H      LDR      r0,[pc,#124] ; [0x39d0] = 0x20000e7c
        0x00003954:    f7fcff04    ....    BL       strstr ; 0x760
        0x00003958:    2800        .(      CMP      r0,#0
        0x0000395a:    d015        ..      BEQ      0x3988 ; fileopen + 84
        0x0000395c:    4d1d        .M      LDR      r5,[pc,#116] ; [0x39d4] = 0x50004200
        0x0000395e:    2001        .       MOVS     r0,#1
        0x00003960:    6368        hc      STR      r0,[r5,#0x34]
        0x00003962:    481d        .H      LDR      r0,[pc,#116] ; [0x39d8] = 0x519c
        0x00003964:    f7fcfdb2    ....    BL       __2printf ; 0x4cc
        0x00003968:    2064        d       MOVS     r0,#0x64
        0x0000396a:    f000f8c1    ....    BL       manualdelay ; 0x3af0
        0x0000396e:    2000        .       MOVS     r0,#0
        0x00003970:    6368        hc      STR      r0,[r5,#0x34]
        0x00003972:    2114        .!      MOVS     r1,#0x14
        0x00003974:    4810        .H      LDR      r0,[pc,#64] ; [0x39b8] = 0x200010d4
        0x00003976:    f7fcff51    ..Q.    BL       __aeabi_memclr ; 0x81c
        0x0000397a:    4b10        .K      LDR      r3,[pc,#64] ; [0x39bc] = 0x5210
        0x0000397c:    4a10        .J      LDR      r2,[pc,#64] ; [0x39c0] = 0x51fc
        0x0000397e:    4911        .I      LDR      r1,[pc,#68] ; [0x39c4] = 0x5218
        0x00003980:    4811        .H      LDR      r0,[pc,#68] ; [0x39c8] = 0x51d8
        0x00003982:    9400        ..      STR      r4,[sp,#0]
        0x00003984:    f7fefe30    ..0.    BL       SendAT ; 0x25e8
        0x00003988:    480b        .H      LDR      r0,[pc,#44] ; [0x39b8] = 0x200010d4
        0x0000398a:    9001        ..      STR      r0,[sp,#4]
        0x0000398c:    2320         #      MOVS     r3,#0x20
        0x0000398e:    2202        ."      MOVS     r2,#2
        0x00003990:    2101        .!      MOVS     r1,#1
        0x00003992:    9400        ..      STR      r4,[sp,#0]
        0x00003994:    480e        .H      LDR      r0,[pc,#56] ; [0x39d0] = 0x20000e7c
        0x00003996:    f000f9c1    ....    BL       parse_g ; 0x3d1c
        0x0000399a:    220a        ."      MOVS     r2,#0xa
        0x0000399c:    210d        .!      MOVS     r1,#0xd
        0x0000399e:    4806        .H      LDR      r0,[pc,#24] ; [0x39b8] = 0x200010d4
        0x000039a0:    f000f9fa    ....    BL       remove_all_chars ; 0x3d98
        0x000039a4:    2005        .       MOVS     r0,#5
        0x000039a6:    9000        ..      STR      r0,[sp,#0]
        0x000039a8:    4b0c        .K      LDR      r3,[pc,#48] ; [0x39dc] = 0x51f4
        0x000039aa:    4a04        .J      LDR      r2,[pc,#16] ; [0x39bc] = 0x5210
        0x000039ac:    4904        .I      LDR      r1,[pc,#16] ; [0x39c0] = 0x51fc
        0x000039ae:    480c        .H      LDR      r0,[pc,#48] ; [0x39e0] = 0x51b0
        0x000039b0:    f7fefe1a    ....    BL       SendAT ; 0x25e8
        0x000039b4:    bd7c        |.      POP      {r2-r6,pc}
    $d
        0x000039b6:    0000        ..      DCW    0
        0x000039b8:    200010d4    ...     DCD    536875220
        0x000039bc:    00005210    .R..    DCD    21008
        0x000039c0:    000051fc    .Q..    DCD    20988
        0x000039c4:    00005218    .R..    DCD    21016
        0x000039c8:    000051d8    .Q..    DCD    20952
        0x000039cc:    0000520c    .R..    DCD    21004
        0x000039d0:    20000e7c    |..     DCD    536874620
        0x000039d4:    50004200    .B.P    DCD    1342194176
        0x000039d8:    0000519c    .Q..    DCD    20892
        0x000039dc:    000051f4    .Q..    DCD    20980
        0x000039e0:    000051b0    .Q..    DCD    20912
    $t
    i.fputc
    fputc
        0x000039e4:    b500        ..      PUSH     {lr}
        0x000039e6:    4603        .F      MOV      r3,r0
        0x000039e8:    f7fff9b0    ....    BL       SendChar_ToUART ; 0x2d4c
        0x000039ec:    4618        .F      MOV      r0,r3
        0x000039ee:    bd00        ..      POP      {pc}
    i.isrMessageGet
    isrMessageGet
        0x000039f0:    b50e        ..      PUSH     {r1-r3,lr}
        0x000039f2:    4602        .F      MOV      r2,r0
        0x000039f4:    2080        .       MOVS     r0,#0x80
        0x000039f6:    2a00        .*      CMP      r2,#0
        0x000039f8:    d00d        ..      BEQ      0x3a16 ; isrMessageGet + 38
        0x000039fa:    2900        .)      CMP      r1,#0
        0x000039fc:    d10b        ..      BNE      0x3a16 ; isrMessageGet + 38
        0x000039fe:    7811        .x      LDRB     r1,[r2,#0]
        0x00003a00:    2901        .)      CMP      r1,#1
        0x00003a02:    d108        ..      BNE      0x3a16 ; isrMessageGet + 38
        0x00003a04:    4610        .F      MOV      r0,r2
        0x00003a06:    a901        ..      ADD      r1,sp,#4
        0x00003a08:    f000f821    ..!.    BL       isr_mbx_receive ; 0x3a4e
        0x00003a0c:    2804        .(      CMP      r0,#4
        0x00003a0e:    d001        ..      BEQ      0x3a14 ; isrMessageGet + 36
        0x00003a10:    2000        .       MOVS     r0,#0
        0x00003a12:    e000        ..      B        0x3a16 ; isrMessageGet + 38
        0x00003a14:    2010        .       MOVS     r0,#0x10
        0x00003a16:    9a02        ..      LDR      r2,[sp,#8]
        0x00003a18:    9901        ..      LDR      r1,[sp,#4]
        0x00003a1a:    b003        ..      ADD      sp,sp,#0xc
        0x00003a1c:    bd00        ..      POP      {pc}
    i.isrMessagePut
    isrMessagePut
        0x00003a1e:    b570        p.      PUSH     {r4-r6,lr}
        0x00003a20:    460d        .F      MOV      r5,r1
        0x00003a22:    0004        ..      MOVS     r4,r0
        0x00003a24:    d004        ..      BEQ      0x3a30 ; isrMessagePut + 18
        0x00003a26:    2a00        .*      CMP      r2,#0
        0x00003a28:    d102        ..      BNE      0x3a30 ; isrMessagePut + 18
        0x00003a2a:    7820         x      LDRB     r0,[r4,#0]
        0x00003a2c:    2801        .(      CMP      r0,#1
        0x00003a2e:    d001        ..      BEQ      0x3a34 ; isrMessagePut + 22
        0x00003a30:    2080        .       MOVS     r0,#0x80
        0x00003a32:    bd70        p.      POP      {r4-r6,pc}
        0x00003a34:    4620         F      MOV      r0,r4
        0x00003a36:    f000fb7d    ..}.    BL       rt_mbx_check ; 0x4134
        0x00003a3a:    2800        .(      CMP      r0,#0
        0x00003a3c:    d005        ..      BEQ      0x3a4a ; isrMessagePut + 44
        0x00003a3e:    4629        )F      MOV      r1,r5
        0x00003a40:    4620         F      MOV      r0,r4
        0x00003a42:    f000f82a    ..*.    BL       isr_mbx_send ; 0x3a9a
        0x00003a46:    2000        .       MOVS     r0,#0
        0x00003a48:    bd70        p.      POP      {r4-r6,pc}
        0x00003a4a:    2081        .       MOVS     r0,#0x81
        0x00003a4c:    bd70        p.      POP      {r4-r6,pc}
    i.isr_mbx_receive
    isr_mbx_receive
        0x00003a4e:    b510        ..      PUSH     {r4,lr}
        0x00003a50:    4604        .F      MOV      r4,r0
        0x00003a52:    8980        ..      LDRH     r0,[r0,#0xc]
        0x00003a54:    2800        .(      CMP      r0,#0
        0x00003a56:    d01f        ..      BEQ      0x3a98 ; isr_mbx_receive + 74
        0x00003a58:    8960        `.      LDRH     r0,[r4,#0xa]
        0x00003a5a:    0080        ..      LSLS     r0,r0,#2
        0x00003a5c:    1900        ..      ADDS     r0,r0,r4
        0x00003a5e:    6900        .i      LDR      r0,[r0,#0x10]
        0x00003a60:    6008        .`      STR      r0,[r1,#0]
        0x00003a62:    6860        `h      LDR      r0,[r4,#4]
        0x00003a64:    2800        .(      CMP      r0,#0
        0x00003a66:    d008        ..      BEQ      0x3a7a ; isr_mbx_receive + 44
        0x00003a68:    7860        `x      LDRB     r0,[r4,#1]
        0x00003a6a:    2802        .(      CMP      r0,#2
        0x00003a6c:    d105        ..      BNE      0x3a7a ; isr_mbx_receive + 44
        0x00003a6e:    2100        .!      MOVS     r1,#0
        0x00003a70:    4620         F      MOV      r0,r4
        0x00003a72:    f000fd4b    ..K.    BL       rt_psq_enq ; 0x450c
        0x00003a76:    f000fd39    ..9.    BL       rt_psh_req ; 0x44ec
        0x00003a7a:    b672        r.      CPSID    i
        0x00003a7c:    89a0        ..      LDRH     r0,[r4,#0xc]
        0x00003a7e:    1e40        @.      SUBS     r0,r0,#1
        0x00003a80:    81a0        ..      STRH     r0,[r4,#0xc]
        0x00003a82:    b662        b.      CPSIE    i
        0x00003a84:    8960        `.      LDRH     r0,[r4,#0xa]
        0x00003a86:    1c40        @.      ADDS     r0,r0,#1
        0x00003a88:    b280        ..      UXTH     r0,r0
        0x00003a8a:    8160        `.      STRH     r0,[r4,#0xa]
        0x00003a8c:    89e1        ..      LDRH     r1,[r4,#0xe]
        0x00003a8e:    4288        .B      CMP      r0,r1
        0x00003a90:    d101        ..      BNE      0x3a96 ; isr_mbx_receive + 72
        0x00003a92:    2000        .       MOVS     r0,#0
        0x00003a94:    8160        `.      STRH     r0,[r4,#0xa]
        0x00003a96:    2004        .       MOVS     r0,#4
        0x00003a98:    bd10        ..      POP      {r4,pc}
    i.isr_mbx_send
    isr_mbx_send
        0x00003a9a:    b510        ..      PUSH     {r4,lr}
        0x00003a9c:    f000fd36    ..6.    BL       rt_psq_enq ; 0x450c
        0x00003aa0:    f000fd24    ..$.    BL       rt_psh_req ; 0x44ec
        0x00003aa4:    bd10        ..      POP      {r4,pc}
        0x00003aa6:    0000        ..      MOVS     r0,r0
    i.main
    main
        0x00003aa8:    2159        Y!      MOVS     r1,#0x59
        0x00003aaa:    2216        ."      MOVS     r2,#0x16
        0x00003aac:    4c0e        .L      LDR      r4,[pc,#56] ; [0x3ae8] = 0x50000100
        0x00003aae:    2088        .       MOVS     r0,#0x88
        0x00003ab0:    e002        ..      B        0x3ab8 ; main + 16
        0x00003ab2:    6021        !`      STR      r1,[r4,#0]
        0x00003ab4:    6022        "`      STR      r2,[r4,#0]
        0x00003ab6:    6020         `      STR      r0,[r4,#0]
        0x00003ab8:    6823        #h      LDR      r3,[r4,#0]
        0x00003aba:    2b01        .+      CMP      r3,#1
        0x00003abc:    d1f9        ..      BNE      0x3ab2 ; main + 10
        0x00003abe:    f7fefc93    ....    BL       SYS_Init ; 0x23e8
        0x00003ac2:    f7fffcfb    ....    BL       UARTs_Init ; 0x34bc
        0x00003ac6:    2000        .       MOVS     r0,#0
        0x00003ac8:    6020         `      STR      r0,[r4,#0]
        0x00003aca:    2201        ."      MOVS     r2,#1
        0x00003acc:    2180        .!      MOVS     r1,#0x80
        0x00003ace:    4807        .H      LDR      r0,[pc,#28] ; [0x3aec] = 0x50004040
        0x00003ad0:    f7fefaf2    ....    BL       GPIO_SetMode ; 0x20b8
        0x00003ad4:    f7fefc46    ..F.    BL       Init_Thread ; 0x2364
        0x00003ad8:    f7fefc60    ..`.    BL       Init_Timers ; 0x239c
        0x00003adc:    f000f824    ..$.    BL       osKernelInitialize ; 0x3b28
        0x00003ae0:    f000f836    ..6.    BL       osKernelStart ; 0x3b50
        0x00003ae4:    e7fe        ..      B        0x3ae4 ; main + 60
    $d
        0x00003ae6:    0000        ..      DCW    0
        0x00003ae8:    50000100    ...P    DCD    1342177536
        0x00003aec:    50004040    @@.P    DCD    1342193728
    $t
    i.manualdelay
    manualdelay
        0x00003af0:    2200        ."      MOVS     r2,#0
        0x00003af2:    4b05        .K      LDR      r3,[pc,#20] ; [0x3b08] = 0xffff
        0x00003af4:    e004        ..      B        0x3b00 ; manualdelay + 16
        0x00003af6:    2100        .!      MOVS     r1,#0
        0x00003af8:    1c49        I.      ADDS     r1,r1,#1
        0x00003afa:    4299        .B      CMP      r1,r3
        0x00003afc:    dbfc        ..      BLT      0x3af8 ; manualdelay + 8
        0x00003afe:    1c52        R.      ADDS     r2,r2,#1
        0x00003b00:    4282        .B      CMP      r2,r0
        0x00003b02:    dbf8        ..      BLT      0x3af6 ; manualdelay + 6
        0x00003b04:    4770        pG      BX       lr
    $d
        0x00003b06:    0000        ..      DCW    0
        0x00003b08:    0000ffff    ....    DCD    65535
    $t
    i.osDelay
    osDelay
        0x00003b0c:    b580        ..      PUSH     {r7,lr}
        0x00003b0e:    f3ef8105    ....    MRS      r1,IPSR
        0x00003b12:    2900        .)      CMP      r1,#0
        0x00003b14:    d001        ..      BEQ      0x3b1a ; osDelay + 14
        0x00003b16:    2082        .       MOVS     r0,#0x82
        0x00003b18:    bd80        ..      POP      {r7,pc}
        0x00003b1a:    4f02        .O      LDR      r7,[pc,#8] ; [0x3b24] = 0x4bf5
        0x00003b1c:    46bc        .F      MOV      r12,r7
        0x00003b1e:    df00        ..      SVC      #0x0 ; formerly SWI
        0x00003b20:    bd80        ..      POP      {r7,pc}
    $d
        0x00003b22:    0000        ..      DCW    0
        0x00003b24:    00004bf5    .K..    DCD    19445
    $t
    i.osKernelInitialize
    osKernelInitialize
        0x00003b28:    b580        ..      PUSH     {r7,lr}
        0x00003b2a:    f3ef8005    ....    MRS      r0,IPSR
        0x00003b2e:    2800        .(      CMP      r0,#0
        0x00003b30:    d001        ..      BEQ      0x3b36 ; osKernelInitialize + 14
        0x00003b32:    2082        .       MOVS     r0,#0x82
        0x00003b34:    bd80        ..      POP      {r7,pc}
        0x00003b36:    f3ef8014    ....    MRS      r0,CONTROL
        0x00003b3a:    07c0        ..      LSLS     r0,r0,#31
        0x00003b3c:    d003        ..      BEQ      0x3b46 ; osKernelInitialize + 30
        0x00003b3e:    4f03        .O      LDR      r7,[pc,#12] ; [0x3b4c] = 0x4c09
        0x00003b40:    46bc        .F      MOV      r12,r7
        0x00003b42:    df00        ..      SVC      #0x0 ; formerly SWI
        0x00003b44:    bd80        ..      POP      {r7,pc}
        0x00003b46:    f001f85f    .._.    BL       svcKernelInitialize ; 0x4c08
        0x00003b4a:    bd80        ..      POP      {r7,pc}
    $d
        0x00003b4c:    00004c09    .L..    DCD    19465
    $t
    i.osKernelStart
    osKernelStart
        0x00003b50:    b580        ..      PUSH     {r7,lr}
        0x00003b52:    b088        ..      SUB      sp,sp,#0x20
        0x00003b54:    f3ef8005    ....    MRS      r0,IPSR
        0x00003b58:    2800        .(      CMP      r0,#0
        0x00003b5a:    d002        ..      BEQ      0x3b62 ; osKernelStart + 18
        0x00003b5c:    2082        .       MOVS     r0,#0x82
        0x00003b5e:    b008        ..      ADD      sp,sp,#0x20
        0x00003b60:    bd80        ..      POP      {r7,pc}
        0x00003b62:    f3ef8014    ....    MRS      r0,CONTROL
        0x00003b66:    0781        ..      LSLS     r1,r0,#30
        0x00003b68:    4812        .H      LDR      r0,[pc,#72] ; [0x3bb4] = 0x5028
        0x00003b6a:    0f89        ..      LSRS     r1,r1,#30
        0x00003b6c:    d006        ..      BEQ      0x3b7c ; osKernelStart + 44
        0x00003b6e:    2901        .)      CMP      r1,#1
        0x00003b70:    d01a        ..      BEQ      0x3ba8 ; osKernelStart + 88
        0x00003b72:    2902        .)      CMP      r1,#2
        0x00003b74:    d010        ..      BEQ      0x3b98 ; osKernelStart + 72
        0x00003b76:    2903        .)      CMP      r1,#3
        0x00003b78:    d118        ..      BNE      0x3bac ; osKernelStart + 92
        0x00003b7a:    e012        ..      B        0x3ba2 ; osKernelStart + 82
        0x00003b7c:    a908        ..      ADD      r1,sp,#0x20
        0x00003b7e:    f3818809    ....    MSR      PSP,r1
        0x00003b82:    7800        .x      LDRB     r0,[r0,#0]
        0x00003b84:    07c0        ..      LSLS     r0,r0,#31
        0x00003b86:    d00a        ..      BEQ      0x3b9e ; osKernelStart + 78
        0x00003b88:    2002        .       MOVS     r0,#2
        0x00003b8a:    f3808814    ....    MSR      CONTROL,r0
        0x00003b8e:    f3bf8f4f    ..O.    DSB      
        0x00003b92:    f3bf8f6f    ..o.    ISB      
        0x00003b96:    e009        ..      B        0x3bac ; osKernelStart + 92
        0x00003b98:    7800        .x      LDRB     r0,[r0,#0]
        0x00003b9a:    07c0        ..      LSLS     r0,r0,#31
        0x00003b9c:    d106        ..      BNE      0x3bac ; osKernelStart + 92
        0x00003b9e:    2003        .       MOVS     r0,#3
        0x00003ba0:    e7f3        ..      B        0x3b8a ; osKernelStart + 58
        0x00003ba2:    7800        .x      LDRB     r0,[r0,#0]
        0x00003ba4:    07c0        ..      LSLS     r0,r0,#31
        0x00003ba6:    d001        ..      BEQ      0x3bac ; osKernelStart + 92
        0x00003ba8:    20ff        .       MOVS     r0,#0xff
        0x00003baa:    e7d8        ..      B        0x3b5e ; osKernelStart + 14
        0x00003bac:    4f02        .O      LDR      r7,[pc,#8] ; [0x3bb8] = 0x4c81
        0x00003bae:    46bc        .F      MOV      r12,r7
        0x00003bb0:    df00        ..      SVC      #0x0 ; formerly SWI
        0x00003bb2:    e7d4        ..      B        0x3b5e ; osKernelStart + 14
    $d
        0x00003bb4:    00005028    (P..    DCD    20520
        0x00003bb8:    00004c81    .L..    DCD    19585
    $t
    i.osMessageGet
    osMessageGet
        0x00003bbc:    b580        ..      PUSH     {r7,lr}
        0x00003bbe:    f3ef8205    ....    MRS      r2,IPSR
        0x00003bc2:    2a00        .*      CMP      r2,#0
        0x00003bc4:    d002        ..      BEQ      0x3bcc ; osMessageGet + 16
        0x00003bc6:    f7ffff13    ....    BL       isrMessageGet ; 0x39f0
        0x00003bca:    bd80        ..      POP      {r7,pc}
        0x00003bcc:    4f01        .O      LDR      r7,[pc,#4] ; [0x3bd4] = 0x4cf7
        0x00003bce:    46bc        .F      MOV      r12,r7
        0x00003bd0:    df00        ..      SVC      #0x0 ; formerly SWI
        0x00003bd2:    bd80        ..      POP      {r7,pc}
    $d
        0x00003bd4:    00004cf7    .L..    DCD    19703
    $t
    i.osMutexRelease
    osMutexRelease
        0x00003bd8:    b580        ..      PUSH     {r7,lr}
        0x00003bda:    f3ef8105    ....    MRS      r1,IPSR
        0x00003bde:    2900        .)      CMP      r1,#0
        0x00003be0:    d001        ..      BEQ      0x3be6 ; osMutexRelease + 14
        0x00003be2:    2082        .       MOVS     r0,#0x82
        0x00003be4:    bd80        ..      POP      {r7,pc}
        0x00003be6:    4f02        .O      LDR      r7,[pc,#8] ; [0x3bf0] = 0x4d33
        0x00003be8:    46bc        .F      MOV      r12,r7
        0x00003bea:    df00        ..      SVC      #0x0 ; formerly SWI
        0x00003bec:    bd80        ..      POP      {r7,pc}
    $d
        0x00003bee:    0000        ..      DCW    0
        0x00003bf0:    00004d33    3M..    DCD    19763
    $t
    i.osMutexWait
    osMutexWait
        0x00003bf4:    b580        ..      PUSH     {r7,lr}
        0x00003bf6:    f3ef8205    ....    MRS      r2,IPSR
        0x00003bfa:    2a00        .*      CMP      r2,#0
        0x00003bfc:    d001        ..      BEQ      0x3c02 ; osMutexWait + 14
        0x00003bfe:    2082        .       MOVS     r0,#0x82
        0x00003c00:    bd80        ..      POP      {r7,pc}
        0x00003c02:    4f02        .O      LDR      r7,[pc,#8] ; [0x3c0c] = 0x4d57
        0x00003c04:    46bc        .F      MOV      r12,r7
        0x00003c06:    df00        ..      SVC      #0x0 ; formerly SWI
        0x00003c08:    bd80        ..      POP      {r7,pc}
    $d
        0x00003c0a:    0000        ..      DCW    0
        0x00003c0c:    00004d57    WM..    DCD    19799
    $t
    i.osThreadCreate
    osThreadCreate
        0x00003c10:    b580        ..      PUSH     {r7,lr}
        0x00003c12:    f3ef8205    ....    MRS      r2,IPSR
        0x00003c16:    2a00        .*      CMP      r2,#0
        0x00003c18:    d001        ..      BEQ      0x3c1e ; osThreadCreate + 14
        0x00003c1a:    2000        .       MOVS     r0,#0
        0x00003c1c:    bd80        ..      POP      {r7,pc}
        0x00003c1e:    f3ef8214    ....    MRS      r2,CONTROL
        0x00003c22:    07d2        ..      LSLS     r2,r2,#31
        0x00003c24:    d103        ..      BNE      0x3c2e ; osThreadCreate + 30
        0x00003c26:    4a05        .J      LDR      r2,[pc,#20] ; [0x3c3c] = 0x200000ac
        0x00003c28:    7852        Rx      LDRB     r2,[r2,#1]
        0x00003c2a:    2a00        .*      CMP      r2,#0
        0x00003c2c:    d003        ..      BEQ      0x3c36 ; osThreadCreate + 38
        0x00003c2e:    4f04        .O      LDR      r7,[pc,#16] ; [0x3c40] = 0x4d95
        0x00003c30:    46bc        .F      MOV      r12,r7
        0x00003c32:    df00        ..      SVC      #0x0 ; formerly SWI
        0x00003c34:    bd80        ..      POP      {r7,pc}
        0x00003c36:    f001f8ad    ....    BL       svcThreadCreate ; 0x4d94
        0x00003c3a:    bd80        ..      POP      {r7,pc}
    $d
        0x00003c3c:    200000ac    ...     DCD    536871084
        0x00003c40:    00004d95    .M..    DCD    19861
    $t
    i.osThreadExit
    osThreadExit
        0x00003c44:    4f03        .O      LDR      r7,[pc,#12] ; [0x3c54] = 0x4e09
        0x00003c46:    46bc        .F      MOV      r12,r7
        0x00003c48:    df00        ..      SVC      #0x0 ; formerly SWI
        0x00003c4a:    4f03        .O      LDR      r7,[pc,#12] ; [0x3c58] = 0x4e25
        0x00003c4c:    46bc        .F      MOV      r12,r7
        0x00003c4e:    df00        ..      SVC      #0x0 ; formerly SWI
        0x00003c50:    e7fe        ..      B        0x3c50 ; osThreadExit + 12
    $d
        0x00003c52:    0000        ..      DCW    0
        0x00003c54:    00004e09    .N..    DCD    19977
        0x00003c58:    00004e25    %N..    DCD    20005
    $t
    i.osTimerCall
    osTimerCall
        0x00003c5c:    b580        ..      PUSH     {r7,lr}
        0x00003c5e:    4f02        .O      LDR      r7,[pc,#8] ; [0x3c68] = 0x4e61
        0x00003c60:    46bc        .F      MOV      r12,r7
        0x00003c62:    df00        ..      SVC      #0x0 ; formerly SWI
        0x00003c64:    bd80        ..      POP      {r7,pc}
    $d
        0x00003c66:    0000        ..      DCW    0
        0x00003c68:    00004e61    aN..    DCD    20065
    $t
    i.osTimerCreate
    osTimerCreate
        0x00003c6c:    b580        ..      PUSH     {r7,lr}
        0x00003c6e:    f3ef8305    ....    MRS      r3,IPSR
        0x00003c72:    2b00        .+      CMP      r3,#0
        0x00003c74:    d001        ..      BEQ      0x3c7a ; osTimerCreate + 14
        0x00003c76:    2000        .       MOVS     r0,#0
        0x00003c78:    bd80        ..      POP      {r7,pc}
        0x00003c7a:    f3ef8314    ....    MRS      r3,CONTROL
        0x00003c7e:    07db        ..      LSLS     r3,r3,#31
        0x00003c80:    d103        ..      BNE      0x3c8a ; osTimerCreate + 30
        0x00003c82:    4b05        .K      LDR      r3,[pc,#20] ; [0x3c98] = 0x200000ac
        0x00003c84:    785b        [x      LDRB     r3,[r3,#1]
        0x00003c86:    2b00        .+      CMP      r3,#0
        0x00003c88:    d003        ..      BEQ      0x3c92 ; osTimerCreate + 38
        0x00003c8a:    4f04        .O      LDR      r7,[pc,#16] ; [0x3c9c] = 0x4e7d
        0x00003c8c:    46bc        .F      MOV      r12,r7
        0x00003c8e:    df00        ..      SVC      #0x0 ; formerly SWI
        0x00003c90:    bd80        ..      POP      {r7,pc}
        0x00003c92:    f001f8f3    ....    BL       svcTimerCreate ; 0x4e7c
        0x00003c96:    bd80        ..      POP      {r7,pc}
    $d
        0x00003c98:    200000ac    ...     DCD    536871084
        0x00003c9c:    00004e7d    }N..    DCD    20093
    $t
    i.osTimerStart
    osTimerStart
        0x00003ca0:    b580        ..      PUSH     {r7,lr}
        0x00003ca2:    f3ef8205    ....    MRS      r2,IPSR
        0x00003ca6:    2a00        .*      CMP      r2,#0
        0x00003ca8:    d001        ..      BEQ      0x3cae ; osTimerStart + 14
        0x00003caa:    2082        .       MOVS     r0,#0x82
        0x00003cac:    bd80        ..      POP      {r7,pc}
        0x00003cae:    4f02        .O      LDR      r7,[pc,#8] ; [0x3cb8] = 0x4ebd
        0x00003cb0:    46bc        .F      MOV      r12,r7
        0x00003cb2:    df00        ..      SVC      #0x0 ; formerly SWI
        0x00003cb4:    bd80        ..      POP      {r7,pc}
    $d
        0x00003cb6:    0000        ..      DCW    0
        0x00003cb8:    00004ebd    .N..    DCD    20157
    $t
    i.osTimerThread
    osTimerThread
        0x00003cbc:    2500        .%      MOVS     r5,#0
        0x00003cbe:    4c09        .L      LDR      r4,[pc,#36] ; [0x3ce4] = 0x20000078
        0x00003cc0:    43ed        .C      MVNS     r5,r5
        0x00003cc2:    4629        )F      MOV      r1,r5
        0x00003cc4:    6820         h      LDR      r0,[r4,#0]
        0x00003cc6:    f7ffff79    ..y.    BL       osMessageGet ; 0x3bbc
        0x00003cca:    4602        .F      MOV      r2,r0
        0x00003ccc:    4608        .F      MOV      r0,r1
        0x00003cce:    2a10        .*      CMP      r2,#0x10
        0x00003cd0:    d1f7        ..      BNE      0x3cc2 ; osTimerThread + 6
        0x00003cd2:    f7ffffc3    ....    BL       osTimerCall ; 0x3c5c
        0x00003cd6:    2800        .(      CMP      r0,#0
        0x00003cd8:    d0f3        ..      BEQ      0x3cc2 ; osTimerThread + 6
        0x00003cda:    4602        .F      MOV      r2,r0
        0x00003cdc:    4608        .F      MOV      r0,r1
        0x00003cde:    4790        .G      BLX      r2
        0x00003ce0:    e7ef        ..      B        0x3cc2 ; osTimerThread + 6
    $d
        0x00003ce2:    0000        ..      DCW    0
        0x00003ce4:    20000078    x..     DCD    536871032
    $t
    i.os_error
    os_error
        0x00003ce8:    e7fe        ..      B        os_error ; 0x3ce8
    i.os_idle_demon
    os_idle_demon
        0x00003cea:    e7fe        ..      B        os_idle_demon ; 0x3cea
    i.os_tick_init
    os_tick_init
        0x00003cec:    4807        .H      LDR      r0,[pc,#28] ; [0x3d0c] = 0x5024
        0x00003cee:    6801        .h      LDR      r1,[r0,#0]
        0x00003cf0:    4807        .H      LDR      r0,[pc,#28] ; [0x3d10] = 0xe000e000
        0x00003cf2:    6141        Aa      STR      r1,[r0,#0x14]
        0x00003cf4:    2100        .!      MOVS     r1,#0
        0x00003cf6:    6181        .a      STR      r1,[r0,#0x18]
        0x00003cf8:    2107        .!      MOVS     r1,#7
        0x00003cfa:    6101        .a      STR      r1,[r0,#0x10]
        0x00003cfc:    4805        .H      LDR      r0,[pc,#20] ; [0x3d14] = 0xe000ed00
        0x00003cfe:    6a01        .j      LDR      r1,[r0,#0x20]
        0x00003d00:    22ff        ."      MOVS     r2,#0xff
        0x00003d02:    0612        ..      LSLS     r2,r2,#24
        0x00003d04:    4311        .C      ORRS     r1,r1,r2
        0x00003d06:    6201        .b      STR      r1,[r0,#0x20]
        0x00003d08:    1740        @.      ASRS     r0,r0,#29
        0x00003d0a:    4770        pG      BX       lr
    $d
        0x00003d0c:    00005024    $P..    DCD    20516
        0x00003d10:    e000e000    ....    DCD    3758153728
        0x00003d14:    e000ed00    ....    DCD    3758157056
    $t
    i.os_tick_irqack
    os_tick_irqack
        0x00003d18:    4770        pG      BX       lr
        0x00003d1a:    0000        ..      MOVS     r0,r0
    i.parse_g
    parse_g
        0x00003d1c:    b5ff        ..      PUSH     {r0-r7,lr}
        0x00003d1e:    b081        ..      SUB      sp,sp,#4
        0x00003d20:    4615        .F      MOV      r5,r2
        0x00003d22:    4604        .F      MOV      r4,r0
        0x00003d24:    f7fcfd30    ..0.    BL       strlen ; 0x788
        0x00003d28:    4606        .F      MOV      r6,r0
        0x00003d2a:    980b        ..      LDR      r0,[sp,#0x2c]
        0x00003d2c:    f7fcfd2c    ..,.    BL       strlen ; 0x788
        0x00003d30:    4601        .F      MOV      r1,r0
        0x00003d32:    980b        ..      LDR      r0,[sp,#0x2c]
        0x00003d34:    f7fcfd72    ..r.    BL       __aeabi_memclr ; 0x81c
        0x00003d38:    2000        .       MOVS     r0,#0
        0x00003d3a:    4601        .F      MOV      r1,r0
        0x00003d3c:    e009        ..      B        0x3d52 ; parse_g + 54
        0x00003d3e:    5c22        "\      LDRB     r2,[r4,r0]
        0x00003d40:    9b0a        ..      LDR      r3,[sp,#0x28]
        0x00003d42:    429a        .B      CMP      r2,r3
        0x00003d44:    d101        ..      BNE      0x3d4a ; parse_g + 46
        0x00003d46:    4607        .F      MOV      r7,r0
        0x00003d48:    1c49        I.      ADDS     r1,r1,#1
        0x00003d4a:    42a9        .B      CMP      r1,r5
        0x00003d4c:    db00        ..      BLT      0x3d50 ; parse_g + 52
        0x00003d4e:    4811        .H      LDR      r0,[pc,#68] ; [0x3d94] = 0x26ac
        0x00003d50:    1c40        @.      ADDS     r0,r0,#1
        0x00003d52:    42b0        .B      CMP      r0,r6
        0x00003d54:    dbf3        ..      BLT      0x3d3e ; parse_g + 34
        0x00003d56:    2000        .       MOVS     r0,#0
        0x00003d58:    4601        .F      MOV      r1,r0
        0x00003d5a:    e00a        ..      B        0x3d72 ; parse_g + 86
        0x00003d5c:    5c23        #\      LDRB     r3,[r4,r0]
        0x00003d5e:    9a04        ..      LDR      r2,[sp,#0x10]
        0x00003d60:    4293        .B      CMP      r3,r2
        0x00003d62:    d101        ..      BNE      0x3d68 ; parse_g + 76
        0x00003d64:    4605        .F      MOV      r5,r0
        0x00003d66:    1c49        I.      ADDS     r1,r1,#1
        0x00003d68:    9a02        ..      LDR      r2,[sp,#8]
        0x00003d6a:    4291        .B      CMP      r1,r2
        0x00003d6c:    db00        ..      BLT      0x3d70 ; parse_g + 84
        0x00003d6e:    4809        .H      LDR      r0,[pc,#36] ; [0x3d94] = 0x26ac
        0x00003d70:    1c40        @.      ADDS     r0,r0,#1
        0x00003d72:    42b0        .B      CMP      r0,r6
        0x00003d74:    dbf2        ..      BLT      0x3d5c ; parse_g + 64
        0x00003d76:    2000        .       MOVS     r0,#0
        0x00003d78:    1b7a        z.      SUBS     r2,r7,r5
        0x00003d7a:    1e52        R.      SUBS     r2,r2,#1
        0x00003d7c:    e005        ..      B        0x3d8a ; parse_g + 110
        0x00003d7e:    1829        ).      ADDS     r1,r5,r0
        0x00003d80:    1909        ..      ADDS     r1,r1,r4
        0x00003d82:    784b        Kx      LDRB     r3,[r1,#1]
        0x00003d84:    990b        ..      LDR      r1,[sp,#0x2c]
        0x00003d86:    540b        .T      STRB     r3,[r1,r0]
        0x00003d88:    1c40        @.      ADDS     r0,r0,#1
        0x00003d8a:    4282        .B      CMP      r2,r0
        0x00003d8c:    dcf7        ..      BGT      0x3d7e ; parse_g + 98
        0x00003d8e:    b005        ..      ADD      sp,sp,#0x14
        0x00003d90:    bdf0        ..      POP      {r4-r7,pc}
    $d
        0x00003d92:    0000        ..      DCW    0
        0x00003d94:    000026ac    .&..    DCD    9900
    $t
    i.remove_all_chars
    remove_all_chars
        0x00003d98:    b510        ..      PUSH     {r4,lr}
        0x00003d9a:    4604        .F      MOV      r4,r0
        0x00003d9c:    e00f        ..      B        0x3dbe ; remove_all_chars + 38
        0x00003d9e:    1c64        d.      ADDS     r4,r4,#1
        0x00003da0:    7003        .p      STRB     r3,[r0,#0]
        0x00003da2:    428b        .B      CMP      r3,r1
        0x00003da4:    d009        ..      BEQ      0x3dba ; remove_all_chars + 34
        0x00003da6:    4293        .B      CMP      r3,r2
        0x00003da8:    d007        ..      BEQ      0x3dba ; remove_all_chars + 34
        0x00003daa:    2b20         +      CMP      r3,#0x20
        0x00003dac:    d005        ..      BEQ      0x3dba ; remove_all_chars + 34
        0x00003dae:    2b2f        /+      CMP      r3,#0x2f
        0x00003db0:    d003        ..      BEQ      0x3dba ; remove_all_chars + 34
        0x00003db2:    2b3a        :+      CMP      r3,#0x3a
        0x00003db4:    d001        ..      BEQ      0x3dba ; remove_all_chars + 34
        0x00003db6:    2301        .#      MOVS     r3,#1
        0x00003db8:    e000        ..      B        0x3dbc ; remove_all_chars + 36
        0x00003dba:    2300        .#      MOVS     r3,#0
        0x00003dbc:    1818        ..      ADDS     r0,r3,r0
        0x00003dbe:    7823        #x      LDRB     r3,[r4,#0]
        0x00003dc0:    2b00        .+      CMP      r3,#0
        0x00003dc2:    d1ec        ..      BNE      0x3d9e ; remove_all_chars + 6
        0x00003dc4:    2100        .!      MOVS     r1,#0
        0x00003dc6:    7001        .p      STRB     r1,[r0,#0]
        0x00003dc8:    bd10        ..      POP      {r4,pc}
    i.rt_alloc_box
    rt_alloc_box
        0x00003dca:    4601        .F      MOV      r1,r0
        0x00003dcc:    f3ef8010    ....    MRS      r0,PRIMASK
        0x00003dd0:    07c2        ..      LSLS     r2,r0,#31
        0x00003dd2:    0fd2        ..      LSRS     r2,r2,#31
        0x00003dd4:    b672        r.      CPSID    i
        0x00003dd6:    6808        .h      LDR      r0,[r1,#0]
        0x00003dd8:    2800        .(      CMP      r0,#0
        0x00003dda:    d001        ..      BEQ      0x3de0 ; rt_alloc_box + 22
        0x00003ddc:    6803        .h      LDR      r3,[r0,#0]
        0x00003dde:    600b        .`      STR      r3,[r1,#0]
        0x00003de0:    2a00        .*      CMP      r2,#0
        0x00003de2:    d100        ..      BNE      0x3de6 ; rt_alloc_box + 28
        0x00003de4:    b662        b.      CPSIE    i
        0x00003de6:    4770        pG      BX       lr
    i.rt_alloc_mem
    rt_alloc_mem
        0x00003de8:    b510        ..      PUSH     {r4,lr}
        0x00003dea:    2800        .(      CMP      r0,#0
        0x00003dec:    d00e        ..      BEQ      0x3e0c ; rt_alloc_mem + 36
        0x00003dee:    2900        .)      CMP      r1,#0
        0x00003df0:    d00c        ..      BEQ      0x3e0c ; rt_alloc_mem + 36
        0x00003df2:    310b        .1      ADDS     r1,r1,#0xb
        0x00003df4:    088a        ..      LSRS     r2,r1,#2
        0x00003df6:    0092        ..      LSLS     r2,r2,#2
        0x00003df8:    6801        .h      LDR      r1,[r0,#0]
        0x00003dfa:    6844        Dh      LDR      r4,[r0,#4]
        0x00003dfc:    1a0b        ..      SUBS     r3,r1,r0
        0x00003dfe:    1b1b        ..      SUBS     r3,r3,r4
        0x00003e00:    4293        .B      CMP      r3,r2
        0x00003e02:    d205        ..      BCS      0x3e10 ; rt_alloc_mem + 40
        0x00003e04:    4608        .F      MOV      r0,r1
        0x00003e06:    6809        .h      LDR      r1,[r1,#0]
        0x00003e08:    2900        .)      CMP      r1,#0
        0x00003e0a:    d1f5        ..      BNE      0x3df8 ; rt_alloc_mem + 16
        0x00003e0c:    2000        .       MOVS     r0,#0
        0x00003e0e:    bd10        ..      POP      {r4,pc}
        0x00003e10:    0021        !.      MOVS     r1,r4
        0x00003e12:    d007        ..      BEQ      0x3e24 ; rt_alloc_mem + 60
        0x00003e14:    1821        !.      ADDS     r1,r4,r0
        0x00003e16:    6803        .h      LDR      r3,[r0,#0]
        0x00003e18:    600b        .`      STR      r3,[r1,#0]
        0x00003e1a:    604a        J`      STR      r2,[r1,#4]
        0x00003e1c:    6001        .`      STR      r1,[r0,#0]
        0x00003e1e:    4608        .F      MOV      r0,r1
        0x00003e20:    3008        .0      ADDS     r0,r0,#8
        0x00003e22:    bd10        ..      POP      {r4,pc}
        0x00003e24:    6042        B`      STR      r2,[r0,#4]
        0x00003e26:    3008        .0      ADDS     r0,r0,#8
        0x00003e28:    bd10        ..      POP      {r4,pc}
        0x00003e2a:    0000        ..      MOVS     r0,r0
    i.rt_block
    rt_block
        0x00003e2c:    b570        p.      PUSH     {r4-r6,lr}
        0x00003e2e:    460d        .F      MOV      r5,r1
        0x00003e30:    2800        .(      CMP      r0,#0
        0x00003e32:    d00f        ..      BEQ      0x3e54 ; rt_block + 40
        0x00003e34:    4908        .I      LDR      r1,[pc,#32] ; [0x3e58] = 0xffff
        0x00003e36:    4c09        .L      LDR      r4,[pc,#36] ; [0x3e5c] = 0x200000b4
        0x00003e38:    4288        .B      CMP      r0,r1
        0x00003e3a:    d204        ..      BCS      0x3e46 ; rt_block + 26
        0x00003e3c:    6822        "h      LDR      r2,[r4,#0]
        0x00003e3e:    4601        .F      MOV      r1,r0
        0x00003e40:    4610        .F      MOV      r0,r2
        0x00003e42:    f000fb83    ....    BL       rt_put_dly ; 0x454c
        0x00003e46:    6820         h      LDR      r0,[r4,#0]
        0x00003e48:    7045        Ep      STRB     r5,[r0,#1]
        0x00003e4a:    4805        .H      LDR      r0,[pc,#20] ; [0x3e60] = 0x20002b9c
        0x00003e4c:    f000f8df    ....    BL       rt_get_first ; 0x400e
        0x00003e50:    f000fc48    ..H.    BL       rt_switch_req ; 0x46e4
        0x00003e54:    bd70        p.      POP      {r4-r6,pc}
    $d
        0x00003e56:    0000        ..      DCW    0
        0x00003e58:    0000ffff    ....    DCD    65535
        0x00003e5c:    200000b4    ...     DCD    536871092
        0x00003e60:    20002b9c    .+.     DCD    536882076
    $t
    i.rt_chk_robin
    rt_chk_robin
        0x00003e64:    b510        ..      PUSH     {r4,lr}
        0x00003e66:    480e        .H      LDR      r0,[pc,#56] ; [0x3ea0] = 0x20002b9c
        0x00003e68:    490c        .I      LDR      r1,[pc,#48] ; [0x3e9c] = 0x200000c8
        0x00003e6a:    6842        Bh      LDR      r2,[r0,#4]
        0x00003e6c:    480d        .H      LDR      r0,[pc,#52] ; [0x3ea4] = 0x200000c4
        0x00003e6e:    680b        .h      LDR      r3,[r1,#0]
        0x00003e70:    6800        .h      LDR      r0,[r0,#0]
        0x00003e72:    4293        .B      CMP      r3,r2
        0x00003e74:    d004        ..      BEQ      0x3e80 ; rt_chk_robin + 28
        0x00003e76:    600a        .`      STR      r2,[r1,#0]
        0x00003e78:    88cb        ..      LDRH     r3,[r1,#6]
        0x00003e7a:    1e42        B.      SUBS     r2,r0,#1
        0x00003e7c:    189a        ..      ADDS     r2,r3,r2
        0x00003e7e:    808a        ..      STRH     r2,[r1,#4]
        0x00003e80:    888a        ..      LDRH     r2,[r1,#4]
        0x00003e82:    b280        ..      UXTH     r0,r0
        0x00003e84:    4282        .B      CMP      r2,r0
        0x00003e86:    d108        ..      BNE      0x3e9a ; rt_chk_robin + 54
        0x00003e88:    2000        .       MOVS     r0,#0
        0x00003e8a:    6008        .`      STR      r0,[r1,#0]
        0x00003e8c:    4804        .H      LDR      r0,[pc,#16] ; [0x3ea0] = 0x20002b9c
        0x00003e8e:    f000f8be    ....    BL       rt_get_first ; 0x400e
        0x00003e92:    4601        .F      MOV      r1,r0
        0x00003e94:    4802        .H      LDR      r0,[pc,#8] ; [0x3ea0] = 0x20002b9c
        0x00003e96:    f000fb81    ....    BL       rt_put_prio ; 0x459c
        0x00003e9a:    bd10        ..      POP      {r4,pc}
    $d
        0x00003e9c:    200000c8    ...     DCD    536871112
        0x00003ea0:    20002b9c    .+.     DCD    536882076
        0x00003ea4:    200000c4    ...     DCD    536871108
    $t
    i.rt_dec_dly
    rt_dec_dly
        0x00003ea8:    b570        p.      PUSH     {r4-r6,lr}
        0x00003eaa:    4d1a        .M      LDR      r5,[pc,#104] ; [0x3f14] = 0x20002bb4
        0x00003eac:    68e8        .h      LDR      r0,[r5,#0xc]
        0x00003eae:    2800        .(      CMP      r0,#0
        0x00003eb0:    d02f        /.      BEQ      0x3f12 ; rt_dec_dly + 106
        0x00003eb2:    8aa8        ..      LDRH     r0,[r5,#0x14]
        0x00003eb4:    1e40        @.      SUBS     r0,r0,#1
        0x00003eb6:    82a8        ..      STRH     r0,[r5,#0x14]
        0x00003eb8:    2600        .&      MOVS     r6,#0
        0x00003eba:    e024        $.      B        0x3f06 ; rt_dec_dly + 94
        0x00003ebc:    68a0        .h      LDR      r0,[r4,#8]
        0x00003ebe:    2800        .(      CMP      r0,#0
        0x00003ec0:    d008        ..      BEQ      0x3ed4 ; rt_dec_dly + 44
        0x00003ec2:    6861        ah      LDR      r1,[r4,#4]
        0x00003ec4:    6041        A`      STR      r1,[r0,#4]
        0x00003ec6:    6860        `h      LDR      r0,[r4,#4]
        0x00003ec8:    2800        .(      CMP      r0,#0
        0x00003eca:    d002        ..      BEQ      0x3ed2 ; rt_dec_dly + 42
        0x00003ecc:    68a1        .h      LDR      r1,[r4,#8]
        0x00003ece:    6081        .`      STR      r1,[r0,#8]
        0x00003ed0:    6066        f`      STR      r6,[r4,#4]
        0x00003ed2:    60a6        .`      STR      r6,[r4,#8]
        0x00003ed4:    480f        .H      LDR      r0,[pc,#60] ; [0x3f14] = 0x20002bb4
        0x00003ed6:    4621        !F      MOV      r1,r4
        0x00003ed8:    3818        .8      SUBS     r0,r0,#0x18
        0x00003eda:    f000fb5f    .._.    BL       rt_put_prio ; 0x459c
        0x00003ede:    8aa0        ..      LDRH     r0,[r4,#0x14]
        0x00003ee0:    82a8        ..      STRH     r0,[r5,#0x14]
        0x00003ee2:    7860        `x      LDRB     r0,[r4,#1]
        0x00003ee4:    2804        .(      CMP      r0,#4
        0x00003ee6:    d104        ..      BNE      0x3ef2 ; rt_dec_dly + 74
        0x00003ee8:    490b        .I      LDR      r1,[pc,#44] ; [0x3f18] = 0x200000c4
        0x00003eea:    8ae0        ..      LDRH     r0,[r4,#0x16]
        0x00003eec:    8809        ..      LDRH     r1,[r1,#0]
        0x00003eee:    1840        @.      ADDS     r0,r0,r1
        0x00003ef0:    82a0        ..      STRH     r0,[r4,#0x14]
        0x00003ef2:    2001        .       MOVS     r0,#1
        0x00003ef4:    7060        `p      STRB     r0,[r4,#1]
        0x00003ef6:    68e0        .h      LDR      r0,[r4,#0xc]
        0x00003ef8:    60e8        .`      STR      r0,[r5,#0xc]
        0x00003efa:    68e0        .h      LDR      r0,[r4,#0xc]
        0x00003efc:    2800        .(      CMP      r0,#0
        0x00003efe:    d001        ..      BEQ      0x3f04 ; rt_dec_dly + 92
        0x00003f00:    6105        .a      STR      r5,[r0,#0x10]
        0x00003f02:    60e6        .`      STR      r6,[r4,#0xc]
        0x00003f04:    6126        &a      STR      r6,[r4,#0x10]
        0x00003f06:    8aa8        ..      LDRH     r0,[r5,#0x14]
        0x00003f08:    2800        .(      CMP      r0,#0
        0x00003f0a:    d102        ..      BNE      0x3f12 ; rt_dec_dly + 106
        0x00003f0c:    68ec        .h      LDR      r4,[r5,#0xc]
        0x00003f0e:    2c00        .,      CMP      r4,#0
        0x00003f10:    d1d4        ..      BNE      0x3ebc ; rt_dec_dly + 20
        0x00003f12:    bd70        p.      POP      {r4-r6,pc}
    $d
        0x00003f14:    20002bb4    .+.     DCD    536882100
        0x00003f18:    200000c4    ...     DCD    536871108
    $t
    i.rt_dispatch
    rt_dispatch
        0x00003f1c:    b570        p.      PUSH     {r4-r6,lr}
        0x00003f1e:    0004        ..      MOVS     r4,r0
        0x00003f20:    d00e        ..      BEQ      0x3f40 ; rt_dispatch + 36
        0x00003f22:    4d0c        .M      LDR      r5,[pc,#48] ; [0x3f54] = 0x200000b4
        0x00003f24:    78a1        .x      LDRB     r1,[r4,#2]
        0x00003f26:    6828        (h      LDR      r0,[r5,#0]
        0x00003f28:    2601        .&      MOVS     r6,#1
        0x00003f2a:    7882        .x      LDRB     r2,[r0,#2]
        0x00003f2c:    4291        .B      CMP      r1,r2
        0x00003f2e:    d90b        ..      BLS      0x3f48 ; rt_dispatch + 44
        0x00003f30:    f000fb52    ..R.    BL       rt_put_rdy_first ; 0x45d8
        0x00003f34:    6828        (h      LDR      r0,[r5,#0]
        0x00003f36:    7046        Fp      STRB     r6,[r0,#1]
        0x00003f38:    4620         F      MOV      r0,r4
        0x00003f3a:    f000fbd3    ....    BL       rt_switch_req ; 0x46e4
        0x00003f3e:    bd70        p.      POP      {r4-r6,pc}
        0x00003f40:    4805        .H      LDR      r0,[pc,#20] ; [0x3f58] = 0x20002b9c
        0x00003f42:    f000f864    ..d.    BL       rt_get_first ; 0x400e
        0x00003f46:    e7f8        ..      B        0x3f3a ; rt_dispatch + 30
        0x00003f48:    7066        fp      STRB     r6,[r4,#1]
        0x00003f4a:    4621        !F      MOV      r1,r4
        0x00003f4c:    4802        .H      LDR      r0,[pc,#8] ; [0x3f58] = 0x20002b9c
        0x00003f4e:    f000fb25    ..%.    BL       rt_put_prio ; 0x459c
        0x00003f52:    bd70        p.      POP      {r4-r6,pc}
    $d
        0x00003f54:    200000b4    ...     DCD    536871092
        0x00003f58:    20002b9c    .+.     DCD    536882076
    $t
    i.rt_dly_wait
    rt_dly_wait
        0x00003f5c:    b510        ..      PUSH     {r4,lr}
        0x00003f5e:    2103        .!      MOVS     r1,#3
        0x00003f60:    f7ffff64    ..d.    BL       rt_block ; 0x3e2c
        0x00003f64:    bd10        ..      POP      {r4,pc}
        0x00003f66:    0000        ..      MOVS     r0,r0
    i.rt_evt_psh
    rt_evt_psh
        0x00003f68:    b510        ..      PUSH     {r4,lr}
        0x00003f6a:    4604        .F      MOV      r4,r0
        0x00003f6c:    8b00        ..      LDRH     r0,[r0,#0x18]
        0x00003f6e:    4308        .C      ORRS     r0,r0,r1
        0x00003f70:    8320         .      STRH     r0,[r4,#0x18]
        0x00003f72:    7862        bx      LDRB     r2,[r4,#1]
        0x00003f74:    8b61        a.      LDRH     r1,[r4,#0x1a]
        0x00003f76:    2a06        .*      CMP      r2,#6
        0x00003f78:    d017        ..      BEQ      0x3faa ; rt_evt_psh + 66
        0x00003f7a:    2a05        .*      CMP      r2,#5
        0x00003f7c:    d114        ..      BNE      0x3fa8 ; rt_evt_psh + 64
        0x00003f7e:    4208        .B      TST      r0,r1
        0x00003f80:    d012        ..      BEQ      0x3fa8 ; rt_evt_psh + 64
        0x00003f82:    460a        .F      MOV      r2,r1
        0x00003f84:    4002        .@      ANDS     r2,r2,r0
        0x00003f86:    8362        b.      STRH     r2,[r4,#0x1a]
        0x00003f88:    4388        .C      BICS     r0,r0,r1
        0x00003f8a:    8320         .      STRH     r0,[r4,#0x18]
        0x00003f8c:    4620         F      MOV      r0,r4
        0x00003f8e:    f000fb4c    ..L.    BL       rt_rmv_dly ; 0x462a
        0x00003f92:    2001        .       MOVS     r0,#1
        0x00003f94:    7060        `p      STRB     r0,[r4,#1]
        0x00003f96:    8b62        b.      LDRH     r2,[r4,#0x1a]
        0x00003f98:    2108        .!      MOVS     r1,#8
        0x00003f9a:    4620         F      MOV      r0,r4
        0x00003f9c:    f000fb41    ..A.    BL       rt_ret_val2 ; 0x4622
        0x00003fa0:    4621        !F      MOV      r1,r4
        0x00003fa2:    4804        .H      LDR      r0,[pc,#16] ; [0x3fb4] = 0x20002b9c
        0x00003fa4:    f000fafa    ....    BL       rt_put_prio ; 0x459c
        0x00003fa8:    bd10        ..      POP      {r4,pc}
        0x00003faa:    460a        .F      MOV      r2,r1
        0x00003fac:    4382        .C      BICS     r2,r2,r0
        0x00003fae:    d0eb        ..      BEQ      0x3f88 ; rt_evt_psh + 32
        0x00003fb0:    bd10        ..      POP      {r4,pc}
    $d
        0x00003fb2:    0000        ..      DCW    0
        0x00003fb4:    20002b9c    .+.     DCD    536882076
    $t
    i.rt_free_box
    rt_free_box
        0x00003fb8:    4281        .B      CMP      r1,r0
        0x00003fba:    d302        ..      BCC      0x3fc2 ; rt_free_box + 10
        0x00003fbc:    6842        Bh      LDR      r2,[r0,#4]
        0x00003fbe:    428a        .B      CMP      r2,r1
        0x00003fc0:    d801        ..      BHI      0x3fc6 ; rt_free_box + 14
        0x00003fc2:    2001        .       MOVS     r0,#1
        0x00003fc4:    4770        pG      BX       lr
        0x00003fc6:    f3ef8210    ....    MRS      r2,PRIMASK
        0x00003fca:    07d2        ..      LSLS     r2,r2,#31
        0x00003fcc:    0fd2        ..      LSRS     r2,r2,#31
        0x00003fce:    b672        r.      CPSID    i
        0x00003fd0:    6803        .h      LDR      r3,[r0,#0]
        0x00003fd2:    600b        .`      STR      r3,[r1,#0]
        0x00003fd4:    6001        .`      STR      r1,[r0,#0]
        0x00003fd6:    d100        ..      BNE      0x3fda ; rt_free_box + 34
        0x00003fd8:    b662        b.      CPSIE    i
        0x00003fda:    2000        .       MOVS     r0,#0
        0x00003fdc:    4770        pG      BX       lr
    i.rt_free_mem
    rt_free_mem
        0x00003fde:    2800        .(      CMP      r0,#0
        0x00003fe0:    d010        ..      BEQ      0x4004 ; rt_free_mem + 38
        0x00003fe2:    2900        .)      CMP      r1,#0
        0x00003fe4:    d00e        ..      BEQ      0x4004 ; rt_free_mem + 38
        0x00003fe6:    2200        ."      MOVS     r2,#0
        0x00003fe8:    3908        .9      SUBS     r1,r1,#8
        0x00003fea:    e003        ..      B        0x3ff4 ; rt_free_mem + 22
        0x00003fec:    4602        .F      MOV      r2,r0
        0x00003fee:    6800        .h      LDR      r0,[r0,#0]
        0x00003ff0:    2800        .(      CMP      r0,#0
        0x00003ff2:    d007        ..      BEQ      0x4004 ; rt_free_mem + 38
        0x00003ff4:    4288        .B      CMP      r0,r1
        0x00003ff6:    d1f9        ..      BNE      0x3fec ; rt_free_mem + 14
        0x00003ff8:    2a00        .*      CMP      r2,#0
        0x00003ffa:    d005        ..      BEQ      0x4008 ; rt_free_mem + 42
        0x00003ffc:    6800        .h      LDR      r0,[r0,#0]
        0x00003ffe:    6010        .`      STR      r0,[r2,#0]
        0x00004000:    2000        .       MOVS     r0,#0
        0x00004002:    4770        pG      BX       lr
        0x00004004:    2001        .       MOVS     r0,#1
        0x00004006:    4770        pG      BX       lr
        0x00004008:    2100        .!      MOVS     r1,#0
        0x0000400a:    6041        A`      STR      r1,[r0,#4]
        0x0000400c:    e7f8        ..      B        0x4000 ; rt_free_mem + 34
    i.rt_get_first
    rt_get_first
        0x0000400e:    4601        .F      MOV      r1,r0
        0x00004010:    6840        @h      LDR      r0,[r0,#4]
        0x00004012:    6842        Bh      LDR      r2,[r0,#4]
        0x00004014:    604a        J`      STR      r2,[r1,#4]
        0x00004016:    780b        .x      LDRB     r3,[r1,#0]
        0x00004018:    2200        ."      MOVS     r2,#0
        0x0000401a:    2b02        .+      CMP      r3,#2
        0x0000401c:    d005        ..      BEQ      0x402a ; rt_get_first + 28
        0x0000401e:    2b01        .+      CMP      r3,#1
        0x00004020:    d003        ..      BEQ      0x402a ; rt_get_first + 28
        0x00004022:    2b03        .+      CMP      r3,#3
        0x00004024:    d001        ..      BEQ      0x402a ; rt_get_first + 28
        0x00004026:    6042        B`      STR      r2,[r0,#4]
        0x00004028:    4770        pG      BX       lr
        0x0000402a:    6843        Ch      LDR      r3,[r0,#4]
        0x0000402c:    2b00        .+      CMP      r3,#0
        0x0000402e:    d001        ..      BEQ      0x4034 ; rt_get_first + 38
        0x00004030:    6099        .`      STR      r1,[r3,#8]
        0x00004032:    6042        B`      STR      r2,[r0,#4]
        0x00004034:    6082        .`      STR      r2,[r0,#8]
        0x00004036:    4770        pG      BX       lr
    i.rt_id2obj
    rt_id2obj
        0x00004038:    0781        ..      LSLS     r1,r0,#30
        0x0000403a:    d000        ..      BEQ      0x403e ; rt_id2obj + 6
        0x0000403c:    2000        .       MOVS     r0,#0
        0x0000403e:    4770        pG      BX       lr
    i.rt_init_context
    rt_init_context
        0x00004040:    b570        p.      PUSH     {r4-r6,lr}
        0x00004042:    4604        .F      MOV      r4,r0
        0x00004044:    4615        .F      MOV      r5,r2
        0x00004046:    2000        .       MOVS     r0,#0
        0x00004048:    7020         p      STRB     r0,[r4,#0]
        0x0000404a:    2201        ."      MOVS     r2,#1
        0x0000404c:    7062        bp      STRB     r2,[r4,#1]
        0x0000404e:    4622        "F      MOV      r2,r4
        0x00004050:    70a1        .p      STRB     r1,[r4,#2]
        0x00004052:    3220         2      ADDS     r2,r2,#0x20
        0x00004054:    7111        .q      STRB     r1,[r2,#4]
        0x00004056:    6060        ``      STR      r0,[r4,#4]
        0x00004058:    60a0        .`      STR      r0,[r4,#8]
        0x0000405a:    60e0        .`      STR      r0,[r4,#0xc]
        0x0000405c:    6120         a      STR      r0,[r4,#0x10]
        0x0000405e:    6220         b      STR      r0,[r4,#0x20]
        0x00004060:    82a0        ..      STRH     r0,[r4,#0x14]
        0x00004062:    82e0        ..      STRH     r0,[r4,#0x16]
        0x00004064:    8320         .      STRH     r0,[r4,#0x18]
        0x00004066:    8360        `.      STRH     r0,[r4,#0x1a]
        0x00004068:    7150        Pq      STRB     r0,[r2,#5]
        0x0000406a:    8ce0        ..      LDRH     r0,[r4,#0x26]
        0x0000406c:    2800        .(      CMP      r0,#0
        0x0000406e:    d103        ..      BNE      0x4078 ; rt_init_context + 56
        0x00004070:    4804        .H      LDR      r0,[pc,#16] ; [0x4084] = 0x20001260
        0x00004072:    f7fffeaa    ....    BL       rt_alloc_box ; 0x3dca
        0x00004076:    62e0        .b      STR      r0,[r4,#0x2c]
        0x00004078:    4629        )F      MOV      r1,r5
        0x0000407a:    4620         F      MOV      r0,r4
        0x0000407c:    f000f81e    ....    BL       rt_init_stack ; 0x40bc
        0x00004080:    bd70        p.      POP      {r4-r6,pc}
    $d
        0x00004082:    0000        ..      DCW    0
        0x00004084:    20001260    `..     DCD    536875616
    $t
    i.rt_init_mem
    rt_init_mem
        0x00004088:    2800        .(      CMP      r0,#0
        0x0000408a:    d001        ..      BEQ      0x4090 ; rt_init_mem + 8
        0x0000408c:    2908        .)      CMP      r1,#8
        0x0000408e:    d201        ..      BCS      0x4094 ; rt_init_mem + 12
        0x00004090:    2001        .       MOVS     r0,#1
        0x00004092:    4770        pG      BX       lr
        0x00004094:    1841        A.      ADDS     r1,r0,r1
        0x00004096:    1f09        ..      SUBS     r1,r1,#4
        0x00004098:    2200        ."      MOVS     r2,#0
        0x0000409a:    6001        .`      STR      r1,[r0,#0]
        0x0000409c:    600a        .`      STR      r2,[r1,#0]
        0x0000409e:    6042        B`      STR      r2,[r0,#4]
        0x000040a0:    4610        .F      MOV      r0,r2
        0x000040a2:    4770        pG      BX       lr
    i.rt_init_robin
    rt_init_robin
        0x000040a4:    4803        .H      LDR      r0,[pc,#12] ; [0x40b4] = 0x200000c8
        0x000040a6:    2100        .!      MOVS     r1,#0
        0x000040a8:    6001        .`      STR      r1,[r0,#0]
        0x000040aa:    4903        .I      LDR      r1,[pc,#12] ; [0x40b8] = 0x5020
        0x000040ac:    8809        ..      LDRH     r1,[r1,#0]
        0x000040ae:    80c1        ..      STRH     r1,[r0,#6]
        0x000040b0:    4770        pG      BX       lr
    $d
        0x000040b2:    0000        ..      DCW    0
        0x000040b4:    200000c8    ...     DCD    536871112
        0x000040b8:    00005020     P..    DCD    20512
    $t
    i.rt_init_stack
    rt_init_stack
        0x000040bc:    b5f0        ..      PUSH     {r4-r7,lr}
        0x000040be:    8cc2        ..      LDRH     r2,[r0,#0x26]
        0x000040c0:    4d19        .M      LDR      r5,[pc,#100] ; [0x4128] = 0x501c
        0x000040c2:    0893        ..      LSRS     r3,r2,#2
        0x000040c4:    d102        ..      BNE      0x40cc ; rt_init_stack + 16
        0x000040c6:    882a        *.      LDRH     r2,[r5,#0]
        0x000040c8:    0412        ..      LSLS     r2,r2,#16
        0x000040ca:    0c93        ..      LSRS     r3,r2,#18
        0x000040cc:    6ac2        .j      LDR      r2,[r0,#0x2c]
        0x000040ce:    009c        ..      LSLS     r4,r3,#2
        0x000040d0:    1912        ..      ADDS     r2,r2,r4
        0x000040d2:    0754        T.      LSLS     r4,r2,#29
        0x000040d4:    d500        ..      BPL      0x40d8 ; rt_init_stack + 28
        0x000040d6:    1f12        ..      SUBS     r2,r2,#4
        0x000040d8:    2401        .$      MOVS     r4,#1
        0x000040da:    0624        $.      LSLS     r4,r4,#24
        0x000040dc:    3a40        @:      SUBS     r2,r2,#0x40
        0x000040de:    63d4        .c      STR      r4,[r2,#0x3c]
        0x000040e0:    2400        .$      MOVS     r4,#0
        0x000040e2:    6391        .c      STR      r1,[r2,#0x38]
        0x000040e4:    4626        &F      MOV      r6,r4
        0x000040e6:    00a7        ..      LSLS     r7,r4,#2
        0x000040e8:    1c64        d.      ADDS     r4,r4,#1
        0x000040ea:    51d6        .Q      STR      r6,[r2,r7]
        0x000040ec:    2c0e        .,      CMP      r4,#0xe
        0x000040ee:    d3fa        ..      BCC      0x40e6 ; rt_init_stack + 42
        0x000040f0:    69c4        .i      LDR      r4,[r0,#0x1c]
        0x000040f2:    6214        .b      STR      r4,[r2,#0x20]
        0x000040f4:    6282        .b      STR      r2,[r0,#0x28]
        0x000040f6:    6301        .c      STR      r1,[r0,#0x30]
        0x000040f8:    6829        )h      LDR      r1,[r5,#0]
        0x000040fa:    00c9        ..      LSLS     r1,r1,#3
        0x000040fc:    d50f        ..      BPL      0x411e ; rt_init_stack + 98
        0x000040fe:    2b11        .+      CMP      r3,#0x11
        0x00004100:    d90d        ..      BLS      0x411e ; rt_init_stack + 98
        0x00004102:    3b10        .;      SUBS     r3,r3,#0x10
        0x00004104:    0859        Y.      LSRS     r1,r3,#1
        0x00004106:    4b09        .K      LDR      r3,[pc,#36] ; [0x412c] = 0xcccccccc
        0x00004108:    e002        ..      B        0x4110 ; rt_init_stack + 84
        0x0000410a:    3a08        .:      SUBS     r2,r2,#8
        0x0000410c:    6053        S`      STR      r3,[r2,#4]
        0x0000410e:    6013        .`      STR      r3,[r2,#0]
        0x00004110:    1e49        I.      SUBS     r1,r1,#1
        0x00004112:    d1fa        ..      BNE      0x410a ; rt_init_stack + 78
        0x00004114:    6ac1        .j      LDR      r1,[r0,#0x2c]
        0x00004116:    1f12        ..      SUBS     r2,r2,#4
        0x00004118:    428a        .B      CMP      r2,r1
        0x0000411a:    d900        ..      BLS      0x411e ; rt_init_stack + 98
        0x0000411c:    6013        .`      STR      r3,[r2,#0]
        0x0000411e:    6ac0        .j      LDR      r0,[r0,#0x2c]
        0x00004120:    4903        .I      LDR      r1,[pc,#12] ; [0x4130] = 0xe25a2ea5
        0x00004122:    6001        .`      STR      r1,[r0,#0]
        0x00004124:    bdf0        ..      POP      {r4-r7,pc}
    $d
        0x00004126:    0000        ..      DCW    0
        0x00004128:    0000501c    .P..    DCD    20508
        0x0000412c:    cccccccc    ....    DCD    3435973836
        0x00004130:    e25a2ea5    ..Z.    DCD    3797560997
    $t
    i.rt_mbx_check
    rt_mbx_check
        0x00004134:    89c1        ..      LDRH     r1,[r0,#0xe]
        0x00004136:    8980        ..      LDRH     r0,[r0,#0xc]
        0x00004138:    1a08        ..      SUBS     r0,r1,r0
        0x0000413a:    4770        pG      BX       lr
    i.rt_mbx_init
    rt_mbx_init
        0x0000413c:    2201        ."      MOVS     r2,#1
        0x0000413e:    7002        .p      STRB     r2,[r0,#0]
        0x00004140:    2200        ."      MOVS     r2,#0
        0x00004142:    7042        Bp      STRB     r2,[r0,#1]
        0x00004144:    7082        .p      STRB     r2,[r0,#2]
        0x00004146:    6042        B`      STR      r2,[r0,#4]
        0x00004148:    8102        ..      STRH     r2,[r0,#8]
        0x0000414a:    8142        B.      STRH     r2,[r0,#0xa]
        0x0000414c:    8182        ..      STRH     r2,[r0,#0xc]
        0x0000414e:    4a03        .J      LDR      r2,[pc,#12] ; [0x415c] = 0xfffc0000
        0x00004150:    0389        ..      LSLS     r1,r1,#14
        0x00004152:    1889        ..      ADDS     r1,r1,r2
        0x00004154:    0c09        ..      LSRS     r1,r1,#16
        0x00004156:    81c1        ..      STRH     r1,[r0,#0xe]
        0x00004158:    4770        pG      BX       lr
    $d
        0x0000415a:    0000        ..      DCW    0
        0x0000415c:    fffc0000    ....    DCD    4294705152
    $t
    i.rt_mbx_psh
    rt_mbx_psh
        0x00004160:    b5f8        ..      PUSH     {r3-r7,lr}
        0x00004162:    4604        .F      MOV      r4,r0
        0x00004164:    6840        @h      LDR      r0,[r0,#4]
        0x00004166:    2700        .'      MOVS     r7,#0
        0x00004168:    460d        .F      MOV      r5,r1
        0x0000416a:    2800        .(      CMP      r0,#0
        0x0000416c:    d044        D.      BEQ      0x41f8 ; rt_mbx_psh + 152
        0x0000416e:    7860        `x      LDRB     r0,[r4,#1]
        0x00004170:    2601        .&      MOVS     r6,#1
        0x00004172:    2801        .(      CMP      r0,#1
        0x00004174:    d037        7.      BEQ      0x41e6 ; rt_mbx_psh + 134
        0x00004176:    2802        .(      CMP      r0,#2
        0x00004178:    d013        ..      BEQ      0x41a2 ; rt_mbx_psh + 66
        0x0000417a:    2803        .(      CMP      r0,#3
        0x0000417c:    d132        2.      BNE      0x41e4 ; rt_mbx_psh + 132
        0x0000417e:    4608        .F      MOV      r0,r1
        0x00004180:    f7fffe23    ..#.    BL       rt_alloc_box ; 0x3dca
        0x00004184:    0005        ..      MOVS     r5,r0
        0x00004186:    d02d        -.      BEQ      0x41e4 ; rt_mbx_psh + 132
        0x00004188:    4620         F      MOV      r0,r4
        0x0000418a:    f7ffff40    ..@.    BL       rt_get_first ; 0x400e
        0x0000418e:    4604        .F      MOV      r4,r0
        0x00004190:    4629        )F      MOV      r1,r5
        0x00004192:    f000fa43    ..C.    BL       rt_ret_val ; 0x461c
        0x00004196:    7066        fp      STRB     r6,[r4,#1]
        0x00004198:    4620         F      MOV      r0,r4
        0x0000419a:    f000fa46    ..F.    BL       rt_rmv_dly ; 0x462a
        0x0000419e:    4621        !F      MOV      r1,r4
        0x000041a0:    e01d        ..      B        0x41de ; rt_mbx_psh + 126
        0x000041a2:    4620         F      MOV      r0,r4
        0x000041a4:    f7ffff33    ..3.    BL       rt_get_first ; 0x400e
        0x000041a8:    4605        .F      MOV      r5,r0
        0x000041aa:    2100        .!      MOVS     r1,#0
        0x000041ac:    f000fa36    ..6.    BL       rt_ret_val ; 0x461c
        0x000041b0:    8921        !.      LDRH     r1,[r4,#8]
        0x000041b2:    69e8        .i      LDR      r0,[r5,#0x1c]
        0x000041b4:    0089        ..      LSLS     r1,r1,#2
        0x000041b6:    1909        ..      ADDS     r1,r1,r4
        0x000041b8:    6108        .a      STR      r0,[r1,#0x10]
        0x000041ba:    b672        r.      CPSID    i
        0x000041bc:    89a0        ..      LDRH     r0,[r4,#0xc]
        0x000041be:    1c40        @.      ADDS     r0,r0,#1
        0x000041c0:    81a0        ..      STRH     r0,[r4,#0xc]
        0x000041c2:    b662        b.      CPSIE    i
        0x000041c4:    8920         .      LDRH     r0,[r4,#8]
        0x000041c6:    1c40        @.      ADDS     r0,r0,#1
        0x000041c8:    b280        ..      UXTH     r0,r0
        0x000041ca:    8120         .      STRH     r0,[r4,#8]
        0x000041cc:    89e1        ..      LDRH     r1,[r4,#0xe]
        0x000041ce:    4288        .B      CMP      r0,r1
        0x000041d0:    d100        ..      BNE      0x41d4 ; rt_mbx_psh + 116
        0x000041d2:    8127        '.      STRH     r7,[r4,#8]
        0x000041d4:    706e        np      STRB     r6,[r5,#1]
        0x000041d6:    4628        (F      MOV      r0,r5
        0x000041d8:    f000fa27    ..'.    BL       rt_rmv_dly ; 0x462a
        0x000041dc:    4629        )F      MOV      r1,r5
        0x000041de:    4813        .H      LDR      r0,[pc,#76] ; [0x422c] = 0x20002b9c
        0x000041e0:    f000f9dc    ....    BL       rt_put_prio ; 0x459c
        0x000041e4:    bdf8        ..      POP      {r3-r7,pc}
        0x000041e6:    4620         F      MOV      r0,r4
        0x000041e8:    f7ffff11    ....    BL       rt_get_first ; 0x400e
        0x000041ec:    4604        .F      MOV      r4,r0
        0x000041ee:    462a        *F      MOV      r2,r5
        0x000041f0:    2110        .!      MOVS     r1,#0x10
        0x000041f2:    f000fa16    ....    BL       rt_ret_val2 ; 0x4622
        0x000041f6:    e7ce        ..      B        0x4196 ; rt_mbx_psh + 54
        0x000041f8:    89a0        ..      LDRH     r0,[r4,#0xc]
        0x000041fa:    89e1        ..      LDRH     r1,[r4,#0xe]
        0x000041fc:    4288        .B      CMP      r0,r1
        0x000041fe:    d211        ..      BCS      0x4224 ; rt_mbx_psh + 196
        0x00004200:    8920         .      LDRH     r0,[r4,#8]
        0x00004202:    0080        ..      LSLS     r0,r0,#2
        0x00004204:    1900        ..      ADDS     r0,r0,r4
        0x00004206:    6105        .a      STR      r5,[r0,#0x10]
        0x00004208:    b672        r.      CPSID    i
        0x0000420a:    89a0        ..      LDRH     r0,[r4,#0xc]
        0x0000420c:    1c40        @.      ADDS     r0,r0,#1
        0x0000420e:    81a0        ..      STRH     r0,[r4,#0xc]
        0x00004210:    b662        b.      CPSIE    i
        0x00004212:    8920         .      LDRH     r0,[r4,#8]
        0x00004214:    1c40        @.      ADDS     r0,r0,#1
        0x00004216:    b280        ..      UXTH     r0,r0
        0x00004218:    8120         .      STRH     r0,[r4,#8]
        0x0000421a:    89e1        ..      LDRH     r1,[r4,#0xe]
        0x0000421c:    4288        .B      CMP      r0,r1
        0x0000421e:    d1e1        ..      BNE      0x41e4 ; rt_mbx_psh + 132
        0x00004220:    8127        '.      STRH     r7,[r4,#8]
        0x00004222:    bdf8        ..      POP      {r3-r7,pc}
        0x00004224:    2003        .       MOVS     r0,#3
        0x00004226:    f7fffd5f    .._.    BL       os_error ; 0x3ce8
        0x0000422a:    bdf8        ..      POP      {r3-r7,pc}
    $d
        0x0000422c:    20002b9c    .+.     DCD    536882076
    $t
    i.rt_mbx_wait
    rt_mbx_wait
        0x00004230:    b570        p.      PUSH     {r4-r6,lr}
        0x00004232:    4604        .F      MOV      r4,r0
        0x00004234:    8980        ..      LDRH     r0,[r0,#0xc]
        0x00004236:    2600        .&      MOVS     r6,#0
        0x00004238:    4615        .F      MOV      r5,r2
        0x0000423a:    2800        .(      CMP      r0,#0
        0x0000423c:    d034        4.      BEQ      0x42a8 ; rt_mbx_wait + 120
        0x0000423e:    8960        `.      LDRH     r0,[r4,#0xa]
        0x00004240:    0080        ..      LSLS     r0,r0,#2
        0x00004242:    1900        ..      ADDS     r0,r0,r4
        0x00004244:    6900        .i      LDR      r0,[r0,#0x10]
        0x00004246:    6008        .`      STR      r0,[r1,#0]
        0x00004248:    8960        `.      LDRH     r0,[r4,#0xa]
        0x0000424a:    1c40        @.      ADDS     r0,r0,#1
        0x0000424c:    b280        ..      UXTH     r0,r0
        0x0000424e:    8160        `.      STRH     r0,[r4,#0xa]
        0x00004250:    89e1        ..      LDRH     r1,[r4,#0xe]
        0x00004252:    4288        .B      CMP      r0,r1
        0x00004254:    d100        ..      BNE      0x4258 ; rt_mbx_wait + 40
        0x00004256:    8166        f.      STRH     r6,[r4,#0xa]
        0x00004258:    6860        `h      LDR      r0,[r4,#4]
        0x0000425a:    2800        .(      CMP      r0,#0
        0x0000425c:    d002        ..      BEQ      0x4264 ; rt_mbx_wait + 52
        0x0000425e:    7860        `x      LDRB     r0,[r4,#1]
        0x00004260:    2802        .(      CMP      r0,#2
        0x00004262:    d006        ..      BEQ      0x4272 ; rt_mbx_wait + 66
        0x00004264:    b672        r.      CPSID    i
        0x00004266:    89a0        ..      LDRH     r0,[r4,#0xc]
        0x00004268:    1e40        @.      SUBS     r0,r0,#1
        0x0000426a:    81a0        ..      STRH     r0,[r4,#0xc]
        0x0000426c:    b662        b.      CPSIE    i
        0x0000426e:    2000        .       MOVS     r0,#0
        0x00004270:    bd70        p.      POP      {r4-r6,pc}
        0x00004272:    4620         F      MOV      r0,r4
        0x00004274:    f7fffecb    ....    BL       rt_get_first ; 0x400e
        0x00004278:    4605        .F      MOV      r5,r0
        0x0000427a:    2100        .!      MOVS     r1,#0
        0x0000427c:    f000f9ce    ....    BL       rt_ret_val ; 0x461c
        0x00004280:    8921        !.      LDRH     r1,[r4,#8]
        0x00004282:    69e8        .i      LDR      r0,[r5,#0x1c]
        0x00004284:    0089        ..      LSLS     r1,r1,#2
        0x00004286:    1909        ..      ADDS     r1,r1,r4
        0x00004288:    6108        .a      STR      r0,[r1,#0x10]
        0x0000428a:    8920         .      LDRH     r0,[r4,#8]
        0x0000428c:    1c40        @.      ADDS     r0,r0,#1
        0x0000428e:    b280        ..      UXTH     r0,r0
        0x00004290:    8120         .      STRH     r0,[r4,#8]
        0x00004292:    89e1        ..      LDRH     r1,[r4,#0xe]
        0x00004294:    4288        .B      CMP      r0,r1
        0x00004296:    d100        ..      BNE      0x429a ; rt_mbx_wait + 106
        0x00004298:    8126        &.      STRH     r6,[r4,#8]
        0x0000429a:    4628        (F      MOV      r0,r5
        0x0000429c:    f000f9c5    ....    BL       rt_rmv_dly ; 0x462a
        0x000042a0:    4628        (F      MOV      r0,r5
        0x000042a2:    f7fffe3b    ..;.    BL       rt_dispatch ; 0x3f1c
        0x000042a6:    e7e2        ..      B        0x426e ; rt_mbx_wait + 62
        0x000042a8:    2d00        .-      CMP      r5,#0
        0x000042aa:    d008        ..      BEQ      0x42be ; rt_mbx_wait + 142
        0x000042ac:    480b        .H      LDR      r0,[pc,#44] ; [0x42dc] = 0x200000b4
        0x000042ae:    6862        bh      LDR      r2,[r4,#4]
        0x000042b0:    6801        .h      LDR      r1,[r0,#0]
        0x000042b2:    2a00        .*      CMP      r2,#0
        0x000042b4:    d005        ..      BEQ      0x42c2 ; rt_mbx_wait + 146
        0x000042b6:    4620         F      MOV      r0,r4
        0x000042b8:    f000f970    ..p.    BL       rt_put_prio ; 0x459c
        0x000042bc:    e008        ..      B        0x42d0 ; rt_mbx_wait + 160
        0x000042be:    2001        .       MOVS     r0,#1
        0x000042c0:    bd70        p.      POP      {r4-r6,pc}
        0x000042c2:    6061        a`      STR      r1,[r4,#4]
        0x000042c4:    6801        .h      LDR      r1,[r0,#0]
        0x000042c6:    604e        N`      STR      r6,[r1,#4]
        0x000042c8:    6800        .h      LDR      r0,[r0,#0]
        0x000042ca:    6084        .`      STR      r4,[r0,#8]
        0x000042cc:    2001        .       MOVS     r0,#1
        0x000042ce:    7060        `p      STRB     r0,[r4,#1]
        0x000042d0:    2108        .!      MOVS     r1,#8
        0x000042d2:    4628        (F      MOV      r0,r5
        0x000042d4:    f7fffdaa    ....    BL       rt_block ; 0x3e2c
        0x000042d8:    e7f1        ..      B        0x42be ; rt_mbx_wait + 142
    $d
        0x000042da:    0000        ..      DCW    0
        0x000042dc:    200000b4    ...     DCD    536871092
    $t
    i.rt_ms2tick
    rt_ms2tick
        0x000042e0:    b510        ..      PUSH     {r4,lr}
        0x000042e2:    2800        .(      CMP      r0,#0
        0x000042e4:    d012        ..      BEQ      0x430c ; rt_ms2tick + 44
        0x000042e6:    1c41        A.      ADDS     r1,r0,#1
        0x000042e8:    d011        ..      BEQ      0x430e ; rt_ms2tick + 46
        0x000042ea:    490b        .I      LDR      r1,[pc,#44] ; [0x4318] = 0x3d0900
        0x000042ec:    4c0b        .L      LDR      r4,[pc,#44] ; [0x431c] = 0xfffe
        0x000042ee:    4288        .B      CMP      r0,r1
        0x000042f0:    d80b        ..      BHI      0x430a ; rt_ms2tick + 42
        0x000042f2:    217d        }!      MOVS     r1,#0x7d
        0x000042f4:    00c9        ..      LSLS     r1,r1,#3
        0x000042f6:    4348        HC      MULS     r0,r1,r0
        0x000042f8:    4909        .I      LDR      r1,[pc,#36] ; [0x4320] = 0x5034
        0x000042fa:    680a        .h      LDR      r2,[r1,#0]
        0x000042fc:    1880        ..      ADDS     r0,r0,r2
        0x000042fe:    4611        .F      MOV      r1,r2
        0x00004300:    1e40        @.      SUBS     r0,r0,#1
        0x00004302:    f7fcfa8f    ....    BL       __aeabi_uidiv ; 0x824
        0x00004306:    42a0        .B      CMP      r0,r4
        0x00004308:    d904        ..      BLS      0x4314 ; rt_ms2tick + 52
        0x0000430a:    4620         F      MOV      r0,r4
        0x0000430c:    bd10        ..      POP      {r4,pc}
        0x0000430e:    4803        .H      LDR      r0,[pc,#12] ; [0x431c] = 0xfffe
        0x00004310:    1c40        @.      ADDS     r0,r0,#1
        0x00004312:    bd10        ..      POP      {r4,pc}
        0x00004314:    b280        ..      UXTH     r0,r0
        0x00004316:    bd10        ..      POP      {r4,pc}
    $d
        0x00004318:    003d0900    ..=.    DCD    4000000
        0x0000431c:    0000fffe    ....    DCD    65534
        0x00004320:    00005034    4P..    DCD    20532
    $t
    i.rt_mut_release
    rt_mut_release
        0x00004324:    b5f8        ..      PUSH     {r3-r7,lr}
        0x00004326:    4604        .F      MOV      r4,r0
        0x00004328:    8840        @.      LDRH     r0,[r0,#2]
        0x0000432a:    2800        .(      CMP      r0,#0
        0x0000432c:    d004        ..      BEQ      0x4338 ; rt_mut_release + 20
        0x0000432e:    4d31        1M      LDR      r5,[pc,#196] ; [0x43f4] = 0x200000b4
        0x00004330:    68a1        .h      LDR      r1,[r4,#8]
        0x00004332:    682a        *h      LDR      r2,[r5,#0]
        0x00004334:    4291        .B      CMP      r1,r2
        0x00004336:    d001        ..      BEQ      0x433c ; rt_mut_release + 24
        0x00004338:    20ff        .       MOVS     r0,#0xff
        0x0000433a:    bdf8        ..      POP      {r3-r7,pc}
        0x0000433c:    1e40        @.      SUBS     r0,r0,#1
        0x0000433e:    0400        ..      LSLS     r0,r0,#16
        0x00004340:    0c00        ..      LSRS     r0,r0,#16
        0x00004342:    8060        `.      STRH     r0,[r4,#2]
        0x00004344:    d153        S.      BNE      0x43ee ; rt_mut_release + 202
        0x00004346:    6829        )h      LDR      r1,[r5,#0]
        0x00004348:    6a08        .j      LDR      r0,[r1,#0x20]
        0x0000434a:    42a0        .B      CMP      r0,r4
        0x0000434c:    d109        ..      BNE      0x4362 ; rt_mut_release + 62
        0x0000434e:    68e0        .h      LDR      r0,[r4,#0xc]
        0x00004350:    6208        .b      STR      r0,[r1,#0x20]
        0x00004352:    e008        ..      B        0x4366 ; rt_mut_release + 66
        0x00004354:    68c2        .h      LDR      r2,[r0,#0xc]
        0x00004356:    42a2        .B      CMP      r2,r4
        0x00004358:    d102        ..      BNE      0x4360 ; rt_mut_release + 60
        0x0000435a:    68e2        .h      LDR      r2,[r4,#0xc]
        0x0000435c:    60c2        .`      STR      r2,[r0,#0xc]
        0x0000435e:    e002        ..      B        0x4366 ; rt_mut_release + 66
        0x00004360:    4610        .F      MOV      r0,r2
        0x00004362:    2800        .(      CMP      r0,#0
        0x00004364:    d1f6        ..      BNE      0x4354 ; rt_mut_release + 48
        0x00004366:    2024        $       MOVS     r0,#0x24
        0x00004368:    5c40        @\      LDRB     r0,[r0,r1]
        0x0000436a:    6a0a        .j      LDR      r2,[r1,#0x20]
        0x0000436c:    e007        ..      B        0x437e ; rt_mut_release + 90
        0x0000436e:    6853        Sh      LDR      r3,[r2,#4]
        0x00004370:    2b00        .+      CMP      r3,#0
        0x00004372:    d003        ..      BEQ      0x437c ; rt_mut_release + 88
        0x00004374:    789b        .x      LDRB     r3,[r3,#2]
        0x00004376:    4283        .B      CMP      r3,r0
        0x00004378:    d900        ..      BLS      0x437c ; rt_mut_release + 88
        0x0000437a:    4618        .F      MOV      r0,r3
        0x0000437c:    68d2        .h      LDR      r2,[r2,#0xc]
        0x0000437e:    2a00        .*      CMP      r2,#0
        0x00004380:    d1f5        ..      BNE      0x436e ; rt_mut_release + 74
        0x00004382:    7088        .p      STRB     r0,[r1,#2]
        0x00004384:    6861        ah      LDR      r1,[r4,#4]
        0x00004386:    2601        .&      MOVS     r6,#1
        0x00004388:    2900        .)      CMP      r1,#0
        0x0000438a:    d022        ".      BEQ      0x43d2 ; rt_mut_release + 174
        0x0000438c:    4620         F      MOV      r0,r4
        0x0000438e:    f7fffe3e    ..>.    BL       rt_get_first ; 0x400e
        0x00004392:    4607        .F      MOV      r7,r0
        0x00004394:    2100        .!      MOVS     r1,#0
        0x00004396:    f000f941    ..A.    BL       rt_ret_val ; 0x461c
        0x0000439a:    4638        8F      MOV      r0,r7
        0x0000439c:    f000f945    ..E.    BL       rt_rmv_dly ; 0x462a
        0x000043a0:    8066        f.      STRH     r6,[r4,#2]
        0x000043a2:    60a7        .`      STR      r7,[r4,#8]
        0x000043a4:    6a38        8j      LDR      r0,[r7,#0x20]
        0x000043a6:    60e0        .`      STR      r0,[r4,#0xc]
        0x000043a8:    623c        <b      STR      r4,[r7,#0x20]
        0x000043aa:    4813        .H      LDR      r0,[pc,#76] ; [0x43f8] = 0x20002b9c
        0x000043ac:    6829        )h      LDR      r1,[r5,#0]
        0x000043ae:    6840        @h      LDR      r0,[r0,#4]
        0x000043b0:    788a        .x      LDRB     r2,[r1,#2]
        0x000043b2:    7880        .x      LDRB     r0,[r0,#2]
        0x000043b4:    4282        .B      CMP      r2,r0
        0x000043b6:    d301        ..      BCC      0x43bc ; rt_mut_release + 152
        0x000043b8:    4638        8F      MOV      r0,r7
        0x000043ba:    e016        ..      B        0x43ea ; rt_mut_release + 198
        0x000043bc:    480e        .H      LDR      r0,[pc,#56] ; [0x43f8] = 0x20002b9c
        0x000043be:    f000f8ed    ....    BL       rt_put_prio ; 0x459c
        0x000043c2:    4639        9F      MOV      r1,r7
        0x000043c4:    480c        .H      LDR      r0,[pc,#48] ; [0x43f8] = 0x20002b9c
        0x000043c6:    f000f8e9    ....    BL       rt_put_prio ; 0x459c
        0x000043ca:    6828        (h      LDR      r0,[r5,#0]
        0x000043cc:    7046        Fp      STRB     r6,[r0,#1]
        0x000043ce:    707e        ~p      STRB     r6,[r7,#1]
        0x000043d0:    e00a        ..      B        0x43e8 ; rt_mut_release + 196
        0x000043d2:    4909        .I      LDR      r1,[pc,#36] ; [0x43f8] = 0x20002b9c
        0x000043d4:    6849        Ih      LDR      r1,[r1,#4]
        0x000043d6:    788a        .x      LDRB     r2,[r1,#2]
        0x000043d8:    6829        )h      LDR      r1,[r5,#0]
        0x000043da:    4282        .B      CMP      r2,r0
        0x000043dc:    d907        ..      BLS      0x43ee ; rt_mut_release + 202
        0x000043de:    4806        .H      LDR      r0,[pc,#24] ; [0x43f8] = 0x20002b9c
        0x000043e0:    f000f8dc    ....    BL       rt_put_prio ; 0x459c
        0x000043e4:    6828        (h      LDR      r0,[r5,#0]
        0x000043e6:    7046        Fp      STRB     r6,[r0,#1]
        0x000043e8:    2000        .       MOVS     r0,#0
        0x000043ea:    f7fffd97    ....    BL       rt_dispatch ; 0x3f1c
        0x000043ee:    2000        .       MOVS     r0,#0
        0x000043f0:    bdf8        ..      POP      {r3-r7,pc}
    $d
        0x000043f2:    0000        ..      DCW    0
        0x000043f4:    200000b4    ...     DCD    536871092
        0x000043f8:    20002b9c    .+.     DCD    536882076
    $t
    i.rt_mut_wait
    rt_mut_wait
        0x000043fc:    b570        p.      PUSH     {r4-r6,lr}
        0x000043fe:    460e        .F      MOV      r6,r1
        0x00004400:    4d1c        .M      LDR      r5,[pc,#112] ; [0x4474] = 0x200000b4
        0x00004402:    4604        .F      MOV      r4,r0
        0x00004404:    8841        A.      LDRH     r1,[r0,#2]
        0x00004406:    6828        (h      LDR      r0,[r5,#0]
        0x00004408:    2900        .)      CMP      r1,#0
        0x0000440a:    d007        ..      BEQ      0x441c ; rt_mut_wait + 32
        0x0000440c:    68a2        .h      LDR      r2,[r4,#8]
        0x0000440e:    4282        .B      CMP      r2,r0
        0x00004410:    d10f        ..      BNE      0x4432 ; rt_mut_wait + 54
        0x00004412:    4819        .H      LDR      r0,[pc,#100] ; [0x4478] = 0xffff
        0x00004414:    4281        .B      CMP      r1,r0
        0x00004416:    d108        ..      BNE      0x442a ; rt_mut_wait + 46
        0x00004418:    20ff        .       MOVS     r0,#0xff
        0x0000441a:    bd70        p.      POP      {r4-r6,pc}
        0x0000441c:    60a0        .`      STR      r0,[r4,#8]
        0x0000441e:    6a01        .j      LDR      r1,[r0,#0x20]
        0x00004420:    60e1        .`      STR      r1,[r4,#0xc]
        0x00004422:    6204        .b      STR      r4,[r0,#0x20]
        0x00004424:    2001        .       MOVS     r0,#1
        0x00004426:    8060        `.      STRH     r0,[r4,#2]
        0x00004428:    e001        ..      B        0x442e ; rt_mut_wait + 50
        0x0000442a:    1c49        I.      ADDS     r1,r1,#1
        0x0000442c:    8061        a.      STRH     r1,[r4,#2]
        0x0000442e:    2000        .       MOVS     r0,#0
        0x00004430:    bd70        p.      POP      {r4-r6,pc}
        0x00004432:    2e00        ..      CMP      r6,#0
        0x00004434:    d00f        ..      BEQ      0x4456 ; rt_mut_wait + 90
        0x00004436:    7891        .x      LDRB     r1,[r2,#2]
        0x00004438:    7880        .x      LDRB     r0,[r0,#2]
        0x0000443a:    4281        .B      CMP      r1,r0
        0x0000443c:    d203        ..      BCS      0x4446 ; rt_mut_wait + 74
        0x0000443e:    7090        .p      STRB     r0,[r2,#2]
        0x00004440:    68a0        .h      LDR      r0,[r4,#8]
        0x00004442:    f000f8d3    ....    BL       rt_resort_prio ; 0x45ec
        0x00004446:    6860        `h      LDR      r0,[r4,#4]
        0x00004448:    2800        .(      CMP      r0,#0
        0x0000444a:    d006        ..      BEQ      0x445a ; rt_mut_wait + 94
        0x0000444c:    4620         F      MOV      r0,r4
        0x0000444e:    6829        )h      LDR      r1,[r5,#0]
        0x00004450:    f000f8a4    ....    BL       rt_put_prio ; 0x459c
        0x00004454:    e008        ..      B        0x4468 ; rt_mut_wait + 108
        0x00004456:    2001        .       MOVS     r0,#1
        0x00004458:    bd70        p.      POP      {r4-r6,pc}
        0x0000445a:    6828        (h      LDR      r0,[r5,#0]
        0x0000445c:    6060        ``      STR      r0,[r4,#4]
        0x0000445e:    6829        )h      LDR      r1,[r5,#0]
        0x00004460:    2000        .       MOVS     r0,#0
        0x00004462:    6048        H`      STR      r0,[r1,#4]
        0x00004464:    6828        (h      LDR      r0,[r5,#0]
        0x00004466:    6084        .`      STR      r4,[r0,#8]
        0x00004468:    2109        .!      MOVS     r1,#9
        0x0000446a:    4630        0F      MOV      r0,r6
        0x0000446c:    f7fffcde    ....    BL       rt_block ; 0x3e2c
        0x00004470:    e7f1        ..      B        0x4456 ; rt_mut_wait + 90
    $d
        0x00004472:    0000        ..      DCW    0
        0x00004474:    200000b4    ...     DCD    536871092
        0x00004478:    0000ffff    ....    DCD    65535
    $t
    i.rt_pop_req
    rt_pop_req
        0x0000447c:    b570        p.      PUSH     {r4-r6,lr}
        0x0000447e:    4818        .H      LDR      r0,[pc,#96] ; [0x44e0] = 0x200000b4
        0x00004480:    2101        .!      MOVS     r1,#1
        0x00004482:    6802        .h      LDR      r2,[r0,#0]
        0x00004484:    7051        Qp      STRB     r1,[r2,#1]
        0x00004486:    6800        .h      LDR      r0,[r0,#0]
        0x00004488:    f000f8a6    ....    BL       rt_put_rdy_first ; 0x45d8
        0x0000448c:    4c15        .L      LDR      r4,[pc,#84] ; [0x44e4] = 0x20002938
        0x0000448e:    7865        ex      LDRB     r5,[r4,#1]
        0x00004490:    e013        ..      B        0x44ba ; rt_pop_req + 62
        0x00004492:    00e8        ..      LSLS     r0,r5,#3
        0x00004494:    1901        ..      ADDS     r1,r0,r4
        0x00004496:    6848        Hh      LDR      r0,[r1,#4]
        0x00004498:    7802        .x      LDRB     r2,[r0,#0]
        0x0000449a:    2a00        .*      CMP      r2,#0
        0x0000449c:    d017        ..      BEQ      0x44ce ; rt_pop_req + 82
        0x0000449e:    2a01        .*      CMP      r2,#1
        0x000044a0:    d01a        ..      BEQ      0x44d8 ; rt_pop_req + 92
        0x000044a2:    f000f8f1    ....    BL       rt_sem_psh ; 0x4688
        0x000044a6:    78e0        .x      LDRB     r0,[r4,#3]
        0x000044a8:    1c6d        m.      ADDS     r5,r5,#1
        0x000044aa:    4285        .B      CMP      r5,r0
        0x000044ac:    d100        ..      BNE      0x44b0 ; rt_pop_req + 52
        0x000044ae:    2500        .%      MOVS     r5,#0
        0x000044b0:    b672        r.      CPSID    i
        0x000044b2:    78a0        .x      LDRB     r0,[r4,#2]
        0x000044b4:    1e40        @.      SUBS     r0,r0,#1
        0x000044b6:    70a0        .p      STRB     r0,[r4,#2]
        0x000044b8:    b662        b.      CPSIE    i
        0x000044ba:    78a0        .x      LDRB     r0,[r4,#2]
        0x000044bc:    2800        .(      CMP      r0,#0
        0x000044be:    d1e8        ..      BNE      0x4492 ; rt_pop_req + 22
        0x000044c0:    7065        ep      STRB     r5,[r4,#1]
        0x000044c2:    4809        .H      LDR      r0,[pc,#36] ; [0x44e8] = 0x20002b9c
        0x000044c4:    f7fffda3    ....    BL       rt_get_first ; 0x400e
        0x000044c8:    f000f90c    ....    BL       rt_switch_req ; 0x46e4
        0x000044cc:    bd70        p.      POP      {r4-r6,pc}
        0x000044ce:    8909        ..      LDRH     r1,[r1,#8]
        0x000044d0:    b289        ..      UXTH     r1,r1
        0x000044d2:    f7fffd49    ..I.    BL       rt_evt_psh ; 0x3f68
        0x000044d6:    e7e6        ..      B        0x44a6 ; rt_pop_req + 42
        0x000044d8:    6889        .h      LDR      r1,[r1,#8]
        0x000044da:    f7fffe41    ..A.    BL       rt_mbx_psh ; 0x4160
        0x000044de:    e7e2        ..      B        0x44a6 ; rt_pop_req + 42
    $d
        0x000044e0:    200000b4    ...     DCD    536871092
        0x000044e4:    20002938    8).     DCD    536881464
        0x000044e8:    20002b9c    .+.     DCD    536882076
    $t
    i.rt_psh_req
    rt_psh_req
        0x000044ec:    4805        .H      LDR      r0,[pc,#20] ; [0x4504] = 0x200000bc
        0x000044ee:    7801        .x      LDRB     r1,[r0,#0]
        0x000044f0:    2900        .)      CMP      r1,#0
        0x000044f2:    d002        ..      BEQ      0x44fa ; rt_psh_req + 14
        0x000044f4:    2101        .!      MOVS     r1,#1
        0x000044f6:    7041        Ap      STRB     r1,[r0,#1]
        0x000044f8:    4770        pG      BX       lr
        0x000044fa:    2001        .       MOVS     r0,#1
        0x000044fc:    4902        .I      LDR      r1,[pc,#8] ; [0x4508] = 0xe000ed00
        0x000044fe:    0700        ..      LSLS     r0,r0,#28
        0x00004500:    6048        H`      STR      r0,[r1,#4]
        0x00004502:    4770        pG      BX       lr
    $d
        0x00004504:    200000bc    ...     DCD    536871100
        0x00004508:    e000ed00    ....    DCD    3758157056
    $t
    i.rt_psq_enq
    rt_psq_enq
        0x0000450c:    b570        p.      PUSH     {r4-r6,lr}
        0x0000450e:    4b0e        .K      LDR      r3,[pc,#56] ; [0x4548] = 0x20002938
        0x00004510:    78dd        .x      LDRB     r5,[r3,#3]
        0x00004512:    1c9c        ..      ADDS     r4,r3,#2
        0x00004514:    461e        .F      MOV      r6,r3
        0x00004516:    b672        r.      CPSID    i
        0x00004518:    789a        .x      LDRB     r2,[r3,#2]
        0x0000451a:    42aa        .B      CMP      r2,r5
        0x0000451c:    d207        ..      BCS      0x452e ; rt_psq_enq + 34
        0x0000451e:    1c52        R.      ADDS     r2,r2,#1
        0x00004520:    7022        "p      STRB     r2,[r4,#0]
        0x00004522:    7832        2x      LDRB     r2,[r6,#0]
        0x00004524:    1c54        T.      ADDS     r4,r2,#1
        0x00004526:    42ac        .B      CMP      r4,r5
        0x00004528:    d100        ..      BNE      0x452c ; rt_psq_enq + 32
        0x0000452a:    2400        .$      MOVS     r4,#0
        0x0000452c:    7034        4p      STRB     r4,[r6,#0]
        0x0000452e:    b662        b.      CPSIE    i
        0x00004530:    78dc        .x      LDRB     r4,[r3,#3]
        0x00004532:    4294        .B      CMP      r4,r2
        0x00004534:    d904        ..      BLS      0x4540 ; rt_psq_enq + 52
        0x00004536:    00d2        ..      LSLS     r2,r2,#3
        0x00004538:    18d2        ..      ADDS     r2,r2,r3
        0x0000453a:    6091        .`      STR      r1,[r2,#8]
        0x0000453c:    6050        P`      STR      r0,[r2,#4]
        0x0000453e:    bd70        p.      POP      {r4-r6,pc}
        0x00004540:    2002        .       MOVS     r0,#2
        0x00004542:    f7fffbd1    ....    BL       os_error ; 0x3ce8
        0x00004546:    bd70        p.      POP      {r4-r6,pc}
    $d
        0x00004548:    20002938    8).     DCD    536881464
    $t
    i.rt_put_dly
    rt_put_dly
        0x0000454c:    b510        ..      PUSH     {r4,lr}
        0x0000454e:    4a12        .J      LDR      r2,[pc,#72] ; [0x4598] = 0x20002bb4
        0x00004550:    68d3        .h      LDR      r3,[r2,#0xc]
        0x00004552:    2b00        .+      CMP      r3,#0
        0x00004554:    d017        ..      BEQ      0x4586 ; rt_put_dly + 58
        0x00004556:    4613        .F      MOV      r3,r2
        0x00004558:    8a9b        ..      LDRH     r3,[r3,#0x14]
        0x0000455a:    e004        ..      B        0x4566 ; rt_put_dly + 26
        0x0000455c:    2c00        .,      CMP      r4,#0
        0x0000455e:    d012        ..      BEQ      0x4586 ; rt_put_dly + 58
        0x00004560:    4622        "F      MOV      r2,r4
        0x00004562:    8aa4        ..      LDRH     r4,[r4,#0x14]
        0x00004564:    18e3        ..      ADDS     r3,r4,r3
        0x00004566:    68d4        .h      LDR      r4,[r2,#0xc]
        0x00004568:    428b        .B      CMP      r3,r1
        0x0000456a:    d3f7        ..      BCC      0x455c ; rt_put_dly + 16
        0x0000456c:    60c4        .`      STR      r4,[r0,#0xc]
        0x0000456e:    60d0        .`      STR      r0,[r2,#0xc]
        0x00004570:    6102        .a      STR      r2,[r0,#0x10]
        0x00004572:    68c4        .h      LDR      r4,[r0,#0xc]
        0x00004574:    2c00        .,      CMP      r4,#0
        0x00004576:    d000        ..      BEQ      0x457a ; rt_put_dly + 46
        0x00004578:    6120         a      STR      r0,[r4,#0x10]
        0x0000457a:    1a59        Y.      SUBS     r1,r3,r1
        0x0000457c:    8281        ..      STRH     r1,[r0,#0x14]
        0x0000457e:    8a90        ..      LDRH     r0,[r2,#0x14]
        0x00004580:    1a40        @.      SUBS     r0,r0,r1
        0x00004582:    8290        ..      STRH     r0,[r2,#0x14]
        0x00004584:    bd10        ..      POP      {r4,pc}
        0x00004586:    2400        .$      MOVS     r4,#0
        0x00004588:    60c4        .`      STR      r4,[r0,#0xc]
        0x0000458a:    60d0        .`      STR      r0,[r2,#0xc]
        0x0000458c:    1ac9        ..      SUBS     r1,r1,r3
        0x0000458e:    6102        .a      STR      r2,[r0,#0x10]
        0x00004590:    8291        ..      STRH     r1,[r2,#0x14]
        0x00004592:    8284        ..      STRH     r4,[r0,#0x14]
        0x00004594:    bd10        ..      POP      {r4,pc}
    $d
        0x00004596:    0000        ..      DCW    0
        0x00004598:    20002bb4    .+.     DCD    536882100
    $t
    i.rt_put_prio
    rt_put_prio
        0x0000459c:    b530        0.      PUSH     {r4,r5,lr}
        0x0000459e:    7802        .x      LDRB     r2,[r0,#0]
        0x000045a0:    2300        .#      MOVS     r3,#0
        0x000045a2:    2a02        .*      CMP      r2,#2
        0x000045a4:    d003        ..      BEQ      0x45ae ; rt_put_prio + 18
        0x000045a6:    2a01        .*      CMP      r2,#1
        0x000045a8:    d001        ..      BEQ      0x45ae ; rt_put_prio + 18
        0x000045aa:    2a03        .*      CMP      r2,#3
        0x000045ac:    d100        ..      BNE      0x45b0 ; rt_put_prio + 20
        0x000045ae:    2301        .#      MOVS     r3,#1
        0x000045b0:    788c        .x      LDRB     r4,[r1,#2]
        0x000045b2:    e000        ..      B        0x45b6 ; rt_put_prio + 26
        0x000045b4:    4610        .F      MOV      r0,r2
        0x000045b6:    6842        Bh      LDR      r2,[r0,#4]
        0x000045b8:    2a00        .*      CMP      r2,#0
        0x000045ba:    d002        ..      BEQ      0x45c2 ; rt_put_prio + 38
        0x000045bc:    7895        .x      LDRB     r5,[r2,#2]
        0x000045be:    42a5        .B      CMP      r5,r4
        0x000045c0:    d2f8        ..      BCS      0x45b4 ; rt_put_prio + 24
        0x000045c2:    604a        J`      STR      r2,[r1,#4]
        0x000045c4:    6041        A`      STR      r1,[r0,#4]
        0x000045c6:    2b00        .+      CMP      r3,#0
        0x000045c8:    d004        ..      BEQ      0x45d4 ; rt_put_prio + 56
        0x000045ca:    2a00        .*      CMP      r2,#0
        0x000045cc:    d000        ..      BEQ      0x45d0 ; rt_put_prio + 52
        0x000045ce:    6091        .`      STR      r1,[r2,#8]
        0x000045d0:    6088        .`      STR      r0,[r1,#8]
        0x000045d2:    bd30        0.      POP      {r4,r5,pc}
        0x000045d4:    2000        .       MOVS     r0,#0
        0x000045d6:    e7fb        ..      B        0x45d0 ; rt_put_prio + 52
    i.rt_put_rdy_first
    rt_put_rdy_first
        0x000045d8:    4903        .I      LDR      r1,[pc,#12] ; [0x45e8] = 0x20002b9c
        0x000045da:    684a        Jh      LDR      r2,[r1,#4]
        0x000045dc:    6042        B`      STR      r2,[r0,#4]
        0x000045de:    2200        ."      MOVS     r2,#0
        0x000045e0:    6082        .`      STR      r2,[r0,#8]
        0x000045e2:    6048        H`      STR      r0,[r1,#4]
        0x000045e4:    4770        pG      BX       lr
    $d
        0x000045e6:    0000        ..      DCW    0
        0x000045e8:    20002b9c    .+.     DCD    536882076
    $t
    i.rt_resort_prio
    rt_resort_prio
        0x000045ec:    b510        ..      PUSH     {r4,lr}
        0x000045ee:    6883        .h      LDR      r3,[r0,#8]
        0x000045f0:    4604        .F      MOV      r4,r0
        0x000045f2:    2b00        .+      CMP      r3,#0
        0x000045f4:    d105        ..      BNE      0x4602 ; rt_resort_prio + 22
        0x000045f6:    7860        `x      LDRB     r0,[r4,#1]
        0x000045f8:    2801        .(      CMP      r0,#1
        0x000045fa:    d10c        ..      BNE      0x4616 ; rt_resort_prio + 42
        0x000045fc:    4b06        .K      LDR      r3,[pc,#24] ; [0x4618] = 0x20002b9c
        0x000045fe:    e003        ..      B        0x4608 ; rt_resort_prio + 28
        0x00004600:    689b        .h      LDR      r3,[r3,#8]
        0x00004602:    7818        .x      LDRB     r0,[r3,#0]
        0x00004604:    2800        .(      CMP      r0,#0
        0x00004606:    d0fb        ..      BEQ      0x4600 ; rt_resort_prio + 20
        0x00004608:    4620         F      MOV      r0,r4
        0x0000460a:    f000f823    ..#.    BL       rt_rmv_list ; 0x4654
        0x0000460e:    4621        !F      MOV      r1,r4
        0x00004610:    4618        .F      MOV      r0,r3
        0x00004612:    f7ffffc3    ....    BL       rt_put_prio ; 0x459c
        0x00004616:    bd10        ..      POP      {r4,pc}
    $d
        0x00004618:    20002b9c    .+.     DCD    536882076
    $t
    i.rt_ret_val
    rt_ret_val
        0x0000461c:    6a80        .j      LDR      r0,[r0,#0x28]
        0x0000461e:    6201        .b      STR      r1,[r0,#0x20]
        0x00004620:    4770        pG      BX       lr
    i.rt_ret_val2
    rt_ret_val2
        0x00004622:    6a80        .j      LDR      r0,[r0,#0x28]
        0x00004624:    6242        Bb      STR      r2,[r0,#0x24]
        0x00004626:    6201        .b      STR      r1,[r0,#0x20]
        0x00004628:    4770        pG      BX       lr
    i.rt_rmv_dly
    rt_rmv_dly
        0x0000462a:    b510        ..      PUSH     {r4,lr}
        0x0000462c:    6901        .i      LDR      r1,[r0,#0x10]
        0x0000462e:    2900        .)      CMP      r1,#0
        0x00004630:    d00f        ..      BEQ      0x4652 ; rt_rmv_dly + 40
        0x00004632:    68c2        .h      LDR      r2,[r0,#0xc]
        0x00004634:    60ca        .`      STR      r2,[r1,#0xc]
        0x00004636:    68c3        .h      LDR      r3,[r0,#0xc]
        0x00004638:    2200        ."      MOVS     r2,#0
        0x0000463a:    2b00        .+      CMP      r3,#0
        0x0000463c:    d007        ..      BEQ      0x464e ; rt_rmv_dly + 36
        0x0000463e:    8a8b        ..      LDRH     r3,[r1,#0x14]
        0x00004640:    8a84        ..      LDRH     r4,[r0,#0x14]
        0x00004642:    191b        ..      ADDS     r3,r3,r4
        0x00004644:    828b        ..      STRH     r3,[r1,#0x14]
        0x00004646:    68c3        .h      LDR      r3,[r0,#0xc]
        0x00004648:    6119        .a      STR      r1,[r3,#0x10]
        0x0000464a:    60c2        .`      STR      r2,[r0,#0xc]
        0x0000464c:    e000        ..      B        0x4650 ; rt_rmv_dly + 38
        0x0000464e:    828a        ..      STRH     r2,[r1,#0x14]
        0x00004650:    6102        .a      STR      r2,[r0,#0x10]
        0x00004652:    bd10        ..      POP      {r4,pc}
    i.rt_rmv_list
    rt_rmv_list
        0x00004654:    6881        .h      LDR      r1,[r0,#8]
        0x00004656:    2900        .)      CMP      r1,#0
        0x00004658:    d007        ..      BEQ      0x466a ; rt_rmv_list + 22
        0x0000465a:    6842        Bh      LDR      r2,[r0,#4]
        0x0000465c:    604a        J`      STR      r2,[r1,#4]
        0x0000465e:    6841        Ah      LDR      r1,[r0,#4]
        0x00004660:    2900        .)      CMP      r1,#0
        0x00004662:    d001        ..      BEQ      0x4668 ; rt_rmv_list + 20
        0x00004664:    6880        .h      LDR      r0,[r0,#8]
        0x00004666:    6088        .`      STR      r0,[r1,#8]
        0x00004668:    4770        pG      BX       lr
        0x0000466a:    4906        .I      LDR      r1,[pc,#24] ; [0x4684] = 0x20002b9c
        0x0000466c:    e006        ..      B        0x467c ; rt_rmv_list + 40
        0x0000466e:    684a        Jh      LDR      r2,[r1,#4]
        0x00004670:    4282        .B      CMP      r2,r0
        0x00004672:    d102        ..      BNE      0x467a ; rt_rmv_list + 38
        0x00004674:    6840        @h      LDR      r0,[r0,#4]
        0x00004676:    6048        H`      STR      r0,[r1,#4]
        0x00004678:    4770        pG      BX       lr
        0x0000467a:    4611        .F      MOV      r1,r2
        0x0000467c:    2900        .)      CMP      r1,#0
        0x0000467e:    d1f6        ..      BNE      0x466e ; rt_rmv_list + 26
        0x00004680:    4770        pG      BX       lr
    $d
        0x00004682:    0000        ..      DCW    0
        0x00004684:    20002b9c    .+.     DCD    536882076
    $t
    i.rt_sem_psh
    rt_sem_psh
        0x00004688:    b510        ..      PUSH     {r4,lr}
        0x0000468a:    6841        Ah      LDR      r1,[r0,#4]
        0x0000468c:    2900        .)      CMP      r1,#0
        0x0000468e:    d00f        ..      BEQ      0x46b0 ; rt_sem_psh + 40
        0x00004690:    f7fffcbd    ....    BL       rt_get_first ; 0x400e
        0x00004694:    4604        .F      MOV      r4,r0
        0x00004696:    f7ffffc8    ....    BL       rt_rmv_dly ; 0x462a
        0x0000469a:    2001        .       MOVS     r0,#1
        0x0000469c:    7060        `p      STRB     r0,[r4,#1]
        0x0000469e:    4601        .F      MOV      r1,r0
        0x000046a0:    4620         F      MOV      r0,r4
        0x000046a2:    f7ffffbb    ....    BL       rt_ret_val ; 0x461c
        0x000046a6:    4621        !F      MOV      r1,r4
        0x000046a8:    4803        .H      LDR      r0,[pc,#12] ; [0x46b8] = 0x20002b9c
        0x000046aa:    f7ffff77    ..w.    BL       rt_put_prio ; 0x459c
        0x000046ae:    bd10        ..      POP      {r4,pc}
        0x000046b0:    8841        A.      LDRH     r1,[r0,#2]
        0x000046b2:    1c49        I.      ADDS     r1,r1,#1
        0x000046b4:    8041        A.      STRH     r1,[r0,#2]
        0x000046b6:    bd10        ..      POP      {r4,pc}
    $d
        0x000046b8:    20002b9c    .+.     DCD    536882076
    $t
    i.rt_stk_check
    rt_stk_check
        0x000046bc:    b510        ..      PUSH     {r4,lr}
        0x000046be:    4807        .H      LDR      r0,[pc,#28] ; [0x46dc] = 0x200000b4
        0x000046c0:    6800        .h      LDR      r0,[r0,#0]
        0x000046c2:    6a81        .j      LDR      r1,[r0,#0x28]
        0x000046c4:    6ac0        .j      LDR      r0,[r0,#0x2c]
        0x000046c6:    4281        .B      CMP      r1,r0
        0x000046c8:    d303        ..      BCC      0x46d2 ; rt_stk_check + 22
        0x000046ca:    6800        .h      LDR      r0,[r0,#0]
        0x000046cc:    4904        .I      LDR      r1,[pc,#16] ; [0x46e0] = 0xe25a2ea5
        0x000046ce:    4288        .B      CMP      r0,r1
        0x000046d0:    d002        ..      BEQ      0x46d8 ; rt_stk_check + 28
        0x000046d2:    2001        .       MOVS     r0,#1
        0x000046d4:    f7fffb08    ....    BL       os_error ; 0x3ce8
        0x000046d8:    bd10        ..      POP      {r4,pc}
    $d
        0x000046da:    0000        ..      DCW    0
        0x000046dc:    200000b4    ...     DCD    536871092
        0x000046e0:    e25a2ea5    ..Z.    DCD    3797560997
    $t
    i.rt_switch_req
    rt_switch_req
        0x000046e4:    4902        .I      LDR      r1,[pc,#8] ; [0x46f0] = 0x200000b4
        0x000046e6:    6048        H`      STR      r0,[r1,#4]
        0x000046e8:    2102        .!      MOVS     r1,#2
        0x000046ea:    7041        Ap      STRB     r1,[r0,#1]
        0x000046ec:    4770        pG      BX       lr
    $d
        0x000046ee:    0000        ..      DCW    0
        0x000046f0:    200000b4    ...     DCD    536871092
    $t
    i.rt_sys_init
    rt_sys_init
        0x000046f4:    b570        p.      PUSH     {r4-r6,lr}
        0x000046f6:    2000        .       MOVS     r0,#0
        0x000046f8:    4604        .F      MOV      r4,r0
        0x000046fa:    4920         I      LDR      r1,[pc,#128] ; [0x477c] = 0x200029bc
        0x000046fc:    4a20         J      LDR      r2,[pc,#128] ; [0x4780] = 0x5018
        0x000046fe:    e002        ..      B        0x4706 ; rt_sys_init + 18
        0x00004700:    0083        ..      LSLS     r3,r0,#2
        0x00004702:    50cc        .P      STR      r4,[r1,r3]
        0x00004704:    1c40        @.      ADDS     r0,r0,#1
        0x00004706:    8813        ..      LDRH     r3,[r2,#0]
        0x00004708:    4298        .B      CMP      r0,r3
        0x0000470a:    d3f9        ..      BCC      0x4700 ; rt_sys_init + 12
        0x0000470c:    481d        .H      LDR      r0,[pc,#116] ; [0x4784] = 0x503c
        0x0000470e:    2234        4"      MOVS     r2,#0x34
        0x00004710:    8801        ..      LDRH     r1,[r0,#0]
        0x00004712:    481d        .H      LDR      r0,[pc,#116] ; [0x4788] = 0x200011b8
        0x00004714:    f7feff4a    ..J.    BL       _init_box ; 0x35ac
        0x00004718:    481c        .H      LDR      r0,[pc,#112] ; [0x478c] = 0x501c
        0x0000471a:    2101        .!      MOVS     r1,#1
        0x0000471c:    8800        ..      LDRH     r0,[r0,#0]
        0x0000471e:    07c9        ..      LSLS     r1,r1,#31
        0x00004720:    b280        ..      UXTH     r0,r0
        0x00004722:    1842        B.      ADDS     r2,r0,r1
        0x00004724:    481a        .H      LDR      r0,[pc,#104] ; [0x4790] = 0x5040
        0x00004726:    6801        .h      LDR      r1,[r0,#0]
        0x00004728:    481a        .H      LDR      r0,[pc,#104] ; [0x4794] = 0x20001260
        0x0000472a:    f7feff3f    ..?.    BL       _init_box ; 0x35ac
        0x0000472e:    481a        .H      LDR      r0,[pc,#104] ; [0x4798] = 0x5064
        0x00004730:    2208        ."      MOVS     r2,#8
        0x00004732:    8801        ..      LDRH     r1,[r0,#0]
        0x00004734:    4819        .H      LDR      r0,[pc,#100] ; [0x479c] = 0x20000070
        0x00004736:    6800        .h      LDR      r0,[r0,#0]
        0x00004738:    f7feff38    ..8.    BL       _init_box ; 0x35ac
        0x0000473c:    4d18        .M      LDR      r5,[pc,#96] ; [0x47a0] = 0x20002b68
        0x0000473e:    20ff        .       MOVS     r0,#0xff
        0x00004740:    70e8        .p      STRB     r0,[r5,#3]
        0x00004742:    84ec        ..      STRH     r4,[r5,#0x26]
        0x00004744:    4a17        .J      LDR      r2,[pc,#92] ; [0x47a4] = 0x3ceb
        0x00004746:    2100        .!      MOVS     r1,#0
        0x00004748:    4628        (F      MOV      r0,r5
        0x0000474a:    f7fffc79    ..y.    BL       rt_init_context ; 0x4040
        0x0000474e:    4816        .H      LDR      r0,[pc,#88] ; [0x47a8] = 0x20002b9c
        0x00004750:    2104        .!      MOVS     r1,#4
        0x00004752:    7001        .p      STRB     r1,[r0,#0]
        0x00004754:    6044        D`      STR      r4,[r0,#4]
        0x00004756:    4815        .H      LDR      r0,[pc,#84] ; [0x47ac] = 0x20002bb4
        0x00004758:    7001        .p      STRB     r1,[r0,#0]
        0x0000475a:    60c4        .`      STR      r4,[r0,#0xc]
        0x0000475c:    6104        .a      STR      r4,[r0,#0x10]
        0x0000475e:    8284        ..      STRH     r4,[r0,#0x14]
        0x00004760:    4813        .H      LDR      r0,[pc,#76] ; [0x47b0] = 0x200000b4
        0x00004762:    4915        .I      LDR      r1,[pc,#84] ; [0x47b8] = 0x5048
        0x00004764:    6005        .`      STR      r5,[r0,#0]
        0x00004766:    2002        .       MOVS     r0,#2
        0x00004768:    7068        hp      STRB     r0,[r5,#1]
        0x0000476a:    4812        .H      LDR      r0,[pc,#72] ; [0x47b4] = 0x20002938
        0x0000476c:    7004        .p      STRB     r4,[r0,#0]
        0x0000476e:    7044        Dp      STRB     r4,[r0,#1]
        0x00004770:    7809        .x      LDRB     r1,[r1,#0]
        0x00004772:    70c1        .p      STRB     r1,[r0,#3]
        0x00004774:    f7fffc96    ....    BL       rt_init_robin ; 0x40a4
        0x00004778:    bd70        p.      POP      {r4-r6,pc}
    $d
        0x0000477a:    0000        ..      DCW    0
        0x0000477c:    200029bc    .).     DCD    536881596
        0x00004780:    00005018    .P..    DCD    20504
        0x00004784:    0000503c    <P..    DCD    20540
        0x00004788:    200011b8    ...     DCD    536875448
        0x0000478c:    0000501c    .P..    DCD    20508
        0x00004790:    00005040    @P..    DCD    20544
        0x00004794:    20001260    `..     DCD    536875616
        0x00004798:    00005064    dP..    DCD    20580
        0x0000479c:    20000070    p..     DCD    536871024
        0x000047a0:    20002b68    h+.     DCD    536882024
        0x000047a4:    00003ceb    .<..    DCD    15595
        0x000047a8:    20002b9c    .+.     DCD    536882076
        0x000047ac:    20002bb4    .+.     DCD    536882100
        0x000047b0:    200000b4    ...     DCD    536871092
        0x000047b4:    20002938    8).     DCD    536881464
        0x000047b8:    00005048    HP..    DCD    20552
    $t
    i.rt_sys_start
    rt_sys_start
        0x000047bc:    b510        ..      PUSH     {r4,lr}
        0x000047be:    4814        .H      LDR      r0,[pc,#80] ; [0x4810] = 0xe000ed00
        0x000047c0:    6a01        .j      LDR      r1,[r0,#0x20]
        0x000047c2:    22ff        ."      MOVS     r2,#0xff
        0x000047c4:    0412        ..      LSLS     r2,r2,#16
        0x000047c6:    4311        .C      ORRS     r1,r1,r2
        0x000047c8:    6201        .b      STR      r1,[r0,#0x20]
        0x000047ca:    69c1        .i      LDR      r1,[r0,#0x1c]
        0x000047cc:    6a02        .j      LDR      r2,[r0,#0x20]
        0x000047ce:    0252        R.      LSLS     r2,r2,#9
        0x000047d0:    0e92        ..      LSRS     r2,r2,#26
        0x000047d2:    0692        ..      LSLS     r2,r2,#26
        0x000047d4:    4311        .C      ORRS     r1,r1,r2
        0x000047d6:    61c1        .a      STR      r1,[r0,#0x1c]
        0x000047d8:    f7fffa88    ....    BL       os_tick_init ; 0x3cec
        0x000047dc:    490d        .I      LDR      r1,[pc,#52] ; [0x4814] = 0x200000c0
        0x000047de:    2800        .(      CMP      r0,#0
        0x000047e0:    6008        .`      STR      r0,[r1,#0]
        0x000047e2:    db13        ..      BLT      0x480c ; rt_sys_start + 80
        0x000047e4:    0882        ..      LSRS     r2,r0,#2
        0x000047e6:    490c        .I      LDR      r1,[pc,#48] ; [0x4818] = 0xe000e400
        0x000047e8:    0092        ..      LSLS     r2,r2,#2
        0x000047ea:    1851        Q.      ADDS     r1,r2,r1
        0x000047ec:    680a        .h      LDR      r2,[r1,#0]
        0x000047ee:    0783        ..      LSLS     r3,r0,#30
        0x000047f0:    0edc        ..      LSRS     r4,r3,#27
        0x000047f2:    23ff        .#      MOVS     r3,#0xff
        0x000047f4:    40a3        .@      LSLS     r3,r3,r4
        0x000047f6:    431a        .C      ORRS     r2,r2,r3
        0x000047f8:    600a        .`      STR      r2,[r1,#0]
        0x000047fa:    06c2        ..      LSLS     r2,r0,#27
        0x000047fc:    0ed2        ..      LSRS     r2,r2,#27
        0x000047fe:    2101        .!      MOVS     r1,#1
        0x00004800:    4091        .@      LSLS     r1,r1,r2
        0x00004802:    0940        @.      LSRS     r0,r0,#5
        0x00004804:    4a05        .J      LDR      r2,[pc,#20] ; [0x481c] = 0xe000e100
        0x00004806:    0080        ..      LSLS     r0,r0,#2
        0x00004808:    1880        ..      ADDS     r0,r0,r2
        0x0000480a:    6001        .`      STR      r1,[r0,#0]
        0x0000480c:    bd10        ..      POP      {r4,pc}
    $d
        0x0000480e:    0000        ..      DCW    0
        0x00004810:    e000ed00    ....    DCD    3758157056
        0x00004814:    200000c0    ...     DCD    536871104
        0x00004818:    e000e400    ....    DCD    3758154752
        0x0000481c:    e000e100    ....    DCD    3758153984
    $t
    i.rt_systick
    rt_systick
        0x00004820:    b510        ..      PUSH     {r4,lr}
        0x00004822:    480b        .H      LDR      r0,[pc,#44] ; [0x4850] = 0x200000b4
        0x00004824:    2101        .!      MOVS     r1,#1
        0x00004826:    6802        .h      LDR      r2,[r0,#0]
        0x00004828:    7051        Qp      STRB     r1,[r2,#1]
        0x0000482a:    6800        .h      LDR      r0,[r0,#0]
        0x0000482c:    f7fffed4    ....    BL       rt_put_rdy_first ; 0x45d8
        0x00004830:    f7fffb18    ....    BL       rt_chk_robin ; 0x3e64
        0x00004834:    4807        .H      LDR      r0,[pc,#28] ; [0x4854] = 0x200000c4
        0x00004836:    6801        .h      LDR      r1,[r0,#0]
        0x00004838:    1c49        I.      ADDS     r1,r1,#1
        0x0000483a:    6001        .`      STR      r1,[r0,#0]
        0x0000483c:    f7fffb34    ..4.    BL       rt_dec_dly ; 0x3ea8
        0x00004840:    f000fb72    ..r.    BL       sysTimerTick ; 0x4f28
        0x00004844:    4804        .H      LDR      r0,[pc,#16] ; [0x4858] = 0x20002b9c
        0x00004846:    f7fffbe2    ....    BL       rt_get_first ; 0x400e
        0x0000484a:    f7ffff4b    ..K.    BL       rt_switch_req ; 0x46e4
        0x0000484e:    bd10        ..      POP      {r4,pc}
    $d
        0x00004850:    200000b4    ...     DCD    536871092
        0x00004854:    200000c4    ...     DCD    536871108
        0x00004858:    20002b9c    .+.     DCD    536882076
    $t
    i.rt_tid2ptcb
    rt_tid2ptcb
        0x0000485c:    2800        .(      CMP      r0,#0
        0x0000485e:    d005        ..      BEQ      0x486c ; rt_tid2ptcb + 16
        0x00004860:    0781        ..      LSLS     r1,r0,#30
        0x00004862:    d102        ..      BNE      0x486a ; rt_tid2ptcb + 14
        0x00004864:    7801        .x      LDRB     r1,[r0,#0]
        0x00004866:    2900        .)      CMP      r1,#0
        0x00004868:    d000        ..      BEQ      0x486c ; rt_tid2ptcb + 16
        0x0000486a:    2000        .       MOVS     r0,#0
        0x0000486c:    4770        pG      BX       lr
        0x0000486e:    0000        ..      MOVS     r0,r0
    i.rt_timer_insert
    rt_timer_insert
        0x00004870:    b530        0.      PUSH     {r4,r5,lr}
        0x00004872:    4c0c        .L      LDR      r4,[pc,#48] ; [0x48a4] = 0x200000ac
        0x00004874:    2300        .#      MOVS     r3,#0
        0x00004876:    6862        bh      LDR      r2,[r4,#4]
        0x00004878:    e005        ..      B        0x4886 ; rt_timer_insert + 22
        0x0000487a:    6895        .h      LDR      r5,[r2,#8]
        0x0000487c:    428d        .B      CMP      r5,r1
        0x0000487e:    d804        ..      BHI      0x488a ; rt_timer_insert + 26
        0x00004880:    4613        .F      MOV      r3,r2
        0x00004882:    6812        .h      LDR      r2,[r2,#0]
        0x00004884:    1b49        I.      SUBS     r1,r1,r5
        0x00004886:    2a00        .*      CMP      r2,#0
        0x00004888:    d1f7        ..      BNE      0x487a ; rt_timer_insert + 10
        0x0000488a:    6002        .`      STR      r2,[r0,#0]
        0x0000488c:    6081        .`      STR      r1,[r0,#8]
        0x0000488e:    2a00        .*      CMP      r2,#0
        0x00004890:    d002        ..      BEQ      0x4898 ; rt_timer_insert + 40
        0x00004892:    6895        .h      LDR      r5,[r2,#8]
        0x00004894:    1a69        i.      SUBS     r1,r5,r1
        0x00004896:    6091        .`      STR      r1,[r2,#8]
        0x00004898:    2b00        .+      CMP      r3,#0
        0x0000489a:    d001        ..      BEQ      0x48a0 ; rt_timer_insert + 48
        0x0000489c:    6018        .`      STR      r0,[r3,#0]
        0x0000489e:    bd30        0.      POP      {r4,r5,pc}
        0x000048a0:    6060        ``      STR      r0,[r4,#4]
        0x000048a2:    bd30        0.      POP      {r4,r5,pc}
    $d
        0x000048a4:    200000ac    ...     DCD    536871084
    $t
    i.rt_timer_remove
    rt_timer_remove
        0x000048a8:    4b0f        .K      LDR      r3,[pc,#60] ; [0x48e8] = 0x200000ac
        0x000048aa:    2200        ."      MOVS     r2,#0
        0x000048ac:    6859        Yh      LDR      r1,[r3,#4]
        0x000048ae:    e003        ..      B        0x48b8 ; rt_timer_remove + 16
        0x000048b0:    4281        .B      CMP      r1,r0
        0x000048b2:    d004        ..      BEQ      0x48be ; rt_timer_remove + 22
        0x000048b4:    460a        .F      MOV      r2,r1
        0x000048b6:    6809        .h      LDR      r1,[r1,#0]
        0x000048b8:    2900        .)      CMP      r1,#0
        0x000048ba:    d1f9        ..      BNE      0x48b0 ; rt_timer_remove + 8
        0x000048bc:    e006        ..      B        0x48cc ; rt_timer_remove + 36
        0x000048be:    2900        .)      CMP      r1,#0
        0x000048c0:    d004        ..      BEQ      0x48cc ; rt_timer_remove + 36
        0x000048c2:    6801        .h      LDR      r1,[r0,#0]
        0x000048c4:    2a00        .*      CMP      r2,#0
        0x000048c6:    d004        ..      BEQ      0x48d2 ; rt_timer_remove + 42
        0x000048c8:    6011        .`      STR      r1,[r2,#0]
        0x000048ca:    e003        ..      B        0x48d4 ; rt_timer_remove + 44
        0x000048cc:    2000        .       MOVS     r0,#0
        0x000048ce:    43c0        .C      MVNS     r0,r0
        0x000048d0:    4770        pG      BX       lr
        0x000048d2:    6059        Y`      STR      r1,[r3,#4]
        0x000048d4:    6801        .h      LDR      r1,[r0,#0]
        0x000048d6:    2900        .)      CMP      r1,#0
        0x000048d8:    d003        ..      BEQ      0x48e2 ; rt_timer_remove + 58
        0x000048da:    688a        .h      LDR      r2,[r1,#8]
        0x000048dc:    6880        .h      LDR      r0,[r0,#8]
        0x000048de:    1810        ..      ADDS     r0,r2,r0
        0x000048e0:    6088        .`      STR      r0,[r1,#8]
        0x000048e2:    2000        .       MOVS     r0,#0
        0x000048e4:    4770        pG      BX       lr
    $d
        0x000048e6:    0000        ..      DCW    0
        0x000048e8:    200000ac    ...     DCD    536871084
    $t
    i.rt_tsk_create
    rt_tsk_create
        0x000048ec:    b5ff        ..      PUSH     {r0-r7,lr}
        0x000048ee:    0608        ..      LSLS     r0,r1,#24
        0x000048f0:    b081        ..      SUB      sp,sp,#4
        0x000048f2:    461e        .F      MOV      r6,r3
        0x000048f4:    4617        .F      MOV      r7,r2
        0x000048f6:    460d        .F      MOV      r5,r1
        0x000048f8:    0e00        ..      LSRS     r0,r0,#24
        0x000048fa:    d100        ..      BNE      0x48fe ; rt_tsk_create + 18
        0x000048fc:    1c4d        M.      ADDS     r5,r1,#1
        0x000048fe:    4816        .H      LDR      r0,[pc,#88] ; [0x4958] = 0x200011b8
        0x00004900:    f7fffa63    ..c.    BL       rt_alloc_box ; 0x3dca
        0x00004904:    1e04        ..      SUBS     r4,r0,#0
        0x00004906:    d018        ..      BEQ      0x493a ; rt_tsk_create + 78
        0x00004908:    0228        (.      LSLS     r0,r5,#8
        0x0000490a:    0c00        ..      LSRS     r0,r0,#16
        0x0000490c:    62e7        .b      STR      r7,[r4,#0x2c]
        0x0000490e:    84e0        ..      STRH     r0,[r4,#0x26]
        0x00004910:    61e6        .a      STR      r6,[r4,#0x1c]
        0x00004912:    b2e9        ..      UXTB     r1,r5
        0x00004914:    4620         F      MOV      r0,r4
        0x00004916:    9a01        ..      LDR      r2,[sp,#4]
        0x00004918:    f7fffb92    ....    BL       rt_init_context ; 0x4040
        0x0000491c:    2501        .%      MOVS     r5,#1
        0x0000491e:    480f        .H      LDR      r0,[pc,#60] ; [0x495c] = 0x200029bc
        0x00004920:    490f        .I      LDR      r1,[pc,#60] ; [0x4960] = 0x5018
        0x00004922:    e006        ..      B        0x4932 ; rt_tsk_create + 70
        0x00004924:    00aa        ..      LSLS     r2,r5,#2
        0x00004926:    1812        ..      ADDS     r2,r2,r0
        0x00004928:    3a80        .:      SUBS     r2,r2,#0x80
        0x0000492a:    6fd2        .o      LDR      r2,[r2,#0x7c]
        0x0000492c:    2a00        .*      CMP      r2,#0
        0x0000492e:    d006        ..      BEQ      0x493e ; rt_tsk_create + 82
        0x00004930:    1c6d        m.      ADDS     r5,r5,#1
        0x00004932:    880a        ..      LDRH     r2,[r1,#0]
        0x00004934:    4295        .B      CMP      r5,r2
        0x00004936:    d9f5        ..      BLS      0x4924 ; rt_tsk_create + 56
        0x00004938:    2000        .       MOVS     r0,#0
        0x0000493a:    b005        ..      ADD      sp,sp,#0x14
        0x0000493c:    bdf0        ..      POP      {r4-r7,pc}
        0x0000493e:    2d00        .-      CMP      r5,#0
        0x00004940:    d0fa        ..      BEQ      0x4938 ; rt_tsk_create + 76
        0x00004942:    00a9        ..      LSLS     r1,r5,#2
        0x00004944:    1808        ..      ADDS     r0,r1,r0
        0x00004946:    3880        .8      SUBS     r0,r0,#0x80
        0x00004948:    67c4        .g      STR      r4,[r0,#0x7c]
        0x0000494a:    70e5        .p      STRB     r5,[r4,#3]
        0x0000494c:    4620         F      MOV      r0,r4
        0x0000494e:    f7fffae5    ....    BL       rt_dispatch ; 0x3f1c
        0x00004952:    4628        (F      MOV      r0,r5
        0x00004954:    e7f1        ..      B        0x493a ; rt_tsk_create + 78
    $d
        0x00004956:    0000        ..      DCW    0
        0x00004958:    200011b8    ...     DCD    536875448
        0x0000495c:    200029bc    .).     DCD    536881596
        0x00004960:    00005018    .P..    DCD    20504
    $t
    i.rt_tsk_delete
    rt_tsk_delete
        0x00004964:    b5f8        ..      PUSH     {r3-r7,lr}
        0x00004966:    4d4f        OM      LDR      r5,[pc,#316] ; [0x4aa4] = 0x200000b4
        0x00004968:    2600        .&      MOVS     r6,#0
        0x0000496a:    6829        )h      LDR      r1,[r5,#0]
        0x0000496c:    2800        .(      CMP      r0,#0
        0x0000496e:    d002        ..      BEQ      0x4976 ; rt_tsk_delete + 18
        0x00004970:    78ca        .x      LDRB     r2,[r1,#3]
        0x00004972:    4282        .B      CMP      r2,r0
        0x00004974:    d13e        >.      BNE      0x49f4 ; rt_tsk_delete + 144
        0x00004976:    704e        Np      STRB     r6,[r1,#1]
        0x00004978:    f7fbfc41    ..A.    BL       rt_get_PSP ; 0x1fe
        0x0000497c:    6829        )h      LDR      r1,[r5,#0]
        0x0000497e:    6288        .b      STR      r0,[r1,#0x28]
        0x00004980:    f7fffe9c    ....    BL       rt_stk_check ; 0x46bc
        0x00004984:    6828        (h      LDR      r0,[r5,#0]
        0x00004986:    6a04        .j      LDR      r4,[r0,#0x20]
        0x00004988:    e020         .      B        0x49cc ; rt_tsk_delete + 104
        0x0000498a:    6860        `h      LDR      r0,[r4,#4]
        0x0000498c:    2800        .(      CMP      r0,#0
        0x0000498e:    d018        ..      BEQ      0x49c2 ; rt_tsk_delete + 94
        0x00004990:    4620         F      MOV      r0,r4
        0x00004992:    f7fffb3c    ..<.    BL       rt_get_first ; 0x400e
        0x00004996:    4607        .F      MOV      r7,r0
        0x00004998:    2100        .!      MOVS     r1,#0
        0x0000499a:    f7fffe3f    ..?.    BL       rt_ret_val ; 0x461c
        0x0000499e:    4638        8F      MOV      r0,r7
        0x000049a0:    f7fffe43    ..C.    BL       rt_rmv_dly ; 0x462a
        0x000049a4:    2001        .       MOVS     r0,#1
        0x000049a6:    7078        xp      STRB     r0,[r7,#1]
        0x000049a8:    4639        9F      MOV      r1,r7
        0x000049aa:    483f        ?H      LDR      r0,[pc,#252] ; [0x4aa8] = 0x20002b9c
        0x000049ac:    f7fffdf6    ....    BL       rt_put_prio ; 0x459c
        0x000049b0:    2001        .       MOVS     r0,#1
        0x000049b2:    68e1        .h      LDR      r1,[r4,#0xc]
        0x000049b4:    8060        `.      STRH     r0,[r4,#2]
        0x000049b6:    60a7        .`      STR      r7,[r4,#8]
        0x000049b8:    6a38        8j      LDR      r0,[r7,#0x20]
        0x000049ba:    60e0        .`      STR      r0,[r4,#0xc]
        0x000049bc:    623c        <b      STR      r4,[r7,#0x20]
        0x000049be:    460c        .F      MOV      r4,r1
        0x000049c0:    e004        ..      B        0x49cc ; rt_tsk_delete + 104
        0x000049c2:    68e0        .h      LDR      r0,[r4,#0xc]
        0x000049c4:    8066        f.      STRH     r6,[r4,#2]
        0x000049c6:    60a6        .`      STR      r6,[r4,#8]
        0x000049c8:    60e6        .`      STR      r6,[r4,#0xc]
        0x000049ca:    4604        .F      MOV      r4,r0
        0x000049cc:    2c00        .,      CMP      r4,#0
        0x000049ce:    d1dc        ..      BNE      0x498a ; rt_tsk_delete + 38
        0x000049d0:    6828        (h      LDR      r0,[r5,#0]
        0x000049d2:    78c1        .x      LDRB     r1,[r0,#3]
        0x000049d4:    008a        ..      LSLS     r2,r1,#2
        0x000049d6:    4935        5I      LDR      r1,[pc,#212] ; [0x4aac] = 0x200029bc
        0x000049d8:    1851        Q.      ADDS     r1,r2,r1
        0x000049da:    3980        .9      SUBS     r1,r1,#0x80
        0x000049dc:    67ce        .g      STR      r6,[r1,#0x7c]
        0x000049de:    6ac1        .j      LDR      r1,[r0,#0x2c]
        0x000049e0:    4833        3H      LDR      r0,[pc,#204] ; [0x4ab0] = 0x20001260
        0x000049e2:    f7fffae9    ....    BL       rt_free_box ; 0x3fb8
        0x000049e6:    6829        )h      LDR      r1,[r5,#0]
        0x000049e8:    4832        2H      LDR      r0,[pc,#200] ; [0x4ab4] = 0x200011b8
        0x000049ea:    62ce        .b      STR      r6,[r1,#0x2c]
        0x000049ec:    f7fffae4    ....    BL       rt_free_box ; 0x3fb8
        0x000049f0:    602e        .`      STR      r6,[r5,#0]
        0x000049f2:    e051        Q.      B        0x4a98 ; rt_tsk_delete + 308
        0x000049f4:    4930        0I      LDR      r1,[pc,#192] ; [0x4ab8] = 0x5018
        0x000049f6:    8809        ..      LDRH     r1,[r1,#0]
        0x000049f8:    4288        .B      CMP      r0,r1
        0x000049fa:    d80f        ..      BHI      0x4a1c ; rt_tsk_delete + 184
        0x000049fc:    0081        ..      LSLS     r1,r0,#2
        0x000049fe:    482b        +H      LDR      r0,[pc,#172] ; [0x4aac] = 0x200029bc
        0x00004a00:    1808        ..      ADDS     r0,r1,r0
        0x00004a02:    3880        .8      SUBS     r0,r0,#0x80
        0x00004a04:    9000        ..      STR      r0,[sp,#0]
        0x00004a06:    6fc5        .o      LDR      r5,[r0,#0x7c]
        0x00004a08:    2d00        .-      CMP      r5,#0
        0x00004a0a:    d007        ..      BEQ      0x4a1c ; rt_tsk_delete + 184
        0x00004a0c:    4628        (F      MOV      r0,r5
        0x00004a0e:    f7fffe21    ..!.    BL       rt_rmv_list ; 0x4654
        0x00004a12:    4628        (F      MOV      r0,r5
        0x00004a14:    f7fffe09    ....    BL       rt_rmv_dly ; 0x462a
        0x00004a18:    6a2c        ,j      LDR      r4,[r5,#0x20]
        0x00004a1a:    e022        ".      B        0x4a62 ; rt_tsk_delete + 254
        0x00004a1c:    20ff        .       MOVS     r0,#0xff
        0x00004a1e:    bdf8        ..      POP      {r3-r7,pc}
        0x00004a20:    6860        `h      LDR      r0,[r4,#4]
        0x00004a22:    2800        .(      CMP      r0,#0
        0x00004a24:    d018        ..      BEQ      0x4a58 ; rt_tsk_delete + 244
        0x00004a26:    4620         F      MOV      r0,r4
        0x00004a28:    f7fffaf1    ....    BL       rt_get_first ; 0x400e
        0x00004a2c:    4607        .F      MOV      r7,r0
        0x00004a2e:    2100        .!      MOVS     r1,#0
        0x00004a30:    f7fffdf4    ....    BL       rt_ret_val ; 0x461c
        0x00004a34:    4638        8F      MOV      r0,r7
        0x00004a36:    f7fffdf8    ....    BL       rt_rmv_dly ; 0x462a
        0x00004a3a:    2001        .       MOVS     r0,#1
        0x00004a3c:    7078        xp      STRB     r0,[r7,#1]
        0x00004a3e:    4639        9F      MOV      r1,r7
        0x00004a40:    4819        .H      LDR      r0,[pc,#100] ; [0x4aa8] = 0x20002b9c
        0x00004a42:    f7fffdab    ....    BL       rt_put_prio ; 0x459c
        0x00004a46:    2001        .       MOVS     r0,#1
        0x00004a48:    68e1        .h      LDR      r1,[r4,#0xc]
        0x00004a4a:    8060        `.      STRH     r0,[r4,#2]
        0x00004a4c:    60a7        .`      STR      r7,[r4,#8]
        0x00004a4e:    6a38        8j      LDR      r0,[r7,#0x20]
        0x00004a50:    60e0        .`      STR      r0,[r4,#0xc]
        0x00004a52:    623c        <b      STR      r4,[r7,#0x20]
        0x00004a54:    460c        .F      MOV      r4,r1
        0x00004a56:    e004        ..      B        0x4a62 ; rt_tsk_delete + 254
        0x00004a58:    68e0        .h      LDR      r0,[r4,#0xc]
        0x00004a5a:    8066        f.      STRH     r6,[r4,#2]
        0x00004a5c:    60a6        .`      STR      r6,[r4,#8]
        0x00004a5e:    60e6        .`      STR      r6,[r4,#0xc]
        0x00004a60:    4604        .F      MOV      r4,r0
        0x00004a62:    2c00        .,      CMP      r4,#0
        0x00004a64:    d1dc        ..      BNE      0x4a20 ; rt_tsk_delete + 188
        0x00004a66:    9800        ..      LDR      r0,[sp,#0]
        0x00004a68:    67c6        .g      STR      r6,[r0,#0x7c]
        0x00004a6a:    4811        .H      LDR      r0,[pc,#68] ; [0x4ab0] = 0x20001260
        0x00004a6c:    6ae9        .j      LDR      r1,[r5,#0x2c]
        0x00004a6e:    f7fffaa3    ....    BL       rt_free_box ; 0x3fb8
        0x00004a72:    4629        )F      MOV      r1,r5
        0x00004a74:    480f        .H      LDR      r0,[pc,#60] ; [0x4ab4] = 0x200011b8
        0x00004a76:    62ee        .b      STR      r6,[r5,#0x2c]
        0x00004a78:    f7fffa9e    ....    BL       rt_free_box ; 0x3fb8
        0x00004a7c:    480a        .H      LDR      r0,[pc,#40] ; [0x4aa8] = 0x20002b9c
        0x00004a7e:    6840        @h      LDR      r0,[r0,#4]
        0x00004a80:    7881        .x      LDRB     r1,[r0,#2]
        0x00004a82:    4808        .H      LDR      r0,[pc,#32] ; [0x4aa4] = 0x200000b4
        0x00004a84:    6802        .h      LDR      r2,[r0,#0]
        0x00004a86:    7893        .x      LDRB     r3,[r2,#2]
        0x00004a88:    4299        .B      CMP      r1,r3
        0x00004a8a:    d908        ..      BLS      0x4a9e ; rt_tsk_delete + 314
        0x00004a8c:    2101        .!      MOVS     r1,#1
        0x00004a8e:    7051        Qp      STRB     r1,[r2,#1]
        0x00004a90:    6801        .h      LDR      r1,[r0,#0]
        0x00004a92:    4805        .H      LDR      r0,[pc,#20] ; [0x4aa8] = 0x20002b9c
        0x00004a94:    f7fffd82    ....    BL       rt_put_prio ; 0x459c
        0x00004a98:    2000        .       MOVS     r0,#0
        0x00004a9a:    f7fffa3f    ..?.    BL       rt_dispatch ; 0x3f1c
        0x00004a9e:    2000        .       MOVS     r0,#0
        0x00004aa0:    bdf8        ..      POP      {r3-r7,pc}
    $d
        0x00004aa2:    0000        ..      DCW    0
        0x00004aa4:    200000b4    ...     DCD    536871092
        0x00004aa8:    20002b9c    .+.     DCD    536882076
        0x00004aac:    200029bc    .).     DCD    536881596
        0x00004ab0:    20001260    `..     DCD    536875616
        0x00004ab4:    200011b8    ...     DCD    536875448
        0x00004ab8:    00005018    .P..    DCD    20504
    $t
    i.rt_tsk_prio
    rt_tsk_prio
        0x00004abc:    b570        p.      PUSH     {r4-r6,lr}
        0x00004abe:    4d1b        .M      LDR      r5,[pc,#108] ; [0x4b2c] = 0x200000b4
        0x00004ac0:    2800        .(      CMP      r0,#0
        0x00004ac2:    d011        ..      BEQ      0x4ae8 ; rt_tsk_prio + 44
        0x00004ac4:    4a1a        .J      LDR      r2,[pc,#104] ; [0x4b30] = 0x5018
        0x00004ac6:    8812        ..      LDRH     r2,[r2,#0]
        0x00004ac8:    4290        .B      CMP      r0,r2
        0x00004aca:    d820         .      BHI      0x4b0e ; rt_tsk_prio + 82
        0x00004acc:    0082        ..      LSLS     r2,r0,#2
        0x00004ace:    4819        .H      LDR      r0,[pc,#100] ; [0x4b34] = 0x200029bc
        0x00004ad0:    1810        ..      ADDS     r0,r2,r0
        0x00004ad2:    3880        .8      SUBS     r0,r0,#0x80
        0x00004ad4:    6fc4        .o      LDR      r4,[r0,#0x7c]
        0x00004ad6:    2c00        .,      CMP      r4,#0
        0x00004ad8:    d019        ..      BEQ      0x4b0e ; rt_tsk_prio + 82
        0x00004ada:    70a1        .p      STRB     r1,[r4,#2]
        0x00004adc:    2024        $       MOVS     r0,#0x24
        0x00004ade:    5501        .U      STRB     r1,[r0,r4]
        0x00004ae0:    6828        (h      LDR      r0,[r5,#0]
        0x00004ae2:    42a0        .B      CMP      r0,r4
        0x00004ae4:    d005        ..      BEQ      0x4af2 ; rt_tsk_prio + 54
        0x00004ae6:    e014        ..      B        0x4b12 ; rt_tsk_prio + 86
        0x00004ae8:    6828        (h      LDR      r0,[r5,#0]
        0x00004aea:    7081        .p      STRB     r1,[r0,#2]
        0x00004aec:    6828        (h      LDR      r0,[r5,#0]
        0x00004aee:    3020         0      ADDS     r0,r0,#0x20
        0x00004af0:    7101        .q      STRB     r1,[r0,#4]
        0x00004af2:    4811        .H      LDR      r0,[pc,#68] ; [0x4b38] = 0x20002b9c
        0x00004af4:    6840        @h      LDR      r0,[r0,#4]
        0x00004af6:    7880        .x      LDRB     r0,[r0,#2]
        0x00004af8:    4288        .B      CMP      r0,r1
        0x00004afa:    d915        ..      BLS      0x4b28 ; rt_tsk_prio + 108
        0x00004afc:    480e        .H      LDR      r0,[pc,#56] ; [0x4b38] = 0x20002b9c
        0x00004afe:    6829        )h      LDR      r1,[r5,#0]
        0x00004b00:    f7fffd4c    ..L.    BL       rt_put_prio ; 0x459c
        0x00004b04:    6829        )h      LDR      r1,[r5,#0]
        0x00004b06:    2001        .       MOVS     r0,#1
        0x00004b08:    7048        Hp      STRB     r0,[r1,#1]
        0x00004b0a:    2000        .       MOVS     r0,#0
        0x00004b0c:    e00a        ..      B        0x4b24 ; rt_tsk_prio + 104
        0x00004b0e:    20ff        .       MOVS     r0,#0xff
        0x00004b10:    bd70        p.      POP      {r4-r6,pc}
        0x00004b12:    4620         F      MOV      r0,r4
        0x00004b14:    f7fffd6a    ..j.    BL       rt_resort_prio ; 0x45ec
        0x00004b18:    7860        `x      LDRB     r0,[r4,#1]
        0x00004b1a:    2801        .(      CMP      r0,#1
        0x00004b1c:    d104        ..      BNE      0x4b28 ; rt_tsk_prio + 108
        0x00004b1e:    4806        .H      LDR      r0,[pc,#24] ; [0x4b38] = 0x20002b9c
        0x00004b20:    f7fffa75    ..u.    BL       rt_get_first ; 0x400e
        0x00004b24:    f7fff9fa    ....    BL       rt_dispatch ; 0x3f1c
        0x00004b28:    2000        .       MOVS     r0,#0
        0x00004b2a:    bd70        p.      POP      {r4-r6,pc}
    $d
        0x00004b2c:    200000b4    ...     DCD    536871092
        0x00004b30:    00005018    .P..    DCD    20504
        0x00004b34:    200029bc    .).     DCD    536881596
        0x00004b38:    20002b9c    .+.     DCD    536882076
    $t
    i.rt_tsk_self
    rt_tsk_self
        0x00004b3c:    4802        .H      LDR      r0,[pc,#8] ; [0x4b48] = 0x200000b4
        0x00004b3e:    6800        .h      LDR      r0,[r0,#0]
        0x00004b40:    2800        .(      CMP      r0,#0
        0x00004b42:    d000        ..      BEQ      0x4b46 ; rt_tsk_self + 10
        0x00004b44:    78c0        .x      LDRB     r0,[r0,#3]
        0x00004b46:    4770        pG      BX       lr
    $d
        0x00004b48:    200000b4    ...     DCD    536871092
    $t
    i.stackDump
    stackDump
        0x00004b4c:    b510        ..      PUSH     {r4,lr}
        0x00004b4e:    4604        .F      MOV      r4,r0
        0x00004b50:    6801        .h      LDR      r1,[r0,#0]
        0x00004b52:    a010        ..      ADR      r0,{pc}+0x42 ; 0x4b94
        0x00004b54:    f7fbfcba    ....    BL       __2printf ; 0x4cc
        0x00004b58:    a011        ..      ADR      r0,{pc}+0x48 ; 0x4ba0
        0x00004b5a:    6861        ah      LDR      r1,[r4,#4]
        0x00004b5c:    f7fbfcb6    ....    BL       __2printf ; 0x4cc
        0x00004b60:    a012        ..      ADR      r0,{pc}+0x4c ; 0x4bac
        0x00004b62:    68a1        .h      LDR      r1,[r4,#8]
        0x00004b64:    f7fbfcb2    ....    BL       __2printf ; 0x4cc
        0x00004b68:    a013        ..      ADR      r0,{pc}+0x50 ; 0x4bb8
        0x00004b6a:    68e1        .h      LDR      r1,[r4,#0xc]
        0x00004b6c:    f7fbfcae    ....    BL       __2printf ; 0x4cc
        0x00004b70:    a014        ..      ADR      r0,{pc}+0x54 ; 0x4bc4
        0x00004b72:    6921        !i      LDR      r1,[r4,#0x10]
        0x00004b74:    f7fbfcaa    ....    BL       __2printf ; 0x4cc
        0x00004b78:    a015        ..      ADR      r0,{pc}+0x58 ; 0x4bd0
        0x00004b7a:    6961        ai      LDR      r1,[r4,#0x14]
        0x00004b7c:    f7fbfca6    ....    BL       __2printf ; 0x4cc
        0x00004b80:    a016        ..      ADR      r0,{pc}+0x5c ; 0x4bdc
        0x00004b82:    69a1        .i      LDR      r1,[r4,#0x18]
        0x00004b84:    f7fbfca2    ....    BL       __2printf ; 0x4cc
        0x00004b88:    a017        ..      ADR      r0,{pc}+0x60 ; 0x4be8
        0x00004b8a:    69e1        .i      LDR      r1,[r4,#0x1c]
        0x00004b8c:    f7fbfc9e    ....    BL       __2printf ; 0x4cc
        0x00004b90:    bd10        ..      POP      {r4,pc}
    $d
        0x00004b92:    0000        ..      DCW    0
        0x00004b94:    20203072    r0      DCD    538980466
        0x00004b98:    7830203d    = 0x    DCD    2016419901
        0x00004b9c:    000a7825    %x..    DCD    686117
        0x00004ba0:    20203172    r1      DCD    538980722
        0x00004ba4:    7830203d    = 0x    DCD    2016419901
        0x00004ba8:    000a7825    %x..    DCD    686117
        0x00004bac:    20203272    r2      DCD    538980978
        0x00004bb0:    7830203d    = 0x    DCD    2016419901
        0x00004bb4:    000a7825    %x..    DCD    686117
        0x00004bb8:    20203372    r3      DCD    538981234
        0x00004bbc:    7830203d    = 0x    DCD    2016419901
        0x00004bc0:    000a7825    %x..    DCD    686117
        0x00004bc4:    20323172    r12     DCD    540160370
        0x00004bc8:    7830203d    = 0x    DCD    2016419901
        0x00004bcc:    000a7825    %x..    DCD    686117
        0x00004bd0:    2020726c    lr      DCD    538997356
        0x00004bd4:    7830203d    = 0x    DCD    2016419901
        0x00004bd8:    000a7825    %x..    DCD    686117
        0x00004bdc:    20206370    pc      DCD    538993520
        0x00004be0:    7830203d    = 0x    DCD    2016419901
        0x00004be4:    000a7825    %x..    DCD    686117
        0x00004be8:    20727370    psr     DCD    544371568
        0x00004bec:    7830203d    = 0x    DCD    2016419901
        0x00004bf0:    000a7825    %x..    DCD    686117
    $t
    i.svcDelay
    svcDelay
        0x00004bf4:    b510        ..      PUSH     {r4,lr}
        0x00004bf6:    2800        .(      CMP      r0,#0
        0x00004bf8:    d004        ..      BEQ      0x4c04 ; svcDelay + 16
        0x00004bfa:    f7fffb71    ..q.    BL       rt_ms2tick ; 0x42e0
        0x00004bfe:    f7fff9ad    ....    BL       rt_dly_wait ; 0x3f5c
        0x00004c02:    2040        @       MOVS     r0,#0x40
        0x00004c04:    bd10        ..      POP      {r4,pc}
        0x00004c06:    0000        ..      MOVS     r0,r0
    i.svcKernelInitialize
    svcKernelInitialize
        0x00004c08:    b510        ..      PUSH     {r4,lr}
        0x00004c0a:    4c15        .L      LDR      r4,[pc,#84] ; [0x4c60] = 0x200000ac
        0x00004c0c:    7820         x      LDRB     r0,[r4,#0]
        0x00004c0e:    2800        .(      CMP      r0,#0
        0x00004c10:    d10d        ..      BNE      0x4c2e ; svcKernelInitialize + 38
        0x00004c12:    4814        .H      LDR      r0,[pc,#80] ; [0x4c64] = 0x20001590
        0x00004c14:    0740        @.      LSLS     r0,r0,#29
        0x00004c16:    d106        ..      BNE      0x4c26 ; svcKernelInitialize + 30
        0x00004c18:    4813        .H      LDR      r0,[pc,#76] ; [0x4c68] = 0x5044
        0x00004c1a:    6801        .h      LDR      r1,[r0,#0]
        0x00004c1c:    4811        .H      LDR      r0,[pc,#68] ; [0x4c64] = 0x20001590
        0x00004c1e:    f7fffa33    ..3.    BL       rt_init_mem ; 0x4088
        0x00004c22:    2800        .(      CMP      r0,#0
        0x00004c24:    d001        ..      BEQ      0x4c2a ; svcKernelInitialize + 34
        0x00004c26:    2085        .       MOVS     r0,#0x85
        0x00004c28:    bd10        ..      POP      {r4,pc}
        0x00004c2a:    f7fffd63    ..c.    BL       rt_sys_init ; 0x46f4
        0x00004c2e:    490f        .I      LDR      r1,[pc,#60] ; [0x4c6c] = 0x200000b4
        0x00004c30:    20ff        .       MOVS     r0,#0xff
        0x00004c32:    6809        .h      LDR      r1,[r1,#0]
        0x00004c34:    7088        .p      STRB     r0,[r1,#2]
        0x00004c36:    7820         x      LDRB     r0,[r4,#0]
        0x00004c38:    2800        .(      CMP      r0,#0
        0x00004c3a:    d10b        ..      BNE      0x4c54 ; svcKernelInitialize + 76
        0x00004c3c:    2100        .!      MOVS     r1,#0
        0x00004c3e:    480c        .H      LDR      r0,[pc,#48] ; [0x4c70] = 0x505c
        0x00004c40:    f000f844    ..D.    BL       svcMessageCreate ; 0x4ccc
        0x00004c44:    490b        .I      LDR      r1,[pc,#44] ; [0x4c74] = 0x20000078
        0x00004c46:    6008        .`      STR      r0,[r1,#0]
        0x00004c48:    2100        .!      MOVS     r1,#0
        0x00004c4a:    480b        .H      LDR      r0,[pc,#44] ; [0x4c78] = 0x504c
        0x00004c4c:    f000f8a2    ....    BL       svcThreadCreate ; 0x4d94
        0x00004c50:    490a        .I      LDR      r1,[pc,#40] ; [0x4c7c] = 0x20000074
        0x00004c52:    6008        .`      STR      r0,[r1,#0]
        0x00004c54:    2001        .       MOVS     r0,#1
        0x00004c56:    7020         p      STRB     r0,[r4,#0]
        0x00004c58:    2000        .       MOVS     r0,#0
        0x00004c5a:    7060        `p      STRB     r0,[r4,#1]
        0x00004c5c:    bd10        ..      POP      {r4,pc}
    $d
        0x00004c5e:    0000        ..      DCW    0
        0x00004c60:    200000ac    ...     DCD    536871084
        0x00004c64:    20001590    ...     DCD    536876432
        0x00004c68:    00005044    DP..    DCD    20548
        0x00004c6c:    200000b4    ...     DCD    536871092
        0x00004c70:    0000505c    \P..    DCD    20572
        0x00004c74:    20000078    x..     DCD    536871032
        0x00004c78:    0000504c    LP..    DCD    20556
        0x00004c7c:    20000074    t..     DCD    536871028
    $t
    i.svcKernelStart
    svcKernelStart
        0x00004c80:    b570        p.      PUSH     {r4-r6,lr}
        0x00004c82:    4d10        .M      LDR      r5,[pc,#64] ; [0x4cc4] = 0x200000ac
        0x00004c84:    7868        hx      LDRB     r0,[r5,#1]
        0x00004c86:    2800        .(      CMP      r0,#0
        0x00004c88:    d001        ..      BEQ      0x4c8e ; svcKernelStart + 14
        0x00004c8a:    2000        .       MOVS     r0,#0
        0x00004c8c:    bd70        p.      POP      {r4-r6,pc}
        0x00004c8e:    4c0e        .L      LDR      r4,[pc,#56] ; [0x4cc8] = 0x200000b4
        0x00004c90:    6820         h      LDR      r0,[r4,#0]
        0x00004c92:    3020         0      ADDS     r0,r0,#0x20
        0x00004c94:    7901        .y      LDRB     r1,[r0,#4]
        0x00004c96:    2000        .       MOVS     r0,#0
        0x00004c98:    f7ffff10    ....    BL       rt_tsk_prio ; 0x4abc
        0x00004c9c:    6820         h      LDR      r0,[r4,#0]
        0x00004c9e:    78c1        .x      LDRB     r1,[r0,#3]
        0x00004ca0:    29ff        .)      CMP      r1,#0xff
        0x00004ca2:    d103        ..      BNE      0x4cac ; svcKernelStart + 44
        0x00004ca4:    6a81        .j      LDR      r1,[r0,#0x28]
        0x00004ca6:    3120         1      ADDS     r1,r1,#0x20
        0x00004ca8:    f3818809    ....    MSR      PSP,r1
        0x00004cac:    6861        ah      LDR      r1,[r4,#4]
        0x00004cae:    2900        .)      CMP      r1,#0
        0x00004cb0:    d102        ..      BNE      0x4cb8 ; svcKernelStart + 56
        0x00004cb2:    6060        ``      STR      r0,[r4,#4]
        0x00004cb4:    2000        .       MOVS     r0,#0
        0x00004cb6:    6020         `      STR      r0,[r4,#0]
        0x00004cb8:    f7fffd80    ....    BL       rt_sys_start ; 0x47bc
        0x00004cbc:    2001        .       MOVS     r0,#1
        0x00004cbe:    7068        hp      STRB     r0,[r5,#1]
        0x00004cc0:    e7e3        ..      B        0x4c8a ; svcKernelStart + 10
    $d
        0x00004cc2:    0000        ..      DCW    0
        0x00004cc4:    200000ac    ...     DCD    536871084
        0x00004cc8:    200000b4    ...     DCD    536871092
    $t
    i.svcMessageCreate
    svcMessageCreate
        0x00004ccc:    b510        ..      PUSH     {r4,lr}
        0x00004cce:    0004        ..      MOVS     r4,r0
        0x00004cd0:    d008        ..      BEQ      0x4ce4 ; svcMessageCreate + 24
        0x00004cd2:    6821        !h      LDR      r1,[r4,#0]
        0x00004cd4:    2900        .)      CMP      r1,#0
        0x00004cd6:    d005        ..      BEQ      0x4ce4 ; svcMessageCreate + 24
        0x00004cd8:    6860        `h      LDR      r0,[r4,#4]
        0x00004cda:    2800        .(      CMP      r0,#0
        0x00004cdc:    d002        ..      BEQ      0x4ce4 ; svcMessageCreate + 24
        0x00004cde:    7802        .x      LDRB     r2,[r0,#0]
        0x00004ce0:    2a00        .*      CMP      r2,#0
        0x00004ce2:    d001        ..      BEQ      0x4ce8 ; svcMessageCreate + 28
        0x00004ce4:    2000        .       MOVS     r0,#0
        0x00004ce6:    bd10        ..      POP      {r4,pc}
        0x00004ce8:    0089        ..      LSLS     r1,r1,#2
        0x00004cea:    3110        .1      ADDS     r1,r1,#0x10
        0x00004cec:    b289        ..      UXTH     r1,r1
        0x00004cee:    f7fffa25    ..%.    BL       rt_mbx_init ; 0x413c
        0x00004cf2:    6860        `h      LDR      r0,[r4,#4]
        0x00004cf4:    bd10        ..      POP      {r4,pc}
    i.svcMessageGet
    svcMessageGet
        0x00004cf6:    b53e        >.      PUSH     {r1-r5,lr}
        0x00004cf8:    4604        .F      MOV      r4,r0
        0x00004cfa:    2080        .       MOVS     r0,#0x80
        0x00004cfc:    460d        .F      MOV      r5,r1
        0x00004cfe:    2c00        .,      CMP      r4,#0
        0x00004d00:    d013        ..      BEQ      0x4d2a ; svcMessageGet + 52
        0x00004d02:    7821        !x      LDRB     r1,[r4,#0]
        0x00004d04:    2901        .)      CMP      r1,#1
        0x00004d06:    d110        ..      BNE      0x4d2a ; svcMessageGet + 52
        0x00004d08:    4628        (F      MOV      r0,r5
        0x00004d0a:    f7fffae9    ....    BL       rt_ms2tick ; 0x42e0
        0x00004d0e:    4602        .F      MOV      r2,r0
        0x00004d10:    4620         F      MOV      r0,r4
        0x00004d12:    a901        ..      ADD      r1,sp,#4
        0x00004d14:    f7fffa8c    ....    BL       rt_mbx_wait ; 0x4230
        0x00004d18:    2801        .(      CMP      r0,#1
        0x00004d1a:    d001        ..      BEQ      0x4d20 ; svcMessageGet + 42
        0x00004d1c:    2010        .       MOVS     r0,#0x10
        0x00004d1e:    e004        ..      B        0x4d2a ; svcMessageGet + 52
        0x00004d20:    2d00        .-      CMP      r5,#0
        0x00004d22:    d001        ..      BEQ      0x4d28 ; svcMessageGet + 50
        0x00004d24:    2040        @       MOVS     r0,#0x40
        0x00004d26:    e000        ..      B        0x4d2a ; svcMessageGet + 52
        0x00004d28:    2000        .       MOVS     r0,#0
        0x00004d2a:    9a02        ..      LDR      r2,[sp,#8]
        0x00004d2c:    9901        ..      LDR      r1,[sp,#4]
        0x00004d2e:    b003        ..      ADD      sp,sp,#0xc
        0x00004d30:    bd30        0.      POP      {r4,r5,pc}
    i.svcMutexRelease
    svcMutexRelease
        0x00004d32:    b510        ..      PUSH     {r4,lr}
        0x00004d34:    f7fff980    ....    BL       rt_id2obj ; 0x4038
        0x00004d38:    2800        .(      CMP      r0,#0
        0x00004d3a:    d002        ..      BEQ      0x4d42 ; svcMutexRelease + 16
        0x00004d3c:    7801        .x      LDRB     r1,[r0,#0]
        0x00004d3e:    2903        .)      CMP      r1,#3
        0x00004d40:    d001        ..      BEQ      0x4d46 ; svcMutexRelease + 20
        0x00004d42:    2080        .       MOVS     r0,#0x80
        0x00004d44:    bd10        ..      POP      {r4,pc}
        0x00004d46:    f7fffaed    ....    BL       rt_mut_release ; 0x4324
        0x00004d4a:    28ff        .(      CMP      r0,#0xff
        0x00004d4c:    d001        ..      BEQ      0x4d52 ; svcMutexRelease + 32
        0x00004d4e:    2000        .       MOVS     r0,#0
        0x00004d50:    bd10        ..      POP      {r4,pc}
        0x00004d52:    2081        .       MOVS     r0,#0x81
        0x00004d54:    bd10        ..      POP      {r4,pc}
    i.svcMutexWait
    svcMutexWait
        0x00004d56:    b570        p.      PUSH     {r4-r6,lr}
        0x00004d58:    460d        .F      MOV      r5,r1
        0x00004d5a:    f7fff96d    ..m.    BL       rt_id2obj ; 0x4038
        0x00004d5e:    0004        ..      MOVS     r4,r0
        0x00004d60:    d002        ..      BEQ      0x4d68 ; svcMutexWait + 18
        0x00004d62:    7820         x      LDRB     r0,[r4,#0]
        0x00004d64:    2803        .(      CMP      r0,#3
        0x00004d66:    d001        ..      BEQ      0x4d6c ; svcMutexWait + 22
        0x00004d68:    2080        .       MOVS     r0,#0x80
        0x00004d6a:    bd70        p.      POP      {r4-r6,pc}
        0x00004d6c:    4628        (F      MOV      r0,r5
        0x00004d6e:    f7fffab7    ....    BL       rt_ms2tick ; 0x42e0
        0x00004d72:    4601        .F      MOV      r1,r0
        0x00004d74:    4620         F      MOV      r0,r4
        0x00004d76:    f7fffb41    ..A.    BL       rt_mut_wait ; 0x43fc
        0x00004d7a:    2801        .(      CMP      r0,#1
        0x00004d7c:    d003        ..      BEQ      0x4d86 ; svcMutexWait + 48
        0x00004d7e:    28ff        .(      CMP      r0,#0xff
        0x00004d80:    d005        ..      BEQ      0x4d8e ; svcMutexWait + 56
        0x00004d82:    2000        .       MOVS     r0,#0
        0x00004d84:    bd70        p.      POP      {r4-r6,pc}
        0x00004d86:    2d00        .-      CMP      r5,#0
        0x00004d88:    d001        ..      BEQ      0x4d8e ; svcMutexWait + 56
        0x00004d8a:    20c1        .       MOVS     r0,#0xc1
        0x00004d8c:    bd70        p.      POP      {r4-r6,pc}
        0x00004d8e:    2081        .       MOVS     r0,#0x81
        0x00004d90:    bd70        p.      POP      {r4-r6,pc}
        0x00004d92:    0000        ..      MOVS     r0,r0
    i.svcThreadCreate
    svcThreadCreate
        0x00004d94:    b570        p.      PUSH     {r4-r6,lr}
        0x00004d96:    460e        .F      MOV      r6,r1
        0x00004d98:    0004        ..      MOVS     r4,r0
        0x00004d9a:    d02c        ,.      BEQ      0x4df6 ; svcThreadCreate + 98
        0x00004d9c:    6820         h      LDR      r0,[r4,#0]
        0x00004d9e:    2800        .(      CMP      r0,#0
        0x00004da0:    d029        ).      BEQ      0x4df6 ; svcThreadCreate + 98
        0x00004da2:    6860        `h      LDR      r0,[r4,#4]
        0x00004da4:    1cc1        ..      ADDS     r1,r0,#3
        0x00004da6:    db26        &.      BLT      0x4df6 ; svcThreadCreate + 98
        0x00004da8:    2803        .(      CMP      r0,#3
        0x00004daa:    dc24        $.      BGT      0x4df6 ; svcThreadCreate + 98
        0x00004dac:    68e1        .h      LDR      r1,[r4,#0xc]
        0x00004dae:    2900        .)      CMP      r1,#0
        0x00004db0:    d005        ..      BEQ      0x4dbe ; svcThreadCreate + 42
        0x00004db2:    4812        .H      LDR      r0,[pc,#72] ; [0x4dfc] = 0x20001590
        0x00004db4:    f7fff818    ....    BL       rt_alloc_mem ; 0x3de8
        0x00004db8:    1e05        ..      SUBS     r5,r0,#0
        0x00004dba:    d015        ..      BEQ      0x4de8 ; svcThreadCreate + 84
        0x00004dbc:    e000        ..      B        0x4dc0 ; svcThreadCreate + 44
        0x00004dbe:    2500        .%      MOVS     r5,#0
        0x00004dc0:    68e0        .h      LDR      r0,[r4,#0xc]
        0x00004dc2:    6861        ah      LDR      r1,[r4,#4]
        0x00004dc4:    0200        ..      LSLS     r0,r0,#8
        0x00004dc6:    1d09        ..      ADDS     r1,r1,#4
        0x00004dc8:    4301        .C      ORRS     r1,r1,r0
        0x00004dca:    4633        3F      MOV      r3,r6
        0x00004dcc:    462a        *F      MOV      r2,r5
        0x00004dce:    6820         h      LDR      r0,[r4,#0]
        0x00004dd0:    f7fffd8c    ....    BL       rt_tsk_create ; 0x48ec
        0x00004dd4:    2800        .(      CMP      r0,#0
        0x00004dd6:    d008        ..      BEQ      0x4dea ; svcThreadCreate + 86
        0x00004dd8:    4909        .I      LDR      r1,[pc,#36] ; [0x4e00] = 0x200029bc
        0x00004dda:    0080        ..      LSLS     r0,r0,#2
        0x00004ddc:    1840        @.      ADDS     r0,r0,r1
        0x00004dde:    3880        .8      SUBS     r0,r0,#0x80
        0x00004de0:    6fc0        .o      LDR      r0,[r0,#0x7c]
        0x00004de2:    4908        .I      LDR      r1,[pc,#32] ; [0x4e04] = 0x3c45
        0x00004de4:    6a82        .j      LDR      r2,[r0,#0x28]
        0x00004de6:    6351        Qc      STR      r1,[r2,#0x34]
        0x00004de8:    bd70        p.      POP      {r4-r6,pc}
        0x00004dea:    2d00        .-      CMP      r5,#0
        0x00004dec:    d003        ..      BEQ      0x4df6 ; svcThreadCreate + 98
        0x00004dee:    4629        )F      MOV      r1,r5
        0x00004df0:    4802        .H      LDR      r0,[pc,#8] ; [0x4dfc] = 0x20001590
        0x00004df2:    f7fff8f4    ....    BL       rt_free_mem ; 0x3fde
        0x00004df6:    2000        .       MOVS     r0,#0
        0x00004df8:    bd70        p.      POP      {r4-r6,pc}
    $d
        0x00004dfa:    0000        ..      DCW    0
        0x00004dfc:    20001590    ...     DCD    536876432
        0x00004e00:    200029bc    .).     DCD    536881596
        0x00004e04:    00003c45    E<..    DCD    15429
    $t
    i.svcThreadGetId
    svcThreadGetId
        0x00004e08:    b510        ..      PUSH     {r4,lr}
        0x00004e0a:    f7fffe97    ....    BL       rt_tsk_self ; 0x4b3c
        0x00004e0e:    2800        .(      CMP      r0,#0
        0x00004e10:    d004        ..      BEQ      0x4e1c ; svcThreadGetId + 20
        0x00004e12:    4903        .I      LDR      r1,[pc,#12] ; [0x4e20] = 0x200029bc
        0x00004e14:    0080        ..      LSLS     r0,r0,#2
        0x00004e16:    1840        @.      ADDS     r0,r0,r1
        0x00004e18:    3880        .8      SUBS     r0,r0,#0x80
        0x00004e1a:    6fc0        .o      LDR      r0,[r0,#0x7c]
        0x00004e1c:    bd10        ..      POP      {r4,pc}
    $d
        0x00004e1e:    0000        ..      DCW    0
        0x00004e20:    200029bc    .).     DCD    536881596
    $t
    i.svcThreadTerminate
    svcThreadTerminate
        0x00004e24:    b510        ..      PUSH     {r4,lr}
        0x00004e26:    f7fffd19    ....    BL       rt_tid2ptcb ; 0x485c
        0x00004e2a:    2800        .(      CMP      r0,#0
        0x00004e2c:    d004        ..      BEQ      0x4e38 ; svcThreadTerminate + 20
        0x00004e2e:    8cc1        ..      LDRH     r1,[r0,#0x26]
        0x00004e30:    2900        .)      CMP      r1,#0
        0x00004e32:    d003        ..      BEQ      0x4e3c ; svcThreadTerminate + 24
        0x00004e34:    6ac4        .j      LDR      r4,[r0,#0x2c]
        0x00004e36:    e002        ..      B        0x4e3e ; svcThreadTerminate + 26
        0x00004e38:    2080        .       MOVS     r0,#0x80
        0x00004e3a:    bd10        ..      POP      {r4,pc}
        0x00004e3c:    2400        .$      MOVS     r4,#0
        0x00004e3e:    78c0        .x      LDRB     r0,[r0,#3]
        0x00004e40:    f7fffd90    ....    BL       rt_tsk_delete ; 0x4964
        0x00004e44:    28ff        .(      CMP      r0,#0xff
        0x00004e46:    d007        ..      BEQ      0x4e58 ; svcThreadTerminate + 52
        0x00004e48:    2c00        .,      CMP      r4,#0
        0x00004e4a:    d003        ..      BEQ      0x4e54 ; svcThreadTerminate + 48
        0x00004e4c:    4621        !F      MOV      r1,r4
        0x00004e4e:    4803        .H      LDR      r0,[pc,#12] ; [0x4e5c] = 0x20001590
        0x00004e50:    f7fff8c5    ....    BL       rt_free_mem ; 0x3fde
        0x00004e54:    2000        .       MOVS     r0,#0
        0x00004e56:    bd10        ..      POP      {r4,pc}
        0x00004e58:    2081        .       MOVS     r0,#0x81
        0x00004e5a:    bd10        ..      POP      {r4,pc}
    $d
        0x00004e5c:    20001590    ...     DCD    536876432
    $t
    i.svcTimerCall
    svcTimerCall
        0x00004e60:    b510        ..      PUSH     {r4,lr}
        0x00004e62:    f7fff8e9    ....    BL       rt_id2obj ; 0x4038
        0x00004e66:    2800        .(      CMP      r0,#0
        0x00004e68:    d005        ..      BEQ      0x4e76 ; svcTimerCall + 22
        0x00004e6a:    6941        Ai      LDR      r1,[r0,#0x14]
        0x00004e6c:    6902        .i      LDR      r2,[r0,#0x10]
        0x00004e6e:    6809        .h      LDR      r1,[r1,#0]
        0x00004e70:    4608        .F      MOV      r0,r1
        0x00004e72:    4611        .F      MOV      r1,r2
        0x00004e74:    bd10        ..      POP      {r4,pc}
        0x00004e76:    2000        .       MOVS     r0,#0
        0x00004e78:    4601        .F      MOV      r1,r0
        0x00004e7a:    bd10        ..      POP      {r4,pc}
    i.svcTimerCreate
    svcTimerCreate
        0x00004e7c:    b510        ..      PUSH     {r4,lr}
        0x00004e7e:    0003        ..      MOVS     r3,r0
        0x00004e80:    d010        ..      BEQ      0x4ea4 ; svcTimerCreate + 40
        0x00004e82:    6818        .h      LDR      r0,[r3,#0]
        0x00004e84:    2800        .(      CMP      r0,#0
        0x00004e86:    d00d        ..      BEQ      0x4ea4 ; svcTimerCreate + 40
        0x00004e88:    6858        Xh      LDR      r0,[r3,#4]
        0x00004e8a:    2800        .(      CMP      r0,#0
        0x00004e8c:    d00b        ..      BEQ      0x4ea6 ; svcTimerCreate + 42
        0x00004e8e:    2900        .)      CMP      r1,#0
        0x00004e90:    d001        ..      BEQ      0x4e96 ; svcTimerCreate + 26
        0x00004e92:    2901        .)      CMP      r1,#1
        0x00004e94:    d106        ..      BNE      0x4ea4 ; svcTimerCreate + 40
        0x00004e96:    4c08        .L      LDR      r4,[pc,#32] ; [0x4eb8] = 0x20000074
        0x00004e98:    6824        $h      LDR      r4,[r4,#0]
        0x00004e9a:    2c00        .,      CMP      r4,#0
        0x00004e9c:    d002        ..      BEQ      0x4ea4 ; svcTimerCreate + 40
        0x00004e9e:    7904        .y      LDRB     r4,[r0,#4]
        0x00004ea0:    2c00        .,      CMP      r4,#0
        0x00004ea2:    d001        ..      BEQ      0x4ea8 ; svcTimerCreate + 44
        0x00004ea4:    2000        .       MOVS     r0,#0
        0x00004ea6:    bd10        ..      POP      {r4,pc}
        0x00004ea8:    2400        .$      MOVS     r4,#0
        0x00004eaa:    6004        .`      STR      r4,[r0,#0]
        0x00004eac:    2401        .$      MOVS     r4,#1
        0x00004eae:    7104        .q      STRB     r4,[r0,#4]
        0x00004eb0:    7141        Aq      STRB     r1,[r0,#5]
        0x00004eb2:    6143        Ca      STR      r3,[r0,#0x14]
        0x00004eb4:    6102        .a      STR      r2,[r0,#0x10]
        0x00004eb6:    bd10        ..      POP      {r4,pc}
    $d
        0x00004eb8:    20000074    t..     DCD    536871028
    $t
    i.svcTimerStart
    svcTimerStart
        0x00004ebc:    b570        p.      PUSH     {r4-r6,lr}
        0x00004ebe:    460d        .F      MOV      r5,r1
        0x00004ec0:    f7fff8ba    ....    BL       rt_id2obj ; 0x4038
        0x00004ec4:    0004        ..      MOVS     r4,r0
        0x00004ec6:    d019        ..      BEQ      0x4efc ; svcTimerStart + 64
        0x00004ec8:    2d00        .-      CMP      r5,#0
        0x00004eca:    d019        ..      BEQ      0x4f00 ; svcTimerStart + 68
        0x00004ecc:    217d        }!      MOVS     r1,#0x7d
        0x00004ece:    4628        (F      MOV      r0,r5
        0x00004ed0:    00c9        ..      LSLS     r1,r1,#3
        0x00004ed2:    f7fefb19    ....    BL       __ARM_common_ll_muluu ; 0x3508
        0x00004ed6:    4b13        .K      LDR      r3,[pc,#76] ; [0x4f24] = 0x5034
        0x00004ed8:    2200        ."      MOVS     r2,#0
        0x00004eda:    681d        .h      LDR      r5,[r3,#0]
        0x00004edc:    1e56        V.      SUBS     r6,r2,#1
        0x00004ede:    1e6d        m.      SUBS     r5,r5,#1
        0x00004ee0:    4172        rA      ADCS     r2,r2,r6
        0x00004ee2:    1940        @.      ADDS     r0,r0,r5
        0x00004ee4:    4151        QA      ADCS     r1,r1,r2
        0x00004ee6:    681a        .h      LDR      r2,[r3,#0]
        0x00004ee8:    2300        .#      MOVS     r3,#0
        0x00004eea:    f7fbfa6d    ..m.    BL       __aeabi_uldivmod ; 0x3c8
        0x00004eee:    4605        .F      MOV      r5,r0
        0x00004ef0:    7920         y      LDRB     r0,[r4,#4]
        0x00004ef2:    2801        .(      CMP      r0,#1
        0x00004ef4:    d00d        ..      BEQ      0x4f12 ; svcTimerStart + 86
        0x00004ef6:    2802        .(      CMP      r0,#2
        0x00004ef8:    d109        ..      BNE      0x4f0e ; svcTimerStart + 82
        0x00004efa:    e003        ..      B        0x4f04 ; svcTimerStart + 72
        0x00004efc:    2080        .       MOVS     r0,#0x80
        0x00004efe:    bd70        p.      POP      {r4-r6,pc}
        0x00004f00:    2086        .       MOVS     r0,#0x86
        0x00004f02:    bd70        p.      POP      {r4-r6,pc}
        0x00004f04:    4620         F      MOV      r0,r4
        0x00004f06:    f7fffccf    ....    BL       rt_timer_remove ; 0x48a8
        0x00004f0a:    2800        .(      CMP      r0,#0
        0x00004f0c:    d004        ..      BEQ      0x4f18 ; svcTimerStart + 92
        0x00004f0e:    2081        .       MOVS     r0,#0x81
        0x00004f10:    bd70        p.      POP      {r4-r6,pc}
        0x00004f12:    2002        .       MOVS     r0,#2
        0x00004f14:    7120         q      STRB     r0,[r4,#4]
        0x00004f16:    60e5        .`      STR      r5,[r4,#0xc]
        0x00004f18:    4629        )F      MOV      r1,r5
        0x00004f1a:    4620         F      MOV      r0,r4
        0x00004f1c:    f7fffca8    ....    BL       rt_timer_insert ; 0x4870
        0x00004f20:    2000        .       MOVS     r0,#0
        0x00004f22:    bd70        p.      POP      {r4-r6,pc}
    $d
        0x00004f24:    00005034    4P..    DCD    20532
    $t
    i.sysTimerTick
    sysTimerTick
        0x00004f28:    b5f8        ..      PUSH     {r3-r7,lr}
        0x00004f2a:    4e13        .N      LDR      r6,[pc,#76] ; [0x4f78] = 0x200000ac
        0x00004f2c:    6874        th      LDR      r4,[r6,#4]
        0x00004f2e:    2c00        .,      CMP      r4,#0
        0x00004f30:    d01b        ..      BEQ      0x4f6a ; sysTimerTick + 66
        0x00004f32:    68a0        .h      LDR      r0,[r4,#8]
        0x00004f34:    4f11        .O      LDR      r7,[pc,#68] ; [0x4f7c] = 0x20000078
        0x00004f36:    1e40        @.      SUBS     r0,r0,#1
        0x00004f38:    60a0        .`      STR      r0,[r4,#8]
        0x00004f3a:    e013        ..      B        0x4f64 ; sysTimerTick + 60
        0x00004f3c:    4625        %F      MOV      r5,r4
        0x00004f3e:    6824        $h      LDR      r4,[r4,#0]
        0x00004f40:    6074        t`      STR      r4,[r6,#4]
        0x00004f42:    2200        ."      MOVS     r2,#0
        0x00004f44:    4629        )F      MOV      r1,r5
        0x00004f46:    6838        8h      LDR      r0,[r7,#0]
        0x00004f48:    f7fefd69    ..i.    BL       isrMessagePut ; 0x3a1e
        0x00004f4c:    2800        .(      CMP      r0,#0
        0x00004f4e:    d002        ..      BEQ      0x4f56 ; sysTimerTick + 46
        0x00004f50:    2004        .       MOVS     r0,#4
        0x00004f52:    f7fefec9    ....    BL       os_error ; 0x3ce8
        0x00004f56:    7968        hy      LDRB     r0,[r5,#5]
        0x00004f58:    2801        .(      CMP      r0,#1
        0x00004f5a:    d007        ..      BEQ      0x4f6c ; sysTimerTick + 68
        0x00004f5c:    2001        .       MOVS     r0,#1
        0x00004f5e:    7128        (q      STRB     r0,[r5,#4]
        0x00004f60:    2c00        .,      CMP      r4,#0
        0x00004f62:    d002        ..      BEQ      0x4f6a ; sysTimerTick + 66
        0x00004f64:    68a0        .h      LDR      r0,[r4,#8]
        0x00004f66:    2800        .(      CMP      r0,#0
        0x00004f68:    d0e8        ..      BEQ      0x4f3c ; sysTimerTick + 20
        0x00004f6a:    bdf8        ..      POP      {r3-r7,pc}
        0x00004f6c:    4628        (F      MOV      r0,r5
        0x00004f6e:    68e9        .h      LDR      r1,[r5,#0xc]
        0x00004f70:    f7fffc7e    ..~.    BL       rt_timer_insert ; 0x4870
        0x00004f74:    e7f4        ..      B        0x4f60 ; sysTimerTick + 56
    $d
        0x00004f76:    0000        ..      DCW    0
        0x00004f78:    200000ac    ...     DCD    536871084
        0x00004f7c:    20000078    x..     DCD    536871032
    $t
    locale$$code
    _get_lc_numeric
        0x00004f80:    b510        ..      PUSH     {r4,lr}
        0x00004f82:    2900        .)      CMP      r1,#0
        0x00004f84:    d00a        ..      BEQ      0x4f9c ; _get_lc_numeric + 28
        0x00004f86:    7808        .x      LDRB     r0,[r1,#0]
        0x00004f88:    2800        .(      CMP      r0,#0
        0x00004f8a:    d007        ..      BEQ      0x4f9c ; _get_lc_numeric + 28
        0x00004f8c:    4805        .H      LDR      r0,[pc,#20] ; [0x4fa4] = 0x2b2
        0x00004f8e:    4478        xD      ADD      r0,r0,pc
        0x00004f90:    f7fcfe22    ..".    BL       strcmp ; 0x1bd8
        0x00004f94:    2800        .(      CMP      r0,#0
        0x00004f96:    d001        ..      BEQ      0x4f9c ; _get_lc_numeric + 28
        0x00004f98:    2000        .       MOVS     r0,#0
        0x00004f9a:    bd10        ..      POP      {r4,pc}
        0x00004f9c:    4802        .H      LDR      r0,[pc,#8] ; [0x4fa8] = 0x2aa
        0x00004f9e:    4478        xD      ADD      r0,r0,pc
        0x00004fa0:    bd10        ..      POP      {r4,pc}
    $d
        0x00004fa2:    0000        ..      DCW    0
        0x00004fa4:    000002b2    ....    DCD    690
        0x00004fa8:    000002aa    ....    DCD    682
    $t
    locale$$code
    _get_lc_ctype
        0x00004fac:    b510        ..      PUSH     {r4,lr}
        0x00004fae:    2900        .)      CMP      r1,#0
        0x00004fb0:    d00a        ..      BEQ      0x4fc8 ; _get_lc_ctype + 28
        0x00004fb2:    7808        .x      LDRB     r0,[r1,#0]
        0x00004fb4:    2800        .(      CMP      r0,#0
        0x00004fb6:    d007        ..      BEQ      0x4fc8 ; _get_lc_ctype + 28
        0x00004fb8:    4805        .H      LDR      r0,[pc,#20] ; [0x4fd0] = 0x2a2
        0x00004fba:    4478        xD      ADD      r0,r0,pc
        0x00004fbc:    f7fcfe0c    ....    BL       strcmp ; 0x1bd8
        0x00004fc0:    2800        .(      CMP      r0,#0
        0x00004fc2:    d001        ..      BEQ      0x4fc8 ; _get_lc_ctype + 28
        0x00004fc4:    2000        .       MOVS     r0,#0
        0x00004fc6:    bd10        ..      POP      {r4,pc}
        0x00004fc8:    4802        .H      LDR      r0,[pc,#8] ; [0x4fd4] = 0x29a
        0x00004fca:    4478        xD      ADD      r0,r0,pc
        0x00004fcc:    bd10        ..      POP      {r4,pc}
    $d
        0x00004fce:    0000        ..      DCW    0
        0x00004fd0:    000002a2    ....    DCD    674
        0x00004fd4:    0000029a    ....    DCD    666
    $t
    x$fpl$printf1
    _printf_fp_dec
        0x00004fd8:    b403        ..      PUSH     {r0,r1}
        0x00004fda:    4802        .H      LDR      r0,[pc,#8] ; [0x4fe4] = 0xffffbfd3
        0x00004fdc:    4478        xD      ADD      r0,r0,pc
        0x00004fde:    4684        .F      MOV      r12,r0
        0x00004fe0:    bc03        ..      POP      {r0,r1}
        0x00004fe2:    4760        `G      BX       r12
    $d
        0x00004fe4:    ffffbfd3    ....    DCD    4294950867
    $d.realdata
    .constdata
    x$fpl$usenofp
    __I$use$fp
    os_thread_def_GSM
        0x00004fe8:    000020e1    . ..    DCD    8417
        0x00004fec:    00000000    ....    DCD    0
        0x00004ff0:    00000001    ....    DCD    1
        0x00004ff4:    00000000    ....    DCD    0
    os_thread_def_GNSS
        0x00004ff8:    00002051    Q ..    DCD    8273
        0x00004ffc:    00000000    ....    DCD    0
        0x00005000:    00000001    ....    DCD    1
        0x00005004:    00000000    ....    DCD    0
    .constdata
    os_timer_def_Timer1
        0x00005008:    000033a1    .3..    DCD    13217
        0x0000500c:    20001168    h..     DCD    536875368
    os_timer_def_Timer2
        0x00005010:    000033a5    .3..    DCD    13221
        0x00005014:    20001180    ...     DCD    536875392
    .constdata
    os_maxtaskrun
        0x00005018:    00000003    ....    DCD    3
    .constdata
    os_stackinfo
        0x0000501c:    01020190    ....    DCD    16908688
    .constdata
    os_rrobin
        0x00005020:    00010005    ....    DCD    65541
    .constdata
    os_trv
        0x00005024:    00002edf    ....    DCD    11999
    .constdata
    os_flags
        0x00005028:    00000001    ....    DCD    1
    .constdata
    __tagsym$$used
    CMSIS_RTOS_API_Version
        0x0000502c:    00010002    ....    DCD    65538
    __tagsym$$used
    CMSIS_RTOS_RTX_Version
        0x00005030:    00040052    R...    DCD    262226
    __tagsym$$used
    os_clockrate
        0x00005034:    000003e8    ....    DCD    1000
    __tagsym$$used
    os_timernum
        0x00005038:    00000000    ....    DCD    0
    .constdata
    mp_tcb_size
        0x0000503c:    000000a8    ....    DCD    168
    .constdata
    mp_stk_size
        0x00005040:    00000330    0...    DCD    816
    .constdata
    os_stack_sz
        0x00005044:    000013a8    ....    DCD    5032
    .constdata
    os_fifo_size
        0x00005048:    00000010    ....    DCD    16
    .constdata
    os_thread_def_osTimerThread
        0x0000504c:    00003cbd    .<..    DCD    15549
        0x00005050:    00000002    ....    DCD    2
        0x00005054:    00000001    ....    DCD    1
        0x00005058:    000000c8    ....    DCD    200
    .constdata
    os_messageQ_def_osTimerMessageQ
        0x0000505c:    00000004    ....    DCD    4
        0x00005060:    20001198    ...     DCD    536875416
    .constdata
    mp_tmr_size
        0x00005064:    00000000    ....    DCD    0
    .constdata
    os_thread_def_main
        0x00005068:    00003aa9    .:..    DCD    15017
        0x0000506c:    00000000    ....    DCD    0
        0x00005070:    00000001    ....    DCD    1
        0x00005074:    00000708    ....    DCD    1800
    .constdata
        0x00005078:    00000000    ....    DCD    0
        0x0000507c:    00000020     ...    DCD    32
        0x00005080:    00000000    ....    DCD    0
        0x00005084:    00000004    ....    DCD    4
        0x00005088:    0000000c    ....    DCD    12
        0x0000508c:    00000024    $...    DCD    36
        0x00005090:    00000000    ....    DCD    0
        0x00005094:    00000004    ....    DCD    4
        0x00005098:    0000002c    ,...    DCD    44
        0x0000509c:    00000000    ....    DCD    0
        0x000050a0:    00000000    ....    DCD    0
        0x000050a4:    00000004    ....    DCD    4
        0x000050a8:    0000002c    ,...    DCD    44
        0x000050ac:    00000000    ....    DCD    0
    .constdata
        0x000050b0:    00b71b00    ....    DCD    12000000
        0x000050b4:    00000000    ....    DCD    0
        0x000050b8:    00000000    ....    DCD    0
        0x000050bc:    01518000    ..Q.    DCD    22118400
        0x000050c0:    00b71b00    ....    DCD    12000000
        0x000050c4:    00000000    ....    DCD    0
        0x000050c8:    00000000    ....    DCD    0
        0x000050cc:    01518000    ..Q.    DCD    22118400
        0x000050d0:    00b71b00    ....    DCD    12000000
        0x000050d4:    00000000    ....    DCD    0
        0x000050d8:    00000000    ....    DCD    0
        0x000050dc:    01518000    ..Q.    DCD    22118400
    .constdata
    uc_hextab
        0x000050e0:    33323130    0123    DCD    858927408
        0x000050e4:    37363534    4567    DCD    926299444
        0x000050e8:    42413938    89AB    DCD    1111570744
        0x000050ec:    46454443    CDEF    DCD    1178944579
        0x000050f0:    00583040    @0X.    DCD    5779520
    lc_hextab
        0x000050f4:    33323130    0123    DCD    858927408
        0x000050f8:    37363534    4567    DCD    926299444
        0x000050fc:    62613938    89ab    DCD    1650538808
        0x00005100:    66656463    cdef    DCD    1717920867
        0x00005104:    00783040    @0x.    DCD    7876672
    .constdata
    tenpwrs_x
        0x00005108:    00004002    .@..    DCD    16386
        0x0000510c:    a0000000    ....    DCD    2684354560
        0x00005110:    00000000    ....    DCD    0
        0x00005114:    00004005    .@..    DCD    16389
        0x00005118:    c8000000    ....    DCD    3355443200
        0x0000511c:    00000000    ....    DCD    0
        0x00005120:    0000400c    .@..    DCD    16396
        0x00005124:    9c400000    ..@.    DCD    2621440000
        0x00005128:    00000000    ....    DCD    0
        0x0000512c:    00004019    .@..    DCD    16409
        0x00005130:    bebc2000    . ..    DCD    3200000000
        0x00005134:    00000000    ....    DCD    0
        0x00005138:    00004034    4@..    DCD    16436
        0x0000513c:    8e1bc9bf    ....    DCD    2384185791
        0x00005140:    04000000    ....    DCD    67108864
    tenpwrs_i
        0x00005144:    000040b5    .@..    DCD    16565
        0x00005148:    d0cf4b50    PK..    DCD    3503246160
        0x0000514c:    cfe20766    f...    DCD    3487696742
        0x00005150:    00000001    ....    DCD    1
        0x00005154:    0000416c    lA..    DCD    16748
        0x00005158:    aa51823e    >.Q.    DCD    2857468478
        0x0000515c:    34a7eedf    ...4    DCD    883420895
        0x00005160:    00000001    ....    DCD    1
        0x00005164:    000042d9    .B..    DCD    17113
        0x00005168:    e2a0b5dc    ....    DCD    3802183132
        0x0000516c:    971f303a    :0..    DCD    2535403578
        0x00005170:    ffffffff    ....    DCD    4294967295
        0x00005174:    000045b4    .E..    DCD    17844
        0x00005178:    c8a025fd    .%..    DCD    3365938685
        0x0000517c:    4fc1a3e9    ...O    DCD    1338090473
        0x00005180:    ffffffff    ....    DCD    4294967295
        0x00005184:    00003fff    .?..    DCD    16383
        0x00005188:    80000000    ....    DCD    2147483648
        0x0000518c:    00000000    ....    DCD    0
        0x00005190:    00003fff    .?..    DCD    16383
        0x00005194:    80000000    ....    DCD    2147483648
        0x00005198:    00000000    ....    DCD    0
    .conststring
        0x0000519c:    0a0d0a0d    ....    DCD    168626701
        0x000051a0:    432b5441    AT+C    DCD    1126913089
        0x000051a4:    3d4e5546    FUN=    DCD    1028543814
        0x000051a8:    0d312c31    1,1.    DCD    221326385
        0x000051ac:    000a0d0a    ....    DCD    658698
        0x000051b0:    54410a0d    ..AT    DCD    1413548557
        0x000051b4:    4e47512b    +QGN    DCD    1313296683
        0x000051b8:    3d435353    SSC=    DCD    1027822419
        0x000051bc:    0d0a0d31    1...    DCD    218762545
        0x000051c0:    0000000a    ....    DCD    10
        0x000051c4:    54410a0d    ..AT    DCD    1413548557
        0x000051c8:    4346512b    +QFC    DCD    1128681771
        0x000051cc:    45534f4c    LOSE    DCD    1163087692
        0x000051d0:    0d73253d    =%s.    DCD    225649981
        0x000051d4:    000a0d0a    ....    DCD    658698
        0x000051d8:    54410a0d    ..AT    DCD    1413548557
        0x000051dc:    4f46512b    +QFO    DCD    1330008363
        0x000051e0:    3d4e4550    PEN=    DCD    1028539728
        0x000051e4:    474f4c22    "LOG    DCD    1196379170
        0x000051e8:    5458542e    .TXT    DCD    1415074862
        0x000051ec:    0d302c22    ",0.    DCD    221260834
        0x000051f0:    0000000a    ....    DCD    10
        0x000051f4:    33303137    7103    DCD    858796343
        0x000051f8:    00000000    ....    DCD    0
        0x000051fc:    00004b4f    OK..    DCD    19279
        0x00005200:    454d432b    +CME    DCD    1162691371
        0x00005204:    52524520     ERR    DCD    1381123360
        0x00005208:    0000524f    OR..    DCD    21071
        0x0000520c:    20454d43    CME     DCD    541412675
        0x00005210:    4f525245    ERRO    DCD    1330795077
        0x00005214:    00000052    R...    DCD    82
        0x00005218:    64616552    Read    DCD    1684104530
        0x0000521c:    00000079    y...    DCD    121
    Region$$Table$$Base
        0x00005220:    0000536c    lS..    DCD    21356
        0x00005224:    20000000    ...     DCD    536870912
        0x00005228:    000000d0    ....    DCD    208
        0x0000522c:    00000104    ....    DCD    260
        0x00005230:    0000543c    <T..    DCD    21564
        0x00005234:    200000d0    ...     DCD    536871120
        0x00005238:    00002f60    `/..    DCD    12128
        0x0000523c:    00000120     ...    DCD    288
    locale$$data
    Region$$Table$$Limit
        0x00005240:    0000001c    ....    DCD    28
    __lcnum_c_name
        0x00005244:    00000043    C...    DCD    67
        0x00005248:    fffffff8    ....    DCD    4294967288
    __lcnum_c_start
        0x0000524c:    0000000c    ....    DCD    12
        0x00005250:    0000000e    ....    DCD    14
        0x00005254:    0000000f    ....    DCD    15
    __lcnum_c_point
        0x00005258:    002e        ..      DCW    46
    __lcnum_c_thousands
        0x0000525a:    00          .       DCB    0
    __lcnum_c_grouping
        0x0000525b:    00          .       DCB    0
    __lcnum_c_end
    locale$$data
        0x0000525c:    00000110    ....    DCD    272
    __lcctype_c_name
        0x00005260:    00000043    C...    DCD    67
        0x00005264:    fffffff8    ....    DCD    4294967288
    __lcctype_c_start
        0x00005268:    00          .       DCB    0
    __ctype
        0x00005269:    404040      @@@     DCB    64,64,64
        0x0000526c:    40404040    @@@@    DCD    1077952576
        0x00005270:    41414040    @@AA    DCD    1094795328
        0x00005274:    40414141    AAA@    DCD    1078018369
        0x00005278:    40404040    @@@@    DCD    1077952576
        0x0000527c:    40404040    @@@@    DCD    1077952576
        0x00005280:    40404040    @@@@    DCD    1077952576
        0x00005284:    40404040    @@@@    DCD    1077952576
        0x00005288:    02020540    @...    DCD    33686848
        0x0000528c:    02020202    ....    DCD    33686018
        0x00005290:    02020202    ....    DCD    33686018
        0x00005294:    02020202    ....    DCD    33686018
        0x00005298:    20202002    .       DCD    538976258
        0x0000529c:    20202020            DCD    538976288
        0x000052a0:    02202020       .    DCD    35659808
        0x000052a4:    02020202    ....    DCD    33686018
        0x000052a8:    90900202    ....    DCD    2425356802
        0x000052ac:    90909090    ....    DCD    2425393296
        0x000052b0:    10101010    ....    DCD    269488144
        0x000052b4:    10101010    ....    DCD    269488144
        0x000052b8:    10101010    ....    DCD    269488144
        0x000052bc:    10101010    ....    DCD    269488144
        0x000052c0:    10101010    ....    DCD    269488144
        0x000052c4:    02020202    ....    DCD    33686018
        0x000052c8:    88880202    ....    DCD    2290614786
        0x000052cc:    88888888    ....    DCD    2290649224
        0x000052d0:    08080808    ....    DCD    134744072
        0x000052d4:    08080808    ....    DCD    134744072
        0x000052d8:    08080808    ....    DCD    134744072
        0x000052dc:    08080808    ....    DCD    134744072
        0x000052e0:    08080808    ....    DCD    134744072
        0x000052e4:    02020202    ....    DCD    33686018
        0x000052e8:    00000040    @...    DCD    64
        0x000052ec:    00000000    ....    DCD    0
        0x000052f0:    00000000    ....    DCD    0
        0x000052f4:    00000000    ....    DCD    0
        0x000052f8:    00000000    ....    DCD    0
        0x000052fc:    00000000    ....    DCD    0
        0x00005300:    00000000    ....    DCD    0
        0x00005304:    00000000    ....    DCD    0
        0x00005308:    00000000    ....    DCD    0
        0x0000530c:    00000000    ....    DCD    0
        0x00005310:    00000000    ....    DCD    0
        0x00005314:    00000000    ....    DCD    0
        0x00005318:    00000000    ....    DCD    0
        0x0000531c:    00000000    ....    DCD    0
        0x00005320:    00000000    ....    DCD    0
        0x00005324:    00000000    ....    DCD    0
        0x00005328:    00000000    ....    DCD    0
        0x0000532c:    00000000    ....    DCD    0
        0x00005330:    00000000    ....    DCD    0
        0x00005334:    00000000    ....    DCD    0
        0x00005338:    00000000    ....    DCD    0
        0x0000533c:    00000000    ....    DCD    0
        0x00005340:    00000000    ....    DCD    0
        0x00005344:    00000000    ....    DCD    0
        0x00005348:    00000000    ....    DCD    0
        0x0000534c:    00000000    ....    DCD    0
        0x00005350:    00000000    ....    DCD    0
        0x00005354:    00000000    ....    DCD    0
        0x00005358:    00000000    ....    DCD    0
        0x0000535c:    00000000    ....    DCD    0
        0x00005360:    00000000    ....    DCD    0
        0x00005364:    00000000    ....    DCD    0
        0x00005368:    00000000    ....    DCD    0
    __lcctype_c_end

** Section #2 'ER_RW' (SHT_PROGBITS) [SHF_ALLOC + SHF_WRITE]
    Size   : 208 bytes (alignment 4)
    Address: 0x20000000


** Section #3 'ER_ZI' (SHT_NOBITS) [SHF_ALLOC + SHF_WRITE]
    Size   : 12128 bytes (alignment 8)
    Address: 0x200000d0


** Section #4 '.debug_abbrev' (SHT_PROGBITS)
    Size   : 1476 bytes


** Section #5 '.debug_frame' (SHT_PROGBITS)
    Size   : 5820 bytes


** Section #6 '.debug_info' (SHT_PROGBITS)
    Size   : 74484 bytes


** Section #7 '.debug_line' (SHT_PROGBITS)
    Size   : 26764 bytes


** Section #8 '.debug_loc' (SHT_PROGBITS)
    Size   : 14276 bytes


** Section #9 '.debug_macinfo' (SHT_PROGBITS)
    Size   : 251368 bytes


** Section #10 '.debug_pubnames' (SHT_PROGBITS)
    Size   : 7163 bytes


** Section #11 '.symtab' (SHT_SYMTAB)
    Size   : 19008 bytes (alignment 4)
    String table #12 '.strtab'
    Last local symbol no. 790


** Section #12 '.strtab' (SHT_STRTAB)
    Size   : 12460 bytes


** Section #13 '.note' (SHT_NOTE)
    Size   : 28 bytes (alignment 4)


** Section #14 '.comment' (SHT_PROGBITS)
    Size   : 25496 bytes


** Section #15 '.shstrtab' (SHT_STRTAB)
    Size   : 156 bytes


