
========================================================================

** ELF Header Information

    File Name: .\obj\UART.axf

    Machine class: ELFCLASS32 (32-bit)
    Data encoding: ELFDATA2LSB (Little endian)
    Header version: EV_CURRENT (Current version)
    Operating System ABI: none
    ABI Version: 0
    File Type: ET_EXEC (Executable) (2)
    Machine: EM_ARM (ARM)

    Image Entry point: 0x00000359
    Flags: EF_ARM_HASENTRY + EF_ARM_ABI_FLOAT_SOFT (0x05000202)

    ARM ELF revision: 5 (ABI version 2)

    Conforms to Soft float procedure-call standard

    Built with
    Component: ARM Compiler 5.06 update 4 (build 422) Tool: armasm [4d35cf]
    Component: ARM Compiler 5.06 update 1 (build 61) Tool: armasm [4d35a5]
    Component: ARM Compiler 5.06 update 4 (build 422) Tool: armlink [4d35d2]
    Component: ARM Compiler 5.06 update 1 (build 61) Tool: armlink [4d35a8]

    Header size: 52 bytes (0x34)
    Program header entry size: 32 bytes (0x20)
    Section header entry size: 40 bytes (0x28)

    Program header entries: 1
    Section header entries: 16

    Program header offset: 616988 (0x00096a1c)
    Section header offset: 617020 (0x00096a3c)

    Section header string table index: 15

========================================================================

** Program header #0 (PT_LOAD) [PF_X + PF_W + PF_R + PF_ARM_ENTRY]
    Size : 39388 bytes (24184 bytes in file)
    Virtual address: 0x00000000 (Alignment 8)


========================================================================

** Section #1 'ER_RO' (SHT_PROGBITS) [SHF_ALLOC + SHF_EXECINSTR]
    Size   : 23956 bytes (alignment 4)
    Address: 0x00000000

    $d.realdata
    RESET
    __Vectors
        0x00000000:    20003c48    H<.     DCD    536886344
        0x00000004:    00000359    Y...    DCD    857
        0x00000008:    00000375    u...    DCD    885
        0x0000000c:    000000e5    ....    DCD    229
        0x00000010:    00000000    ....    DCD    0
        0x00000014:    00000000    ....    DCD    0
        0x00000018:    00000000    ....    DCD    0
        0x0000001c:    00000000    ....    DCD    0
        0x00000020:    00000000    ....    DCD    0
        0x00000024:    00000000    ....    DCD    0
        0x00000028:    00000000    ....    DCD    0
        0x0000002c:    00000171    q...    DCD    369
        0x00000030:    00000000    ....    DCD    0
        0x00000034:    00000000    ....    DCD    0
        0x00000038:    00000205    ....    DCD    517
        0x0000003c:    00000251    Q...    DCD    593
        0x00000040:    0000037f    ....    DCD    895
        0x00000044:    000009ef    ....    DCD    2543
        0x00000048:    0000037f    ....    DCD    895
        0x0000004c:    0000037f    ....    DCD    895
        0x00000050:    0000037f    ....    DCD    895
        0x00000054:    0000037f    ....    DCD    895
        0x00000058:    0000037f    ....    DCD    895
        0x0000005c:    0000037f    ....    DCD    895
        0x00000060:    0000037f    ....    DCD    895
        0x00000064:    0000037f    ....    DCD    895
        0x00000068:    0000037f    ....    DCD    895
        0x0000006c:    0000037f    ....    DCD    895
        0x00000070:    00000cb5    ....    DCD    3253
        0x00000074:    00000cb3    ....    DCD    3251
        0x00000078:    0000037f    ....    DCD    895
        0x0000007c:    0000037f    ....    DCD    895
        0x00000080:    0000037f    ....    DCD    895
        0x00000084:    0000037f    ....    DCD    895
        0x00000088:    0000037f    ....    DCD    895
        0x0000008c:    00001f71    q...    DCD    8049
        0x00000090:    0000037f    ....    DCD    895
        0x00000094:    0000037f    ....    DCD    895
        0x00000098:    0000037f    ....    DCD    895
        0x0000009c:    0000037f    ....    DCD    895
        0x000000a0:    00000000    ....    DCD    0
        0x000000a4:    0000037f    ....    DCD    895
        0x000000a8:    0000037f    ....    DCD    895
        0x000000ac:    0000037f    ....    DCD    895
        0x000000b0:    0000037f    ....    DCD    895
        0x000000b4:    0000037f    ....    DCD    895
        0x000000b8:    0000037f    ....    DCD    895
        0x000000bc:    0000037f    ....    DCD    895
    $t
    .ARM.Collect$$$$00000000
    .ARM.Collect$$$$00000001
    __main
    _main_stk
        0x000000c0:    4807        .H      LDR      r0,__lit__00000000 ; [0xe0] = 0x20003c48
        0x000000c2:    4685        .F      MOV      sp,r0
    .ARM.Collect$$$$00000004
    _main_scatterload
        0x000000c4:    f003fbde    ....    BL       __scatterload ; 0x3884
    .ARM.Collect$$$$000000FF
    .ARM.Collect$$$$00000008
    .ARM.Collect$$$$0000000A
    .ARM.Collect$$$$0000000D
    .ARM.Collect$$$$0000000F
    __main_after_scatterload
    __rt_final_cpp
    __rt_final_exit
    _main_clock
    _main_cpp_init
    _main_init
        0x000000c8:    f004fb70    ..p.    BL       osKernelInitialize ; 0x47ac
        0x000000cc:    2100        .!      MOVS     r1,#0
        0x000000ce:    4803        .H      LDR      r0,[pc,#12] ; [0xdc] = 0x5c64
        0x000000d0:    f004fbfa    ....    BL       osThreadCreate ; 0x48c8
        0x000000d4:    f004fb7e    ..~.    BL       osKernelStart ; 0x47d4
        0x000000d8:    e7fe        ..      B        0xd8 ; __main_after_scatterload + 16
    $d
        0x000000da:    0000        ..      DCW    0
        0x000000dc:    00005c64    d\..    DCD    23652
    .ARM.Collect$$$$00002712
    __lit__00000000
        0x000000e0:    20003c48    H<.     DCD    536886344
    $t
    .emb_text
    HardFault_Handler
        0x000000e4:    2004        .       MOVS     r0,#4
        0x000000e6:    4671        qF      MOV      r1,lr
        0x000000e8:    4208        .B      TST      r0,r1
        0x000000ea:    d002        ..      BEQ      0xf2 ; HardFault_Handler + 14
        0x000000ec:    f3ef8009    ....    MRS      r0,PSP
        0x000000f0:    e001        ..      B        0xf6 ; HardFault_Handler + 18
        0x000000f2:    f3ef8008    ....    MRS      r0,MSP
        0x000000f6:    4671        qF      MOV      r1,lr
        0x000000f8:    4a00        .J      LDR      r2,[pc,#0] ; [0xfc] = 0x2c0f
        0x000000fa:    4710        .G      BX       r2
    $d
        0x000000fc:    00002c0f    .,..    DCD    11279
    $t
    .emb_text
    rt_set_PSP
        0x00000100:    f3808809    ....    MSR      PSP,r0
        0x00000104:    4770        pG      BX       lr
    rt_get_PSP
        0x00000106:    f3ef8009    ....    MRS      r0,PSP
        0x0000010a:    4770        pG      BX       lr
    os_set_env
        0x0000010c:    4668        hF      MOV      r0,sp
        0x0000010e:    f3808809    ....    MSR      PSP,r0
        0x00000112:    4806        .H      LDR      r0,[pc,#24] ; [0x12c] = 0x5c24
        0x00000114:    7800        .x      LDRB     r0,[r0,#0]
        0x00000116:    07c0        ..      LSLS     r0,r0,#31
        0x00000118:    d103        ..      BNE      0x122 ; os_set_env + 22
        0x0000011a:    2003        .       MOVS     r0,#3
        0x0000011c:    f3808814    ....    MSR      CONTROL,r0
        0x00000120:    4770        pG      BX       lr
        0x00000122:    2002        .       MOVS     r0,#2
        0x00000124:    f3808814    ....    MSR      CONTROL,r0
        0x00000128:    4770        pG      BX       lr
    $d
        0x0000012a:    0000        ..      DCW    0
        0x0000012c:    00005c24    $\..    DCD    23588
    $t
    _alloc_box
        0x00000130:    4b06        .K      LDR      r3,[pc,#24] ; [0x14c] = 0x4a55
        0x00000132:    469c        .F      MOV      r12,r3
        0x00000134:    f3ef8305    ....    MRS      r3,IPSR
        0x00000138:    061b        ..      LSLS     r3,r3,#24
        0x0000013a:    d105        ..      BNE      0x148 ; _alloc_box + 24
        0x0000013c:    f3ef8314    ....    MRS      r3,CONTROL
        0x00000140:    07db        ..      LSLS     r3,r3,#31
        0x00000142:    d001        ..      BEQ      0x148 ; _alloc_box + 24
        0x00000144:    df00        ..      SVC      #0x0 ; formerly SWI
        0x00000146:    4770        pG      BX       lr
        0x00000148:    4760        `G      BX       r12
    $d
        0x0000014a:    0000        ..      DCW    0
        0x0000014c:    00004a55    UJ..    DCD    19029
    $t
    _free_box
        0x00000150:    4b06        .K      LDR      r3,[pc,#24] ; [0x16c] = 0x4c41
        0x00000152:    469c        .F      MOV      r12,r3
        0x00000154:    f3ef8305    ....    MRS      r3,IPSR
        0x00000158:    061b        ..      LSLS     r3,r3,#24
        0x0000015a:    d105        ..      BNE      0x168 ; _free_box + 24
        0x0000015c:    f3ef8314    ....    MRS      r3,CONTROL
        0x00000160:    07db        ..      LSLS     r3,r3,#31
        0x00000162:    d001        ..      BEQ      0x168 ; _free_box + 24
        0x00000164:    df00        ..      SVC      #0x0 ; formerly SWI
        0x00000166:    4770        pG      BX       lr
        0x00000168:    4760        `G      BX       r12
    $d
        0x0000016a:    0000        ..      DCW    0
        0x0000016c:    00004c41    AL..    DCD    19521
    $t
    SVC_Handler
        0x00000170:    f3ef8009    ....    MRS      r0,PSP
        0x00000174:    6981        .i      LDR      r1,[r0,#0x18]
        0x00000176:    1e89        ..      SUBS     r1,r1,#2
        0x00000178:    7809        .x      LDRB     r1,[r1,#0]
        0x0000017a:    2900        .)      CMP      r1,#0
        0x0000017c:    d12b        +.      BNE      0x1d6 ; SVC_Handler + 102
        0x0000017e:    46a6        .F      MOV      lr,r4
        0x00000180:    c81f        ..      LDM      r0,{r0-r4}
        0x00000182:    46a4        .F      MOV      r12,r4
        0x00000184:    4674        tF      MOV      r4,lr
        0x00000186:    47e0        .G      BLX      r12
        0x00000188:    f3ef8309    ....    MRS      r3,PSP
        0x0000018c:    c307        ..      STM      r3!,{r0-r2}
        0x0000018e:    4b1a        .K      LDR      r3,[pc,#104] ; [0x1f8] = 0x200000c4
        0x00000190:    cb06        ..      LDM      r3!,{r1,r2}
        0x00000192:    4291        .B      CMP      r1,r2
        0x00000194:    d01c        ..      BEQ      0x1d0 ; SVC_Handler + 96
        0x00000196:    3b08        .;      SUBS     r3,r3,#8
        0x00000198:    2900        .)      CMP      r1,#0
        0x0000019a:    d00d        ..      BEQ      0x1b8 ; SVC_Handler + 72
        0x0000019c:    f3ef8009    ....    MRS      r0,PSP
        0x000001a0:    3820         8      SUBS     r0,r0,#0x20
        0x000001a2:    6288        .b      STR      r0,[r1,#0x28]
        0x000001a4:    c0f0        ..      STM      r0!,{r4-r7}
        0x000001a6:    4644        DF      MOV      r4,r8
        0x000001a8:    464d        MF      MOV      r5,r9
        0x000001aa:    4656        VF      MOV      r6,r10
        0x000001ac:    465f        _F      MOV      r7,r11
        0x000001ae:    c0f0        ..      STM      r0!,{r4-r7}
        0x000001b0:    b40c        ..      PUSH     {r2,r3}
        0x000001b2:    f005f8cf    ....    BL       rt_stk_check ; 0x5354
        0x000001b6:    bc0c        ..      POP      {r2,r3}
        0x000001b8:    601a        .`      STR      r2,[r3,#0]
        0x000001ba:    6a90        .j      LDR      r0,[r2,#0x28]
        0x000001bc:    3010        .0      ADDS     r0,r0,#0x10
        0x000001be:    c8f0        ..      LDM      r0!,{r4-r7}
        0x000001c0:    46a0        .F      MOV      r8,r4
        0x000001c2:    46a9        .F      MOV      r9,r5
        0x000001c4:    46b2        .F      MOV      r10,r6
        0x000001c6:    46bb        .F      MOV      r11,r7
        0x000001c8:    f3808809    ....    MSR      PSP,r0
        0x000001cc:    3820         8      SUBS     r0,r0,#0x20
        0x000001ce:    c8f0        ..      LDM      r0!,{r4-r7}
        0x000001d0:    2002        .       MOVS     r0,#2
        0x000001d2:    43c0        .C      MVNS     r0,r0
        0x000001d4:    4700        .G      BX       r0
        0x000001d6:    b510        ..      PUSH     {r4,lr}
        0x000001d8:    4a08        .J      LDR      r2,[pc,#32] ; [0x1fc] = 0x399c
        0x000001da:    6812        .h      LDR      r2,[r2,#0]
        0x000001dc:    4291        .B      CMP      r1,r2
        0x000001de:    d809        ..      BHI      0x1f4 ; SVC_Handler + 132
        0x000001e0:    4c07        .L      LDR      r4,[pc,#28] ; [0x200] = 0x399c
        0x000001e2:    0089        ..      LSLS     r1,r1,#2
        0x000001e4:    5864        dX      LDR      r4,[r4,r1]
        0x000001e6:    46a6        .F      MOV      lr,r4
        0x000001e8:    c81f        ..      LDM      r0,{r0-r4}
        0x000001ea:    46a4        .F      MOV      r12,r4
        0x000001ec:    47f0        .G      BLX      lr
        0x000001ee:    f3ef8409    ....    MRS      r4,PSP
        0x000001f2:    c40f        ..      STM      r4!,{r0-r3}
        0x000001f4:    bd10        ..      POP      {r4,pc}
    $d
        0x000001f6:    0000        ..      DCW    0
        0x000001f8:    200000c4    ...     DCD    536871108
        0x000001fc:    0000399c    .9..    DCD    14748
        0x00000200:    0000399c    .9..    DCD    14748
    $t
    PendSV_Handler
        0x00000204:    f004ff86    ....    BL       rt_pop_req ; 0x5114
        0x00000208:    4b10        .K      LDR      r3,[pc,#64] ; [0x24c] = 0x200000c4
        0x0000020a:    cb06        ..      LDM      r3!,{r1,r2}
        0x0000020c:    4291        .B      CMP      r1,r2
        0x0000020e:    d01a        ..      BEQ      0x246 ; PendSV_Handler + 66
        0x00000210:    3b08        .;      SUBS     r3,r3,#8
        0x00000212:    f3ef8009    ....    MRS      r0,PSP
        0x00000216:    3820         8      SUBS     r0,r0,#0x20
        0x00000218:    6288        .b      STR      r0,[r1,#0x28]
        0x0000021a:    c0f0        ..      STM      r0!,{r4-r7}
        0x0000021c:    4644        DF      MOV      r4,r8
        0x0000021e:    464d        MF      MOV      r5,r9
        0x00000220:    4656        VF      MOV      r6,r10
        0x00000222:    465f        _F      MOV      r7,r11
        0x00000224:    c0f0        ..      STM      r0!,{r4-r7}
        0x00000226:    b40c        ..      PUSH     {r2,r3}
        0x00000228:    f005f894    ....    BL       rt_stk_check ; 0x5354
        0x0000022c:    bc0c        ..      POP      {r2,r3}
        0x0000022e:    601a        .`      STR      r2,[r3,#0]
        0x00000230:    6a90        .j      LDR      r0,[r2,#0x28]
        0x00000232:    3010        .0      ADDS     r0,r0,#0x10
        0x00000234:    c8f0        ..      LDM      r0!,{r4-r7}
        0x00000236:    46a0        .F      MOV      r8,r4
        0x00000238:    46a9        .F      MOV      r9,r5
        0x0000023a:    46b2        .F      MOV      r10,r6
        0x0000023c:    46bb        .F      MOV      r11,r7
        0x0000023e:    f3808809    ....    MSR      PSP,r0
        0x00000242:    3820         8      SUBS     r0,r0,#0x20
        0x00000244:    c8f0        ..      LDM      r0!,{r4-r7}
        0x00000246:    2002        .       MOVS     r0,#2
        0x00000248:    43c0        .C      MVNS     r0,r0
        0x0000024a:    4700        .G      BX       r0
    $d
        0x0000024c:    200000c4    ...     DCD    536871108
    $t
    SysTick_Handler
        0x00000250:    f005f932    ..2.    BL       rt_systick ; 0x54b8
        0x00000254:    e7d8        ..      B        0x208 ; PendSV_Handler + 4
    $d
        0x00000256:    0000        ..      DCW    0
    $t
    OS_Tick_Handler
        0x00000258:    f004fbb8    ....    BL       os_tick_irqack ; 0x49cc
        0x0000025c:    f005f92c    ..,.    BL       rt_systick ; 0x54b8
        0x00000260:    e7d2        ..      B        0x208 ; PendSV_Handler + 4
    $d
        0x00000262:    0000        ..      DCW    0
    $t
    .text
    SysGet_PLLClockFreq
        0x00000264:    b5fe        ..      PUSH     {r1-r7,lr}
        0x00000266:    2000        .       MOVS     r0,#0
        0x00000268:    9002        ..      STR      r0,[sp,#8]
        0x0000026a:    4835        5H      LDR      r0,[pc,#212] ; [0x340] = 0x50000200
        0x0000026c:    6a45        Ej      LDR      r5,[r0,#0x24]
        0x0000026e:    01c0        ..      LSLS     r0,r0,#7
        0x00000270:    4028        (@      ANDS     r0,r0,r5
        0x00000272:    2800        .(      CMP      r0,#0
        0x00000274:    d001        ..      BEQ      0x27a ; SysGet_PLLClockFreq + 22
        0x00000276:    2000        .       MOVS     r0,#0
        0x00000278:    bdfe        ..      POP      {r1-r7,pc}
        0x0000027a:    2001        .       MOVS     r0,#1
        0x0000027c:    0440        @.      LSLS     r0,r0,#17
        0x0000027e:    4028        (@      ANDS     r0,r0,r5
        0x00000280:    2800        .(      CMP      r0,#0
        0x00000282:    d001        ..      BEQ      0x288 ; SysGet_PLLClockFreq + 36
        0x00000284:    4f2f        /O      LDR      r7,[pc,#188] ; [0x344] = 0xb71b00
        0x00000286:    e000        ..      B        0x28a ; SysGet_PLLClockFreq + 38
        0x00000288:    4f2e        .O      LDR      r7,[pc,#184] ; [0x344] = 0xb71b00
        0x0000028a:    2001        .       MOVS     r0,#1
        0x0000028c:    0300        ..      LSLS     r0,r0,#12
        0x0000028e:    4028        (@      ANDS     r0,r0,r5
        0x00000290:    2800        .(      CMP      r0,#0
        0x00000292:    d001        ..      BEQ      0x298 ; SysGet_PLLClockFreq + 52
        0x00000294:    2002        .       MOVS     r0,#2
        0x00000296:    e000        ..      B        0x29a ; SysGet_PLLClockFreq + 54
        0x00000298:    2001        .       MOVS     r0,#1
        0x0000029a:    9001        ..      STR      r0,[sp,#4]
        0x0000029c:    2003        .       MOVS     r0,#3
        0x0000029e:    0200        ..      LSLS     r0,r0,#8
        0x000002a0:    4028        (@      ANDS     r0,r0,r5
        0x000002a2:    0a06        ..      LSRS     r6,r0,#8
        0x000002a4:    2e00        ..      CMP      r6,#0
        0x000002a6:    d101        ..      BNE      0x2ac ; SysGet_PLLClockFreq + 72
        0x000002a8:    2402        .$      MOVS     r4,#2
        0x000002aa:    e008        ..      B        0x2be ; SysGet_PLLClockFreq + 90
        0x000002ac:    2e01        ..      CMP      r6,#1
        0x000002ae:    d101        ..      BNE      0x2b4 ; SysGet_PLLClockFreq + 80
        0x000002b0:    2404        .$      MOVS     r4,#4
        0x000002b2:    e004        ..      B        0x2be ; SysGet_PLLClockFreq + 90
        0x000002b4:    2e02        ..      CMP      r6,#2
        0x000002b6:    d101        ..      BNE      0x2bc ; SysGet_PLLClockFreq + 88
        0x000002b8:    2408        .$      MOVS     r4,#8
        0x000002ba:    e000        ..      B        0x2be ; SysGet_PLLClockFreq + 90
        0x000002bc:    2410        .$      MOVS     r4,#0x10
        0x000002be:    06a9        ..      LSLS     r1,r5,#26
        0x000002c0:    0e89        ..      LSRS     r1,r1,#26
        0x000002c2:    3120         1      ADDS     r1,r1,#0x20
        0x000002c4:    4379        yC      MULS     r1,r7,r1
        0x000002c6:    4608        .F      MOV      r0,r1
        0x000002c8:    4621        !F      MOV      r1,r4
        0x000002ca:    f002ff2f    ../.    BL       __aeabi_uidiv ; 0x312c
        0x000002ce:    9000        ..      STR      r0,[sp,#0]
        0x000002d0:    9901        ..      LDR      r1,[sp,#4]
        0x000002d2:    f002ff2b    ..+.    BL       __aeabi_uidiv ; 0x312c
        0x000002d6:    9002        ..      STR      r0,[sp,#8]
        0x000002d8:    9802        ..      LDR      r0,[sp,#8]
        0x000002da:    e7cd        ..      B        0x278 ; SysGet_PLLClockFreq + 20
    SysGet_HCLKFreq
        0x000002dc:    b570        p.      PUSH     {r4-r6,lr}
        0x000002de:    4818        .H      LDR      r0,[pc,#96] ; [0x340] = 0x50000200
        0x000002e0:    6900        .i      LDR      r0,[r0,#0x10]
        0x000002e2:    0745        E.      LSLS     r5,r0,#29
        0x000002e4:    0f6d        m.      LSRS     r5,r5,#29
        0x000002e6:    2d00        .-      CMP      r5,#0
        0x000002e8:    d101        ..      BNE      0x2ee ; SysGet_HCLKFreq + 18
        0x000002ea:    4c16        .L      LDR      r4,[pc,#88] ; [0x344] = 0xb71b00
        0x000002ec:    e00e        ..      B        0x30c ; SysGet_HCLKFreq + 48
        0x000002ee:    2d01        .-      CMP      r5,#1
        0x000002f0:    d101        ..      BNE      0x2f6 ; SysGet_HCLKFreq + 26
        0x000002f2:    03ec        ..      LSLS     r4,r5,#15
        0x000002f4:    e00a        ..      B        0x30c ; SysGet_HCLKFreq + 48
        0x000002f6:    2d02        .-      CMP      r5,#2
        0x000002f8:    d103        ..      BNE      0x302 ; SysGet_HCLKFreq + 38
        0x000002fa:    f7ffffb3    ....    BL       SysGet_PLLClockFreq ; 0x264
        0x000002fe:    4604        .F      MOV      r4,r0
        0x00000300:    e004        ..      B        0x30c ; SysGet_HCLKFreq + 48
        0x00000302:    2d03        .-      CMP      r5,#3
        0x00000304:    d101        ..      BNE      0x30a ; SysGet_HCLKFreq + 46
        0x00000306:    4c10        .L      LDR      r4,[pc,#64] ; [0x348] = 0x2710
        0x00000308:    e000        ..      B        0x30c ; SysGet_HCLKFreq + 48
        0x0000030a:    4c0e        .L      LDR      r4,[pc,#56] ; [0x344] = 0xb71b00
        0x0000030c:    480c        .H      LDR      r0,[pc,#48] ; [0x340] = 0x50000200
        0x0000030e:    69c0        .i      LDR      r0,[r0,#0x1c]
        0x00000310:    0700        ..      LSLS     r0,r0,#28
        0x00000312:    0f00        ..      LSRS     r0,r0,#28
        0x00000314:    1c46        F.      ADDS     r6,r0,#1
        0x00000316:    4631        1F      MOV      r1,r6
        0x00000318:    4620         F      MOV      r0,r4
        0x0000031a:    f002ff07    ....    BL       __aeabi_uidiv ; 0x312c
        0x0000031e:    bd70        p.      POP      {r4-r6,pc}
    SystemCoreClockUpdate
        0x00000320:    b510        ..      PUSH     {r4,lr}
        0x00000322:    f7ffffdb    ....    BL       SysGet_HCLKFreq ; 0x2dc
        0x00000326:    4909        .I      LDR      r1,[pc,#36] ; [0x34c] = 0x20000000
        0x00000328:    6008        .`      STR      r0,[r1,#0]
        0x0000032a:    4909        .I      LDR      r1,[pc,#36] ; [0x350] = 0xf4240
        0x0000032c:    4807        .H      LDR      r0,[pc,#28] ; [0x34c] = 0x20000000
        0x0000032e:    6800        .h      LDR      r0,[r0,#0]
        0x00000330:    104a        J.      ASRS     r2,r1,#1
        0x00000332:    1880        ..      ADDS     r0,r0,r2
        0x00000334:    f002fefa    ....    BL       __aeabi_uidiv ; 0x312c
        0x00000338:    4906        .I      LDR      r1,[pc,#24] ; [0x354] = 0x20000004
        0x0000033a:    6008        .`      STR      r0,[r1,#0]
        0x0000033c:    bd10        ..      POP      {r4,pc}
    $d
        0x0000033e:    0000        ..      DCW    0
        0x00000340:    50000200    ...P    DCD    1342177792
        0x00000344:    00b71b00    ....    DCD    12000000
        0x00000348:    00002710    .'..    DCD    10000
        0x0000034c:    20000000    ...     DCD    536870912
        0x00000350:    000f4240    @B..    DCD    1000000
        0x00000354:    20000004    ...     DCD    536870916
    $t
    .text
    Reset_Handler
        0x00000358:    4809        .H      LDR      r0,[pc,#36] ; [0x380] = 0x50000100
        0x0000035a:    490a        .I      LDR      r1,[pc,#40] ; [0x384] = 0x59
        0x0000035c:    6001        .`      STR      r1,[r0,#0]
        0x0000035e:    490a        .I      LDR      r1,[pc,#40] ; [0x388] = 0x16
        0x00000360:    6001        .`      STR      r1,[r0,#0]
        0x00000362:    490a        .I      LDR      r1,[pc,#40] ; [0x38c] = 0x88
        0x00000364:    6001        .`      STR      r1,[r0,#0]
        0x00000366:    4a0a        .J      LDR      r2,[pc,#40] ; [0x390] = 0x50000060
        0x00000368:    490a        .I      LDR      r1,[pc,#40] ; [0x394] = 0x5aa5
        0x0000036a:    6011        .`      STR      r1,[r2,#0]
        0x0000036c:    2100        .!      MOVS     r1,#0
        0x0000036e:    6001        .`      STR      r1,[r0,#0]
        0x00000370:    4809        .H      LDR      r0,[pc,#36] ; [0x398] = 0xc1
        0x00000372:    4700        .G      BX       r0
    NMI_Handler
        0x00000374:    e7fe        ..      B        NMI_Handler ; 0x374
        0x00000376:    e7fe        ..      B        0x376 ; NMI_Handler + 2
        0x00000378:    e7fe        ..      B        0x378 ; NMI_Handler + 4
        0x0000037a:    e7fe        ..      B        0x37a ; NMI_Handler + 6
        0x0000037c:    e7fe        ..      B        0x37c ; NMI_Handler + 8
    ADC_IRQHandler
    BOD_IRQHandler
    DAC_IRQHandler
    EINT0_IRQHandler
    EINT1_IRQHandler
    GPABC_IRQHandler
    GPDEF_IRQHandler
    HIRC_IRQHandler
    I2C0_IRQHandler
    I2S_IRQHandler
    LCD_IRQHandler
    PDMA_IRQHandler
    PDWU_IRQHandler
    PWM0_IRQHandler
    PWM1_IRQHandler
    RTC_IRQHandler
    SC0_IRQHandler
    SC1_IRQHandler
    SC2_IRQHandler
    SPI0_IRQHandler
    SPI1_IRQHandler
    SPI2_IRQHandler
    TMR0_IRQHandler
    TMR1_IRQHandler
    TMR2_IRQHandler
    TMR3_IRQHandler
    USBD_IRQHandler
        0x0000037e:    e7fe        ..      B        ADC_IRQHandler ; 0x37e
    $d
        0x00000380:    50000100    ...P    DCD    1342177536
        0x00000384:    00000059    Y...    DCD    89
        0x00000388:    00000016    ....    DCD    22
        0x0000038c:    00000088    ....    DCD    136
        0x00000390:    50000060    `..P    DCD    1342177376
        0x00000394:    00005aa5    .Z..    DCD    23205
        0x00000398:    000000c1    ....    DCD    193
    $t
    .text
    fileclose
        0x0000039c:    b508        ..      PUSH     {r3,lr}
        0x0000039e:    2164        d!      MOVS     r1,#0x64
        0x000003a0:    48d4        .H      LDR      r0,[pc,#848] ; [0x6f4] = 0x200011a0
        0x000003a2:    f002ff24    ..$.    BL       __aeabi_memclr ; 0x31ee
        0x000003a6:    4ad4        .J      LDR      r2,[pc,#848] ; [0x6f8] = 0x20000148
        0x000003a8:    a1d4        ..      ADR      r1,{pc}+0x354 ; 0x6fc
        0x000003aa:    48d2        .H      LDR      r0,[pc,#840] ; [0x6f4] = 0x200011a0
        0x000003ac:    f003fbaa    ....    BL       __0sprintf ; 0x3b04
        0x000003b0:    200a        .       MOVS     r0,#0xa
        0x000003b2:    a3d7        ..      ADR      r3,{pc}+0x35e ; 0x710
        0x000003b4:    a2d8        ..      ADR      r2,{pc}+0x364 ; 0x718
        0x000003b6:    a1d9        ..      ADR      r1,{pc}+0x366 ; 0x71c
        0x000003b8:    9000        ..      STR      r0,[sp,#0]
        0x000003ba:    48ce        .H      LDR      r0,[pc,#824] ; [0x6f4] = 0x200011a0
        0x000003bc:    f000fb33    ..3.    BL       SendAT ; 0xa26
        0x000003c0:    bd08        ..      POP      {r3,pc}
    remove_all_chars
        0x000003c2:    b530        0.      PUSH     {r4,r5,lr}
        0x000003c4:    4603        .F      MOV      r3,r0
        0x000003c6:    460c        .F      MOV      r4,r1
        0x000003c8:    4619        .F      MOV      r1,r3
        0x000003ca:    4618        .F      MOV      r0,r3
        0x000003cc:    e015        ..      B        0x3fa ; remove_all_chars + 56
        0x000003ce:    780d        .x      LDRB     r5,[r1,#0]
        0x000003d0:    7005        .p      STRB     r5,[r0,#0]
        0x000003d2:    1c49        I.      ADDS     r1,r1,#1
        0x000003d4:    7805        .x      LDRB     r5,[r0,#0]
        0x000003d6:    42a5        .B      CMP      r5,r4
        0x000003d8:    d00d        ..      BEQ      0x3f6 ; remove_all_chars + 52
        0x000003da:    7805        .x      LDRB     r5,[r0,#0]
        0x000003dc:    4295        .B      CMP      r5,r2
        0x000003de:    d00a        ..      BEQ      0x3f6 ; remove_all_chars + 52
        0x000003e0:    7805        .x      LDRB     r5,[r0,#0]
        0x000003e2:    2d20         -      CMP      r5,#0x20
        0x000003e4:    d007        ..      BEQ      0x3f6 ; remove_all_chars + 52
        0x000003e6:    7805        .x      LDRB     r5,[r0,#0]
        0x000003e8:    2d2f        /-      CMP      r5,#0x2f
        0x000003ea:    d004        ..      BEQ      0x3f6 ; remove_all_chars + 52
        0x000003ec:    7805        .x      LDRB     r5,[r0,#0]
        0x000003ee:    2d3a        :-      CMP      r5,#0x3a
        0x000003f0:    d001        ..      BEQ      0x3f6 ; remove_all_chars + 52
        0x000003f2:    2501        .%      MOVS     r5,#1
        0x000003f4:    e000        ..      B        0x3f8 ; remove_all_chars + 54
        0x000003f6:    2500        .%      MOVS     r5,#0
        0x000003f8:    1828        (.      ADDS     r0,r5,r0
        0x000003fa:    780d        .x      LDRB     r5,[r1,#0]
        0x000003fc:    2d00        .-      CMP      r5,#0
        0x000003fe:    d1e6        ..      BNE      0x3ce ; remove_all_chars + 12
        0x00000400:    7005        .p      STRB     r5,[r0,#0]
        0x00000402:    bd30        0.      POP      {r4,r5,pc}
    Save_FS
        0x00000404:    b538        8.      PUSH     {r3-r5,lr}
        0x00000406:    2400        .$      MOVS     r4,#0
        0x00000408:    1e61        a.      SUBS     r1,r4,#1
        0x0000040a:    48c7        .H      LDR      r0,[pc,#796] ; [0x728] = 0x20000024
        0x0000040c:    6800        .h      LDR      r0,[r0,#0]
        0x0000040e:    f004fa4d    ..M.    BL       osMutexWait ; 0x48ac
        0x00000412:    f004f901    ....    BL       fileopen ; 0x4618
        0x00000416:    2032        2       MOVS     r0,#0x32
        0x00000418:    a3bd        ..      ADR      r3,{pc}+0x2f8 ; 0x710
        0x0000041a:    a2bf        ..      ADR      r2,{pc}+0x2fe ; 0x718
        0x0000041c:    a1c3        ..      ADR      r1,{pc}+0x310 ; 0x72c
        0x0000041e:    9000        ..      STR      r0,[sp,#0]
        0x00000420:    a0c4        ..      ADR      r0,{pc}+0x314 ; 0x734
        0x00000422:    f000fb00    ....    BL       SendAT ; 0xa26
        0x00000426:    2164        d!      MOVS     r1,#0x64
        0x00000428:    48b2        .H      LDR      r0,[pc,#712] ; [0x6f4] = 0x200011a0
        0x0000042a:    f002fee0    ....    BL       __aeabi_memclr ; 0x31ee
        0x0000042e:    4ab2        .J      LDR      r2,[pc,#712] ; [0x6f8] = 0x20000148
        0x00000430:    a1c5        ..      ADR      r1,{pc}+0x318 ; 0x748
        0x00000432:    48b0        .H      LDR      r0,[pc,#704] ; [0x6f4] = 0x200011a0
        0x00000434:    f003fb66    ..f.    BL       __0sprintf ; 0x3b04
        0x00000438:    200a        .       MOVS     r0,#0xa
        0x0000043a:    a3b5        ..      ADR      r3,{pc}+0x2d6 ; 0x710
        0x0000043c:    a2b6        ..      ADR      r2,{pc}+0x2dc ; 0x718
        0x0000043e:    a1c8        ..      ADR      r1,{pc}+0x322 ; 0x760
        0x00000440:    9000        ..      STR      r0,[sp,#0]
        0x00000442:    48ac        .H      LDR      r0,[pc,#688] ; [0x6f4] = 0x200011a0
        0x00000444:    f000faef    ....    BL       SendAT ; 0xa26
        0x00000448:    48c7        .H      LDR      r0,[pc,#796] ; [0x768] = 0x200001bc
        0x0000044a:    f002fefb    ....    BL       strlen ; 0x3244
        0x0000044e:    4604        .F      MOV      r4,r0
        0x00000450:    a1c6        ..      ADR      r1,{pc}+0x31c ; 0x76c
        0x00000452:    48c5        .H      LDR      r0,[pc,#788] ; [0x768] = 0x200001bc
        0x00000454:    f002fed6    ....    BL       strcat ; 0x3204
        0x00000458:    48c3        .H      LDR      r0,[pc,#780] ; [0x768] = 0x200001bc
        0x0000045a:    f002fef3    ....    BL       strlen ; 0x3244
        0x0000045e:    4604        .F      MOV      r4,r0
        0x00000460:    48c1        .H      LDR      r0,[pc,#772] ; [0x768] = 0x200001bc
        0x00000462:    221a        ."      MOVS     r2,#0x1a
        0x00000464:    230a        .#      MOVS     r3,#0xa
        0x00000466:    2100        .!      MOVS     r1,#0
        0x00000468:    e004        ..      B        0x474 ; Save_FS + 112
        0x0000046a:    5c45        E\      LDRB     r5,[r0,r1]
        0x0000046c:    4295        .B      CMP      r5,r2
        0x0000046e:    d100        ..      BNE      0x472 ; Save_FS + 110
        0x00000470:    5443        CT      STRB     r3,[r0,r1]
        0x00000472:    1c49        I.      ADDS     r1,r1,#1
        0x00000474:    5c45        E\      LDRB     r5,[r0,r1]
        0x00000476:    2d00        .-      CMP      r5,#0
        0x00000478:    d1f7        ..      BNE      0x46a ; Save_FS + 102
        0x0000047a:    bf00        ..      NOP      
        0x0000047c:    2164        d!      MOVS     r1,#0x64
        0x0000047e:    489d        .H      LDR      r0,[pc,#628] ; [0x6f4] = 0x200011a0
        0x00000480:    f002feb5    ....    BL       __aeabi_memclr ; 0x31ee
        0x00000484:    4623        #F      MOV      r3,r4
        0x00000486:    4a9c        .J      LDR      r2,[pc,#624] ; [0x6f8] = 0x20000148
        0x00000488:    a1ba        ..      ADR      r1,{pc}+0x2ec ; 0x774
        0x0000048a:    489a        .H      LDR      r0,[pc,#616] ; [0x6f4] = 0x200011a0
        0x0000048c:    f003fb3a    ..:.    BL       __0sprintf ; 0x3b04
        0x00000490:    200a        .       MOVS     r0,#0xa
        0x00000492:    a39f        ..      ADR      r3,{pc}+0x27e ; 0x710
        0x00000494:    a2a0        ..      ADR      r2,{pc}+0x284 ; 0x718
        0x00000496:    a1b2        ..      ADR      r1,{pc}+0x2ca ; 0x760
        0x00000498:    9000        ..      STR      r0,[sp,#0]
        0x0000049a:    4896        .H      LDR      r0,[pc,#600] ; [0x6f4] = 0x200011a0
        0x0000049c:    f000fac3    ....    BL       SendAT ; 0xa26
        0x000004a0:    48b1        .H      LDR      r0,[pc,#708] ; [0x768] = 0x200001bc
        0x000004a2:    f002fecf    ....    BL       strlen ; 0x3244
        0x000004a6:    4604        .F      MOV      r4,r0
        0x000004a8:    221a        ."      MOVS     r2,#0x1a
        0x000004aa:    210d        .!      MOVS     r1,#0xd
        0x000004ac:    48ae        .H      LDR      r0,[pc,#696] ; [0x768] = 0x200001bc
        0x000004ae:    f7ffff88    ....    BL       remove_all_chars ; 0x3c2
        0x000004b2:    2014        .       MOVS     r0,#0x14
        0x000004b4:    a396        ..      ADR      r3,{pc}+0x25c ; 0x710
        0x000004b6:    a298        ..      ADR      r2,{pc}+0x262 ; 0x718
        0x000004b8:    a1b4        ..      ADR      r1,{pc}+0x2d4 ; 0x78c
        0x000004ba:    9000        ..      STR      r0,[sp,#0]
        0x000004bc:    48aa        .H      LDR      r0,[pc,#680] ; [0x768] = 0x200001bc
        0x000004be:    f000fe86    ....    BL       SendAT_FS ; 0x11ce
        0x000004c2:    a1b4        ..      ADR      r1,{pc}+0x2d2 ; 0x794
        0x000004c4:    48b6        .H      LDR      r0,[pc,#728] ; [0x7a0] = 0x20000f68
        0x000004c6:    f002fea9    ....    BL       strstr ; 0x321c
        0x000004ca:    2800        .(      CMP      r0,#0
        0x000004cc:    d003        ..      BEQ      0x4d6 ; Save_FS + 210
        0x000004ce:    49b5        .I      LDR      r1,[pc,#724] ; [0x7a4] = 0xdac
        0x000004d0:    48a5        .H      LDR      r0,[pc,#660] ; [0x768] = 0x200001bc
        0x000004d2:    f002fe8c    ....    BL       __aeabi_memclr ; 0x31ee
        0x000004d6:    f7ffff61    ..a.    BL       fileclose ; 0x39c
        0x000004da:    4893        .H      LDR      r0,[pc,#588] ; [0x728] = 0x20000024
        0x000004dc:    6800        .h      LDR      r0,[r0,#0]
        0x000004de:    f004f9d7    ....    BL       osMutexRelease ; 0x4890
        0x000004e2:    bd38        8.      POP      {r3-r5,pc}
    Init_Thread
        0x000004e4:    b510        ..      PUSH     {r4,lr}
        0x000004e6:    2100        .!      MOVS     r1,#0
        0x000004e8:    48af        .H      LDR      r0,[pc,#700] ; [0x7a8] = 0x5b90
        0x000004ea:    f004f9ed    ....    BL       osThreadCreate ; 0x48c8
        0x000004ee:    49af        .I      LDR      r1,[pc,#700] ; [0x7ac] = 0x20000008
        0x000004f0:    6008        .`      STR      r0,[r1,#0]
        0x000004f2:    4608        .F      MOV      r0,r1
        0x000004f4:    6800        .h      LDR      r0,[r0,#0]
        0x000004f6:    2800        .(      CMP      r0,#0
        0x000004f8:    d101        ..      BNE      0x4fe ; Init_Thread + 26
        0x000004fa:    1e40        @.      SUBS     r0,r0,#1
        0x000004fc:    bd10        ..      POP      {r4,pc}
        0x000004fe:    2100        .!      MOVS     r1,#0
        0x00000500:    48ab        .H      LDR      r0,[pc,#684] ; [0x7b0] = 0x5ba0
        0x00000502:    f004f9e1    ....    BL       osThreadCreate ; 0x48c8
        0x00000506:    49ab        .I      LDR      r1,[pc,#684] ; [0x7b4] = 0x2000000c
        0x00000508:    6008        .`      STR      r0,[r1,#0]
        0x0000050a:    48a8        .H      LDR      r0,[pc,#672] ; [0x7ac] = 0x20000008
        0x0000050c:    6800        .h      LDR      r0,[r0,#0]
        0x0000050e:    2800        .(      CMP      r0,#0
        0x00000510:    d101        ..      BNE      0x516 ; Init_Thread + 50
        0x00000512:    1e40        @.      SUBS     r0,r0,#1
        0x00000514:    e7f2        ..      B        0x4fc ; Init_Thread + 24
        0x00000516:    2000        .       MOVS     r0,#0
        0x00000518:    e7f0        ..      B        0x4fc ; Init_Thread + 24
    Thread
        0x0000051a:    b508        ..      PUSH     {r3,lr}
        0x0000051c:    e01b        ..      B        0x556 ; Thread + 60
        0x0000051e:    2000        .       MOVS     r0,#0
        0x00000520:    49a5        .I      LDR      r1,[pc,#660] ; [0x7b8] = 0x20000089
        0x00000522:    7008        .p      STRB     r0,[r1,#0]
        0x00000524:    2001        .       MOVS     r0,#1
        0x00000526:    49a5        .I      LDR      r1,[pc,#660] ; [0x7bc] = 0x2000008a
        0x00000528:    7008        .p      STRB     r0,[r1,#0]
        0x0000052a:    2000        .       MOVS     r0,#0
        0x0000052c:    49a4        .I      LDR      r1,[pc,#656] ; [0x7c0] = 0x2000008b
        0x0000052e:    7008        .p      STRB     r0,[r1,#0]
        0x00000530:    2005        .       MOVS     r0,#5
        0x00000532:    a3a4        ..      ADR      r3,{pc}+0x292 ; 0x7c4
        0x00000534:    a276        v.      ADR      r2,{pc}+0x1dc ; 0x710
        0x00000536:    a178        x.      ADR      r1,{pc}+0x1e2 ; 0x718
        0x00000538:    9000        ..      STR      r0,[sp,#0]
        0x0000053a:    a0a4        ..      ADR      r0,{pc}+0x292 ; 0x7cc
        0x0000053c:    f000fa73    ..s.    BL       SendAT ; 0xa26
        0x00000540:    200a        .       MOVS     r0,#0xa
        0x00000542:    a373        s.      ADR      r3,{pc}+0x1ce ; 0x710
        0x00000544:    a274        t.      ADR      r2,{pc}+0x1d4 ; 0x718
        0x00000546:    a1a5        ..      ADR      r1,{pc}+0x296 ; 0x7dc
        0x00000548:    9000        ..      STR      r0,[sp,#0]
        0x0000054a:    a0a7        ..      ADR      r0,{pc}+0x29e ; 0x7e8
        0x0000054c:    f001fb94    ....    BL       SendAT_GPS ; 0x1c78
        0x00000550:    48ac        .H      LDR      r0,[pc,#688] ; [0x804] = 0x1388
        0x00000552:    f004f91d    ....    BL       osDelay ; 0x4790
        0x00000556:    e7e2        ..      B        0x51e ; Thread + 4
    Thread1
        0x00000558:    b51c        ..      PUSH     {r2-r4,lr}
        0x0000055a:    e094        ..      B        0x686 ; Thread1 + 302
        0x0000055c:    2000        .       MOVS     r0,#0
        0x0000055e:    4996        .I      LDR      r1,[pc,#600] ; [0x7b8] = 0x20000089
        0x00000560:    7008        .p      STRB     r0,[r1,#0]
        0x00000562:    4996        .I      LDR      r1,[pc,#600] ; [0x7bc] = 0x2000008a
        0x00000564:    7008        .p      STRB     r0,[r1,#0]
        0x00000566:    2001        .       MOVS     r0,#1
        0x00000568:    4995        .I      LDR      r1,[pc,#596] ; [0x7c0] = 0x2000008b
        0x0000056a:    7008        .p      STRB     r0,[r1,#0]
        0x0000056c:    f000fd57    ..W.    BL       cpinquerry ; 0x101e
        0x00000570:    48a5        .H      LDR      r0,[pc,#660] ; [0x808] = 0x2000005d
        0x00000572:    7800        .x      LDRB     r0,[r0,#0]
        0x00000574:    2801        .(      CMP      r0,#1
        0x00000576:    d133        3.      BNE      0x5e0 ; Thread1 + 136
        0x00000578:    f000fdb1    ....    BL       cregquerry ; 0x10de
        0x0000057c:    48a3        .H      LDR      r0,[pc,#652] ; [0x80c] = 0x2000005e
        0x0000057e:    7800        .x      LDRB     r0,[r0,#0]
        0x00000580:    2801        .(      CMP      r0,#1
        0x00000582:    d12d        -.      BNE      0x5e0 ; Thread1 + 136
        0x00000584:    2032        2       MOVS     r0,#0x32
        0x00000586:    a362        b.      ADR      r3,{pc}+0x18a ; 0x710
        0x00000588:    a263        c.      ADR      r2,{pc}+0x190 ; 0x718
        0x0000058a:    a168        h.      ADR      r1,{pc}+0x1a2 ; 0x72c
        0x0000058c:    9000        ..      STR      r0,[sp,#0]
        0x0000058e:    a0a0        ..      ADR      r0,{pc}+0x282 ; 0x810
        0x00000590:    f000fa49    ..I.    BL       SendAT ; 0xa26
        0x00000594:    a1a2        ..      ADR      r1,{pc}+0x28c ; 0x820
        0x00000596:    4882        .H      LDR      r0,[pc,#520] ; [0x7a0] = 0x20000f68
        0x00000598:    f002fe40    ..@.    BL       strstr ; 0x321c
        0x0000059c:    2800        .(      CMP      r0,#0
        0x0000059e:    d01f        ..      BEQ      0x5e0 ; Thread1 + 136
        0x000005a0:    2005        .       MOVS     r0,#5
        0x000005a2:    a35b        [.      ADR      r3,{pc}+0x16e ; 0x710
        0x000005a4:    a25c        \.      ADR      r2,{pc}+0x174 ; 0x718
        0x000005a6:    a161        a.      ADR      r1,{pc}+0x186 ; 0x72c
        0x000005a8:    9000        ..      STR      r0,[sp,#0]
        0x000005aa:    a09e        ..      ADR      r0,{pc}+0x27a ; 0x824
        0x000005ac:    f000fa3b    ..;.    BL       SendAT ; 0xa26
        0x000005b0:    2002        .       MOVS     r0,#2
        0x000005b2:    a357        W.      ADR      r3,{pc}+0x15e ; 0x710
        0x000005b4:    a258        X.      ADR      r2,{pc}+0x164 ; 0x718
        0x000005b6:    a15d        ].      ADR      r1,{pc}+0x176 ; 0x72c
        0x000005b8:    9000        ..      STR      r0,[sp,#0]
        0x000005ba:    a0a0        ..      ADR      r0,{pc}+0x282 ; 0x83c
        0x000005bc:    f000fa33    ..3.    BL       SendAT ; 0xa26
        0x000005c0:    2005        .       MOVS     r0,#5
        0x000005c2:    a353        S.      ADR      r3,{pc}+0x14e ; 0x710
        0x000005c4:    a254        T.      ADR      r2,{pc}+0x154 ; 0x718
        0x000005c6:    a159        Y.      ADR      r1,{pc}+0x166 ; 0x72c
        0x000005c8:    9000        ..      STR      r0,[sp,#0]
        0x000005ca:    a0a0        ..      ADR      r0,{pc}+0x282 ; 0x84c
        0x000005cc:    f000fa2b    ..+.    BL       SendAT ; 0xa26
        0x000005d0:    2002        .       MOVS     r0,#2
        0x000005d2:    a34f        O.      ADR      r3,{pc}+0x13e ; 0x710
        0x000005d4:    a250        P.      ADR      r2,{pc}+0x144 ; 0x718
        0x000005d6:    a155        U.      ADR      r1,{pc}+0x156 ; 0x72c
        0x000005d8:    9000        ..      STR      r0,[sp,#0]
        0x000005da:    a0a0        ..      ADR      r0,{pc}+0x282 ; 0x85c
        0x000005dc:    f000fa23    ..#.    BL       SendAT ; 0xa26
        0x000005e0:    2005        .       MOVS     r0,#5
        0x000005e2:    a34b        K.      ADR      r3,{pc}+0x12e ; 0x710
        0x000005e4:    a24c        L.      ADR      r2,{pc}+0x134 ; 0x718
        0x000005e6:    a151        Q.      ADR      r1,{pc}+0x146 ; 0x72c
        0x000005e8:    9000        ..      STR      r0,[sp,#0]
        0x000005ea:    a0a0        ..      ADR      r0,{pc}+0x282 ; 0x86c
        0x000005ec:    f000fa1b    ....    BL       SendAT ; 0xa26
        0x000005f0:    200a        .       MOVS     r0,#0xa
        0x000005f2:    a347        G.      ADR      r3,{pc}+0x11e ; 0x710
        0x000005f4:    a248        H.      ADR      r2,{pc}+0x124 ; 0x718
        0x000005f6:    a14d        M.      ADR      r1,{pc}+0x136 ; 0x72c
        0x000005f8:    9000        ..      STR      r0,[sp,#0]
        0x000005fa:    a0a0        ..      ADR      r0,{pc}+0x282 ; 0x87c
        0x000005fc:    f000fa13    ....    BL       SendAT ; 0xa26
        0x00000600:    200a        .       MOVS     r0,#0xa
        0x00000602:    a343        C.      ADR      r3,{pc}+0x10e ; 0x710
        0x00000604:    a244        D.      ADR      r2,{pc}+0x114 ; 0x718
        0x00000606:    a149        I.      ADR      r1,{pc}+0x126 ; 0x72c
        0x00000608:    9000        ..      STR      r0,[sp,#0]
        0x0000060a:    a0a0        ..      ADR      r0,{pc}+0x282 ; 0x88c
        0x0000060c:    f000fa0b    ....    BL       SendAT ; 0xa26
        0x00000610:    200a        .       MOVS     r0,#0xa
        0x00000612:    a3a1        ..      ADR      r3,{pc}+0x286 ; 0x898
        0x00000614:    a23e        >.      ADR      r2,{pc}+0xfc ; 0x710
        0x00000616:    a1a2        ..      ADR      r1,{pc}+0x28a ; 0x8a0
        0x00000618:    9000        ..      STR      r0,[sp,#0]
        0x0000061a:    a0a5        ..      ADR      r0,{pc}+0x296 ; 0x8b0
        0x0000061c:    f000fa03    ....    BL       SendAT ; 0xa26
        0x00000620:    2000        .       MOVS     r0,#0
        0x00000622:    49ae        .I      LDR      r1,[pc,#696] ; [0x8dc] = 0x20000098
        0x00000624:    6008        .`      STR      r0,[r1,#0]
        0x00000626:    200a        .       MOVS     r0,#0xa
        0x00000628:    a1ad        ..      ADR      r1,{pc}+0x2b8 ; 0x8e0
        0x0000062a:    a339        9.      ADR      r3,{pc}+0xe6 ; 0x710
        0x0000062c:    a2ae        ..      ADR      r2,{pc}+0x2bc ; 0x8e8
        0x0000062e:    9100        ..      STR      r1,[sp,#0]
        0x00000630:    9001        ..      STR      r0,[sp,#4]
        0x00000632:    494d        MI      LDR      r1,[pc,#308] ; [0x768] = 0x200001bc
        0x00000634:    a0ad        ..      ADR      r0,{pc}+0x2b8 ; 0x8ec
        0x00000636:    f001fa17    ....    BL       TCP_Send ; 0x1a68
        0x0000063a:    48a8        .H      LDR      r0,[pc,#672] ; [0x8dc] = 0x20000098
        0x0000063c:    6800        .h      LDR      r0,[r0,#0]
        0x0000063e:    2801        .(      CMP      r0,#1
        0x00000640:    d11d        ..      BNE      0x67e ; Thread1 + 294
        0x00000642:    f7fffedf    ....    BL       Save_FS ; 0x404
        0x00000646:    200a        .       MOVS     r0,#0xa
        0x00000648:    a393        ..      ADR      r3,{pc}+0x250 ; 0x898
        0x0000064a:    a231        1.      ADR      r2,{pc}+0xc6 ; 0x710
        0x0000064c:    a1ab        ..      ADR      r1,{pc}+0x2b0 ; 0x8fc
        0x0000064e:    9000        ..      STR      r0,[sp,#0]
        0x00000650:    a0ad        ..      ADR      r0,{pc}+0x2b8 ; 0x908
        0x00000652:    f000f9e8    ....    BL       SendAT ; 0xa26
        0x00000656:    200a        .       MOVS     r0,#0xa
        0x00000658:    a32d        -.      ADR      r3,{pc}+0xb8 ; 0x710
        0x0000065a:    a2af        ..      ADR      r2,{pc}+0x2be ; 0x918
        0x0000065c:    a12e        ..      ADR      r1,{pc}+0xbc ; 0x718
        0x0000065e:    9000        ..      STR      r0,[sp,#0]
        0x00000660:    a0b1        ..      ADR      r0,{pc}+0x2c8 ; 0x928
        0x00000662:    f000f9e0    ....    BL       SendAT ; 0xa26
        0x00000666:    200a        .       MOVS     r0,#0xa
        0x00000668:    a329        ).      ADR      r3,{pc}+0xa8 ; 0x710
        0x0000066a:    a2ab        ..      ADR      r2,{pc}+0x2ae ; 0x918
        0x0000066c:    a12f        /.      ADR      r1,{pc}+0xc0 ; 0x72c
        0x0000066e:    9000        ..      STR      r0,[sp,#0]
        0x00000670:    a0b1        ..      ADR      r0,{pc}+0x2c8 ; 0x938
        0x00000672:    f000f9d8    ....    BL       SendAT ; 0xa26
        0x00000676:    20c8        .       MOVS     r0,#0xc8
        0x00000678:    f004f87c    ..|.    BL       manualdelay ; 0x4774
        0x0000067c:    e003        ..      B        0x686 ; Thread1 + 302
        0x0000067e:    207d        }       MOVS     r0,#0x7d
        0x00000680:    0200        ..      LSLS     r0,r0,#8
        0x00000682:    f004f885    ....    BL       osDelay ; 0x4790
        0x00000686:    e769        i.      B        0x55c ; Thread1 + 4
    actgprs
        0x00000688:    b508        ..      PUSH     {r3,lr}
        0x0000068a:    f000fcc8    ....    BL       cpinquerry ; 0x101e
        0x0000068e:    485e        ^H      LDR      r0,[pc,#376] ; [0x808] = 0x2000005d
        0x00000690:    7800        .x      LDRB     r0,[r0,#0]
        0x00000692:    2801        .(      CMP      r0,#1
        0x00000694:    d12d        -.      BNE      0x6f2 ; actgprs + 106
        0x00000696:    f000fd22    ..".    BL       cregquerry ; 0x10de
        0x0000069a:    485c        \H      LDR      r0,[pc,#368] ; [0x80c] = 0x2000005e
        0x0000069c:    7800        .x      LDRB     r0,[r0,#0]
        0x0000069e:    2801        .(      CMP      r0,#1
        0x000006a0:    d127        '.      BNE      0x6f2 ; actgprs + 106
        0x000006a2:    2032        2       MOVS     r0,#0x32
        0x000006a4:    a31a        ..      ADR      r3,{pc}+0x6c ; 0x710
        0x000006a6:    a21c        ..      ADR      r2,{pc}+0x72 ; 0x718
        0x000006a8:    a120         .      ADR      r1,{pc}+0x84 ; 0x72c
        0x000006aa:    9000        ..      STR      r0,[sp,#0]
        0x000006ac:    a058        X.      ADR      r0,{pc}+0x164 ; 0x810
        0x000006ae:    f000f9ba    ....    BL       SendAT ; 0xa26
        0x000006b2:    2005        .       MOVS     r0,#5
        0x000006b4:    a316        ..      ADR      r3,{pc}+0x5c ; 0x710
        0x000006b6:    a218        ..      ADR      r2,{pc}+0x62 ; 0x718
        0x000006b8:    a11c        ..      ADR      r1,{pc}+0x74 ; 0x72c
        0x000006ba:    9000        ..      STR      r0,[sp,#0]
        0x000006bc:    a059        Y.      ADR      r0,{pc}+0x168 ; 0x824
        0x000006be:    f000f9b2    ....    BL       SendAT ; 0xa26
        0x000006c2:    2002        .       MOVS     r0,#2
        0x000006c4:    a312        ..      ADR      r3,{pc}+0x4c ; 0x710
        0x000006c6:    a214        ..      ADR      r2,{pc}+0x52 ; 0x718
        0x000006c8:    a118        ..      ADR      r1,{pc}+0x64 ; 0x72c
        0x000006ca:    9000        ..      STR      r0,[sp,#0]
        0x000006cc:    a05b        [.      ADR      r0,{pc}+0x170 ; 0x83c
        0x000006ce:    f000f9aa    ....    BL       SendAT ; 0xa26
        0x000006d2:    2032        2       MOVS     r0,#0x32
        0x000006d4:    a30e        ..      ADR      r3,{pc}+0x3c ; 0x710
        0x000006d6:    a210        ..      ADR      r2,{pc}+0x42 ; 0x718
        0x000006d8:    a114        ..      ADR      r1,{pc}+0x54 ; 0x72c
        0x000006da:    9000        ..      STR      r0,[sp,#0]
        0x000006dc:    a05b        [.      ADR      r0,{pc}+0x170 ; 0x84c
        0x000006de:    f000f9a2    ....    BL       SendAT ; 0xa26
        0x000006e2:    2002        .       MOVS     r0,#2
        0x000006e4:    a30a        ..      ADR      r3,{pc}+0x2c ; 0x710
        0x000006e6:    a20c        ..      ADR      r2,{pc}+0x32 ; 0x718
        0x000006e8:    a110        ..      ADR      r1,{pc}+0x44 ; 0x72c
        0x000006ea:    9000        ..      STR      r0,[sp,#0]
        0x000006ec:    a05b        [.      ADR      r0,{pc}+0x170 ; 0x85c
        0x000006ee:    f000f99a    ....    BL       SendAT ; 0xa26
        0x000006f2:    bd08        ..      POP      {r3,pc}
    $d
        0x000006f4:    200011a0    ...     DCD    536875424
        0x000006f8:    20000148    H..     DCD    536871240
        0x000006fc:    54410a0d    ..AT    DCD    1413548557
        0x00000700:    4346512b    +QFC    DCD    1128681771
        0x00000704:    45534f4c    LOSE    DCD    1163087692
        0x00000708:    0d73253d    =%s.    DCD    225649981
        0x0000070c:    0000000a    ....    DCD    10
        0x00000710:    4f525245    ERRO    DCD    1330795077
        0x00000714:    00000052    R...    DCD    82
        0x00000718:    00004b4f    OK..    DCD    19279
        0x0000071c:    454d432b    +CME    DCD    1162691371
        0x00000720:    52524520     ERR    DCD    1381123360
        0x00000724:    0000524f    OR..    DCD    21071
        0x00000728:    20000024    $..     DCD    536870948
        0x0000072c:    64616552    Read    DCD    1684104530
        0x00000730:    00000079    y...    DCD    121
        0x00000734:    54410a0d    ..AT    DCD    1413548557
        0x00000738:    4c46512b    +QFL    DCD    1279676715
        0x0000073c:    223d5344    DS="    DCD    574444356
        0x00000740:    22534655    UFS"    DCD    575882837
        0x00000744:    00000a0d    ....    DCD    2573
        0x00000748:    54410a0d    ..AT    DCD    1413548557
        0x0000074c:    5346512b    +QFS    DCD    1397117227
        0x00000750:    3d4b4545    EEK=    DCD    1028343109
        0x00000754:    302c7325    %s,0    DCD    808219429
        0x00000758:    0a0d322c    ,2..    DCD    168636972
        0x0000075c:    00000000    ....    DCD    0
        0x00000760:    4e4e4f43    CONN    DCD    1313754947
        0x00000764:    00544345    ECT.    DCD    5522245
        0x00000768:    200001bc    ...     DCD    536871356
        0x0000076c:    0a0a0a0a    ....    DCD    168430090
        0x00000770:    0000000a    ....    DCD    10
        0x00000774:    54410a0d    ..AT    DCD    1413548557
        0x00000778:    5746512b    +QFW    DCD    1464226091
        0x0000077c:    45544952    RITE    DCD    1163151698
        0x00000780:    2c73253d    =%s,    DCD    745743677
        0x00000784:    332c6425    %d,3    DCD    858547237
        0x00000788:    00000a0d    ....    DCD    2573
        0x0000078c:    49525751    QWRI    DCD    1230133073
        0x00000790:    00004554    TE..    DCD    17748
        0x00000794:    5746512b    +QFW    DCD    1464226091
        0x00000798:    45544952    RITE    DCD    1163151698
        0x0000079c:    00000000    ....    DCD    0
        0x000007a0:    20000f68    h..     DCD    536874856
        0x000007a4:    00000dac    ....    DCD    3500
        0x000007a8:    00005b90    .[..    DCD    23440
        0x000007ac:    20000008    ...     DCD    536870920
        0x000007b0:    00005ba0    .[..    DCD    23456
        0x000007b4:    2000000c    ...     DCD    536870924
        0x000007b8:    20000089    ...     DCD    536871049
        0x000007bc:    2000008a    ...     DCD    536871050
        0x000007c0:    2000008b    ...     DCD    536871051
        0x000007c4:    33303137    7103    DCD    858796343
        0x000007c8:    00000000    ....    DCD    0
        0x000007cc:    54410a0d    ..AT    DCD    1413548557
        0x000007d0:    4e47512b    +QGN    DCD    1313296683
        0x000007d4:    3d435353    SSC=    DCD    1027822419
        0x000007d8:    000a0d31    1...    DCD    658737
        0x000007dc:    50474d2b    +MGP    DCD    1346850091
        0x000007e0:    41545353    SSTA    DCD    1096045395
        0x000007e4:    00535554    TUS.    DCD    5461332
        0x000007e8:    54410a0d    ..AT    DCD    1413548557
        0x000007ec:    4e47512b    +QGN    DCD    1313296683
        0x000007f0:    44525353    SSRD    DCD    1146245971
        0x000007f4:    4d4e223d    ="NM    DCD    1296966205
        0x000007f8:    522f4145    EA/R    DCD    1378828613
        0x000007fc:    0d22434d    MC".    DCD    220349261
        0x00000800:    0000000a    ....    DCD    10
        0x00000804:    00001388    ....    DCD    5000
        0x00000808:    2000005d    ]..     DCD    536871005
        0x0000080c:    2000005e    ^..     DCD    536871006
        0x00000810:    54410a0d    ..AT    DCD    1413548557
        0x00000814:    5247432b    +CGR    DCD    1380401963
        0x00000818:    0d3f4745    EG?.    DCD    222250821
        0x0000081c:    0000000a    ....    DCD    10
        0x00000820:    0000312c    ,1..    DCD    12588
        0x00000824:    54410a0d    ..AT    DCD    1413548557
        0x00000828:    5249512b    +QIR    DCD    1380536619
        0x0000082c:    50414745    EGAP    DCD    1346455365
        0x00000830:    69223d50    P="i    DCD    1763851600
        0x00000834:    65666173    safe    DCD    1701208435
        0x00000838:    000a0d22    "...    DCD    658722
        0x0000083c:    54410a0d    ..AT    DCD    1413548557
        0x00000840:    5249512b    +QIR    DCD    1380536619
        0x00000844:    50414745    EGAP    DCD    1346455365
        0x00000848:    000a0d50    P...    DCD    658768
        0x0000084c:    54410a0d    ..AT    DCD    1413548557
        0x00000850:    4149512b    +QIA    DCD    1095323947
        0x00000854:    0a0d5443    CT..    DCD    168645699
        0x00000858:    00000000    ....    DCD    0
        0x0000085c:    54410a0d    ..AT    DCD    1413548557
        0x00000860:    4c49512b    +QIL    DCD    1279873323
        0x00000864:    5049434f    OCIP    DCD    1346978639
        0x00000868:    00000a0d    ....    DCD    2573
        0x0000086c:    54410a0d    ..AT    DCD    1413548557
        0x00000870:    4353512b    +QSC    DCD    1129533739
        0x00000874:    313d4b4c    LK=1    DCD    826100556
        0x00000878:    00000a0d    ....    DCD    2573
        0x0000087c:    54410a0d    ..AT    DCD    1413548557
        0x00000880:    5349512b    +QIS    DCD    1397313835
        0x00000884:    0d544154    TAT.    DCD    223625556
        0x00000888:    0000000a    ....    DCD    10
        0x0000088c:    54410a0d    ..AT    DCD    1413548557
        0x00000890:    5153432b    +CSQ    DCD    1364411179
        0x00000894:    00000a0d    ....    DCD    2573
        0x00000898:    4c494146    FAIL    DCD    1279869254
        0x0000089c:    00000000    ....    DCD    0
        0x000008a0:    4e4e4f43    CONN    DCD    1313754947
        0x000008a4:    20544345    ECT     DCD    542393157
        0x000008a8:    0a0d4b4f    OK..    DCD    168643407
        0x000008ac:    00000000    ....    DCD    0
        0x000008b0:    54410a0d    ..AT    DCD    1413548557
        0x000008b4:    4f49512b    +QIO    DCD    1330204971
        0x000008b8:    3d4e4550    PEN=    DCD    1028539728
        0x000008bc:    50435422    "TCP    DCD    1346589730
        0x000008c0:    31222c22    ","1    DCD    824323106
        0x000008c4:    322e3430    04.2    DCD    841888816
        0x000008c8:    322e3633    36.2    DCD    841889331
        0x000008cc:    342e3330    03.4    DCD    875442992
        0x000008d0:    35222c22    ","5    DCD    891431970
        0x000008d4:    22363535    556"    DCD    573977909
        0x000008d8:    00000a0d    ....    DCD    2573
        0x000008dc:    20000098    ...     DCD    536871064
        0x000008e0:    444e4553    SEND    DCD    1145980243
        0x000008e4:    004b4f20     OK.    DCD    4935456
        0x000008e8:    0000003e    >...    DCD    62
        0x000008ec:    54410a0d    ..AT    DCD    1413548557
        0x000008f0:    5349512b    +QIS    DCD    1397313835
        0x000008f4:    0d444e45    END.    DCD    222580293
        0x000008f8:    0000000a    ....    DCD    10
        0x000008fc:    534f4c43    CLOS    DCD    1397705795
        0x00000900:    4b4f2045    E OK    DCD    1263476805
        0x00000904:    00000a0d    ....    DCD    2573
        0x00000908:    54410a0d    ..AT    DCD    1413548557
        0x0000090c:    4349512b    +QIC    DCD    1128878379
        0x00000910:    45534f4c    LOSE    DCD    1163087692
        0x00000914:    00000a0d    ....    DCD    2573
        0x00000918:    20544f4e    NOT     DCD    542396238
        0x0000091c:    45534e49    INSE    DCD    1163087433
        0x00000920:    44455452    RTED    DCD    1145394258
        0x00000924:    00000000    ....    DCD    0
        0x00000928:    54410a0d    ..AT    DCD    1413548557
        0x0000092c:    5546432b    +CFU    DCD    1430668075
        0x00000930:    0d303d4e    N=0.    DCD    221265230
        0x00000934:    0000000a    ....    DCD    10
        0x00000938:    54410a0d    ..AT    DCD    1413548557
        0x0000093c:    5546432b    +CFU    DCD    1430668075
        0x00000940:    0d313d4e    N=1.    DCD    221330766
        0x00000944:    0000000a    ....    DCD    10
    $t
    .text
    Timer1_Callback
        0x00000948:    4770        pG      BX       lr
    Timer2_Callback
        0x0000094a:    b510        ..      PUSH     {r4,lr}
        0x0000094c:    4604        .F      MOV      r4,r0
        0x0000094e:    481a        .H      LDR      r0,[pc,#104] ; [0x9b8] = 0x20000050
        0x00000950:    6800        .h      LDR      r0,[r0,#0]
        0x00000952:    1c40        @.      ADDS     r0,r0,#1
        0x00000954:    4918        .I      LDR      r1,[pc,#96] ; [0x9b8] = 0x20000050
        0x00000956:    6008        .`      STR      r0,[r1,#0]
        0x00000958:    f003fd9e    ....    BL       batteryind ; 0x4498
        0x0000095c:    bd10        ..      POP      {r4,pc}
    Init_Timers
        0x0000095e:    b510        ..      PUSH     {r4,lr}
        0x00000960:    2001        .       MOVS     r0,#1
        0x00000962:    4916        .I      LDR      r1,[pc,#88] ; [0x9bc] = 0x20000018
        0x00000964:    6008        .`      STR      r0,[r1,#0]
        0x00000966:    460a        .F      MOV      r2,r1
        0x00000968:    2100        .!      MOVS     r1,#0
        0x0000096a:    4815        .H      LDR      r0,[pc,#84] ; [0x9c0] = 0x5bb0
        0x0000096c:    f003ffda    ....    BL       osTimerCreate ; 0x4924
        0x00000970:    4914        .I      LDR      r1,[pc,#80] ; [0x9c4] = 0x20000014
        0x00000972:    6008        .`      STR      r0,[r1,#0]
        0x00000974:    4608        .F      MOV      r0,r1
        0x00000976:    6800        .h      LDR      r0,[r0,#0]
        0x00000978:    2800        .(      CMP      r0,#0
        0x0000097a:    d006        ..      BEQ      0x98a ; Init_Timers + 44
        0x0000097c:    2164        d!      MOVS     r1,#0x64
        0x0000097e:    4811        .H      LDR      r0,[pc,#68] ; [0x9c4] = 0x20000014
        0x00000980:    6800        .h      LDR      r0,[r0,#0]
        0x00000982:    f003ffe9    ....    BL       osTimerStart ; 0x4958
        0x00000986:    4604        .F      MOV      r4,r0
        0x00000988:    bf00        ..      NOP      
        0x0000098a:    2002        .       MOVS     r0,#2
        0x0000098c:    490e        .I      LDR      r1,[pc,#56] ; [0x9c8] = 0x20000020
        0x0000098e:    6008        .`      STR      r0,[r1,#0]
        0x00000990:    460a        .F      MOV      r2,r1
        0x00000992:    2101        .!      MOVS     r1,#1
        0x00000994:    480d        .H      LDR      r0,[pc,#52] ; [0x9cc] = 0x5bb8
        0x00000996:    f003ffc5    ....    BL       osTimerCreate ; 0x4924
        0x0000099a:    490d        .I      LDR      r1,[pc,#52] ; [0x9d0] = 0x2000001c
        0x0000099c:    6008        .`      STR      r0,[r1,#0]
        0x0000099e:    4608        .F      MOV      r0,r1
        0x000009a0:    6800        .h      LDR      r0,[r0,#0]
        0x000009a2:    2800        .(      CMP      r0,#0
        0x000009a4:    d007        ..      BEQ      0x9b6 ; Init_Timers + 88
        0x000009a6:    217d        }!      MOVS     r1,#0x7d
        0x000009a8:    00c9        ..      LSLS     r1,r1,#3
        0x000009aa:    4809        .H      LDR      r0,[pc,#36] ; [0x9d0] = 0x2000001c
        0x000009ac:    6800        .h      LDR      r0,[r0,#0]
        0x000009ae:    f003ffd3    ....    BL       osTimerStart ; 0x4958
        0x000009b2:    4604        .F      MOV      r4,r0
        0x000009b4:    bf00        ..      NOP      
        0x000009b6:    bd10        ..      POP      {r4,pc}
    $d
        0x000009b8:    20000050    P..     DCD    536870992
        0x000009bc:    20000018    ...     DCD    536870936
        0x000009c0:    00005bb0    .[..    DCD    23472
        0x000009c4:    20000014    ...     DCD    536870932
        0x000009c8:    20000020     ..     DCD    536870944
        0x000009cc:    00005bb8    .[..    DCD    23480
        0x000009d0:    2000001c    ...     DCD    536870940
    $t
    .text
    SYS_UnlockReg
        0x000009d4:    e006        ..      B        0x9e4 ; SYS_UnlockReg + 16
        0x000009d6:    2059        Y       MOVS     r0,#0x59
        0x000009d8:    49fe        .I      LDR      r1,[pc,#1016] ; [0xdd4] = 0x50000100
        0x000009da:    6008        .`      STR      r0,[r1,#0]
        0x000009dc:    2016        .       MOVS     r0,#0x16
        0x000009de:    6008        .`      STR      r0,[r1,#0]
        0x000009e0:    2088        .       MOVS     r0,#0x88
        0x000009e2:    6008        .`      STR      r0,[r1,#0]
        0x000009e4:    48fb        .H      LDR      r0,[pc,#1004] ; [0xdd4] = 0x50000100
        0x000009e6:    6800        .h      LDR      r0,[r0,#0]
        0x000009e8:    2801        .(      CMP      r0,#1
        0x000009ea:    d1f4        ..      BNE      0x9d6 ; SYS_UnlockReg + 2
        0x000009ec:    4770        pG      BX       lr
    WDT_IRQHandler
        0x000009ee:    b510        ..      PUSH     {r4,lr}
        0x000009f0:    48f9        .H      LDR      r0,[pc,#996] ; [0xdd8] = 0x5aa5
        0x000009f2:    49fa        .I      LDR      r1,[pc,#1000] ; [0xddc] = 0x40004100
        0x000009f4:    6008        .`      STR      r0,[r1,#0]
        0x000009f6:    2001        .       MOVS     r0,#1
        0x000009f8:    60c8        .`      STR      r0,[r1,#0xc]
        0x000009fa:    a0f9        ..      ADR      r0,{pc}+0x3e6 ; 0xde0
        0x000009fc:    f002f8fb    ....    BL       send_string_to_uart1 ; 0x2bf6
        0x00000a00:    bd10        ..      POP      {r4,pc}
    clear
        0x00000a02:    48fd        .H      LDR      r0,[pc,#1012] ; [0xdf8] = 0x40050000
        0x00000a04:    6980        .i      LDR      r0,[r0,#0x18]
        0x00000a06:    2102        .!      MOVS     r1,#2
        0x00000a08:    4008        .@      ANDS     r0,r0,r1
        0x00000a0a:    2800        .(      CMP      r0,#0
        0x00000a0c:    d10a        ..      BNE      0xa24 ; clear + 34
        0x00000a0e:    48fa        .H      LDR      r0,[pc,#1000] ; [0xdf8] = 0x40050000
        0x00000a10:    6800        .h      LDR      r0,[r0,#0]
        0x00000a12:    49fa        .I      LDR      r1,[pc,#1000] ; [0xdfc] = 0x20000f68
        0x00000a14:    4afa        .J      LDR      r2,[pc,#1000] ; [0xe00] = 0x20000048
        0x00000a16:    6812        .h      LDR      r2,[r2,#0]
        0x00000a18:    5488        .T      STRB     r0,[r1,r2]
        0x00000a1a:    48f9        .H      LDR      r0,[pc,#996] ; [0xe00] = 0x20000048
        0x00000a1c:    6800        .h      LDR      r0,[r0,#0]
        0x00000a1e:    1c40        @.      ADDS     r0,r0,#1
        0x00000a20:    49f7        .I      LDR      r1,[pc,#988] ; [0xe00] = 0x20000048
        0x00000a22:    6008        .`      STR      r0,[r1,#0]
        0x00000a24:    4770        pG      BX       lr
    SendAT
        0x00000a26:    b5ff        ..      PUSH     {r0-r7,lr}
        0x00000a28:    b081        ..      SUB      sp,sp,#4
        0x00000a2a:    4606        .F      MOV      r6,r0
        0x00000a2c:    4614        .F      MOV      r4,r2
        0x00000a2e:    461d        .F      MOV      r5,r3
        0x00000a30:    9f0a        ..      LDR      r7,[sp,#0x28]
        0x00000a32:    2100        .!      MOVS     r1,#0
        0x00000a34:    43c9        .C      MVNS     r1,r1
        0x00000a36:    48f3        .H      LDR      r0,[pc,#972] ; [0xe04] = 0x20000024
        0x00000a38:    6800        .h      LDR      r0,[r0,#0]
        0x00000a3a:    f003ff37    ..7.    BL       osMutexWait ; 0x48ac
        0x00000a3e:    2000        .       MOVS     r0,#0
        0x00000a40:    49f1        .I      LDR      r1,[pc,#964] ; [0xe08] = 0x20000050
        0x00000a42:    6008        .`      STR      r0,[r1,#0]
        0x00000a44:    49f1        .I      LDR      r1,[pc,#964] ; [0xe0c] = 0x50004240
        0x00000a46:    6088        .`      STR      r0,[r1,#8]
        0x00000a48:    200a        .       MOVS     r0,#0xa
        0x00000a4a:    f003fea1    ....    BL       osDelay ; 0x4790
        0x00000a4e:    2000        .       MOVS     r0,#0
        0x00000a50:    49ef        .I      LDR      r1,[pc,#956] ; [0xe10] = 0x2000006c
        0x00000a52:    6008        .`      STR      r0,[r1,#0]
        0x00000a54:    49ef        .I      LDR      r1,[pc,#956] ; [0xe14] = 0x20000070
        0x00000a56:    6008        .`      STR      r0,[r1,#0]
        0x00000a58:    49ef        .I      LDR      r1,[pc,#956] ; [0xe18] = 0x20000074
        0x00000a5a:    6008        .`      STR      r0,[r1,#0]
        0x00000a5c:    49e8        .I      LDR      r1,[pc,#928] ; [0xe00] = 0x20000048
        0x00000a5e:    6008        .`      STR      r0,[r1,#0]
        0x00000a60:    21ff        .!      MOVS     r1,#0xff
        0x00000a62:    31f5        .1      ADDS     r1,r1,#0xf5
        0x00000a64:    48e5        .H      LDR      r0,[pc,#916] ; [0xdfc] = 0x20000f68
        0x00000a66:    f002fbc2    ....    BL       __aeabi_memclr ; 0x31ee
        0x00000a6a:    211a        .!      MOVS     r1,#0x1a
        0x00000a6c:    a0eb        ..      ADR      r0,{pc}+0x3b0 ; 0xe1c
        0x00000a6e:    f003f839    ..9.    BL       __0printf ; 0x3ae4
        0x00000a72:    f7ffffc6    ....    BL       clear ; 0xa02
        0x00000a76:    4630        0F      MOV      r0,r6
        0x00000a78:    f003f834    ..4.    BL       __0printf ; 0x3ae4
        0x00000a7c:    bf00        ..      NOP      
        0x00000a7e:    48df        .H      LDR      r0,[pc,#892] ; [0xdfc] = 0x20000f68
        0x00000a80:    9902        ..      LDR      r1,[sp,#8]
        0x00000a82:    f002fbcb    ....    BL       strstr ; 0x321c
        0x00000a86:    49e2        .I      LDR      r1,[pc,#904] ; [0xe10] = 0x2000006c
        0x00000a88:    6008        .`      STR      r0,[r1,#0]
        0x00000a8a:    4621        !F      MOV      r1,r4
        0x00000a8c:    48db        .H      LDR      r0,[pc,#876] ; [0xdfc] = 0x20000f68
        0x00000a8e:    f002fbc5    ....    BL       strstr ; 0x321c
        0x00000a92:    49e0        .I      LDR      r1,[pc,#896] ; [0xe14] = 0x20000070
        0x00000a94:    6008        .`      STR      r0,[r1,#0]
        0x00000a96:    4629        )F      MOV      r1,r5
        0x00000a98:    48d8        .H      LDR      r0,[pc,#864] ; [0xdfc] = 0x20000f68
        0x00000a9a:    f002fbbf    ....    BL       strstr ; 0x321c
        0x00000a9e:    49de        .I      LDR      r1,[pc,#888] ; [0xe18] = 0x20000074
        0x00000aa0:    6008        .`      STR      r0,[r1,#0]
        0x00000aa2:    48db        .H      LDR      r0,[pc,#876] ; [0xe10] = 0x2000006c
        0x00000aa4:    6800        .h      LDR      r0,[r0,#0]
        0x00000aa6:    2800        .(      CMP      r0,#0
        0x00000aa8:    d10b        ..      BNE      0xac2 ; SendAT + 156
        0x00000aaa:    48da        .H      LDR      r0,[pc,#872] ; [0xe14] = 0x20000070
        0x00000aac:    6800        .h      LDR      r0,[r0,#0]
        0x00000aae:    2800        .(      CMP      r0,#0
        0x00000ab0:    d107        ..      BNE      0xac2 ; SendAT + 156
        0x00000ab2:    4608        .F      MOV      r0,r1
        0x00000ab4:    6800        .h      LDR      r0,[r0,#0]
        0x00000ab6:    2800        .(      CMP      r0,#0
        0x00000ab8:    d103        ..      BNE      0xac2 ; SendAT + 156
        0x00000aba:    48d3        .H      LDR      r0,[pc,#844] ; [0xe08] = 0x20000050
        0x00000abc:    6800        .h      LDR      r0,[r0,#0]
        0x00000abe:    42b8        .B      CMP      r0,r7
        0x00000ac0:    dbdd        ..      BLT      0xa7e ; SendAT + 88
        0x00000ac2:    a1d7        ..      ADR      r1,{pc}+0x35e ; 0xe20
        0x00000ac4:    4630        0F      MOV      r0,r6
        0x00000ac6:    f002fba9    ....    BL       strstr ; 0x321c
        0x00000aca:    2800        .(      CMP      r0,#0
        0x00000acc:    d100        ..      BNE      0xad0 ; SendAT + 170
        0x00000ace:    bf00        ..      NOP      
        0x00000ad0:    2001        .       MOVS     r0,#1
        0x00000ad2:    49ce        .I      LDR      r1,[pc,#824] ; [0xe0c] = 0x50004240
        0x00000ad4:    6088        .`      STR      r0,[r1,#8]
        0x00000ad6:    48cb        .H      LDR      r0,[pc,#812] ; [0xe04] = 0x20000024
        0x00000ad8:    6800        .h      LDR      r0,[r0,#0]
        0x00000ada:    f003fed9    ....    BL       osMutexRelease ; 0x4890
        0x00000ade:    b005        ..      ADD      sp,sp,#0x14
        0x00000ae0:    bdf0        ..      POP      {r4-r7,pc}
    main
        0x00000ae2:    b508        ..      PUSH     {r3,lr}
        0x00000ae4:    f002ff5c    ..\.    BL       SYS_Init ; 0x39a0
        0x00000ae8:    2201        ."      MOVS     r2,#1
        0x00000aea:    2102        .!      MOVS     r1,#2
        0x00000aec:    48ce        .H      LDR      r0,[pc,#824] ; [0xe28] = 0x50004080
        0x00000aee:    f001fe7d    ..}.    BL       GPIO_SetMode ; 0x27ec
        0x00000af2:    2201        ."      MOVS     r2,#1
        0x00000af4:    4611        .F      MOV      r1,r2
        0x00000af6:    48cc        .H      LDR      r0,[pc,#816] ; [0xe28] = 0x50004080
        0x00000af8:    f001fe78    ..x.    BL       GPIO_SetMode ; 0x27ec
        0x00000afc:    2001        .       MOVS     r0,#1
        0x00000afe:    49c3        .I      LDR      r1,[pc,#780] ; [0xe0c] = 0x50004240
        0x00000b00:    3140        @1      ADDS     r1,r1,#0x40
        0x00000b02:    6008        .`      STR      r0,[r1,#0]
        0x00000b04:    6048        H`      STR      r0,[r1,#4]
        0x00000b06:    2201        ."      MOVS     r2,#1
        0x00000b08:    2108        .!      MOVS     r1,#8
        0x00000b0a:    48c7        .H      LDR      r0,[pc,#796] ; [0xe28] = 0x50004080
        0x00000b0c:    3880        .8      SUBS     r0,r0,#0x80
        0x00000b0e:    f001fe6d    ..m.    BL       GPIO_SetMode ; 0x27ec
        0x00000b12:    2201        ."      MOVS     r2,#1
        0x00000b14:    2110        .!      MOVS     r1,#0x10
        0x00000b16:    48c4        .H      LDR      r0,[pc,#784] ; [0xe28] = 0x50004080
        0x00000b18:    3880        .8      SUBS     r0,r0,#0x80
        0x00000b1a:    f001fe67    ..g.    BL       GPIO_SetMode ; 0x27ec
        0x00000b1e:    2201        ."      MOVS     r2,#1
        0x00000b20:    2120         !      MOVS     r1,#0x20
        0x00000b22:    48c1        .H      LDR      r0,[pc,#772] ; [0xe28] = 0x50004080
        0x00000b24:    3880        .8      SUBS     r0,r0,#0x80
        0x00000b26:    f001fe61    ..a.    BL       GPIO_SetMode ; 0x27ec
        0x00000b2a:    2201        ."      MOVS     r2,#1
        0x00000b2c:    2140        @!      MOVS     r1,#0x40
        0x00000b2e:    48be        .H      LDR      r0,[pc,#760] ; [0xe28] = 0x50004080
        0x00000b30:    3880        .8      SUBS     r0,r0,#0x80
        0x00000b32:    f001fe5b    ..[.    BL       GPIO_SetMode ; 0x27ec
        0x00000b36:    2201        ."      MOVS     r2,#1
        0x00000b38:    2104        .!      MOVS     r1,#4
        0x00000b3a:    48bb        .H      LDR      r0,[pc,#748] ; [0xe28] = 0x50004080
        0x00000b3c:    3840        @8      SUBS     r0,r0,#0x40
        0x00000b3e:    f001fe55    ..U.    BL       GPIO_SetMode ; 0x27ec
        0x00000b42:    bf00        ..      NOP      
        0x00000b44:    21e1        .!      MOVS     r1,#0xe1
        0x00000b46:    0249        I.      LSLS     r1,r1,#9
        0x00000b48:    48ab        .H      LDR      r0,[pc,#684] ; [0xdf8] = 0x40050000
        0x00000b4a:    f001fed2    ....    BL       UART_Open ; 0x28f2
        0x00000b4e:    48aa        .H      LDR      r0,[pc,#680] ; [0xdf8] = 0x40050000
        0x00000b50:    68c0        .h      LDR      r0,[r0,#0xc]
        0x00000b52:    2101        .!      MOVS     r1,#1
        0x00000b54:    4308        .C      ORRS     r0,r0,r1
        0x00000b56:    49a8        .I      LDR      r1,[pc,#672] ; [0xdf8] = 0x40050000
        0x00000b58:    60c8        .`      STR      r0,[r1,#0xc]
        0x00000b5a:    200c        .       MOVS     r0,#0xc
        0x00000b5c:    f001fbef    ....    BL       NVIC_EnableIRQ ; 0x233e
        0x00000b60:    bf00        ..      NOP      
        0x00000b62:    bf00        ..      NOP      
        0x00000b64:    21e1        .!      MOVS     r1,#0xe1
        0x00000b66:    0249        I.      LSLS     r1,r1,#9
        0x00000b68:    48b0        .H      LDR      r0,[pc,#704] ; [0xe2c] = 0x40150000
        0x00000b6a:    f001fec2    ....    BL       UART_Open ; 0x28f2
        0x00000b6e:    bf00        ..      NOP      
        0x00000b70:    2132        2!      MOVS     r1,#0x32
        0x00000b72:    48af        .H      LDR      r0,[pc,#700] ; [0xe30] = 0x2000121d
        0x00000b74:    f002fb3b    ..;.    BL       __aeabi_memclr ; 0x31ee
        0x00000b78:    49ae        .I      LDR      r1,[pc,#696] ; [0xe34] = 0x186a0
        0x00000b7a:    48af        .H      LDR      r0,[pc,#700] ; [0xe38] = 0x40120000
        0x00000b7c:    f002f9d6    ....    BL       I2C_Open ; 0x2f2c
        0x00000b80:    48ad        .H      LDR      r0,[pc,#692] ; [0xe38] = 0x40120000
        0x00000b82:    f002fa3f    ..?.    BL       I2C_EnableInt ; 0x3004
        0x00000b86:    2013        .       MOVS     r0,#0x13
        0x00000b88:    f001fbd9    ....    BL       NVIC_EnableIRQ ; 0x233e
        0x00000b8c:    48aa        .H      LDR      r0,[pc,#680] ; [0xe38] = 0x40120000
        0x00000b8e:    f002fa3e    ..>.    BL       I2C_GetBusClockFreq ; 0x300e
        0x00000b92:    4604        .F      MOV      r4,r0
        0x00000b94:    4622        "F      MOV      r2,r4
        0x00000b96:    a1a9        ..      ADR      r1,{pc}+0x2a6 ; 0xe3c
        0x00000b98:    48a5        .H      LDR      r0,[pc,#660] ; [0xe30] = 0x2000121d
        0x00000b9a:    f002ffb3    ....    BL       __0sprintf ; 0x3b04
        0x00000b9e:    f7fffede    ....    BL       Init_Timers ; 0x95e
        0x00000ba2:    f003fe03    ....    BL       osKernelInitialize ; 0x47ac
        0x00000ba6:    bf00        ..      NOP      
        0x00000ba8:    2301        .#      MOVS     r3,#1
        0x00000baa:    220c        ."      MOVS     r2,#0xc
        0x00000bac:    2100        .!      MOVS     r1,#0
        0x00000bae:    48a8        .H      LDR      r0,[pc,#672] ; [0xe50] = 0x400e0000
        0x00000bb0:    f002f8d8    ....    BL       ADC_Open ; 0x2d64
        0x00000bb4:    48a6        .H      LDR      r0,[pc,#664] ; [0xe50] = 0x400e0000
        0x00000bb6:    3040        @0      ADDS     r0,r0,#0x40
        0x00000bb8:    6880        .h      LDR      r0,[r0,#8]
        0x00000bba:    2103        .!      MOVS     r1,#3
        0x00000bbc:    0409        ..      LSLS     r1,r1,#16
        0x00000bbe:    4388        .C      BICS     r0,r0,r1
        0x00000bc0:    2101        .!      MOVS     r1,#1
        0x00000bc2:    0449        I.      LSLS     r1,r1,#17
        0x00000bc4:    1840        @.      ADDS     r0,r0,r1
        0x00000bc6:    49a2        .I      LDR      r1,[pc,#648] ; [0xe50] = 0x400e0000
        0x00000bc8:    3140        @1      ADDS     r1,r1,#0x40
        0x00000bca:    6088        .`      STR      r0,[r1,#8]
        0x00000bcc:    bf00        ..      NOP      
        0x00000bce:    bf00        ..      NOP      
        0x00000bd0:    4608        .F      MOV      r0,r1
        0x00000bd2:    6880        .h      LDR      r0,[r0,#8]
        0x00000bd4:    2101        .!      MOVS     r1,#1
        0x00000bd6:    4308        .C      ORRS     r0,r0,r1
        0x00000bd8:    499d        .I      LDR      r1,[pc,#628] ; [0xe50] = 0x400e0000
        0x00000bda:    3140        @1      ADDS     r1,r1,#0x40
        0x00000bdc:    6088        .`      STR      r0,[r1,#8]
        0x00000bde:    bf00        ..      NOP      
        0x00000be0:    489b        .H      LDR      r0,[pc,#620] ; [0xe50] = 0x400e0000
        0x00000be2:    3040        @0      ADDS     r0,r0,#0x40
        0x00000be4:    6980        .i      LDR      r0,[r0,#0x18]
        0x00000be6:    2101        .!      MOVS     r1,#1
        0x00000be8:    0409        ..      LSLS     r1,r1,#16
        0x00000bea:    4008        .@      ANDS     r0,r0,r1
        0x00000bec:    2800        .(      CMP      r0,#0
        0x00000bee:    d0f7        ..      BEQ      0xbe0 ; main + 254
        0x00000bf0:    4897        .H      LDR      r0,[pc,#604] ; [0xe50] = 0x400e0000
        0x00000bf2:    3040        @0      ADDS     r0,r0,#0x40
        0x00000bf4:    6a40        @j      LDR      r0,[r0,#0x24]
        0x00000bf6:    07c0        ..      LSLS     r0,r0,#31
        0x00000bf8:    0fc0        ..      LSRS     r0,r0,#31
        0x00000bfa:    2800        .(      CMP      r0,#0
        0x00000bfc:    d0f0        ..      BEQ      0xbe0 ; main + 254
        0x00000bfe:    bf00        ..      NOP      
        0x00000c00:    4893        .H      LDR      r0,[pc,#588] ; [0xe50] = 0x400e0000
        0x00000c02:    3040        @0      ADDS     r0,r0,#0x40
        0x00000c04:    6880        .h      LDR      r0,[r0,#8]
        0x00000c06:    1149        I.      ASRS     r1,r1,#5
        0x00000c08:    4308        .C      ORRS     r0,r0,r1
        0x00000c0a:    4991        .I      LDR      r1,[pc,#580] ; [0xe50] = 0x400e0000
        0x00000c0c:    3140        @1      ADDS     r1,r1,#0x40
        0x00000c0e:    6088        .`      STR      r0,[r1,#8]
        0x00000c10:    bf00        ..      NOP      
        0x00000c12:    f7fffedf    ....    BL       SYS_UnlockReg ; 0x9d4
        0x00000c16:    2201        ."      MOVS     r2,#1
        0x00000c18:    2120         !      MOVS     r1,#0x20
        0x00000c1a:    2003        .       MOVS     r0,#3
        0x00000c1c:    0280        ..      LSLS     r0,r0,#10
        0x00000c1e:    f002f979    ..y.    BL       WWDT_Open ; 0x2f14
        0x00000c22:    bf00        ..      NOP      
        0x00000c24:    2001        .       MOVS     r0,#1
        0x00000c26:    498b        .I      LDR      r1,[pc,#556] ; [0xe54] = 0x40004000
        0x00000c28:    6048        H`      STR      r0,[r1,#4]
        0x00000c2a:    bf00        ..      NOP      
        0x00000c2c:    f001fb87    ....    BL       NVIC_EnableIRQ ; 0x233e
        0x00000c30:    4889        .H      LDR      r0,[pc,#548] ; [0xe58] = 0x5bc0
        0x00000c32:    f003fe13    ....    BL       osMutexCreate ; 0x485c
        0x00000c36:    4973        sI      LDR      r1,[pc,#460] ; [0xe04] = 0x20000024
        0x00000c38:    6008        .`      STR      r0,[r1,#0]
        0x00000c3a:    4888        .H      LDR      r0,[pc,#544] ; [0xe5c] = 0x5bc4
        0x00000c3c:    f003fe0e    ....    BL       osMutexCreate ; 0x485c
        0x00000c40:    4987        .I      LDR      r1,[pc,#540] ; [0xe60] = 0x20000028
        0x00000c42:    6008        .`      STR      r0,[r1,#0]
        0x00000c44:    4887        .H      LDR      r0,[pc,#540] ; [0xe64] = 0x5bc8
        0x00000c46:    f003fe09    ....    BL       osMutexCreate ; 0x485c
        0x00000c4a:    4987        .I      LDR      r1,[pc,#540] ; [0xe68] = 0x2000002c
        0x00000c4c:    6008        .`      STR      r0,[r1,#0]
        0x00000c4e:    2000        .       MOVS     r0,#0
        0x00000c50:    496e        nI      LDR      r1,[pc,#440] ; [0xe0c] = 0x50004240
        0x00000c52:    3940        @9      SUBS     r1,r1,#0x40
        0x00000c54:    60c8        .`      STR      r0,[r1,#0xc]
        0x00000c56:    6108        .a      STR      r0,[r1,#0x10]
        0x00000c58:    6148        Ha      STR      r0,[r1,#0x14]
        0x00000c5a:    6188        .a      STR      r0,[r1,#0x18]
        0x00000c5c:    f7fffc42    ..B.    BL       Init_Thread ; 0x4e4
        0x00000c60:    f003fdb8    ....    BL       osKernelStart ; 0x47d4
        0x00000c64:    2000        .       MOVS     r0,#0
        0x00000c66:    4969        iI      LDR      r1,[pc,#420] ; [0xe0c] = 0x50004240
        0x00000c68:    6088        .`      STR      r0,[r1,#8]
        0x00000c6a:    2005        .       MOVS     r0,#5
        0x00000c6c:    a37f        ..      ADR      r3,{pc}+0x200 ; 0xe6c
        0x00000c6e:    a281        ..      ADR      r2,{pc}+0x206 ; 0xe74
        0x00000c70:    a181        ..      ADR      r1,{pc}+0x208 ; 0xe78
        0x00000c72:    9000        ..      STR      r0,[sp,#0]
        0x00000c74:    a082        ..      ADR      r0,{pc}+0x20c ; 0xe80
        0x00000c76:    f7fffed6    ....    BL       SendAT ; 0xa26
        0x00000c7a:    200a        .       MOVS     r0,#0xa
        0x00000c7c:    a37b        {.      ADR      r3,{pc}+0x1f0 ; 0xe6c
        0x00000c7e:    a27d        }.      ADR      r2,{pc}+0x1f6 ; 0xe74
        0x00000c80:    a17d        }.      ADR      r1,{pc}+0x1f8 ; 0xe78
        0x00000c82:    9000        ..      STR      r0,[sp,#0]
        0x00000c84:    a082        ..      ADR      r0,{pc}+0x20c ; 0xe90
        0x00000c86:    f7fffece    ....    BL       SendAT ; 0xa26
        0x00000c8a:    f003fcc5    ....    BL       fileopen ; 0x4618
        0x00000c8e:    200a        .       MOVS     r0,#0xa
        0x00000c90:    a376        v.      ADR      r3,{pc}+0x1dc ; 0xe6c
        0x00000c92:    a278        x.      ADR      r2,{pc}+0x1e2 ; 0xe74
        0x00000c94:    a178        x.      ADR      r1,{pc}+0x1e4 ; 0xe78
        0x00000c96:    9000        ..      STR      r0,[sp,#0]
        0x00000c98:    a083        ..      ADR      r0,{pc}+0x210 ; 0xea8
        0x00000c9a:    f7fffec4    ....    BL       SendAT ; 0xa26
        0x00000c9e:    e007        ..      B        0xcb0 ; main + 462
        0x00000ca0:    2001        .       MOVS     r0,#1
        0x00000ca2:    4985        .I      LDR      r1,[pc,#532] ; [0xeb8] = 0x20000089
        0x00000ca4:    7008        .p      STRB     r0,[r1,#0]
        0x00000ca6:    2000        .       MOVS     r0,#0
        0x00000ca8:    4984        .I      LDR      r1,[pc,#528] ; [0xebc] = 0x2000008a
        0x00000caa:    7008        .p      STRB     r0,[r1,#0]
        0x00000cac:    4984        .I      LDR      r1,[pc,#528] ; [0xec0] = 0x2000008b
        0x00000cae:    7008        .p      STRB     r0,[r1,#0]
        0x00000cb0:    e7f6        ..      B        0xca0 ; main + 446
    UART1_IRQHandler
        0x00000cb2:    4770        pG      BX       lr
    UART0_IRQHandler
        0x00000cb4:    e00a        ..      B        0xccc ; UART0_IRQHandler + 24
        0x00000cb6:    4850        PH      LDR      r0,[pc,#320] ; [0xdf8] = 0x40050000
        0x00000cb8:    6800        .h      LDR      r0,[r0,#0]
        0x00000cba:    4950        PI      LDR      r1,[pc,#320] ; [0xdfc] = 0x20000f68
        0x00000cbc:    4a50        PJ      LDR      r2,[pc,#320] ; [0xe00] = 0x20000048
        0x00000cbe:    6812        .h      LDR      r2,[r2,#0]
        0x00000cc0:    5488        .T      STRB     r0,[r1,r2]
        0x00000cc2:    484f        OH      LDR      r0,[pc,#316] ; [0xe00] = 0x20000048
        0x00000cc4:    6800        .h      LDR      r0,[r0,#0]
        0x00000cc6:    1c40        @.      ADDS     r0,r0,#1
        0x00000cc8:    494d        MI      LDR      r1,[pc,#308] ; [0xe00] = 0x20000048
        0x00000cca:    6008        .`      STR      r0,[r1,#0]
        0x00000ccc:    484a        JH      LDR      r0,[pc,#296] ; [0xdf8] = 0x40050000
        0x00000cce:    6980        .i      LDR      r0,[r0,#0x18]
        0x00000cd0:    2102        .!      MOVS     r1,#2
        0x00000cd2:    4008        .@      ANDS     r0,r0,r1
        0x00000cd4:    2800        .(      CMP      r0,#0
        0x00000cd6:    d0ee        ..      BEQ      0xcb6 ; UART0_IRQHandler + 2
        0x00000cd8:    4770        pG      BX       lr
    SavePinSetting
        0x00000cda:    2005        .       MOVS     r0,#5
        0x00000cdc:    0700        ..      LSLS     r0,r0,#28
        0x00000cde:    6b00        .k      LDR      r0,[r0,#0x30]
        0x00000ce0:    4978        xI      LDR      r1,[pc,#480] ; [0xec4] = 0x2000115c
        0x00000ce2:    6008        .`      STR      r0,[r1,#0]
        0x00000ce4:    2005        .       MOVS     r0,#5
        0x00000ce6:    0700        ..      LSLS     r0,r0,#28
        0x00000ce8:    6b40        @k      LDR      r0,[r0,#0x34]
        0x00000cea:    6048        H`      STR      r0,[r1,#4]
        0x00000cec:    2005        .       MOVS     r0,#5
        0x00000cee:    0700        ..      LSLS     r0,r0,#28
        0x00000cf0:    6b80        .k      LDR      r0,[r0,#0x38]
        0x00000cf2:    6088        .`      STR      r0,[r1,#8]
        0x00000cf4:    2005        .       MOVS     r0,#5
        0x00000cf6:    0700        ..      LSLS     r0,r0,#28
        0x00000cf8:    6bc0        .k      LDR      r0,[r0,#0x3c]
        0x00000cfa:    60c8        .`      STR      r0,[r1,#0xc]
        0x00000cfc:    4835        5H      LDR      r0,[pc,#212] ; [0xdd4] = 0x50000100
        0x00000cfe:    38c0        .8      SUBS     r0,r0,#0xc0
        0x00000d00:    6800        .h      LDR      r0,[r0,#0]
        0x00000d02:    6108        .a      STR      r0,[r1,#0x10]
        0x00000d04:    4833        3H      LDR      r0,[pc,#204] ; [0xdd4] = 0x50000100
        0x00000d06:    38c0        .8      SUBS     r0,r0,#0xc0
        0x00000d08:    6840        @h      LDR      r0,[r0,#4]
        0x00000d0a:    6148        Ha      STR      r0,[r1,#0x14]
        0x00000d0c:    4831        1H      LDR      r0,[pc,#196] ; [0xdd4] = 0x50000100
        0x00000d0e:    38c0        .8      SUBS     r0,r0,#0xc0
        0x00000d10:    6880        .h      LDR      r0,[r0,#8]
        0x00000d12:    6188        .a      STR      r0,[r1,#0x18]
        0x00000d14:    482f        /H      LDR      r0,[pc,#188] ; [0xdd4] = 0x50000100
        0x00000d16:    38c0        .8      SUBS     r0,r0,#0xc0
        0x00000d18:    68c0        .h      LDR      r0,[r0,#0xc]
        0x00000d1a:    61c8        .a      STR      r0,[r1,#0x1c]
        0x00000d1c:    482d        -H      LDR      r0,[pc,#180] ; [0xdd4] = 0x50000100
        0x00000d1e:    38c0        .8      SUBS     r0,r0,#0xc0
        0x00000d20:    6900        .i      LDR      r0,[r0,#0x10]
        0x00000d22:    6208        .b      STR      r0,[r1,#0x20]
        0x00000d24:    482b        +H      LDR      r0,[pc,#172] ; [0xdd4] = 0x50000100
        0x00000d26:    38c0        .8      SUBS     r0,r0,#0xc0
        0x00000d28:    6940        @i      LDR      r0,[r0,#0x14]
        0x00000d2a:    6248        Hb      STR      r0,[r1,#0x24]
        0x00000d2c:    4829        )H      LDR      r0,[pc,#164] ; [0xdd4] = 0x50000100
        0x00000d2e:    38c0        .8      SUBS     r0,r0,#0xc0
        0x00000d30:    6980        .i      LDR      r0,[r0,#0x18]
        0x00000d32:    6288        .b      STR      r0,[r1,#0x28]
        0x00000d34:    483c        <H      LDR      r0,[pc,#240] ; [0xe28] = 0x50004080
        0x00000d36:    3880        .8      SUBS     r0,r0,#0x80
        0x00000d38:    6a40        @j      LDR      r0,[r0,#0x24]
        0x00000d3a:    4963        cI      LDR      r1,[pc,#396] ; [0xec8] = 0x20001188
        0x00000d3c:    6008        .`      STR      r0,[r1,#0]
        0x00000d3e:    483a        :H      LDR      r0,[pc,#232] ; [0xe28] = 0x50004080
        0x00000d40:    3840        @8      SUBS     r0,r0,#0x40
        0x00000d42:    6a40        @j      LDR      r0,[r0,#0x24]
        0x00000d44:    6048        H`      STR      r0,[r1,#4]
        0x00000d46:    4838        8H      LDR      r0,[pc,#224] ; [0xe28] = 0x50004080
        0x00000d48:    6a40        @j      LDR      r0,[r0,#0x24]
        0x00000d4a:    6088        .`      STR      r0,[r1,#8]
        0x00000d4c:    4836        6H      LDR      r0,[pc,#216] ; [0xe28] = 0x50004080
        0x00000d4e:    3040        @0      ADDS     r0,r0,#0x40
        0x00000d50:    6a40        @j      LDR      r0,[r0,#0x24]
        0x00000d52:    60c8        .`      STR      r0,[r1,#0xc]
        0x00000d54:    4834        4H      LDR      r0,[pc,#208] ; [0xe28] = 0x50004080
        0x00000d56:    3080        .0      ADDS     r0,r0,#0x80
        0x00000d58:    6a40        @j      LDR      r0,[r0,#0x24]
        0x00000d5a:    6108        .a      STR      r0,[r1,#0x10]
        0x00000d5c:    4832        2H      LDR      r0,[pc,#200] ; [0xe28] = 0x50004080
        0x00000d5e:    30c0        .0      ADDS     r0,r0,#0xc0
        0x00000d60:    6a40        @j      LDR      r0,[r0,#0x24]
        0x00000d62:    6148        Ha      STR      r0,[r1,#0x14]
        0x00000d64:    4770        pG      BX       lr
    RestorePinSetting
        0x00000d66:    4857        WH      LDR      r0,[pc,#348] ; [0xec4] = 0x2000115c
        0x00000d68:    6800        .h      LDR      r0,[r0,#0]
        0x00000d6a:    2105        .!      MOVS     r1,#5
        0x00000d6c:    0709        ..      LSLS     r1,r1,#28
        0x00000d6e:    6308        .c      STR      r0,[r1,#0x30]
        0x00000d70:    4854        TH      LDR      r0,[pc,#336] ; [0xec4] = 0x2000115c
        0x00000d72:    6840        @h      LDR      r0,[r0,#4]
        0x00000d74:    6348        Hc      STR      r0,[r1,#0x34]
        0x00000d76:    4853        SH      LDR      r0,[pc,#332] ; [0xec4] = 0x2000115c
        0x00000d78:    6880        .h      LDR      r0,[r0,#8]
        0x00000d7a:    6388        .c      STR      r0,[r1,#0x38]
        0x00000d7c:    4851        QH      LDR      r0,[pc,#324] ; [0xec4] = 0x2000115c
        0x00000d7e:    68c0        .h      LDR      r0,[r0,#0xc]
        0x00000d80:    63c8        .c      STR      r0,[r1,#0x3c]
        0x00000d82:    4850        PH      LDR      r0,[pc,#320] ; [0xec4] = 0x2000115c
        0x00000d84:    6900        .i      LDR      r0,[r0,#0x10]
        0x00000d86:    4913        .I      LDR      r1,[pc,#76] ; [0xdd4] = 0x50000100
        0x00000d88:    39c0        .9      SUBS     r1,r1,#0xc0
        0x00000d8a:    6008        .`      STR      r0,[r1,#0]
        0x00000d8c:    484d        MH      LDR      r0,[pc,#308] ; [0xec4] = 0x2000115c
        0x00000d8e:    6940        @i      LDR      r0,[r0,#0x14]
        0x00000d90:    6048        H`      STR      r0,[r1,#4]
        0x00000d92:    484c        LH      LDR      r0,[pc,#304] ; [0xec4] = 0x2000115c
        0x00000d94:    6980        .i      LDR      r0,[r0,#0x18]
        0x00000d96:    6088        .`      STR      r0,[r1,#8]
        0x00000d98:    484a        JH      LDR      r0,[pc,#296] ; [0xec4] = 0x2000115c
        0x00000d9a:    69c0        .i      LDR      r0,[r0,#0x1c]
        0x00000d9c:    60c8        .`      STR      r0,[r1,#0xc]
        0x00000d9e:    4849        IH      LDR      r0,[pc,#292] ; [0xec4] = 0x2000115c
        0x00000da0:    6a00        .j      LDR      r0,[r0,#0x20]
        0x00000da2:    6108        .a      STR      r0,[r1,#0x10]
        0x00000da4:    4847        GH      LDR      r0,[pc,#284] ; [0xec4] = 0x2000115c
        0x00000da6:    6a40        @j      LDR      r0,[r0,#0x24]
        0x00000da8:    6148        Ha      STR      r0,[r1,#0x14]
        0x00000daa:    4846        FH      LDR      r0,[pc,#280] ; [0xec4] = 0x2000115c
        0x00000dac:    6a80        .j      LDR      r0,[r0,#0x28]
        0x00000dae:    6188        .a      STR      r0,[r1,#0x18]
        0x00000db0:    4845        EH      LDR      r0,[pc,#276] ; [0xec8] = 0x20001188
        0x00000db2:    6800        .h      LDR      r0,[r0,#0]
        0x00000db4:    491c        .I      LDR      r1,[pc,#112] ; [0xe28] = 0x50004080
        0x00000db6:    3980        .9      SUBS     r1,r1,#0x80
        0x00000db8:    6248        Hb      STR      r0,[r1,#0x24]
        0x00000dba:    4843        CH      LDR      r0,[pc,#268] ; [0xec8] = 0x20001188
        0x00000dbc:    6840        @h      LDR      r0,[r0,#4]
        0x00000dbe:    491a        .I      LDR      r1,[pc,#104] ; [0xe28] = 0x50004080
        0x00000dc0:    3940        @9      SUBS     r1,r1,#0x40
        0x00000dc2:    6248        Hb      STR      r0,[r1,#0x24]
        0x00000dc4:    4840        @H      LDR      r0,[pc,#256] ; [0xec8] = 0x20001188
        0x00000dc6:    6880        .h      LDR      r0,[r0,#8]
        0x00000dc8:    4917        .I      LDR      r1,[pc,#92] ; [0xe28] = 0x50004080
        0x00000dca:    6248        Hb      STR      r0,[r1,#0x24]
        0x00000dcc:    483e        >H      LDR      r0,[pc,#248] ; [0xec8] = 0x20001188
        0x00000dce:    68c0        .h      LDR      r0,[r0,#0xc]
        0x00000dd0:    4915        .I      LDR      r1,[pc,#84] ; [0xe28] = 0x50004080
        0x00000dd2:    e07b        {.      B        0xecc ; RestorePinSetting + 358
    $d
        0x00000dd4:    50000100    ...P    DCD    1342177536
        0x00000dd8:    00005aa5    .Z..    DCD    23205
        0x00000ddc:    40004100    .A.@    DCD    1073758464
        0x00000de0:    54445757    WWDT    DCD    1413764951
        0x00000de4:    756f6320     cou    DCD    1970234144
        0x00000de8:    7265746e    nter    DCD    1919251566
        0x00000dec:    6c657220     rel    DCD    1818587680
        0x00000df0:    0a64616f    oad.    DCD    174350703
        0x00000df4:    00000000    ....    DCD    0
        0x00000df8:    40050000    ...@    DCD    1074069504
        0x00000dfc:    20000f68    h..     DCD    536874856
        0x00000e00:    20000048    H..     DCD    536870984
        0x00000e04:    20000024    $..     DCD    536870948
        0x00000e08:    20000050    P..     DCD    536870992
        0x00000e0c:    50004240    @B.P    DCD    1342194240
        0x00000e10:    2000006c    l..     DCD    536871020
        0x00000e14:    20000070    p..     DCD    536871024
        0x00000e18:    20000074    t..     DCD    536871028
        0x00000e1c:    00006325    %c..    DCD    25381
        0x00000e20:    4f4c4951    QILO    DCD    1330399569
        0x00000e24:    00504943    CIP.    DCD    5261635
        0x00000e28:    50004080    .@.P    DCD    1342193792
        0x00000e2c:    40150000    ...@    DCD    1075118080
        0x00000e30:    2000121d    ...     DCD    536875549
        0x00000e34:    000186a0    ....    DCD    100000
        0x00000e38:    40120000    ...@    DCD    1074921472
        0x00000e3c:    32490a0d    ..I2    DCD    843647501
        0x00000e40:    63203143    C1 c    DCD    1663054147
        0x00000e44:    6b636f6c    lock    DCD    1801678700
        0x00000e48:    64253a20     :%d    DCD    1680161312
        0x00000e4c:    000a0d20     ...    DCD    658720
        0x00000e50:    400e0000    ...@    DCD    1074659328
        0x00000e54:    40004000    .@.@    DCD    1073758208
        0x00000e58:    00005bc0    .[..    DCD    23488
        0x00000e5c:    00005bc4    .[..    DCD    23492
        0x00000e60:    20000028    (..     DCD    536870952
        0x00000e64:    00005bc8    .[..    DCD    23496
        0x00000e68:    2000002c    ,..     DCD    536870956
        0x00000e6c:    4f525245    ERRO    DCD    1330795077
        0x00000e70:    00000052    R...    DCD    82
        0x00000e74:    00004b4f    OK..    DCD    19279
        0x00000e78:    64616552    Read    DCD    1684104530
        0x00000e7c:    00000079    y...    DCD    121
        0x00000e80:    54410a0d    ..AT    DCD    1413548557
        0x00000e84:    4353512b    +QSC    DCD    1129533739
        0x00000e88:    313d4b4c    LK=1    DCD    826100556
        0x00000e8c:    00000a0d    ....    DCD    2573
        0x00000e90:    54410a0d    ..AT    DCD    1413548557
        0x00000e94:    5359532b    +SYS    DCD    1398362923
        0x00000e98:    534d4554    TEMS    DCD    1397572948
        0x00000e9c:    54524154    TART    DCD    1414676820
        0x00000ea0:    0d0a0d53    S...    DCD    218762579
        0x00000ea4:    0000000a    ....    DCD    10
        0x00000ea8:    54410a0d    ..AT    DCD    1413548557
        0x00000eac:    4e47512b    +QGN    DCD    1313296683
        0x00000eb0:    3d435353    SSC=    DCD    1027822419
        0x00000eb4:    000a0d31    1...    DCD    658737
        0x00000eb8:    20000089    ...     DCD    536871049
        0x00000ebc:    2000008a    ...     DCD    536871050
        0x00000ec0:    2000008b    ...     DCD    536871051
        0x00000ec4:    2000115c    \..     DCD    536875356
        0x00000ec8:    20001188    ...     DCD    536875400
    $t
        0x00000ecc:    3140        @1      ADDS     r1,r1,#0x40
        0x00000ece:    6248        Hb      STR      r0,[r1,#0x24]
        0x00000ed0:    48fe        .H      LDR      r0,[pc,#1016] ; [0x12cc] = 0x20001188
        0x00000ed2:    6900        .i      LDR      r0,[r0,#0x10]
        0x00000ed4:    49fe        .I      LDR      r1,[pc,#1016] ; [0x12d0] = 0x50004100
        0x00000ed6:    6248        Hb      STR      r0,[r1,#0x24]
        0x00000ed8:    48fc        .H      LDR      r0,[pc,#1008] ; [0x12cc] = 0x20001188
        0x00000eda:    6940        @i      LDR      r0,[r0,#0x14]
        0x00000edc:    49fc        .I      LDR      r1,[pc,#1008] ; [0x12d0] = 0x50004100
        0x00000ede:    3140        @1      ADDS     r1,r1,#0x40
        0x00000ee0:    6248        Hb      STR      r0,[r1,#0x24]
        0x00000ee2:    4770        pG      BX       lr
    Enter_PowerDown
        0x00000ee4:    b510        ..      PUSH     {r4,lr}
        0x00000ee6:    f7fffef8    ....    BL       SavePinSetting ; 0xcda
        0x00000eea:    2000        .       MOVS     r0,#0
        0x00000eec:    2105        .!      MOVS     r1,#5
        0x00000eee:    0709        ..      LSLS     r1,r1,#28
        0x00000ef0:    6308        .c      STR      r0,[r1,#0x30]
        0x00000ef2:    6348        Hc      STR      r0,[r1,#0x34]
        0x00000ef4:    6388        .c      STR      r0,[r1,#0x38]
        0x00000ef6:    63c8        .c      STR      r0,[r1,#0x3c]
        0x00000ef8:    49f6        .I      LDR      r1,[pc,#984] ; [0x12d4] = 0x50000040
        0x00000efa:    6008        .`      STR      r0,[r1,#0]
        0x00000efc:    6048        H`      STR      r0,[r1,#4]
        0x00000efe:    6088        .`      STR      r0,[r1,#8]
        0x00000f00:    60c8        .`      STR      r0,[r1,#0xc]
        0x00000f02:    6108        .a      STR      r0,[r1,#0x10]
        0x00000f04:    6148        Ha      STR      r0,[r1,#0x14]
        0x00000f06:    2077        w       MOVS     r0,#0x77
        0x00000f08:    0200        ..      LSLS     r0,r0,#8
        0x00000f0a:    6188        .a      STR      r0,[r1,#0x18]
        0x00000f0c:    48f2        .H      LDR      r0,[pc,#968] ; [0x12d8] = 0xffff
        0x00000f0e:    49f3        .I      LDR      r1,[pc,#972] ; [0x12dc] = 0x50004000
        0x00000f10:    6248        Hb      STR      r0,[r1,#0x24]
        0x00000f12:    49f2        .I      LDR      r1,[pc,#968] ; [0x12dc] = 0x50004000
        0x00000f14:    3140        @1      ADDS     r1,r1,#0x40
        0x00000f16:    6248        Hb      STR      r0,[r1,#0x24]
        0x00000f18:    49ed        .I      LDR      r1,[pc,#948] ; [0x12d0] = 0x50004100
        0x00000f1a:    3980        .9      SUBS     r1,r1,#0x80
        0x00000f1c:    6248        Hb      STR      r0,[r1,#0x24]
        0x00000f1e:    49ec        .I      LDR      r1,[pc,#944] ; [0x12d0] = 0x50004100
        0x00000f20:    3940        @9      SUBS     r1,r1,#0x40
        0x00000f22:    6248        Hb      STR      r0,[r1,#0x24]
        0x00000f24:    49ea        .I      LDR      r1,[pc,#936] ; [0x12d0] = 0x50004100
        0x00000f26:    6248        Hb      STR      r0,[r1,#0x24]
        0x00000f28:    2033        3       MOVS     r0,#0x33
        0x00000f2a:    49e9        .I      LDR      r1,[pc,#932] ; [0x12d0] = 0x50004100
        0x00000f2c:    3140        @1      ADDS     r1,r1,#0x40
        0x00000f2e:    6248        Hb      STR      r0,[r1,#0x24]
        0x00000f30:    48eb        .H      LDR      r0,[pc,#940] ; [0x12e0] = 0x50000200
        0x00000f32:    6880        .h      LDR      r0,[r0,#8]
        0x00000f34:    2101        .!      MOVS     r1,#1
        0x00000f36:    0689        ..      LSLS     r1,r1,#26
        0x00000f38:    4388        .C      BICS     r0,r0,r1
        0x00000f3a:    49e9        .I      LDR      r1,[pc,#932] ; [0x12e0] = 0x50000200
        0x00000f3c:    6088        .`      STR      r0,[r1,#8]
        0x00000f3e:    4608        .F      MOV      r0,r1
        0x00000f40:    6800        .h      LDR      r0,[r0,#0]
        0x00000f42:    2102        .!      MOVS     r1,#2
        0x00000f44:    4388        .C      BICS     r0,r0,r1
        0x00000f46:    49e6        .I      LDR      r1,[pc,#920] ; [0x12e0] = 0x50000200
        0x00000f48:    6008        .`      STR      r0,[r1,#0]
        0x00000f4a:    f001fa26    ..&.    BL       CLK_PowerDown ; 0x239a
        0x00000f4e:    bd10        ..      POP      {r4,pc}
    Leave_PowerDown
        0x00000f50:    b500        ..      PUSH     {lr}
        0x00000f52:    f7ffff08    ....    BL       RestorePinSetting ; 0xd66
        0x00000f56:    48df        .H      LDR      r0,[pc,#892] ; [0x12d4] = 0x50000040
        0x00000f58:    6980        .i      LDR      r0,[r0,#0x18]
        0x00000f5a:    2177        w!      MOVS     r1,#0x77
        0x00000f5c:    4308        .C      ORRS     r0,r0,r1
        0x00000f5e:    49dd        .I      LDR      r1,[pc,#884] ; [0x12d4] = 0x50000040
        0x00000f60:    6188        .a      STR      r0,[r1,#0x18]
        0x00000f62:    48df        .H      LDR      r0,[pc,#892] ; [0x12e0] = 0x50000200
        0x00000f64:    6800        .h      LDR      r0,[r0,#0]
        0x00000f66:    2102        .!      MOVS     r1,#2
        0x00000f68:    4308        .C      ORRS     r0,r0,r1
        0x00000f6a:    49dd        .I      LDR      r1,[pc,#884] ; [0x12e0] = 0x50000200
        0x00000f6c:    6008        .`      STR      r0,[r1,#0]
        0x00000f6e:    4608        .F      MOV      r0,r1
        0x00000f70:    6880        .h      LDR      r0,[r0,#8]
        0x00000f72:    0449        I.      LSLS     r1,r1,#17
        0x00000f74:    4308        .C      ORRS     r0,r0,r1
        0x00000f76:    49da        .I      LDR      r1,[pc,#872] ; [0x12e0] = 0x50000200
        0x00000f78:    6088        .`      STR      r0,[r1,#8]
        0x00000f7a:    bd00        ..      POP      {pc}
    SendAT1
        0x00000f7c:    b5ff        ..      PUSH     {r0-r7,lr}
        0x00000f7e:    b081        ..      SUB      sp,sp,#4
        0x00000f80:    4606        .F      MOV      r6,r0
        0x00000f82:    4614        .F      MOV      r4,r2
        0x00000f84:    461d        .F      MOV      r5,r3
        0x00000f86:    9f0a        ..      LDR      r7,[sp,#0x28]
        0x00000f88:    2000        .       MOVS     r0,#0
        0x00000f8a:    49d6        .I      LDR      r1,[pc,#856] ; [0x12e4] = 0x50004240
        0x00000f8c:    6088        .`      STR      r0,[r1,#8]
        0x00000f8e:    20ff        .       MOVS     r0,#0xff
        0x00000f90:    30f5        .0      ADDS     r0,r0,#0xf5
        0x00000f92:    f003fbfd    ....    BL       osDelay ; 0x4790
        0x00000f96:    2000        .       MOVS     r0,#0
        0x00000f98:    49d3        .I      LDR      r1,[pc,#844] ; [0x12e8] = 0x20000050
        0x00000f9a:    6008        .`      STR      r0,[r1,#0]
        0x00000f9c:    49d3        .I      LDR      r1,[pc,#844] ; [0x12ec] = 0x2000006c
        0x00000f9e:    6008        .`      STR      r0,[r1,#0]
        0x00000fa0:    49d3        .I      LDR      r1,[pc,#844] ; [0x12f0] = 0x20000070
        0x00000fa2:    6008        .`      STR      r0,[r1,#0]
        0x00000fa4:    49d3        .I      LDR      r1,[pc,#844] ; [0x12f4] = 0x20000074
        0x00000fa6:    6008        .`      STR      r0,[r1,#0]
        0x00000fa8:    49d3        .I      LDR      r1,[pc,#844] ; [0x12f8] = 0x20000048
        0x00000faa:    6008        .`      STR      r0,[r1,#0]
        0x00000fac:    21ff        .!      MOVS     r1,#0xff
        0x00000fae:    31f5        .1      ADDS     r1,r1,#0xf5
        0x00000fb0:    48d2        .H      LDR      r0,[pc,#840] ; [0x12fc] = 0x20000f68
        0x00000fb2:    f002f91c    ....    BL       __aeabi_memclr ; 0x31ee
        0x00000fb6:    211a        .!      MOVS     r1,#0x1a
        0x00000fb8:    a0d1        ..      ADR      r0,{pc}+0x348 ; 0x1300
        0x00000fba:    f002fd93    ....    BL       __0printf ; 0x3ae4
        0x00000fbe:    f7fffd20    .. .    BL       clear ; 0xa02
        0x00000fc2:    4630        0F      MOV      r0,r6
        0x00000fc4:    f002fd8e    ....    BL       __0printf ; 0x3ae4
        0x00000fc8:    bf00        ..      NOP      
        0x00000fca:    48cc        .H      LDR      r0,[pc,#816] ; [0x12fc] = 0x20000f68
        0x00000fcc:    9902        ..      LDR      r1,[sp,#8]
        0x00000fce:    f002f925    ..%.    BL       strstr ; 0x321c
        0x00000fd2:    49c6        .I      LDR      r1,[pc,#792] ; [0x12ec] = 0x2000006c
        0x00000fd4:    6008        .`      STR      r0,[r1,#0]
        0x00000fd6:    4621        !F      MOV      r1,r4
        0x00000fd8:    48c8        .H      LDR      r0,[pc,#800] ; [0x12fc] = 0x20000f68
        0x00000fda:    f002f91f    ....    BL       strstr ; 0x321c
        0x00000fde:    49c4        .I      LDR      r1,[pc,#784] ; [0x12f0] = 0x20000070
        0x00000fe0:    6008        .`      STR      r0,[r1,#0]
        0x00000fe2:    4629        )F      MOV      r1,r5
        0x00000fe4:    48c5        .H      LDR      r0,[pc,#788] ; [0x12fc] = 0x20000f68
        0x00000fe6:    f002f919    ....    BL       strstr ; 0x321c
        0x00000fea:    49c2        .I      LDR      r1,[pc,#776] ; [0x12f4] = 0x20000074
        0x00000fec:    6008        .`      STR      r0,[r1,#0]
        0x00000fee:    48bf        .H      LDR      r0,[pc,#764] ; [0x12ec] = 0x2000006c
        0x00000ff0:    6800        .h      LDR      r0,[r0,#0]
        0x00000ff2:    2800        .(      CMP      r0,#0
        0x00000ff4:    d10b        ..      BNE      0x100e ; SendAT1 + 146
        0x00000ff6:    48be        .H      LDR      r0,[pc,#760] ; [0x12f0] = 0x20000070
        0x00000ff8:    6800        .h      LDR      r0,[r0,#0]
        0x00000ffa:    2800        .(      CMP      r0,#0
        0x00000ffc:    d107        ..      BNE      0x100e ; SendAT1 + 146
        0x00000ffe:    4608        .F      MOV      r0,r1
        0x00001000:    6800        .h      LDR      r0,[r0,#0]
        0x00001002:    2800        .(      CMP      r0,#0
        0x00001004:    d103        ..      BNE      0x100e ; SendAT1 + 146
        0x00001006:    48b8        .H      LDR      r0,[pc,#736] ; [0x12e8] = 0x20000050
        0x00001008:    6800        .h      LDR      r0,[r0,#0]
        0x0000100a:    42b8        .B      CMP      r0,r7
        0x0000100c:    dbdd        ..      BLT      0xfca ; SendAT1 + 78
        0x0000100e:    48bb        .H      LDR      r0,[pc,#748] ; [0x12fc] = 0x20000f68
        0x00001010:    f001fdf1    ....    BL       send_string_to_uart1 ; 0x2bf6
        0x00001014:    2005        .       MOVS     r0,#5
        0x00001016:    f003fbbb    ....    BL       osDelay ; 0x4790
        0x0000101a:    b005        ..      ADD      sp,sp,#0x14
        0x0000101c:    bdf0        ..      POP      {r4-r7,pc}
    cpinquerry
        0x0000101e:    b510        ..      PUSH     {r4,lr}
        0x00001020:    2100        .!      MOVS     r1,#0
        0x00001022:    43c9        .C      MVNS     r1,r1
        0x00001024:    48b7        .H      LDR      r0,[pc,#732] ; [0x1304] = 0x20000024
        0x00001026:    6800        .h      LDR      r0,[r0,#0]
        0x00001028:    f003fc40    ..@.    BL       osMutexWait ; 0x48ac
        0x0000102c:    2000        .       MOVS     r0,#0
        0x0000102e:    49ae        .I      LDR      r1,[pc,#696] ; [0x12e8] = 0x20000050
        0x00001030:    6008        .`      STR      r0,[r1,#0]
        0x00001032:    2405        .$      MOVS     r4,#5
        0x00001034:    49ab        .I      LDR      r1,[pc,#684] ; [0x12e4] = 0x50004240
        0x00001036:    6088        .`      STR      r0,[r1,#8]
        0x00001038:    2064        d       MOVS     r0,#0x64
        0x0000103a:    f003fba9    ....    BL       osDelay ; 0x4790
        0x0000103e:    2000        .       MOVS     r0,#0
        0x00001040:    49aa        .I      LDR      r1,[pc,#680] ; [0x12ec] = 0x2000006c
        0x00001042:    6008        .`      STR      r0,[r1,#0]
        0x00001044:    49aa        .I      LDR      r1,[pc,#680] ; [0x12f0] = 0x20000070
        0x00001046:    6008        .`      STR      r0,[r1,#0]
        0x00001048:    49aa        .I      LDR      r1,[pc,#680] ; [0x12f4] = 0x20000074
        0x0000104a:    6008        .`      STR      r0,[r1,#0]
        0x0000104c:    49aa        .I      LDR      r1,[pc,#680] ; [0x12f8] = 0x20000048
        0x0000104e:    6008        .`      STR      r0,[r1,#0]
        0x00001050:    21ff        .!      MOVS     r1,#0xff
        0x00001052:    31f5        .1      ADDS     r1,r1,#0xf5
        0x00001054:    48a9        .H      LDR      r0,[pc,#676] ; [0x12fc] = 0x20000f68
        0x00001056:    f002f8ca    ....    BL       __aeabi_memclr ; 0x31ee
        0x0000105a:    211a        .!      MOVS     r1,#0x1a
        0x0000105c:    a0a8        ..      ADR      r0,{pc}+0x2a4 ; 0x1300
        0x0000105e:    f002fd41    ..A.    BL       __0printf ; 0x3ae4
        0x00001062:    f7fffcce    ....    BL       clear ; 0xa02
        0x00001066:    a0a8        ..      ADR      r0,{pc}+0x2a2 ; 0x1308
        0x00001068:    f002fd3c    ..<.    BL       __0printf ; 0x3ae4
        0x0000106c:    bf00        ..      NOP      
        0x0000106e:    a1aa        ..      ADR      r1,{pc}+0x2aa ; 0x1318
        0x00001070:    48a2        .H      LDR      r0,[pc,#648] ; [0x12fc] = 0x20000f68
        0x00001072:    f002f8d3    ....    BL       strstr ; 0x321c
        0x00001076:    499d        .I      LDR      r1,[pc,#628] ; [0x12ec] = 0x2000006c
        0x00001078:    6008        .`      STR      r0,[r1,#0]
        0x0000107a:    a1aa        ..      ADR      r1,{pc}+0x2aa ; 0x1324
        0x0000107c:    489f        .H      LDR      r0,[pc,#636] ; [0x12fc] = 0x20000f68
        0x0000107e:    f002f8cd    ....    BL       strstr ; 0x321c
        0x00001082:    499b        .I      LDR      r1,[pc,#620] ; [0x12f0] = 0x20000070
        0x00001084:    6008        .`      STR      r0,[r1,#0]
        0x00001086:    49a8        .I      LDR      r1,[pc,#672] ; [0x1328] = 0xe6c
        0x00001088:    489c        .H      LDR      r0,[pc,#624] ; [0x12fc] = 0x20000f68
        0x0000108a:    f002f8c7    ....    BL       strstr ; 0x321c
        0x0000108e:    4999        .I      LDR      r1,[pc,#612] ; [0x12f4] = 0x20000074
        0x00001090:    6008        .`      STR      r0,[r1,#0]
        0x00001092:    4896        .H      LDR      r0,[pc,#600] ; [0x12ec] = 0x2000006c
        0x00001094:    6800        .h      LDR      r0,[r0,#0]
        0x00001096:    2800        .(      CMP      r0,#0
        0x00001098:    d10b        ..      BNE      0x10b2 ; cpinquerry + 148
        0x0000109a:    4895        .H      LDR      r0,[pc,#596] ; [0x12f0] = 0x20000070
        0x0000109c:    6800        .h      LDR      r0,[r0,#0]
        0x0000109e:    2800        .(      CMP      r0,#0
        0x000010a0:    d107        ..      BNE      0x10b2 ; cpinquerry + 148
        0x000010a2:    4608        .F      MOV      r0,r1
        0x000010a4:    6800        .h      LDR      r0,[r0,#0]
        0x000010a6:    2800        .(      CMP      r0,#0
        0x000010a8:    d103        ..      BNE      0x10b2 ; cpinquerry + 148
        0x000010aa:    488f        .H      LDR      r0,[pc,#572] ; [0x12e8] = 0x20000050
        0x000010ac:    6800        .h      LDR      r0,[r0,#0]
        0x000010ae:    42a0        .B      CMP      r0,r4
        0x000010b0:    dbdd        ..      BLT      0x106e ; cpinquerry + 80
        0x000010b2:    2001        .       MOVS     r0,#1
        0x000010b4:    498b        .I      LDR      r1,[pc,#556] ; [0x12e4] = 0x50004240
        0x000010b6:    6088        .`      STR      r0,[r1,#8]
        0x000010b8:    488c        .H      LDR      r0,[pc,#560] ; [0x12ec] = 0x2000006c
        0x000010ba:    6800        .h      LDR      r0,[r0,#0]
        0x000010bc:    2800        .(      CMP      r0,#0
        0x000010be:    d003        ..      BEQ      0x10c8 ; cpinquerry + 170
        0x000010c0:    2001        .       MOVS     r0,#1
        0x000010c2:    499a        .I      LDR      r1,[pc,#616] ; [0x132c] = 0x2000005d
        0x000010c4:    7008        .p      STRB     r0,[r1,#0]
        0x000010c6:    e002        ..      B        0x10ce ; cpinquerry + 176
        0x000010c8:    2000        .       MOVS     r0,#0
        0x000010ca:    4998        .I      LDR      r1,[pc,#608] ; [0x132c] = 0x2000005d
        0x000010cc:    7008        .p      STRB     r0,[r1,#0]
        0x000010ce:    488d        .H      LDR      r0,[pc,#564] ; [0x1304] = 0x20000024
        0x000010d0:    6800        .h      LDR      r0,[r0,#0]
        0x000010d2:    f003fbdd    ....    BL       osMutexRelease ; 0x4890
        0x000010d6:    2005        .       MOVS     r0,#5
        0x000010d8:    f003fb5a    ..Z.    BL       osDelay ; 0x4790
        0x000010dc:    bd10        ..      POP      {r4,pc}
    cregquerry
        0x000010de:    b510        ..      PUSH     {r4,lr}
        0x000010e0:    b086        ..      SUB      sp,sp,#0x18
        0x000010e2:    2100        .!      MOVS     r1,#0
        0x000010e4:    43c9        .C      MVNS     r1,r1
        0x000010e6:    4887        .H      LDR      r0,[pc,#540] ; [0x1304] = 0x20000024
        0x000010e8:    6800        .h      LDR      r0,[r0,#0]
        0x000010ea:    f003fbdf    ....    BL       osMutexWait ; 0x48ac
        0x000010ee:    2000        .       MOVS     r0,#0
        0x000010f0:    497d        }I      LDR      r1,[pc,#500] ; [0x12e8] = 0x20000050
        0x000010f2:    6008        .`      STR      r0,[r1,#0]
        0x000010f4:    2405        .$      MOVS     r4,#5
        0x000010f6:    497b        {I      LDR      r1,[pc,#492] ; [0x12e4] = 0x50004240
        0x000010f8:    6088        .`      STR      r0,[r1,#8]
        0x000010fa:    2064        d       MOVS     r0,#0x64
        0x000010fc:    f003fb48    ..H.    BL       osDelay ; 0x4790
        0x00001100:    2000        .       MOVS     r0,#0
        0x00001102:    497a        zI      LDR      r1,[pc,#488] ; [0x12ec] = 0x2000006c
        0x00001104:    6008        .`      STR      r0,[r1,#0]
        0x00001106:    497a        zI      LDR      r1,[pc,#488] ; [0x12f0] = 0x20000070
        0x00001108:    6008        .`      STR      r0,[r1,#0]
        0x0000110a:    497a        zI      LDR      r1,[pc,#488] ; [0x12f4] = 0x20000074
        0x0000110c:    6008        .`      STR      r0,[r1,#0]
        0x0000110e:    497a        zI      LDR      r1,[pc,#488] ; [0x12f8] = 0x20000048
        0x00001110:    6008        .`      STR      r0,[r1,#0]
        0x00001112:    21ff        .!      MOVS     r1,#0xff
        0x00001114:    31f5        .1      ADDS     r1,r1,#0xf5
        0x00001116:    4879        yH      LDR      r0,[pc,#484] ; [0x12fc] = 0x20000f68
        0x00001118:    f002f869    ..i.    BL       __aeabi_memclr ; 0x31ee
        0x0000111c:    211a        .!      MOVS     r1,#0x1a
        0x0000111e:    a078        x.      ADR      r0,{pc}+0x1e2 ; 0x1300
        0x00001120:    f002fce0    ....    BL       __0printf ; 0x3ae4
        0x00001124:    f7fffc6d    ..m.    BL       clear ; 0xa02
        0x00001128:    a081        ..      ADR      r0,{pc}+0x208 ; 0x1330
        0x0000112a:    f002fcdb    ....    BL       __0printf ; 0x3ae4
        0x0000112e:    bf00        ..      NOP      
        0x00001130:    a179        y.      ADR      r1,{pc}+0x1e8 ; 0x1318
        0x00001132:    4872        rH      LDR      r0,[pc,#456] ; [0x12fc] = 0x20000f68
        0x00001134:    f002f872    ..r.    BL       strstr ; 0x321c
        0x00001138:    496c        lI      LDR      r1,[pc,#432] ; [0x12ec] = 0x2000006c
        0x0000113a:    6008        .`      STR      r0,[r1,#0]
        0x0000113c:    a179        y.      ADR      r1,{pc}+0x1e8 ; 0x1324
        0x0000113e:    486f        oH      LDR      r0,[pc,#444] ; [0x12fc] = 0x20000f68
        0x00001140:    f002f86c    ..l.    BL       strstr ; 0x321c
        0x00001144:    496a        jI      LDR      r1,[pc,#424] ; [0x12f0] = 0x20000070
        0x00001146:    6008        .`      STR      r0,[r1,#0]
        0x00001148:    4977        wI      LDR      r1,[pc,#476] ; [0x1328] = 0xe6c
        0x0000114a:    486c        lH      LDR      r0,[pc,#432] ; [0x12fc] = 0x20000f68
        0x0000114c:    f002f866    ..f.    BL       strstr ; 0x321c
        0x00001150:    4968        hI      LDR      r1,[pc,#416] ; [0x12f4] = 0x20000074
        0x00001152:    6008        .`      STR      r0,[r1,#0]
        0x00001154:    4865        eH      LDR      r0,[pc,#404] ; [0x12ec] = 0x2000006c
        0x00001156:    6800        .h      LDR      r0,[r0,#0]
        0x00001158:    2800        .(      CMP      r0,#0
        0x0000115a:    d10b        ..      BNE      0x1174 ; cregquerry + 150
        0x0000115c:    4864        dH      LDR      r0,[pc,#400] ; [0x12f0] = 0x20000070
        0x0000115e:    6800        .h      LDR      r0,[r0,#0]
        0x00001160:    2800        .(      CMP      r0,#0
        0x00001162:    d107        ..      BNE      0x1174 ; cregquerry + 150
        0x00001164:    4608        .F      MOV      r0,r1
        0x00001166:    6800        .h      LDR      r0,[r0,#0]
        0x00001168:    2800        .(      CMP      r0,#0
        0x0000116a:    d103        ..      BNE      0x1174 ; cregquerry + 150
        0x0000116c:    485e        ^H      LDR      r0,[pc,#376] ; [0x12e8] = 0x20000050
        0x0000116e:    6800        .h      LDR      r0,[r0,#0]
        0x00001170:    42a0        .B      CMP      r0,r4
        0x00001172:    dbdd        ..      BLT      0x1130 ; cregquerry + 82
        0x00001174:    2001        .       MOVS     r0,#1
        0x00001176:    495b        [I      LDR      r1,[pc,#364] ; [0x12e4] = 0x50004240
        0x00001178:    6088        .`      STR      r0,[r1,#8]
        0x0000117a:    2000        .       MOVS     r0,#0
        0x0000117c:    9003        ..      STR      r0,[sp,#0xc]
        0x0000117e:    9004        ..      STR      r0,[sp,#0x10]
        0x00001180:    9005        ..      STR      r0,[sp,#0x14]
        0x00001182:    a803        ..      ADD      r0,sp,#0xc
        0x00001184:    210a        .!      MOVS     r1,#0xa
        0x00001186:    232c        ,#      MOVS     r3,#0x2c
        0x00001188:    2202        ."      MOVS     r2,#2
        0x0000118a:    9100        ..      STR      r1,[sp,#0]
        0x0000118c:    9001        ..      STR      r0,[sp,#4]
        0x0000118e:    2101        .!      MOVS     r1,#1
        0x00001190:    485a        ZH      LDR      r0,[pc,#360] ; [0x12fc] = 0x20000f68
        0x00001192:    f003fc1d    ....    BL       parse_g ; 0x49d0
        0x00001196:    a16a        j.      ADR      r1,{pc}+0x1aa ; 0x1340
        0x00001198:    a803        ..      ADD      r0,sp,#0xc
        0x0000119a:    f002f83f    ..?.    BL       strstr ; 0x321c
        0x0000119e:    2800        .(      CMP      r0,#0
        0x000011a0:    d105        ..      BNE      0x11ae ; cregquerry + 208
        0x000011a2:    a168        h.      ADR      r1,{pc}+0x1a2 ; 0x1344
        0x000011a4:    a803        ..      ADD      r0,sp,#0xc
        0x000011a6:    f002f839    ..9.    BL       strstr ; 0x321c
        0x000011aa:    2800        .(      CMP      r0,#0
        0x000011ac:    d003        ..      BEQ      0x11b6 ; cregquerry + 216
        0x000011ae:    2001        .       MOVS     r0,#1
        0x000011b0:    4965        eI      LDR      r1,[pc,#404] ; [0x1348] = 0x2000005e
        0x000011b2:    7008        .p      STRB     r0,[r1,#0]
        0x000011b4:    e002        ..      B        0x11bc ; cregquerry + 222
        0x000011b6:    2000        .       MOVS     r0,#0
        0x000011b8:    4963        cI      LDR      r1,[pc,#396] ; [0x1348] = 0x2000005e
        0x000011ba:    7008        .p      STRB     r0,[r1,#0]
        0x000011bc:    4851        QH      LDR      r0,[pc,#324] ; [0x1304] = 0x20000024
        0x000011be:    6800        .h      LDR      r0,[r0,#0]
        0x000011c0:    f003fb66    ..f.    BL       osMutexRelease ; 0x4890
        0x000011c4:    2005        .       MOVS     r0,#5
        0x000011c6:    f003fae3    ....    BL       osDelay ; 0x4790
        0x000011ca:    b006        ..      ADD      sp,sp,#0x18
        0x000011cc:    bd10        ..      POP      {r4,pc}
    SendAT_FS
        0x000011ce:    b5ff        ..      PUSH     {r0-r7,lr}
        0x000011d0:    b081        ..      SUB      sp,sp,#4
        0x000011d2:    4606        .F      MOV      r6,r0
        0x000011d4:    4614        .F      MOV      r4,r2
        0x000011d6:    461d        .F      MOV      r5,r3
        0x000011d8:    9f0a        ..      LDR      r7,[sp,#0x28]
        0x000011da:    2100        .!      MOVS     r1,#0
        0x000011dc:    43c9        .C      MVNS     r1,r1
        0x000011de:    4849        IH      LDR      r0,[pc,#292] ; [0x1304] = 0x20000024
        0x000011e0:    6800        .h      LDR      r0,[r0,#0]
        0x000011e2:    f003fb63    ..c.    BL       osMutexWait ; 0x48ac
        0x000011e6:    2000        .       MOVS     r0,#0
        0x000011e8:    493f        ?I      LDR      r1,[pc,#252] ; [0x12e8] = 0x20000050
        0x000011ea:    6008        .`      STR      r0,[r1,#0]
        0x000011ec:    493d        =I      LDR      r1,[pc,#244] ; [0x12e4] = 0x50004240
        0x000011ee:    6088        .`      STR      r0,[r1,#8]
        0x000011f0:    200a        .       MOVS     r0,#0xa
        0x000011f2:    f003facd    ....    BL       osDelay ; 0x4790
        0x000011f6:    2000        .       MOVS     r0,#0
        0x000011f8:    493c        <I      LDR      r1,[pc,#240] ; [0x12ec] = 0x2000006c
        0x000011fa:    6008        .`      STR      r0,[r1,#0]
        0x000011fc:    493c        <I      LDR      r1,[pc,#240] ; [0x12f0] = 0x20000070
        0x000011fe:    6008        .`      STR      r0,[r1,#0]
        0x00001200:    493c        <I      LDR      r1,[pc,#240] ; [0x12f4] = 0x20000074
        0x00001202:    6008        .`      STR      r0,[r1,#0]
        0x00001204:    493c        <I      LDR      r1,[pc,#240] ; [0x12f8] = 0x20000048
        0x00001206:    6008        .`      STR      r0,[r1,#0]
        0x00001208:    21ff        .!      MOVS     r1,#0xff
        0x0000120a:    31f5        .1      ADDS     r1,r1,#0xf5
        0x0000120c:    483b        ;H      LDR      r0,[pc,#236] ; [0x12fc] = 0x20000f68
        0x0000120e:    f001ffee    ....    BL       __aeabi_memclr ; 0x31ee
        0x00001212:    f7fffbf6    ....    BL       clear ; 0xa02
        0x00001216:    4630        0F      MOV      r0,r6
        0x00001218:    f002fc64    ..d.    BL       __0printf ; 0x3ae4
        0x0000121c:    bf00        ..      NOP      
        0x0000121e:    4837        7H      LDR      r0,[pc,#220] ; [0x12fc] = 0x20000f68
        0x00001220:    9902        ..      LDR      r1,[sp,#8]
        0x00001222:    f001fffb    ....    BL       strstr ; 0x321c
        0x00001226:    4931        1I      LDR      r1,[pc,#196] ; [0x12ec] = 0x2000006c
        0x00001228:    6008        .`      STR      r0,[r1,#0]
        0x0000122a:    4621        !F      MOV      r1,r4
        0x0000122c:    4833        3H      LDR      r0,[pc,#204] ; [0x12fc] = 0x20000f68
        0x0000122e:    f001fff5    ....    BL       strstr ; 0x321c
        0x00001232:    492f        /I      LDR      r1,[pc,#188] ; [0x12f0] = 0x20000070
        0x00001234:    6008        .`      STR      r0,[r1,#0]
        0x00001236:    4629        )F      MOV      r1,r5
        0x00001238:    4830        0H      LDR      r0,[pc,#192] ; [0x12fc] = 0x20000f68
        0x0000123a:    f001ffef    ....    BL       strstr ; 0x321c
        0x0000123e:    492d        -I      LDR      r1,[pc,#180] ; [0x12f4] = 0x20000074
        0x00001240:    6008        .`      STR      r0,[r1,#0]
        0x00001242:    482a        *H      LDR      r0,[pc,#168] ; [0x12ec] = 0x2000006c
        0x00001244:    6800        .h      LDR      r0,[r0,#0]
        0x00001246:    2800        .(      CMP      r0,#0
        0x00001248:    d10b        ..      BNE      0x1262 ; SendAT_FS + 148
        0x0000124a:    4829        )H      LDR      r0,[pc,#164] ; [0x12f0] = 0x20000070
        0x0000124c:    6800        .h      LDR      r0,[r0,#0]
        0x0000124e:    2800        .(      CMP      r0,#0
        0x00001250:    d107        ..      BNE      0x1262 ; SendAT_FS + 148
        0x00001252:    4608        .F      MOV      r0,r1
        0x00001254:    6800        .h      LDR      r0,[r0,#0]
        0x00001256:    2800        .(      CMP      r0,#0
        0x00001258:    d103        ..      BNE      0x1262 ; SendAT_FS + 148
        0x0000125a:    4823        #H      LDR      r0,[pc,#140] ; [0x12e8] = 0x20000050
        0x0000125c:    6800        .h      LDR      r0,[r0,#0]
        0x0000125e:    42b8        .B      CMP      r0,r7
        0x00001260:    dbdd        ..      BLT      0x121e ; SendAT_FS + 80
        0x00001262:    4931        1I      LDR      r1,[pc,#196] ; [0x1328] = 0xe6c
        0x00001264:    394c        L9      SUBS     r1,r1,#0x4c
        0x00001266:    4630        0F      MOV      r0,r6
        0x00001268:    f001ffd8    ....    BL       strstr ; 0x321c
        0x0000126c:    2800        .(      CMP      r0,#0
        0x0000126e:    d100        ..      BNE      0x1272 ; SendAT_FS + 164
        0x00001270:    bf00        ..      NOP      
        0x00001272:    2001        .       MOVS     r0,#1
        0x00001274:    491b        .I      LDR      r1,[pc,#108] ; [0x12e4] = 0x50004240
        0x00001276:    6088        .`      STR      r0,[r1,#8]
        0x00001278:    4822        "H      LDR      r0,[pc,#136] ; [0x1304] = 0x20000024
        0x0000127a:    6800        .h      LDR      r0,[r0,#0]
        0x0000127c:    f003fb08    ....    BL       osMutexRelease ; 0x4890
        0x00001280:    2002        .       MOVS     r0,#2
        0x00001282:    f003fa85    ....    BL       osDelay ; 0x4790
        0x00001286:    b005        ..      ADD      sp,sp,#0x14
        0x00001288:    bdf0        ..      POP      {r4-r7,pc}
    SendAT_GPS_WO_MUTEX
        0x0000128a:    b5ff        ..      PUSH     {r0-r7,lr}
        0x0000128c:    b089        ..      SUB      sp,sp,#0x24
        0x0000128e:    4607        .F      MOV      r7,r0
        0x00001290:    4614        .F      MOV      r4,r2
        0x00001292:    461d        .F      MOV      r5,r3
        0x00001294:    9e12        ..      LDR      r6,[sp,#0x48]
        0x00001296:    2000        .       MOVS     r0,#0
        0x00001298:    4912        .I      LDR      r1,[pc,#72] ; [0x12e4] = 0x50004240
        0x0000129a:    6088        .`      STR      r0,[r1,#8]
        0x0000129c:    20ff        .       MOVS     r0,#0xff
        0x0000129e:    30f5        .0      ADDS     r0,r0,#0xf5
        0x000012a0:    f003fa76    ..v.    BL       osDelay ; 0x4790
        0x000012a4:    2000        .       MOVS     r0,#0
        0x000012a6:    4910        .I      LDR      r1,[pc,#64] ; [0x12e8] = 0x20000050
        0x000012a8:    6008        .`      STR      r0,[r1,#0]
        0x000012aa:    4910        .I      LDR      r1,[pc,#64] ; [0x12ec] = 0x2000006c
        0x000012ac:    6008        .`      STR      r0,[r1,#0]
        0x000012ae:    4910        .I      LDR      r1,[pc,#64] ; [0x12f0] = 0x20000070
        0x000012b0:    6008        .`      STR      r0,[r1,#0]
        0x000012b2:    4910        .I      LDR      r1,[pc,#64] ; [0x12f4] = 0x20000074
        0x000012b4:    6008        .`      STR      r0,[r1,#0]
        0x000012b6:    4910        .I      LDR      r1,[pc,#64] ; [0x12f8] = 0x20000048
        0x000012b8:    6008        .`      STR      r0,[r1,#0]
        0x000012ba:    21ff        .!      MOVS     r1,#0xff
        0x000012bc:    31f5        .1      ADDS     r1,r1,#0xf5
        0x000012be:    480f        .H      LDR      r0,[pc,#60] ; [0x12fc] = 0x20000f68
        0x000012c0:    f001ff95    ....    BL       __aeabi_memclr ; 0x31ee
        0x000012c4:    211a        .!      MOVS     r1,#0x1a
        0x000012c6:    a00e        ..      ADR      r0,{pc}+0x3a ; 0x1300
        0x000012c8:    e040        @.      B        0x134c ; SendAT_GPS_WO_MUTEX + 194
    $d
        0x000012ca:    0000        ..      DCW    0
        0x000012cc:    20001188    ...     DCD    536875400
        0x000012d0:    50004100    .A.P    DCD    1342193920
        0x000012d4:    50000040    @..P    DCD    1342177344
        0x000012d8:    0000ffff    ....    DCD    65535
        0x000012dc:    50004000    .@.P    DCD    1342193664
        0x000012e0:    50000200    ...P    DCD    1342177792
        0x000012e4:    50004240    @B.P    DCD    1342194240
        0x000012e8:    20000050    P..     DCD    536870992
        0x000012ec:    2000006c    l..     DCD    536871020
        0x000012f0:    20000070    p..     DCD    536871024
        0x000012f4:    20000074    t..     DCD    536871028
        0x000012f8:    20000048    H..     DCD    536870984
        0x000012fc:    20000f68    h..     DCD    536874856
        0x00001300:    00006325    %c..    DCD    25381
        0x00001304:    20000024    $..     DCD    536870948
        0x00001308:    54410a0d    ..AT    DCD    1413548557
        0x0000130c:    4950432b    +CPI    DCD    1229996843
        0x00001310:    0a0d3f4e    N?..    DCD    168640334
        0x00001314:    00000000    ....    DCD    0
        0x00001318:    4e495043    CPIN    DCD    1313427523
        0x0000131c:    4552203a    : RE    DCD    1163010106
        0x00001320:    00594441    ADY.    DCD    5850177
        0x00001324:    00004b4f    OK..    DCD    19279
        0x00001328:    00000e6c    l...    DCD    3692
        0x0000132c:    2000005d    ]..     DCD    536871005
        0x00001330:    54410a0d    ..AT    DCD    1413548557
        0x00001334:    4552432b    +CRE    DCD    1163019051
        0x00001338:    0a0d3f47    G?..    DCD    168640327
        0x0000133c:    00000000    ....    DCD    0
        0x00001340:    00000031    1...    DCD    49
        0x00001344:    00000035    5...    DCD    53
        0x00001348:    2000005e    ^..     DCD    536871006
    $t
        0x0000134c:    f002fbca    ....    BL       __0printf ; 0x3ae4
        0x00001350:    f7fffb57    ..W.    BL       clear ; 0xa02
        0x00001354:    48fb        .H      LDR      r0,[pc,#1004] ; [0x1744] = 0x20001204
        0x00001356:    f003f945    ..E.    BL       checkallnumsinstring ; 0x45e4
        0x0000135a:    2800        .(      CMP      r0,#0
        0x0000135c:    d104        ..      BNE      0x1368 ; SendAT_GPS_WO_MUTEX + 222
        0x0000135e:    48f9        .H      LDR      r0,[pc,#996] ; [0x1744] = 0x20001204
        0x00001360:    f001ff70    ..p.    BL       strlen ; 0x3244
        0x00001364:    2805        .(      CMP      r0,#5
        0x00001366:    d259        Y.      BCS      0x141c ; SendAT_GPS_WO_MUTEX + 402
        0x00001368:    a0f7        ..      ADR      r0,{pc}+0x3e0 ; 0x1748
        0x0000136a:    f002fbbb    ....    BL       __0printf ; 0x3ae4
        0x0000136e:    bf00        ..      NOP      
        0x00001370:    48f8        .H      LDR      r0,[pc,#992] ; [0x1754] = 0x20000f68
        0x00001372:    990a        ..      LDR      r1,[sp,#0x28]
        0x00001374:    f001ff52    ..R.    BL       strstr ; 0x321c
        0x00001378:    49f7        .I      LDR      r1,[pc,#988] ; [0x1758] = 0x2000006c
        0x0000137a:    6008        .`      STR      r0,[r1,#0]
        0x0000137c:    4621        !F      MOV      r1,r4
        0x0000137e:    48f5        .H      LDR      r0,[pc,#980] ; [0x1754] = 0x20000f68
        0x00001380:    f001ff4c    ..L.    BL       strstr ; 0x321c
        0x00001384:    49f5        .I      LDR      r1,[pc,#980] ; [0x175c] = 0x20000070
        0x00001386:    6008        .`      STR      r0,[r1,#0]
        0x00001388:    4629        )F      MOV      r1,r5
        0x0000138a:    48f2        .H      LDR      r0,[pc,#968] ; [0x1754] = 0x20000f68
        0x0000138c:    f001ff46    ..F.    BL       strstr ; 0x321c
        0x00001390:    49f3        .I      LDR      r1,[pc,#972] ; [0x1760] = 0x20000074
        0x00001392:    6008        .`      STR      r0,[r1,#0]
        0x00001394:    48f0        .H      LDR      r0,[pc,#960] ; [0x1758] = 0x2000006c
        0x00001396:    6800        .h      LDR      r0,[r0,#0]
        0x00001398:    2800        .(      CMP      r0,#0
        0x0000139a:    d10b        ..      BNE      0x13b4 ; SendAT_GPS_WO_MUTEX + 298
        0x0000139c:    48ef        .H      LDR      r0,[pc,#956] ; [0x175c] = 0x20000070
        0x0000139e:    6800        .h      LDR      r0,[r0,#0]
        0x000013a0:    2800        .(      CMP      r0,#0
        0x000013a2:    d107        ..      BNE      0x13b4 ; SendAT_GPS_WO_MUTEX + 298
        0x000013a4:    4608        .F      MOV      r0,r1
        0x000013a6:    6800        .h      LDR      r0,[r0,#0]
        0x000013a8:    2800        .(      CMP      r0,#0
        0x000013aa:    d103        ..      BNE      0x13b4 ; SendAT_GPS_WO_MUTEX + 298
        0x000013ac:    48ed        .H      LDR      r0,[pc,#948] ; [0x1764] = 0x20000050
        0x000013ae:    6800        .h      LDR      r0,[r0,#0]
        0x000013b0:    42b0        .B      CMP      r0,r6
        0x000013b2:    dbdd        ..      BLT      0x1370 ; SendAT_GPS_WO_MUTEX + 230
        0x000013b4:    2119        .!      MOVS     r1,#0x19
        0x000013b6:    48e3        .H      LDR      r0,[pc,#908] ; [0x1744] = 0x20001204
        0x000013b8:    f001ff19    ....    BL       __aeabi_memclr ; 0x31ee
        0x000013bc:    2000        .       MOVS     r0,#0
        0x000013be:    49ea        .I      LDR      r1,[pc,#936] ; [0x1768] = 0x2000009c
        0x000013c0:    6008        .`      STR      r0,[r1,#0]
        0x000013c2:    49ea        .I      LDR      r1,[pc,#936] ; [0x176c] = 0x200000a0
        0x000013c4:    6008        .`      STR      r0,[r1,#0]
        0x000013c6:    e01d        ..      B        0x1404 ; SendAT_GPS_WO_MUTEX + 378
        0x000013c8:    48e2        .H      LDR      r0,[pc,#904] ; [0x1754] = 0x20000f68
        0x000013ca:    49e8        .I      LDR      r1,[pc,#928] ; [0x176c] = 0x200000a0
        0x000013cc:    6809        .h      LDR      r1,[r1,#0]
        0x000013ce:    5c40        @\      LDRB     r0,[r0,r1]
        0x000013d0:    282f        /(      CMP      r0,#0x2f
        0x000013d2:    dd12        ..      BLE      0x13fa ; SendAT_GPS_WO_MUTEX + 368
        0x000013d4:    48df        .H      LDR      r0,[pc,#892] ; [0x1754] = 0x20000f68
        0x000013d6:    49e5        .I      LDR      r1,[pc,#916] ; [0x176c] = 0x200000a0
        0x000013d8:    6809        .h      LDR      r1,[r1,#0]
        0x000013da:    5c40        @\      LDRB     r0,[r0,r1]
        0x000013dc:    283a        :(      CMP      r0,#0x3a
        0x000013de:    da0c        ..      BGE      0x13fa ; SendAT_GPS_WO_MUTEX + 368
        0x000013e0:    48dc        .H      LDR      r0,[pc,#880] ; [0x1754] = 0x20000f68
        0x000013e2:    49e2        .I      LDR      r1,[pc,#904] ; [0x176c] = 0x200000a0
        0x000013e4:    6809        .h      LDR      r1,[r1,#0]
        0x000013e6:    5c40        @\      LDRB     r0,[r0,r1]
        0x000013e8:    49d6        .I      LDR      r1,[pc,#856] ; [0x1744] = 0x20001204
        0x000013ea:    4adf        .J      LDR      r2,[pc,#892] ; [0x1768] = 0x2000009c
        0x000013ec:    6812        .h      LDR      r2,[r2,#0]
        0x000013ee:    5488        .T      STRB     r0,[r1,r2]
        0x000013f0:    48dd        .H      LDR      r0,[pc,#884] ; [0x1768] = 0x2000009c
        0x000013f2:    6800        .h      LDR      r0,[r0,#0]
        0x000013f4:    1c40        @.      ADDS     r0,r0,#1
        0x000013f6:    49dc        .I      LDR      r1,[pc,#880] ; [0x1768] = 0x2000009c
        0x000013f8:    6008        .`      STR      r0,[r1,#0]
        0x000013fa:    48dc        .H      LDR      r0,[pc,#880] ; [0x176c] = 0x200000a0
        0x000013fc:    6800        .h      LDR      r0,[r0,#0]
        0x000013fe:    1c40        @.      ADDS     r0,r0,#1
        0x00001400:    49da        .I      LDR      r1,[pc,#872] ; [0x176c] = 0x200000a0
        0x00001402:    6008        .`      STR      r0,[r1,#0]
        0x00001404:    48d3        .H      LDR      r0,[pc,#844] ; [0x1754] = 0x20000f68
        0x00001406:    f001ff1d    ....    BL       strlen ; 0x3244
        0x0000140a:    49d8        .I      LDR      r1,[pc,#864] ; [0x176c] = 0x200000a0
        0x0000140c:    6809        .h      LDR      r1,[r1,#0]
        0x0000140e:    4288        .B      CMP      r0,r1
        0x00001410:    d8da        ..      BHI      0x13c8 ; SendAT_GPS_WO_MUTEX + 318
        0x00001412:    221a        ."      MOVS     r2,#0x1a
        0x00001414:    210d        .!      MOVS     r1,#0xd
        0x00001416:    48cb        .H      LDR      r0,[pc,#812] ; [0x1744] = 0x20001204
        0x00001418:    f7feffd3    ....    BL       remove_all_chars ; 0x3c2
        0x0000141c:    2000        .       MOVS     r0,#0
        0x0000141e:    49d1        .I      LDR      r1,[pc,#836] ; [0x1764] = 0x20000050
        0x00001420:    6008        .`      STR      r0,[r1,#0]
        0x00001422:    49cd        .I      LDR      r1,[pc,#820] ; [0x1758] = 0x2000006c
        0x00001424:    6008        .`      STR      r0,[r1,#0]
        0x00001426:    49cd        .I      LDR      r1,[pc,#820] ; [0x175c] = 0x20000070
        0x00001428:    6008        .`      STR      r0,[r1,#0]
        0x0000142a:    49cd        .I      LDR      r1,[pc,#820] ; [0x1760] = 0x20000074
        0x0000142c:    6008        .`      STR      r0,[r1,#0]
        0x0000142e:    49d0        .I      LDR      r1,[pc,#832] ; [0x1770] = 0x20000048
        0x00001430:    6008        .`      STR      r0,[r1,#0]
        0x00001432:    21ff        .!      MOVS     r1,#0xff
        0x00001434:    31f5        .1      ADDS     r1,r1,#0xf5
        0x00001436:    48c7        .H      LDR      r0,[pc,#796] ; [0x1754] = 0x20000f68
        0x00001438:    f001fed9    ....    BL       __aeabi_memclr ; 0x31ee
        0x0000143c:    f7fffae1    ....    BL       clear ; 0xa02
        0x00001440:    211a        .!      MOVS     r1,#0x1a
        0x00001442:    a0cc        ..      ADR      r0,{pc}+0x332 ; 0x1774
        0x00001444:    f002fb4e    ..N.    BL       __0printf ; 0x3ae4
        0x00001448:    4638        8F      MOV      r0,r7
        0x0000144a:    f002fb4b    ..K.    BL       __0printf ; 0x3ae4
        0x0000144e:    bf00        ..      NOP      
        0x00001450:    48c0        .H      LDR      r0,[pc,#768] ; [0x1754] = 0x20000f68
        0x00001452:    990a        ..      LDR      r1,[sp,#0x28]
        0x00001454:    f001fee2    ....    BL       strstr ; 0x321c
        0x00001458:    49bf        .I      LDR      r1,[pc,#764] ; [0x1758] = 0x2000006c
        0x0000145a:    6008        .`      STR      r0,[r1,#0]
        0x0000145c:    4621        !F      MOV      r1,r4
        0x0000145e:    48bd        .H      LDR      r0,[pc,#756] ; [0x1754] = 0x20000f68
        0x00001460:    f001fedc    ....    BL       strstr ; 0x321c
        0x00001464:    49bd        .I      LDR      r1,[pc,#756] ; [0x175c] = 0x20000070
        0x00001466:    6008        .`      STR      r0,[r1,#0]
        0x00001468:    4629        )F      MOV      r1,r5
        0x0000146a:    48ba        .H      LDR      r0,[pc,#744] ; [0x1754] = 0x20000f68
        0x0000146c:    f001fed6    ....    BL       strstr ; 0x321c
        0x00001470:    49bb        .I      LDR      r1,[pc,#748] ; [0x1760] = 0x20000074
        0x00001472:    6008        .`      STR      r0,[r1,#0]
        0x00001474:    48b8        .H      LDR      r0,[pc,#736] ; [0x1758] = 0x2000006c
        0x00001476:    6800        .h      LDR      r0,[r0,#0]
        0x00001478:    2800        .(      CMP      r0,#0
        0x0000147a:    d10b        ..      BNE      0x1494 ; SendAT_GPS_WO_MUTEX + 522
        0x0000147c:    48b7        .H      LDR      r0,[pc,#732] ; [0x175c] = 0x20000070
        0x0000147e:    6800        .h      LDR      r0,[r0,#0]
        0x00001480:    2800        .(      CMP      r0,#0
        0x00001482:    d107        ..      BNE      0x1494 ; SendAT_GPS_WO_MUTEX + 522
        0x00001484:    4608        .F      MOV      r0,r1
        0x00001486:    6800        .h      LDR      r0,[r0,#0]
        0x00001488:    2800        .(      CMP      r0,#0
        0x0000148a:    d103        ..      BNE      0x1494 ; SendAT_GPS_WO_MUTEX + 522
        0x0000148c:    48b5        .H      LDR      r0,[pc,#724] ; [0x1764] = 0x20000050
        0x0000148e:    6800        .h      LDR      r0,[r0,#0]
        0x00001490:    42b0        .B      CMP      r0,r6
        0x00001492:    dbdd        ..      BLT      0x1450 ; SendAT_GPS_WO_MUTEX + 454
        0x00001494:    a1b8        ..      ADR      r1,{pc}+0x2e4 ; 0x1778
        0x00001496:    48af        .H      LDR      r0,[pc,#700] ; [0x1754] = 0x20000f68
        0x00001498:    f001fec0    ....    BL       strstr ; 0x321c
        0x0000149c:    2800        .(      CMP      r0,#0
        0x0000149e:    d05c        \.      BEQ      0x155a ; SendAT_GPS_WO_MUTEX + 720
        0x000014a0:    48b7        .H      LDR      r0,[pc,#732] ; [0x1780] = 0x40400000
        0x000014a2:    49b8        .I      LDR      r1,[pc,#736] ; [0x1784] = 0x20000054
        0x000014a4:    6008        .`      STR      r0,[r1,#0]
        0x000014a6:    48b8        .H      LDR      r0,[pc,#736] ; [0x1788] = 0x400e0040
        0x000014a8:    6880        .h      LDR      r0,[r0,#8]
        0x000014aa:    2101        .!      MOVS     r1,#1
        0x000014ac:    02c9        ..      LSLS     r1,r1,#11
        0x000014ae:    4308        .C      ORRS     r0,r0,r1
        0x000014b0:    49b5        .I      LDR      r1,[pc,#724] ; [0x1788] = 0x400e0040
        0x000014b2:    6088        .`      STR      r0,[r1,#8]
        0x000014b4:    49b4        .I      LDR      r1,[pc,#720] ; [0x1788] = 0x400e0040
        0x000014b6:    3940        @9      SUBS     r1,r1,#0x40
        0x000014b8:    6809        .h      LDR      r1,[r1,#0]
        0x000014ba:    0508        ..      LSLS     r0,r1,#20
        0x000014bc:    0d00        ..      LSRS     r0,r0,#20
        0x000014be:    f001ffb5    ....    BL       __aeabi_ui2f ; 0x342c
        0x000014c2:    49b0        .I      LDR      r1,[pc,#704] ; [0x1784] = 0x20000054
        0x000014c4:    6008        .`      STR      r0,[r1,#0]
        0x000014c6:    4608        .F      MOV      r0,r1
        0x000014c8:    6800        .h      LDR      r0,[r0,#0]
        0x000014ca:    f001ffb6    ....    BL       __aeabi_f2d ; 0x343a
        0x000014ce:    4aaf        .J      LDR      r2,[pc,#700] ; [0x178c] = 0xdb22d0e5
        0x000014d0:    4baf        .K      LDR      r3,[pc,#700] ; [0x1790] = 0x400a7ef9
        0x000014d2:    9101        ..      STR      r1,[sp,#4]
        0x000014d4:    9000        ..      STR      r0,[sp,#0]
        0x000014d6:    f001fec9    ....    BL       __aeabi_dmul ; 0x326c
        0x000014da:    2200        ."      MOVS     r2,#0
        0x000014dc:    4bad        .K      LDR      r3,[pc,#692] ; [0x1794] = 0x40b00000
        0x000014de:    9103        ..      STR      r1,[sp,#0xc]
        0x000014e0:    9002        ..      STR      r0,[sp,#8]
        0x000014e2:    f001ff2b    ..+.    BL       __aeabi_ddiv ; 0x333c
        0x000014e6:    4aac        .J      LDR      r2,[pc,#688] ; [0x1798] = 0xe737ca49
        0x000014e8:    4bac        .K      LDR      r3,[pc,#688] ; [0x179c] = 0x3ffe15ba
        0x000014ea:    9105        ..      STR      r1,[sp,#0x14]
        0x000014ec:    9004        ..      STR      r0,[sp,#0x10]
        0x000014ee:    f001febd    ....    BL       __aeabi_dmul ; 0x326c
        0x000014f2:    9107        ..      STR      r1,[sp,#0x1c]
        0x000014f4:    9006        ..      STR      r0,[sp,#0x18]
        0x000014f6:    f001ffdd    ....    BL       __aeabi_d2f ; 0x34b4
        0x000014fa:    49a2        .I      LDR      r1,[pc,#648] ; [0x1784] = 0x20000054
        0x000014fc:    6008        .`      STR      r0,[r1,#0]
        0x000014fe:    2164        d!      MOVS     r1,#0x64
        0x00001500:    48a7        .H      LDR      r0,[pc,#668] ; [0x17a0] = 0x200011a0
        0x00001502:    f001fe74    ..t.    BL       __aeabi_memclr ; 0x31ee
        0x00001506:    48a6        .H      LDR      r0,[pc,#664] ; [0x17a0] = 0x200011a0
        0x00001508:    212c        ,!      MOVS     r1,#0x2c
        0x0000150a:    2343        C#      MOVS     r3,#0x43
        0x0000150c:    220a        ."      MOVS     r2,#0xa
        0x0000150e:    9100        ..      STR      r1,[sp,#0]
        0x00001510:    9001        ..      STR      r0,[sp,#4]
        0x00001512:    2102        .!      MOVS     r1,#2
        0x00001514:    488f        .H      LDR      r0,[pc,#572] ; [0x1754] = 0x20000f68
        0x00001516:    f003fa5b    ..[.    BL       parse_g ; 0x49d0
        0x0000151a:    498a        .I      LDR      r1,[pc,#552] ; [0x1744] = 0x20001204
        0x0000151c:    48a1        .H      LDR      r0,[pc,#644] ; [0x17a4] = 0x200001bc
        0x0000151e:    f001fe71    ..q.    BL       strcat ; 0x3204
        0x00001522:    a1a1        ..      ADR      r1,{pc}+0x286 ; 0x17a8
        0x00001524:    489f        .H      LDR      r0,[pc,#636] ; [0x17a4] = 0x200001bc
        0x00001526:    f001fe6d    ..m.    BL       strcat ; 0x3204
        0x0000152a:    499d        .I      LDR      r1,[pc,#628] ; [0x17a0] = 0x200011a0
        0x0000152c:    489d        .H      LDR      r0,[pc,#628] ; [0x17a4] = 0x200001bc
        0x0000152e:    f001fe69    ..i.    BL       strcat ; 0x3204
        0x00001532:    2164        d!      MOVS     r1,#0x64
        0x00001534:    489a        .H      LDR      r0,[pc,#616] ; [0x17a0] = 0x200011a0
        0x00001536:    f001fe5a    ..Z.    BL       __aeabi_memclr ; 0x31ee
        0x0000153a:    4892        .H      LDR      r0,[pc,#584] ; [0x1784] = 0x20000054
        0x0000153c:    6800        .h      LDR      r0,[r0,#0]
        0x0000153e:    f001ff7c    ..|.    BL       __aeabi_f2d ; 0x343a
        0x00001542:    4602        .F      MOV      r2,r0
        0x00001544:    460b        .F      MOV      r3,r1
        0x00001546:    9107        ..      STR      r1,[sp,#0x1c]
        0x00001548:    9006        ..      STR      r0,[sp,#0x18]
        0x0000154a:    a198        ..      ADR      r1,{pc}+0x262 ; 0x17ac
        0x0000154c:    4894        .H      LDR      r0,[pc,#592] ; [0x17a0] = 0x200011a0
        0x0000154e:    f002fad9    ....    BL       __0sprintf ; 0x3b04
        0x00001552:    4993        .I      LDR      r1,[pc,#588] ; [0x17a0] = 0x200011a0
        0x00001554:    4893        .H      LDR      r0,[pc,#588] ; [0x17a4] = 0x200001bc
        0x00001556:    f001fe55    ..U.    BL       strcat ; 0x3204
        0x0000155a:    4892        .H      LDR      r0,[pc,#584] ; [0x17a4] = 0x200001bc
        0x0000155c:    f001fe72    ..r.    BL       strlen ; 0x3244
        0x00001560:    4995        .I      LDR      r1,[pc,#596] ; [0x17b8] = 0xb54
        0x00001562:    4288        .B      CMP      r0,r1
        0x00001564:    d90b        ..      BLS      0x157e ; SendAT_GPS_WO_MUTEX + 756
        0x00001566:    4995        .I      LDR      r1,[pc,#596] ; [0x17bc] = 0xdac
        0x00001568:    488e        .H      LDR      r0,[pc,#568] ; [0x17a4] = 0x200001bc
        0x0000156a:    f001fe40    ..@.    BL       __aeabi_memclr ; 0x31ee
        0x0000156e:    4975        uI      LDR      r1,[pc,#468] ; [0x1744] = 0x20001204
        0x00001570:    488c        .H      LDR      r0,[pc,#560] ; [0x17a4] = 0x200001bc
        0x00001572:    f001fe47    ..G.    BL       strcat ; 0x3204
        0x00001576:    a192        ..      ADR      r1,{pc}+0x24a ; 0x17c0
        0x00001578:    488a        .H      LDR      r0,[pc,#552] ; [0x17a4] = 0x200001bc
        0x0000157a:    f001fe43    ..C.    BL       strcat ; 0x3204
        0x0000157e:    2001        .       MOVS     r0,#1
        0x00001580:    4993        .I      LDR      r1,[pc,#588] ; [0x17d0] = 0x50004240
        0x00001582:    6088        .`      STR      r0,[r1,#8]
        0x00001584:    b00d        ..      ADD      sp,sp,#0x34
        0x00001586:    bdf0        ..      POP      {r4-r7,pc}
    TCP_Send_ch
        0x00001588:    b5ff        ..      PUSH     {r0-r7,lr}
        0x0000158a:    b0ff        ..      SUB      sp,sp,#0x1fc
        0x0000158c:    b0a0        ..      SUB      sp,sp,#0x80
        0x0000158e:    2400        .$      MOVS     r4,#0
        0x00001590:    2000        .       MOVS     r0,#0
        0x00001592:    909e        ..      STR      r0,[sp,#0x278]
        0x00001594:    909d        ..      STR      r0,[sp,#0x274]
        0x00001596:    2500        .%      MOVS     r5,#0
        0x00001598:    2600        .&      MOVS     r6,#0
        0x0000159a:    204b        K       MOVS     r0,#0x4b
        0x0000159c:    00c0        ..      LSLS     r0,r0,#3
        0x0000159e:    909c        ..      STR      r0,[sp,#0x270]
        0x000015a0:    2000        .       MOVS     r0,#0
        0x000015a2:    9003        ..      STR      r0,[sp,#0xc]
        0x000015a4:    498b        .I      LDR      r1,[pc,#556] ; [0x17d4] = 0x20000064
        0x000015a6:    6008        .`      STR      r0,[r1,#0]
        0x000015a8:    1e41        A.      SUBS     r1,r0,#1
        0x000015aa:    488b        .H      LDR      r0,[pc,#556] ; [0x17d8] = 0x20000024
        0x000015ac:    6800        .h      LDR      r0,[r0,#0]
        0x000015ae:    f003f97d    ..}.    BL       osMutexWait ; 0x48ac
        0x000015b2:    1e61        a.      SUBS     r1,r4,#1
        0x000015b4:    4889        .H      LDR      r0,[pc,#548] ; [0x17dc] = 0x20000028
        0x000015b6:    6800        .h      LDR      r0,[r0,#0]
        0x000015b8:    f003f978    ..x.    BL       osMutexWait ; 0x48ac
        0x000015bc:    2000        .       MOVS     r0,#0
        0x000015be:    4984        .I      LDR      r1,[pc,#528] ; [0x17d0] = 0x50004240
        0x000015c0:    6088        .`      STR      r0,[r1,#8]
        0x000015c2:    211a        .!      MOVS     r1,#0x1a
        0x000015c4:    a06b        k.      ADR      r0,{pc}+0x1b0 ; 0x1774
        0x000015c6:    f002fa8d    ....    BL       __0printf ; 0x3ae4
        0x000015ca:    2000        .       MOVS     r0,#0
        0x000015cc:    4965        eI      LDR      r1,[pc,#404] ; [0x1764] = 0x20000050
        0x000015ce:    6008        .`      STR      r0,[r1,#0]
        0x000015d0:    2005        .       MOVS     r0,#5
        0x000015d2:    90a9        ..      STR      r0,[sp,#0x2a4]
        0x000015d4:    2000        .       MOVS     r0,#0
        0x000015d6:    4960        `I      LDR      r1,[pc,#384] ; [0x1758] = 0x2000006c
        0x000015d8:    6008        .`      STR      r0,[r1,#0]
        0x000015da:    4960        `I      LDR      r1,[pc,#384] ; [0x175c] = 0x20000070
        0x000015dc:    6008        .`      STR      r0,[r1,#0]
        0x000015de:    4960        `I      LDR      r1,[pc,#384] ; [0x1760] = 0x20000074
        0x000015e0:    6008        .`      STR      r0,[r1,#0]
        0x000015e2:    2032        2       MOVS     r0,#0x32
        0x000015e4:    4b7e        ~K      LDR      r3,[pc,#504] ; [0x17e0] = 0xe6c
        0x000015e6:    a27f        ..      ADR      r2,{pc}+0x1fe ; 0x17e4
        0x000015e8:    4619        .F      MOV      r1,r3
        0x000015ea:    310c        .1      ADDS     r1,r1,#0xc
        0x000015ec:    9000        ..      STR      r0,[sp,#0]
        0x000015ee:    a07e        ~.      ADR      r0,{pc}+0x1fa ; 0x17e8
        0x000015f0:    f7fffa19    ....    BL       SendAT ; 0xa26
        0x000015f4:    2000        .       MOVS     r0,#0
        0x000015f6:    909a        ..      STR      r0,[sp,#0x268]
        0x000015f8:    909b        ..      STR      r0,[sp,#0x26c]
        0x000015fa:    2032        2       MOVS     r0,#0x32
        0x000015fc:    4b78        xK      LDR      r3,[pc,#480] ; [0x17e0] = 0xe6c
        0x000015fe:    a279        y.      ADR      r2,{pc}+0x1e6 ; 0x17e4
        0x00001600:    4619        .F      MOV      r1,r3
        0x00001602:    310c        .1      ADDS     r1,r1,#0xc
        0x00001604:    9000        ..      STR      r0,[sp,#0]
        0x00001606:    a07d        }.      ADR      r0,{pc}+0x1f6 ; 0x17fc
        0x00001608:    f7fffa0d    ....    BL       SendAT ; 0xa26
        0x0000160c:    a89a        ..      ADD      r0,sp,#0x268
        0x0000160e:    210a        .!      MOVS     r1,#0xa
        0x00001610:    232c        ,#      MOVS     r3,#0x2c
        0x00001612:    2202        ."      MOVS     r2,#2
        0x00001614:    9100        ..      STR      r1,[sp,#0]
        0x00001616:    9001        ..      STR      r0,[sp,#4]
        0x00001618:    2101        .!      MOVS     r1,#1
        0x0000161a:    484e        NH      LDR      r0,[pc,#312] ; [0x1754] = 0x20000f68
        0x0000161c:    f003f9d8    ....    BL       parse_g ; 0x49d0
        0x00001620:    221a        ."      MOVS     r2,#0x1a
        0x00001622:    210d        .!      MOVS     r1,#0xd
        0x00001624:    a89a        ..      ADD      r0,sp,#0x268
        0x00001626:    f7fefecc    ....    BL       remove_all_chars ; 0x3c2
        0x0000162a:    a89a        ..      ADD      r0,sp,#0x268
        0x0000162c:    f001fe11    ....    BL       atoi ; 0x3252
        0x00001630:    4604        .F      MOV      r4,r0
        0x00001632:    f002fff1    ....    BL       fileopen ; 0x4618
        0x00001636:    214b        K!      MOVS     r1,#0x4b
        0x00001638:    00c9        ..      LSLS     r1,r1,#3
        0x0000163a:    4620         F      MOV      r0,r4
        0x0000163c:    f001fd8c    ....    BL       __aeabi_idiv ; 0x3158
        0x00001640:    2900        .)      CMP      r1,#0
        0x00001642:    d106        ..      BNE      0x1652 ; TCP_Send_ch + 202
        0x00001644:    214b        K!      MOVS     r1,#0x4b
        0x00001646:    00c9        ..      LSLS     r1,r1,#3
        0x00001648:    4620         F      MOV      r0,r4
        0x0000164a:    f001fd85    ....    BL       __aeabi_idiv ; 0x3158
        0x0000164e:    909d        ..      STR      r0,[sp,#0x274]
        0x00001650:    e006        ..      B        0x1660 ; TCP_Send_ch + 216
        0x00001652:    214b        K!      MOVS     r1,#0x4b
        0x00001654:    00c9        ..      LSLS     r1,r1,#3
        0x00001656:    4620         F      MOV      r0,r4
        0x00001658:    f001fd7e    ..~.    BL       __aeabi_idiv ; 0x3158
        0x0000165c:    1c40        @.      ADDS     r0,r0,#1
        0x0000165e:    909d        ..      STR      r0,[sp,#0x274]
        0x00001660:    2500        .%      MOVS     r5,#0
        0x00001662:    e1d2        ..      B        0x1a0a ; TCP_Send_ch + 1154
        0x00001664:    2000        .       MOVS     r0,#0
        0x00001666:    4942        BI      LDR      r1,[pc,#264] ; [0x1770] = 0x20000048
        0x00001668:    6008        .`      STR      r0,[r1,#0]
        0x0000166a:    2c0f        .,      CMP      r4,#0xf
        0x0000166c:    dd68        h.      BLE      0x1740 ; TCP_Send_ch + 440
        0x0000166e:    f7fff9c8    ....    BL       clear ; 0xa02
        0x00001672:    200a        .       MOVS     r0,#0xa
        0x00001674:    4b5a        ZK      LDR      r3,[pc,#360] ; [0x17e0] = 0xe6c
        0x00001676:    a25b        [.      ADR      r2,{pc}+0x16e ; 0x17e4
        0x00001678:    a166        f.      ADR      r1,{pc}+0x19c ; 0x1814
        0x0000167a:    9000        ..      STR      r0,[sp,#0]
        0x0000167c:    a068        h.      ADR      r0,{pc}+0x1a4 ; 0x1820
        0x0000167e:    f7fffe04    ....    BL       SendAT_GPS_WO_MUTEX ; 0x128a
        0x00001682:    2164        d!      MOVS     r1,#0x64
        0x00001684:    4846        FH      LDR      r0,[pc,#280] ; [0x17a0] = 0x200011a0
        0x00001686:    f001fdb2    ....    BL       __aeabi_memclr ; 0x31ee
        0x0000168a:    486c        lH      LDR      r0,[pc,#432] ; [0x183c] = 0x20000060
        0x0000168c:    4a6c        lJ      LDR      r2,[pc,#432] ; [0x1840] = 0x20000148
        0x0000168e:    a16d        m.      ADR      r1,{pc}+0x1b6 ; 0x1844
        0x00001690:    6803        .h      LDR      r3,[r0,#0]
        0x00001692:    4843        CH      LDR      r0,[pc,#268] ; [0x17a0] = 0x200011a0
        0x00001694:    f002fa36    ..6.    BL       __0sprintf ; 0x3b04
        0x00001698:    200a        .       MOVS     r0,#0xa
        0x0000169a:    4b51        QK      LDR      r3,[pc,#324] ; [0x17e0] = 0xe6c
        0x0000169c:    a251        Q.      ADR      r2,{pc}+0x148 ; 0x17e4
        0x0000169e:    a16e        n.      ADR      r1,{pc}+0x1ba ; 0x1858
        0x000016a0:    9000        ..      STR      r0,[sp,#0]
        0x000016a2:    483f        ?H      LDR      r0,[pc,#252] ; [0x17a0] = 0x200011a0
        0x000016a4:    f7fff9bf    ....    BL       SendAT ; 0xa26
        0x000016a8:    4864        dH      LDR      r0,[pc,#400] ; [0x183c] = 0x20000060
        0x000016aa:    6800        .h      LDR      r0,[r0,#0]
        0x000016ac:    42a0        .B      CMP      r0,r4
        0x000016ae:    dd0f        ..      BLE      0x16d0 ; TCP_Send_ch + 328
        0x000016b0:    2000        .       MOVS     r0,#0
        0x000016b2:    4962        bI      LDR      r1,[pc,#392] ; [0x183c] = 0x20000060
        0x000016b4:    6008        .`      STR      r0,[r1,#0]
        0x000016b6:    200a        .       MOVS     r0,#0xa
        0x000016b8:    4b49        IK      LDR      r3,[pc,#292] ; [0x17e0] = 0xe6c
        0x000016ba:    a24a        J.      ADR      r2,{pc}+0x12a ; 0x17e4
        0x000016bc:    4619        .F      MOV      r1,r3
        0x000016be:    310c        .1      ADDS     r1,r1,#0xc
        0x000016c0:    9000        ..      STR      r0,[sp,#0]
        0x000016c2:    a068        h.      ADR      r0,{pc}+0x1a2 ; 0x1864
        0x000016c4:    f7fff9af    ....    BL       SendAT ; 0xa26
        0x000016c8:    2001        .       MOVS     r0,#1
        0x000016ca:    4942        BI      LDR      r1,[pc,#264] ; [0x17d4] = 0x20000064
        0x000016cc:    6008        .`      STR      r0,[r1,#0]
        0x000016ce:    e1a0        ..      B        0x1a12 ; TCP_Send_ch + 1162
        0x000016d0:    a161        a.      ADR      r1,{pc}+0x188 ; 0x1858
        0x000016d2:    4820         H      LDR      r0,[pc,#128] ; [0x1754] = 0x20000f68
        0x000016d4:    f001fda2    ....    BL       strstr ; 0x321c
        0x000016d8:    2800        .(      CMP      r0,#0
        0x000016da:    d003        ..      BEQ      0x16e4 ; TCP_Send_ch + 348
        0x000016dc:    2001        .       MOVS     r0,#1
        0x000016de:    493d        =I      LDR      r1,[pc,#244] ; [0x17d4] = 0x20000064
        0x000016e0:    6008        .`      STR      r0,[r1,#0]
        0x000016e2:    e196        ..      B        0x1a12 ; TCP_Send_ch + 1162
        0x000016e4:    2164        d!      MOVS     r1,#0x64
        0x000016e6:    482e        .H      LDR      r0,[pc,#184] ; [0x17a0] = 0x200011a0
        0x000016e8:    f001fd81    ....    BL       __aeabi_memclr ; 0x31ee
        0x000016ec:    4a54        TJ      LDR      r2,[pc,#336] ; [0x1840] = 0x20000148
        0x000016ee:    a163        c.      ADR      r1,{pc}+0x18e ; 0x187c
        0x000016f0:    482b        +H      LDR      r0,[pc,#172] ; [0x17a0] = 0x200011a0
        0x000016f2:    f002fa07    ....    BL       __0sprintf ; 0x3b04
        0x000016f6:    200a        .       MOVS     r0,#0xa
        0x000016f8:    4b39        9K      LDR      r3,[pc,#228] ; [0x17e0] = 0xe6c
        0x000016fa:    a23a        :.      ADR      r2,{pc}+0xea ; 0x17e4
        0x000016fc:    a156        V.      ADR      r1,{pc}+0x15c ; 0x1858
        0x000016fe:    9000        ..      STR      r0,[sp,#0]
        0x00001700:    4827        'H      LDR      r0,[pc,#156] ; [0x17a0] = 0x200011a0
        0x00001702:    f7fff990    ....    BL       SendAT ; 0xa26
        0x00001706:    a154        T.      ADR      r1,{pc}+0x152 ; 0x1858
        0x00001708:    4812        .H      LDR      r0,[pc,#72] ; [0x1754] = 0x20000f68
        0x0000170a:    f001fd87    ....    BL       strstr ; 0x321c
        0x0000170e:    2800        .(      CMP      r0,#0
        0x00001710:    d003        ..      BEQ      0x171a ; TCP_Send_ch + 402
        0x00001712:    2001        .       MOVS     r0,#1
        0x00001714:    492f        /I      LDR      r1,[pc,#188] ; [0x17d4] = 0x20000064
        0x00001716:    6008        .`      STR      r0,[r1,#0]
        0x00001718:    e17b        {.      B        0x1a12 ; TCP_Send_ch + 1162
        0x0000171a:    214b        K!      MOVS     r1,#0x4b
        0x0000171c:    00c9        ..      LSLS     r1,r1,#3
        0x0000171e:    a804        ..      ADD      r0,sp,#0x10
        0x00001720:    f001fd65    ..e.    BL       __aeabi_memclr ; 0x31ee
        0x00001724:    221a        ."      MOVS     r2,#0x1a
        0x00001726:    210d        .!      MOVS     r1,#0xd
        0x00001728:    480a        .H      LDR      r0,[pc,#40] ; [0x1754] = 0x20000f68
        0x0000172a:    f7fefe4a    ..J.    BL       remove_all_chars ; 0x3c2
        0x0000172e:    200a        .       MOVS     r0,#0xa
        0x00001730:    9001        ..      STR      r0,[sp,#4]
        0x00001732:    4808        .H      LDR      r0,[pc,#32] ; [0x1754] = 0x20000f68
        0x00001734:    9002        ..      STR      r0,[sp,#8]
        0x00001736:    2000        .       MOVS     r0,#0
        0x00001738:    9000        ..      STR      r0,[sp,#0]
        0x0000173a:    2700        .'      MOVS     r7,#0
        0x0000173c:    bf00        ..      NOP      
        0x0000173e:    e0b2        ..      B        0x18a6 ; TCP_Send_ch + 798
        0x00001740:    e15b        [.      B        0x19fa ; TCP_Send_ch + 1138
    $d
        0x00001742:    0000        ..      DCW    0
        0x00001744:    20001204    ...     DCD    536875524
        0x00001748:    54410a0d    ..AT    DCD    1413548557
        0x0000174c:    4e53472b    +GSN    DCD    1314080555
        0x00001750:    00000a0d    ....    DCD    2573
        0x00001754:    20000f68    h..     DCD    536874856
        0x00001758:    2000006c    l..     DCD    536871020
        0x0000175c:    20000070    p..     DCD    536871024
        0x00001760:    20000074    t..     DCD    536871028
        0x00001764:    20000050    P..     DCD    536870992
        0x00001768:    2000009c    ...     DCD    536871068
        0x0000176c:    200000a0    ...     DCD    536871072
        0x00001770:    20000048    H..     DCD    536870984
        0x00001774:    00006325    %c..    DCD    25381
        0x00001778:    4d524e47    GNRM    DCD    1297239623
        0x0000177c:    00000043    C...    DCD    67
        0x00001780:    40400000    ..@@    DCD    1077936128
        0x00001784:    20000054    T..     DCD    536870996
        0x00001788:    400e0040    @..@    DCD    1074659392
        0x0000178c:    db22d0e5    ..".    DCD    3676492005
        0x00001790:    400a7ef9    .~.@    DCD    1074429689
        0x00001794:    40b00000    ...@    DCD    1085276160
        0x00001798:    e737ca49    I.7.    DCD    3879193161
        0x0000179c:    3ffe15ba    ...?    DCD    1073616314
        0x000017a0:    200011a0    ...     DCD    536875424
        0x000017a4:    200001bc    ...     DCD    536871356
        0x000017a8:    0000002c    ,...    DCD    44
        0x000017ac:    253d462c    ,F=%    DCD    624772652
        0x000017b0:    0a66312e    .1f.    DCD    174469422
        0x000017b4:    00000000    ....    DCD    0
        0x000017b8:    00000b54    T...    DCD    2900
        0x000017bc:    00000dac    ....    DCD    3500
        0x000017c0:    6f727265    erro    DCD    1869771365
        0x000017c4:    41523a72    r:RA    DCD    1095907954
        0x000017c8:    6c75664d    Mful    DCD    1819633229
        0x000017cc:    00000a6c    l...    DCD    2668
        0x000017d0:    50004240    @B.P    DCD    1342194240
        0x000017d4:    20000064    d..     DCD    536871012
        0x000017d8:    20000024    $..     DCD    536870948
        0x000017dc:    20000028    (..     DCD    536870952
        0x000017e0:    00000e6c    l...    DCD    3692
        0x000017e4:    00004b4f    OK..    DCD    19279
        0x000017e8:    54410a0d    ..AT    DCD    1413548557
        0x000017ec:    4c46512b    +QFL    DCD    1279676715
        0x000017f0:    223d7344    Ds="    DCD    574452548
        0x000017f4:    22534655    UFS"    DCD    575882837
        0x000017f8:    00000a0d    ....    DCD    2573
        0x000017fc:    54410a0d    ..AT    DCD    1413548557
        0x00001800:    4c46512b    +QFL    DCD    1279676715
        0x00001804:    223d5453    ST="    DCD    574444627
        0x00001808:    2e474f4c    LOG.    DCD    776425292
        0x0000180c:    22545854    TXT"    DCD    575952980
        0x00001810:    00000a0d    ....    DCD    2573
        0x00001814:    50474d2b    +MGP    DCD    1346850091
        0x00001818:    41545353    SSTA    DCD    1096045395
        0x0000181c:    00535554    TUS.    DCD    5461332
        0x00001820:    54410a0d    ..AT    DCD    1413548557
        0x00001824:    4e47512b    +QGN    DCD    1313296683
        0x00001828:    44525353    SSRD    DCD    1146245971
        0x0000182c:    4d4e223d    ="NM    DCD    1296966205
        0x00001830:    522f4145    EA/R    DCD    1378828613
        0x00001834:    0d22434d    MC".    DCD    220349261
        0x00001838:    0000000a    ....    DCD    10
        0x0000183c:    20000060    `..     DCD    536871008
        0x00001840:    20000148    H..     DCD    536871240
        0x00001844:    54410a0d    ..AT    DCD    1413548557
        0x00001848:    5346512b    +QFS    DCD    1397117227
        0x0000184c:    3d4b4545    EEK=    DCD    1028343109
        0x00001850:    252c7325    %s,%    DCD    623670053
        0x00001854:    000a0d64    d...    DCD    658788
        0x00001858:    454d432b    +CME    DCD    1162691371
        0x0000185c:    52524520     ERR    DCD    1381123360
        0x00001860:    0000524f    OR..    DCD    21071
        0x00001864:    54410a0d    ..AT    DCD    1413548557
        0x00001868:    4446512b    +QFD    DCD    1145458987
        0x0000186c:    223d4c45    EL="    DCD    574442565
        0x00001870:    2e474f4c    LOG.    DCD    776425292
        0x00001874:    22545854    TXT"    DCD    575952980
        0x00001878:    00000a0d    ....    DCD    2573
        0x0000187c:    54410a0d    ..AT    DCD    1413548557
        0x00001880:    5246512b    +QFR    DCD    1380340011
        0x00001884:    3d444145    EAD=    DCD    1027883333
        0x00001888:    362c7325    %s,6    DCD    908882725
        0x0000188c:    0a0d3030    00..    DCD    168636464
        0x00001890:    00000000    ....    DCD    0
    $t
        0x00001894:    9802        ..      LDR      r0,[sp,#8]
        0x00001896:    5dc1        .]      LDRB     r1,[r0,r7]
        0x00001898:    9801        ..      LDR      r0,[sp,#4]
        0x0000189a:    4281        .B      CMP      r1,r0
        0x0000189c:    d102        ..      BNE      0x18a4 ; TCP_Send_ch + 796
        0x0000189e:    9800        ..      LDR      r0,[sp,#0]
        0x000018a0:    1c40        @.      ADDS     r0,r0,#1
        0x000018a2:    9000        ..      STR      r0,[sp,#0]
        0x000018a4:    1c7f        ..      ADDS     r7,r7,#1
        0x000018a6:    9802        ..      LDR      r0,[sp,#8]
        0x000018a8:    f001fccc    ....    BL       strlen ; 0x3244
        0x000018ac:    42b8        .B      CMP      r0,r7
        0x000018ae:    d8f1        ..      BHI      0x1894 ; TCP_Send_ch + 780
        0x000018b0:    9800        ..      LDR      r0,[sp,#0]
        0x000018b2:    1e40        @.      SUBS     r0,r0,#1
        0x000018b4:    9003        ..      STR      r0,[sp,#0xc]
        0x000018b6:    a804        ..      ADD      r0,sp,#0x10
        0x000018b8:    210a        .!      MOVS     r1,#0xa
        0x000018ba:    460b        .F      MOV      r3,r1
        0x000018bc:    9100        ..      STR      r1,[sp,#0]
        0x000018be:    9001        ..      STR      r0,[sp,#4]
        0x000018c0:    2102        .!      MOVS     r1,#2
        0x000018c2:    48fe        .H      LDR      r0,[pc,#1016] ; [0x1cbc] = 0x20000f68
        0x000018c4:    9a03        ..      LDR      r2,[sp,#0xc]
        0x000018c6:    f003f883    ....    BL       parse_g ; 0x49d0
        0x000018ca:    2164        d!      MOVS     r1,#0x64
        0x000018cc:    48fc        .H      LDR      r0,[pc,#1008] ; [0x1cc0] = 0x200011a0
        0x000018ce:    f001fc8e    ....    BL       __aeabi_memclr ; 0x31ee
        0x000018d2:    2000        .       MOVS     r0,#0
        0x000018d4:    49fb        .I      LDR      r1,[pc,#1004] ; [0x1cc4] = 0x20000048
        0x000018d6:    6008        .`      STR      r0,[r1,#0]
        0x000018d8:    49fb        .I      LDR      r1,[pc,#1004] ; [0x1cc8] = 0x20000050
        0x000018da:    6008        .`      STR      r0,[r1,#0]
        0x000018dc:    21ff        .!      MOVS     r1,#0xff
        0x000018de:    31f5        .1      ADDS     r1,r1,#0xf5
        0x000018e0:    48f6        .H      LDR      r0,[pc,#984] ; [0x1cbc] = 0x20000f68
        0x000018e2:    f001fc84    ....    BL       __aeabi_memclr ; 0x31ee
        0x000018e6:    989f        ..      LDR      r0,[sp,#0x27c]
        0x000018e8:    f002f8fc    ....    BL       __0printf ; 0x3ae4
        0x000018ec:    bf00        ..      NOP      
        0x000018ee:    48f3        .H      LDR      r0,[pc,#972] ; [0x1cbc] = 0x20000f68
        0x000018f0:    99a1        ..      LDR      r1,[sp,#0x284]
        0x000018f2:    f001fc93    ....    BL       strstr ; 0x321c
        0x000018f6:    49f5        .I      LDR      r1,[pc,#980] ; [0x1ccc] = 0x2000006c
        0x000018f8:    6008        .`      STR      r0,[r1,#0]
        0x000018fa:    48f0        .H      LDR      r0,[pc,#960] ; [0x1cbc] = 0x20000f68
        0x000018fc:    99a2        ..      LDR      r1,[sp,#0x288]
        0x000018fe:    f001fc8d    ....    BL       strstr ; 0x321c
        0x00001902:    49f3        .I      LDR      r1,[pc,#972] ; [0x1cd0] = 0x20000070
        0x00001904:    6008        .`      STR      r0,[r1,#0]
        0x00001906:    48ed        .H      LDR      r0,[pc,#948] ; [0x1cbc] = 0x20000f68
        0x00001908:    99a8        ..      LDR      r1,[sp,#0x2a0]
        0x0000190a:    f001fc87    ....    BL       strstr ; 0x321c
        0x0000190e:    49f1        .I      LDR      r1,[pc,#964] ; [0x1cd4] = 0x20000074
        0x00001910:    6008        .`      STR      r0,[r1,#0]
        0x00001912:    48ee        .H      LDR      r0,[pc,#952] ; [0x1ccc] = 0x2000006c
        0x00001914:    6800        .h      LDR      r0,[r0,#0]
        0x00001916:    2800        .(      CMP      r0,#0
        0x00001918:    d10c        ..      BNE      0x1934 ; TCP_Send_ch + 940
        0x0000191a:    48ed        .H      LDR      r0,[pc,#948] ; [0x1cd0] = 0x20000070
        0x0000191c:    6800        .h      LDR      r0,[r0,#0]
        0x0000191e:    2800        .(      CMP      r0,#0
        0x00001920:    d108        ..      BNE      0x1934 ; TCP_Send_ch + 940
        0x00001922:    4608        .F      MOV      r0,r1
        0x00001924:    6800        .h      LDR      r0,[r0,#0]
        0x00001926:    2800        .(      CMP      r0,#0
        0x00001928:    d104        ..      BNE      0x1934 ; TCP_Send_ch + 940
        0x0000192a:    48e7        .H      LDR      r0,[pc,#924] ; [0x1cc8] = 0x20000050
        0x0000192c:    6801        .h      LDR      r1,[r0,#0]
        0x0000192e:    98a9        ..      LDR      r0,[sp,#0x2a4]
        0x00001930:    4281        .B      CMP      r1,r0
        0x00001932:    dbdc        ..      BLT      0x18ee ; TCP_Send_ch + 870
        0x00001934:    2000        .       MOVS     r0,#0
        0x00001936:    49e4        .I      LDR      r1,[pc,#912] ; [0x1cc8] = 0x20000050
        0x00001938:    6008        .`      STR      r0,[r1,#0]
        0x0000193a:    48e4        .H      LDR      r0,[pc,#912] ; [0x1ccc] = 0x2000006c
        0x0000193c:    6800        .h      LDR      r0,[r0,#0]
        0x0000193e:    2800        .(      CMP      r0,#0
        0x00001940:    d04e        N.      BEQ      0x19e0 ; TCP_Send_ch + 1112
        0x00001942:    2000        .       MOVS     r0,#0
        0x00001944:    6008        .`      STR      r0,[r1,#0]
        0x00001946:    2005        .       MOVS     r0,#5
        0x00001948:    90a9        ..      STR      r0,[sp,#0x2a4]
        0x0000194a:    2000        .       MOVS     r0,#0
        0x0000194c:    49df        .I      LDR      r1,[pc,#892] ; [0x1ccc] = 0x2000006c
        0x0000194e:    6008        .`      STR      r0,[r1,#0]
        0x00001950:    49df        .I      LDR      r1,[pc,#892] ; [0x1cd0] = 0x20000070
        0x00001952:    6008        .`      STR      r0,[r1,#0]
        0x00001954:    49df        .I      LDR      r1,[pc,#892] ; [0x1cd4] = 0x20000074
        0x00001956:    6008        .`      STR      r0,[r1,#0]
        0x00001958:    49da        .I      LDR      r1,[pc,#872] ; [0x1cc4] = 0x20000048
        0x0000195a:    6008        .`      STR      r0,[r1,#0]
        0x0000195c:    21ff        .!      MOVS     r1,#0xff
        0x0000195e:    31f5        .1      ADDS     r1,r1,#0xf5
        0x00001960:    48d6        .H      LDR      r0,[pc,#856] ; [0x1cbc] = 0x20000f68
        0x00001962:    f001fc44    ..D.    BL       __aeabi_memclr ; 0x31ee
        0x00001966:    f7fff84c    ..L.    BL       clear ; 0xa02
        0x0000196a:    2000        .       MOVS     r0,#0
        0x0000196c:    909e        ..      STR      r0,[sp,#0x278]
        0x0000196e:    a804        ..      ADD      r0,sp,#0x10
        0x00001970:    f001fc68    ..h.    BL       strlen ; 0x3244
        0x00001974:    909c        ..      STR      r0,[sp,#0x270]
        0x00001976:    2600        .&      MOVS     r6,#0
        0x00001978:    e007        ..      B        0x198a ; TCP_Send_ch + 1026
        0x0000197a:    a904        ..      ADD      r1,sp,#0x10
        0x0000197c:    5d88        .]      LDRB     r0,[r1,r6]
        0x0000197e:    f001f979    ..y.    BL       SendChar ; 0x2c74
        0x00001982:    989e        ..      LDR      r0,[sp,#0x278]
        0x00001984:    1c40        @.      ADDS     r0,r0,#1
        0x00001986:    909e        ..      STR      r0,[sp,#0x278]
        0x00001988:    1c76        v.      ADDS     r6,r6,#1
        0x0000198a:    989c        ..      LDR      r0,[sp,#0x270]
        0x0000198c:    4286        .B      CMP      r6,r0
        0x0000198e:    dbf4        ..      BLT      0x197a ; TCP_Send_ch + 1010
        0x00001990:    211a        .!      MOVS     r1,#0x1a
        0x00001992:    a0d1        ..      ADR      r0,{pc}+0x346 ; 0x1cd8
        0x00001994:    f002f8a6    ....    BL       __0printf ; 0x3ae4
        0x00001998:    bf00        ..      NOP      
        0x0000199a:    48c8        .H      LDR      r0,[pc,#800] ; [0x1cbc] = 0x20000f68
        0x0000199c:    99a1        ..      LDR      r1,[sp,#0x284]
        0x0000199e:    f001fc3d    ..=.    BL       strstr ; 0x321c
        0x000019a2:    49ca        .I      LDR      r1,[pc,#808] ; [0x1ccc] = 0x2000006c
        0x000019a4:    6008        .`      STR      r0,[r1,#0]
        0x000019a6:    48c5        .H      LDR      r0,[pc,#788] ; [0x1cbc] = 0x20000f68
        0x000019a8:    99a2        ..      LDR      r1,[sp,#0x288]
        0x000019aa:    f001fc37    ..7.    BL       strstr ; 0x321c
        0x000019ae:    49c8        .I      LDR      r1,[pc,#800] ; [0x1cd0] = 0x20000070
        0x000019b0:    6008        .`      STR      r0,[r1,#0]
        0x000019b2:    48c2        .H      LDR      r0,[pc,#776] ; [0x1cbc] = 0x20000f68
        0x000019b4:    99a8        ..      LDR      r1,[sp,#0x2a0]
        0x000019b6:    f001fc31    ..1.    BL       strstr ; 0x321c
        0x000019ba:    49c6        .I      LDR      r1,[pc,#792] ; [0x1cd4] = 0x20000074
        0x000019bc:    6008        .`      STR      r0,[r1,#0]
        0x000019be:    48c3        .H      LDR      r0,[pc,#780] ; [0x1ccc] = 0x2000006c
        0x000019c0:    6800        .h      LDR      r0,[r0,#0]
        0x000019c2:    2800        .(      CMP      r0,#0
        0x000019c4:    d10c        ..      BNE      0x19e0 ; TCP_Send_ch + 1112
        0x000019c6:    48c2        .H      LDR      r0,[pc,#776] ; [0x1cd0] = 0x20000070
        0x000019c8:    6800        .h      LDR      r0,[r0,#0]
        0x000019ca:    2800        .(      CMP      r0,#0
        0x000019cc:    d108        ..      BNE      0x19e0 ; TCP_Send_ch + 1112
        0x000019ce:    4608        .F      MOV      r0,r1
        0x000019d0:    6800        .h      LDR      r0,[r0,#0]
        0x000019d2:    2800        .(      CMP      r0,#0
        0x000019d4:    d104        ..      BNE      0x19e0 ; TCP_Send_ch + 1112
        0x000019d6:    48bc        .H      LDR      r0,[pc,#752] ; [0x1cc8] = 0x20000050
        0x000019d8:    6801        .h      LDR      r1,[r0,#0]
        0x000019da:    98a9        ..      LDR      r0,[sp,#0x2a4]
        0x000019dc:    4281        .B      CMP      r1,r0
        0x000019de:    dbdc        ..      BLT      0x199a ; TCP_Send_ch + 1042
        0x000019e0:    48bc        .H      LDR      r0,[pc,#752] ; [0x1cd4] = 0x20000074
        0x000019e2:    6800        .h      LDR      r0,[r0,#0]
        0x000019e4:    2800        .(      CMP      r0,#0
        0x000019e6:    d105        ..      BNE      0x19f4 ; TCP_Send_ch + 1132
        0x000019e8:    2001        .       MOVS     r0,#1
        0x000019ea:    49bc        .I      LDR      r1,[pc,#752] ; [0x1cdc] = 0x20000098
        0x000019ec:    6008        .`      STR      r0,[r1,#0]
        0x000019ee:    49bc        .I      LDR      r1,[pc,#752] ; [0x1ce0] = 0x20000064
        0x000019f0:    6008        .`      STR      r0,[r1,#0]
        0x000019f2:    e00e        ..      B        0x1a12 ; TCP_Send_ch + 1162
        0x000019f4:    2000        .       MOVS     r0,#0
        0x000019f6:    49b9        .I      LDR      r1,[pc,#740] ; [0x1cdc] = 0x20000098
        0x000019f8:    6008        .`      STR      r0,[r1,#0]
        0x000019fa:    48ba        .H      LDR      r0,[pc,#744] ; [0x1ce4] = 0x20000060
        0x000019fc:    6800        .h      LDR      r0,[r0,#0]
        0x000019fe:    214b        K!      MOVS     r1,#0x4b
        0x00001a00:    00c9        ..      LSLS     r1,r1,#3
        0x00001a02:    1840        @.      ADDS     r0,r0,r1
        0x00001a04:    49b7        .I      LDR      r1,[pc,#732] ; [0x1ce4] = 0x20000060
        0x00001a06:    6008        .`      STR      r0,[r1,#0]
        0x00001a08:    1c6d        m.      ADDS     r5,r5,#1
        0x00001a0a:    989d        ..      LDR      r0,[sp,#0x274]
        0x00001a0c:    4285        .B      CMP      r5,r0
        0x00001a0e:    da00        ..      BGE      0x1a12 ; TCP_Send_ch + 1162
        0x00001a10:    e628        (.      B        0x1664 ; TCP_Send_ch + 220
        0x00001a12:    bf00        ..      NOP      
        0x00001a14:    f7fefcc2    ....    BL       fileclose ; 0x39c
        0x00001a18:    48b0        .H      LDR      r0,[pc,#704] ; [0x1cdc] = 0x20000098
        0x00001a1a:    6800        .h      LDR      r0,[r0,#0]
        0x00001a1c:    2800        .(      CMP      r0,#0
        0x00001a1e:    d10e        ..      BNE      0x1a3e ; TCP_Send_ch + 1206
        0x00001a20:    989d        ..      LDR      r0,[sp,#0x274]
        0x00001a22:    4285        .B      CMP      r5,r0
        0x00001a24:    db0b        ..      BLT      0x1a3e ; TCP_Send_ch + 1206
        0x00001a26:    2000        .       MOVS     r0,#0
        0x00001a28:    49ae        .I      LDR      r1,[pc,#696] ; [0x1ce4] = 0x20000060
        0x00001a2a:    6008        .`      STR      r0,[r1,#0]
        0x00001a2c:    200a        .       MOVS     r0,#0xa
        0x00001a2e:    4bae        .K      LDR      r3,[pc,#696] ; [0x1ce8] = 0xe6c
        0x00001a30:    a2ae        ..      ADR      r2,{pc}+0x2bc ; 0x1cec
        0x00001a32:    4619        .F      MOV      r1,r3
        0x00001a34:    310c        .1      ADDS     r1,r1,#0xc
        0x00001a36:    9000        ..      STR      r0,[sp,#0]
        0x00001a38:    48ad        .H      LDR      r0,[pc,#692] ; [0x1cf0] = 0x1864
        0x00001a3a:    f7fefff4    ....    BL       SendAT ; 0xa26
        0x00001a3e:    2001        .       MOVS     r0,#1
        0x00001a40:    49ac        .I      LDR      r1,[pc,#688] ; [0x1cf4] = 0x50004240
        0x00001a42:    6088        .`      STR      r0,[r1,#8]
        0x00001a44:    2000        .       MOVS     r0,#0
        0x00001a46:    49a1        .I      LDR      r1,[pc,#644] ; [0x1ccc] = 0x2000006c
        0x00001a48:    6008        .`      STR      r0,[r1,#0]
        0x00001a4a:    49a1        .I      LDR      r1,[pc,#644] ; [0x1cd0] = 0x20000070
        0x00001a4c:    6008        .`      STR      r0,[r1,#0]
        0x00001a4e:    49a1        .I      LDR      r1,[pc,#644] ; [0x1cd4] = 0x20000074
        0x00001a50:    6008        .`      STR      r0,[r1,#0]
        0x00001a52:    48a9        .H      LDR      r0,[pc,#676] ; [0x1cf8] = 0x20000028
        0x00001a54:    6800        .h      LDR      r0,[r0,#0]
        0x00001a56:    f002ff1b    ....    BL       osMutexRelease ; 0x4890
        0x00001a5a:    48a8        .H      LDR      r0,[pc,#672] ; [0x1cfc] = 0x20000024
        0x00001a5c:    6800        .h      LDR      r0,[r0,#0]
        0x00001a5e:    f002ff17    ....    BL       osMutexRelease ; 0x4890
        0x00001a62:    b07f        ..      ADD      sp,sp,#0x1fc
        0x00001a64:    b024        $.      ADD      sp,sp,#0x90
        0x00001a66:    bdf0        ..      POP      {r4-r7,pc}
    TCP_Send
        0x00001a68:    b5ff        ..      PUSH     {r0-r7,lr}
        0x00001a6a:    b087        ..      SUB      sp,sp,#0x1c
        0x00001a6c:    460d        .F      MOV      r5,r1
        0x00001a6e:    9f11        ..      LDR      r7,[sp,#0x44]
        0x00001a70:    2000        .       MOVS     r0,#0
        0x00001a72:    9006        ..      STR      r0,[sp,#0x18]
        0x00001a74:    9005        ..      STR      r0,[sp,#0x14]
        0x00001a76:    2600        .&      MOVS     r6,#0
        0x00001a78:    2400        .$      MOVS     r4,#0
        0x00001a7a:    9004        ..      STR      r0,[sp,#0x10]
        0x00001a7c:    204b        K       MOVS     r0,#0x4b
        0x00001a7e:    00c0        ..      LSLS     r0,r0,#3
        0x00001a80:    9003        ..      STR      r0,[sp,#0xc]
        0x00001a82:    1e61        a.      SUBS     r1,r4,#1
        0x00001a84:    489d        .H      LDR      r0,[pc,#628] ; [0x1cfc] = 0x20000024
        0x00001a86:    6800        .h      LDR      r0,[r0,#0]
        0x00001a88:    f002ff10    ....    BL       osMutexWait ; 0x48ac
        0x00001a8c:    1e61        a.      SUBS     r1,r4,#1
        0x00001a8e:    489a        .H      LDR      r0,[pc,#616] ; [0x1cf8] = 0x20000028
        0x00001a90:    6800        .h      LDR      r0,[r0,#0]
        0x00001a92:    f002ff0b    ....    BL       osMutexWait ; 0x48ac
        0x00001a96:    2000        .       MOVS     r0,#0
        0x00001a98:    4996        .I      LDR      r1,[pc,#600] ; [0x1cf4] = 0x50004240
        0x00001a9a:    6088        .`      STR      r0,[r1,#8]
        0x00001a9c:    498a        .I      LDR      r1,[pc,#552] ; [0x1cc8] = 0x20000050
        0x00001a9e:    6008        .`      STR      r0,[r1,#0]
        0x00001aa0:    2705        .'      MOVS     r7,#5
        0x00001aa2:    498a        .I      LDR      r1,[pc,#552] ; [0x1ccc] = 0x2000006c
        0x00001aa4:    6008        .`      STR      r0,[r1,#0]
        0x00001aa6:    498a        .I      LDR      r1,[pc,#552] ; [0x1cd0] = 0x20000070
        0x00001aa8:    6008        .`      STR      r0,[r1,#0]
        0x00001aaa:    498a        .I      LDR      r1,[pc,#552] ; [0x1cd4] = 0x20000074
        0x00001aac:    6008        .`      STR      r0,[r1,#0]
        0x00001aae:    4985        .I      LDR      r1,[pc,#532] ; [0x1cc4] = 0x20000048
        0x00001ab0:    6008        .`      STR      r0,[r1,#0]
        0x00001ab2:    211a        .!      MOVS     r1,#0x1a
        0x00001ab4:    a088        ..      ADR      r0,{pc}+0x224 ; 0x1cd8
        0x00001ab6:    f002f815    ....    BL       __0printf ; 0x3ae4
        0x00001aba:    4628        (F      MOV      r0,r5
        0x00001abc:    f001fbc2    ....    BL       strlen ; 0x3244
        0x00001ac0:    9006        ..      STR      r0,[sp,#0x18]
        0x00001ac2:    214b        K!      MOVS     r1,#0x4b
        0x00001ac4:    00c9        ..      LSLS     r1,r1,#3
        0x00001ac6:    9806        ..      LDR      r0,[sp,#0x18]
        0x00001ac8:    f001fb46    ..F.    BL       __aeabi_idiv ; 0x3158
        0x00001acc:    2900        .)      CMP      r1,#0
        0x00001ace:    d106        ..      BNE      0x1ade ; TCP_Send + 118
        0x00001ad0:    214b        K!      MOVS     r1,#0x4b
        0x00001ad2:    00c9        ..      LSLS     r1,r1,#3
        0x00001ad4:    9806        ..      LDR      r0,[sp,#0x18]
        0x00001ad6:    f001fb3f    ..?.    BL       __aeabi_idiv ; 0x3158
        0x00001ada:    4606        .F      MOV      r6,r0
        0x00001adc:    e005        ..      B        0x1aea ; TCP_Send + 130
        0x00001ade:    214b        K!      MOVS     r1,#0x4b
        0x00001ae0:    00c9        ..      LSLS     r1,r1,#3
        0x00001ae2:    9806        ..      LDR      r0,[sp,#0x18]
        0x00001ae4:    f001fb38    ..8.    BL       __aeabi_idiv ; 0x3158
        0x00001ae8:    1c46        F.      ADDS     r6,r0,#1
        0x00001aea:    9806        ..      LDR      r0,[sp,#0x18]
        0x00001aec:    280f        .(      CMP      r0,#0xf
        0x00001aee:    dd7d        }.      BLE      0x1bec ; TCP_Send + 388
        0x00001af0:    f7feff87    ....    BL       clear ; 0xa02
        0x00001af4:    2400        .$      MOVS     r4,#0
        0x00001af6:    e097        ..      B        0x1c28 ; TCP_Send + 448
        0x00001af8:    2000        .       MOVS     r0,#0
        0x00001afa:    4972        rI      LDR      r1,[pc,#456] ; [0x1cc4] = 0x20000048
        0x00001afc:    6008        .`      STR      r0,[r1,#0]
        0x00001afe:    4972        rI      LDR      r1,[pc,#456] ; [0x1cc8] = 0x20000050
        0x00001b00:    6008        .`      STR      r0,[r1,#0]
        0x00001b02:    21ff        .!      MOVS     r1,#0xff
        0x00001b04:    31f5        .1      ADDS     r1,r1,#0xf5
        0x00001b06:    486d        mH      LDR      r0,[pc,#436] ; [0x1cbc] = 0x20000f68
        0x00001b08:    f001fb71    ..q.    BL       __aeabi_memclr ; 0x31ee
        0x00001b0c:    9807        ..      LDR      r0,[sp,#0x1c]
        0x00001b0e:    f001ffe9    ....    BL       __0printf ; 0x3ae4
        0x00001b12:    bf00        ..      NOP      
        0x00001b14:    4869        iH      LDR      r0,[pc,#420] ; [0x1cbc] = 0x20000f68
        0x00001b16:    9909        ..      LDR      r1,[sp,#0x24]
        0x00001b18:    f001fb80    ....    BL       strstr ; 0x321c
        0x00001b1c:    496b        kI      LDR      r1,[pc,#428] ; [0x1ccc] = 0x2000006c
        0x00001b1e:    6008        .`      STR      r0,[r1,#0]
        0x00001b20:    4866        fH      LDR      r0,[pc,#408] ; [0x1cbc] = 0x20000f68
        0x00001b22:    990a        ..      LDR      r1,[sp,#0x28]
        0x00001b24:    f001fb7a    ..z.    BL       strstr ; 0x321c
        0x00001b28:    4969        iI      LDR      r1,[pc,#420] ; [0x1cd0] = 0x20000070
        0x00001b2a:    6008        .`      STR      r0,[r1,#0]
        0x00001b2c:    4863        cH      LDR      r0,[pc,#396] ; [0x1cbc] = 0x20000f68
        0x00001b2e:    9910        ..      LDR      r1,[sp,#0x40]
        0x00001b30:    f001fb74    ..t.    BL       strstr ; 0x321c
        0x00001b34:    4967        gI      LDR      r1,[pc,#412] ; [0x1cd4] = 0x20000074
        0x00001b36:    6008        .`      STR      r0,[r1,#0]
        0x00001b38:    4864        dH      LDR      r0,[pc,#400] ; [0x1ccc] = 0x2000006c
        0x00001b3a:    6800        .h      LDR      r0,[r0,#0]
        0x00001b3c:    2800        .(      CMP      r0,#0
        0x00001b3e:    d10b        ..      BNE      0x1b58 ; TCP_Send + 240
        0x00001b40:    4863        cH      LDR      r0,[pc,#396] ; [0x1cd0] = 0x20000070
        0x00001b42:    6800        .h      LDR      r0,[r0,#0]
        0x00001b44:    2800        .(      CMP      r0,#0
        0x00001b46:    d107        ..      BNE      0x1b58 ; TCP_Send + 240
        0x00001b48:    4608        .F      MOV      r0,r1
        0x00001b4a:    6800        .h      LDR      r0,[r0,#0]
        0x00001b4c:    2800        .(      CMP      r0,#0
        0x00001b4e:    d103        ..      BNE      0x1b58 ; TCP_Send + 240
        0x00001b50:    485d        ]H      LDR      r0,[pc,#372] ; [0x1cc8] = 0x20000050
        0x00001b52:    6800        .h      LDR      r0,[r0,#0]
        0x00001b54:    42b8        .B      CMP      r0,r7
        0x00001b56:    dbdd        ..      BLT      0x1b14 ; TCP_Send + 172
        0x00001b58:    2000        .       MOVS     r0,#0
        0x00001b5a:    495b        [I      LDR      r1,[pc,#364] ; [0x1cc8] = 0x20000050
        0x00001b5c:    6008        .`      STR      r0,[r1,#0]
        0x00001b5e:    485b        [H      LDR      r0,[pc,#364] ; [0x1ccc] = 0x2000006c
        0x00001b60:    6800        .h      LDR      r0,[r0,#0]
        0x00001b62:    2800        .(      CMP      r0,#0
        0x00001b64:    d054        T.      BEQ      0x1c10 ; TCP_Send + 424
        0x00001b66:    2000        .       MOVS     r0,#0
        0x00001b68:    6008        .`      STR      r0,[r1,#0]
        0x00001b6a:    2705        .'      MOVS     r7,#5
        0x00001b6c:    4957        WI      LDR      r1,[pc,#348] ; [0x1ccc] = 0x2000006c
        0x00001b6e:    6008        .`      STR      r0,[r1,#0]
        0x00001b70:    4957        WI      LDR      r1,[pc,#348] ; [0x1cd0] = 0x20000070
        0x00001b72:    6008        .`      STR      r0,[r1,#0]
        0x00001b74:    4957        WI      LDR      r1,[pc,#348] ; [0x1cd4] = 0x20000074
        0x00001b76:    6008        .`      STR      r0,[r1,#0]
        0x00001b78:    4952        RI      LDR      r1,[pc,#328] ; [0x1cc4] = 0x20000048
        0x00001b7a:    6008        .`      STR      r0,[r1,#0]
        0x00001b7c:    21ff        .!      MOVS     r1,#0xff
        0x00001b7e:    31f5        .1      ADDS     r1,r1,#0xf5
        0x00001b80:    484e        NH      LDR      r0,[pc,#312] ; [0x1cbc] = 0x20000f68
        0x00001b82:    f001fb34    ..4.    BL       __aeabi_memclr ; 0x31ee
        0x00001b86:    f7feff3c    ..<.    BL       clear ; 0xa02
        0x00001b8a:    1e70        p.      SUBS     r0,r6,#1
        0x00001b8c:    42a0        .B      CMP      r0,r4
        0x00001b8e:    d105        ..      BNE      0x1b9c ; TCP_Send + 308
        0x00001b90:    214b        K!      MOVS     r1,#0x4b
        0x00001b92:    00c9        ..      LSLS     r1,r1,#3
        0x00001b94:    9806        ..      LDR      r0,[sp,#0x18]
        0x00001b96:    f001fadf    ....    BL       __aeabi_idiv ; 0x3158
        0x00001b9a:    9103        ..      STR      r1,[sp,#0xc]
        0x00001b9c:    2000        .       MOVS     r0,#0
        0x00001b9e:    9004        ..      STR      r0,[sp,#0x10]
        0x00001ba0:    e009        ..      B        0x1bb6 ; TCP_Send + 334
        0x00001ba2:    9905        ..      LDR      r1,[sp,#0x14]
        0x00001ba4:    5c68        h\      LDRB     r0,[r5,r1]
        0x00001ba6:    f001f865    ..e.    BL       SendChar ; 0x2c74
        0x00001baa:    9805        ..      LDR      r0,[sp,#0x14]
        0x00001bac:    1c40        @.      ADDS     r0,r0,#1
        0x00001bae:    9005        ..      STR      r0,[sp,#0x14]
        0x00001bb0:    9804        ..      LDR      r0,[sp,#0x10]
        0x00001bb2:    1c40        @.      ADDS     r0,r0,#1
        0x00001bb4:    9004        ..      STR      r0,[sp,#0x10]
        0x00001bb6:    9903        ..      LDR      r1,[sp,#0xc]
        0x00001bb8:    9804        ..      LDR      r0,[sp,#0x10]
        0x00001bba:    4288        .B      CMP      r0,r1
        0x00001bbc:    dbf1        ..      BLT      0x1ba2 ; TCP_Send + 314
        0x00001bbe:    211a        .!      MOVS     r1,#0x1a
        0x00001bc0:    a045        E.      ADR      r0,{pc}+0x118 ; 0x1cd8
        0x00001bc2:    f001ff8f    ....    BL       __0printf ; 0x3ae4
        0x00001bc6:    bf00        ..      NOP      
        0x00001bc8:    483c        <H      LDR      r0,[pc,#240] ; [0x1cbc] = 0x20000f68
        0x00001bca:    9909        ..      LDR      r1,[sp,#0x24]
        0x00001bcc:    f001fb26    ..&.    BL       strstr ; 0x321c
        0x00001bd0:    493e        >I      LDR      r1,[pc,#248] ; [0x1ccc] = 0x2000006c
        0x00001bd2:    6008        .`      STR      r0,[r1,#0]
        0x00001bd4:    4839        9H      LDR      r0,[pc,#228] ; [0x1cbc] = 0x20000f68
        0x00001bd6:    990a        ..      LDR      r1,[sp,#0x28]
        0x00001bd8:    f001fb20    .. .    BL       strstr ; 0x321c
        0x00001bdc:    493c        <I      LDR      r1,[pc,#240] ; [0x1cd0] = 0x20000070
        0x00001bde:    6008        .`      STR      r0,[r1,#0]
        0x00001be0:    4836        6H      LDR      r0,[pc,#216] ; [0x1cbc] = 0x20000f68
        0x00001be2:    9910        ..      LDR      r1,[sp,#0x40]
        0x00001be4:    f001fb1a    ....    BL       strstr ; 0x321c
        0x00001be8:    493a        :I      LDR      r1,[pc,#232] ; [0x1cd4] = 0x20000074
        0x00001bea:    e000        ..      B        0x1bee ; TCP_Send + 390
        0x00001bec:    e037        7.      B        0x1c5e ; TCP_Send + 502
        0x00001bee:    6008        .`      STR      r0,[r1,#0]
        0x00001bf0:    4836        6H      LDR      r0,[pc,#216] ; [0x1ccc] = 0x2000006c
        0x00001bf2:    6800        .h      LDR      r0,[r0,#0]
        0x00001bf4:    2800        .(      CMP      r0,#0
        0x00001bf6:    d10b        ..      BNE      0x1c10 ; TCP_Send + 424
        0x00001bf8:    4835        5H      LDR      r0,[pc,#212] ; [0x1cd0] = 0x20000070
        0x00001bfa:    6800        .h      LDR      r0,[r0,#0]
        0x00001bfc:    2800        .(      CMP      r0,#0
        0x00001bfe:    d107        ..      BNE      0x1c10 ; TCP_Send + 424
        0x00001c00:    4608        .F      MOV      r0,r1
        0x00001c02:    6800        .h      LDR      r0,[r0,#0]
        0x00001c04:    2800        .(      CMP      r0,#0
        0x00001c06:    d103        ..      BNE      0x1c10 ; TCP_Send + 424
        0x00001c08:    482f        /H      LDR      r0,[pc,#188] ; [0x1cc8] = 0x20000050
        0x00001c0a:    6800        .h      LDR      r0,[r0,#0]
        0x00001c0c:    42b8        .B      CMP      r0,r7
        0x00001c0e:    dbdb        ..      BLT      0x1bc8 ; TCP_Send + 352
        0x00001c10:    4830        0H      LDR      r0,[pc,#192] ; [0x1cd4] = 0x20000074
        0x00001c12:    6800        .h      LDR      r0,[r0,#0]
        0x00001c14:    2800        .(      CMP      r0,#0
        0x00001c16:    d103        ..      BNE      0x1c20 ; TCP_Send + 440
        0x00001c18:    2001        .       MOVS     r0,#1
        0x00001c1a:    4930        0I      LDR      r1,[pc,#192] ; [0x1cdc] = 0x20000098
        0x00001c1c:    6008        .`      STR      r0,[r1,#0]
        0x00001c1e:    e006        ..      B        0x1c2e ; TCP_Send + 454
        0x00001c20:    2000        .       MOVS     r0,#0
        0x00001c22:    492e        .I      LDR      r1,[pc,#184] ; [0x1cdc] = 0x20000098
        0x00001c24:    6008        .`      STR      r0,[r1,#0]
        0x00001c26:    1c64        d.      ADDS     r4,r4,#1
        0x00001c28:    42b4        .B      CMP      r4,r6
        0x00001c2a:    da00        ..      BGE      0x1c2e ; TCP_Send + 454
        0x00001c2c:    e764        d.      B        0x1af8 ; TCP_Send + 144
        0x00001c2e:    bf00        ..      NOP      
        0x00001c30:    482a        *H      LDR      r0,[pc,#168] ; [0x1cdc] = 0x20000098
        0x00001c32:    6800        .h      LDR      r0,[r0,#0]
        0x00001c34:    2800        .(      CMP      r0,#0
        0x00001c36:    d112        ..      BNE      0x1c5e ; TCP_Send + 502
        0x00001c38:    42b4        .B      CMP      r4,r6
        0x00001c3a:    db10        ..      BLT      0x1c5e ; TCP_Send + 502
        0x00001c3c:    4930        0I      LDR      r1,[pc,#192] ; [0x1d00] = 0xdac
        0x00001c3e:    4831        1H      LDR      r0,[pc,#196] ; [0x1d04] = 0x200001bc
        0x00001c40:    f001fad5    ....    BL       __aeabi_memclr ; 0x31ee
        0x00001c44:    bf00        ..      NOP      
        0x00001c46:    200a        .       MOVS     r0,#0xa
        0x00001c48:    492f        /I      LDR      r1,[pc,#188] ; [0x1d08] = 0x5d6c
        0x00001c4a:    4b30        0K      LDR      r3,[pc,#192] ; [0x1d0c] = 0x5d48
        0x00001c4c:    4a30        0J      LDR      r2,[pc,#192] ; [0x1d10] = 0x5d68
        0x00001c4e:    9100        ..      STR      r1,[sp,#0]
        0x00001c50:    9001        ..      STR      r0,[sp,#4]
        0x00001c52:    492c        ,I      LDR      r1,[pc,#176] ; [0x1d04] = 0x200001bc
        0x00001c54:    482f        /H      LDR      r0,[pc,#188] ; [0x1d14] = 0x5d58
        0x00001c56:    f7fffc97    ....    BL       TCP_Send_ch ; 0x1588
        0x00001c5a:    bf00        ..      NOP      
        0x00001c5c:    bf00        ..      NOP      
        0x00001c5e:    2001        .       MOVS     r0,#1
        0x00001c60:    4924        $I      LDR      r1,[pc,#144] ; [0x1cf4] = 0x50004240
        0x00001c62:    6088        .`      STR      r0,[r1,#8]
        0x00001c64:    4824        $H      LDR      r0,[pc,#144] ; [0x1cf8] = 0x20000028
        0x00001c66:    6800        .h      LDR      r0,[r0,#0]
        0x00001c68:    f002fe12    ....    BL       osMutexRelease ; 0x4890
        0x00001c6c:    4823        #H      LDR      r0,[pc,#140] ; [0x1cfc] = 0x20000024
        0x00001c6e:    6800        .h      LDR      r0,[r0,#0]
        0x00001c70:    f002fe0e    ....    BL       osMutexRelease ; 0x4890
        0x00001c74:    b00b        ..      ADD      sp,sp,#0x2c
        0x00001c76:    bdf0        ..      POP      {r4-r7,pc}
    SendAT_GPS
        0x00001c78:    b5ff        ..      PUSH     {r0-r7,lr}
        0x00001c7a:    b089        ..      SUB      sp,sp,#0x24
        0x00001c7c:    4607        .F      MOV      r7,r0
        0x00001c7e:    4614        .F      MOV      r4,r2
        0x00001c80:    461d        .F      MOV      r5,r3
        0x00001c82:    9e12        ..      LDR      r6,[sp,#0x48]
        0x00001c84:    2100        .!      MOVS     r1,#0
        0x00001c86:    43c9        .C      MVNS     r1,r1
        0x00001c88:    481c        .H      LDR      r0,[pc,#112] ; [0x1cfc] = 0x20000024
        0x00001c8a:    6800        .h      LDR      r0,[r0,#0]
        0x00001c8c:    f002fe0e    ....    BL       osMutexWait ; 0x48ac
        0x00001c90:    2000        .       MOVS     r0,#0
        0x00001c92:    4918        .I      LDR      r1,[pc,#96] ; [0x1cf4] = 0x50004240
        0x00001c94:    6088        .`      STR      r0,[r1,#8]
        0x00001c96:    20ff        .       MOVS     r0,#0xff
        0x00001c98:    30f5        .0      ADDS     r0,r0,#0xf5
        0x00001c9a:    f002fd79    ..y.    BL       osDelay ; 0x4790
        0x00001c9e:    2000        .       MOVS     r0,#0
        0x00001ca0:    4909        .I      LDR      r1,[pc,#36] ; [0x1cc8] = 0x20000050
        0x00001ca2:    6008        .`      STR      r0,[r1,#0]
        0x00001ca4:    4909        .I      LDR      r1,[pc,#36] ; [0x1ccc] = 0x2000006c
        0x00001ca6:    6008        .`      STR      r0,[r1,#0]
        0x00001ca8:    4909        .I      LDR      r1,[pc,#36] ; [0x1cd0] = 0x20000070
        0x00001caa:    6008        .`      STR      r0,[r1,#0]
        0x00001cac:    4909        .I      LDR      r1,[pc,#36] ; [0x1cd4] = 0x20000074
        0x00001cae:    6008        .`      STR      r0,[r1,#0]
        0x00001cb0:    4904        .I      LDR      r1,[pc,#16] ; [0x1cc4] = 0x20000048
        0x00001cb2:    6008        .`      STR      r0,[r1,#0]
        0x00001cb4:    21ff        .!      MOVS     r1,#0xff
        0x00001cb6:    31f5        .1      ADDS     r1,r1,#0xf5
        0x00001cb8:    4800        .H      LDR      r0,[pc,#0] ; [0x1cbc] = 0x20000f68
        0x00001cba:    e02d        -.      B        0x1d18 ; SendAT_GPS + 160
    $d
        0x00001cbc:    20000f68    h..     DCD    536874856
        0x00001cc0:    200011a0    ...     DCD    536875424
        0x00001cc4:    20000048    H..     DCD    536870984
        0x00001cc8:    20000050    P..     DCD    536870992
        0x00001ccc:    2000006c    l..     DCD    536871020
        0x00001cd0:    20000070    p..     DCD    536871024
        0x00001cd4:    20000074    t..     DCD    536871028
        0x00001cd8:    00006325    %c..    DCD    25381
        0x00001cdc:    20000098    ...     DCD    536871064
        0x00001ce0:    20000064    d..     DCD    536871012
        0x00001ce4:    20000060    `..     DCD    536871008
        0x00001ce8:    00000e6c    l...    DCD    3692
        0x00001cec:    00004b4f    OK..    DCD    19279
        0x00001cf0:    00001864    d...    DCD    6244
        0x00001cf4:    50004240    @B.P    DCD    1342194240
        0x00001cf8:    20000028    (..     DCD    536870952
        0x00001cfc:    20000024    $..     DCD    536870948
        0x00001d00:    00000dac    ....    DCD    3500
        0x00001d04:    200001bc    ...     DCD    536871356
        0x00001d08:    00005d6c    l]..    DCD    23916
        0x00001d0c:    00005d48    H]..    DCD    23880
        0x00001d10:    00005d68    h]..    DCD    23912
        0x00001d14:    00005d58    X]..    DCD    23896
    $t
        0x00001d18:    f001fa69    ..i.    BL       __aeabi_memclr ; 0x31ee
        0x00001d1c:    211a        .!      MOVS     r1,#0x1a
        0x00001d1e:    a0fe        ..      ADR      r0,{pc}+0x3fa ; 0x2118
        0x00001d20:    f001fee0    ....    BL       __0printf ; 0x3ae4
        0x00001d24:    f7fefe6d    ..m.    BL       clear ; 0xa02
        0x00001d28:    48fc        .H      LDR      r0,[pc,#1008] ; [0x211c] = 0x20001204
        0x00001d2a:    f002fc5b    ..[.    BL       checkallnumsinstring ; 0x45e4
        0x00001d2e:    2800        .(      CMP      r0,#0
        0x00001d30:    d104        ..      BNE      0x1d3c ; SendAT_GPS + 196
        0x00001d32:    48fa        .H      LDR      r0,[pc,#1000] ; [0x211c] = 0x20001204
        0x00001d34:    f001fa86    ....    BL       strlen ; 0x3244
        0x00001d38:    2805        .(      CMP      r0,#5
        0x00001d3a:    d259        Y.      BCS      0x1df0 ; SendAT_GPS + 376
        0x00001d3c:    48f8        .H      LDR      r0,[pc,#992] ; [0x2120] = 0x1748
        0x00001d3e:    f001fed1    ....    BL       __0printf ; 0x3ae4
        0x00001d42:    bf00        ..      NOP      
        0x00001d44:    48f7        .H      LDR      r0,[pc,#988] ; [0x2124] = 0x20000f68
        0x00001d46:    990a        ..      LDR      r1,[sp,#0x28]
        0x00001d48:    f001fa68    ..h.    BL       strstr ; 0x321c
        0x00001d4c:    49f6        .I      LDR      r1,[pc,#984] ; [0x2128] = 0x2000006c
        0x00001d4e:    6008        .`      STR      r0,[r1,#0]
        0x00001d50:    4621        !F      MOV      r1,r4
        0x00001d52:    48f4        .H      LDR      r0,[pc,#976] ; [0x2124] = 0x20000f68
        0x00001d54:    f001fa62    ..b.    BL       strstr ; 0x321c
        0x00001d58:    49f4        .I      LDR      r1,[pc,#976] ; [0x212c] = 0x20000070
        0x00001d5a:    6008        .`      STR      r0,[r1,#0]
        0x00001d5c:    4629        )F      MOV      r1,r5
        0x00001d5e:    48f1        .H      LDR      r0,[pc,#964] ; [0x2124] = 0x20000f68
        0x00001d60:    f001fa5c    ..\.    BL       strstr ; 0x321c
        0x00001d64:    49f2        .I      LDR      r1,[pc,#968] ; [0x2130] = 0x20000074
        0x00001d66:    6008        .`      STR      r0,[r1,#0]
        0x00001d68:    48ef        .H      LDR      r0,[pc,#956] ; [0x2128] = 0x2000006c
        0x00001d6a:    6800        .h      LDR      r0,[r0,#0]
        0x00001d6c:    2800        .(      CMP      r0,#0
        0x00001d6e:    d10b        ..      BNE      0x1d88 ; SendAT_GPS + 272
        0x00001d70:    48ee        .H      LDR      r0,[pc,#952] ; [0x212c] = 0x20000070
        0x00001d72:    6800        .h      LDR      r0,[r0,#0]
        0x00001d74:    2800        .(      CMP      r0,#0
        0x00001d76:    d107        ..      BNE      0x1d88 ; SendAT_GPS + 272
        0x00001d78:    4608        .F      MOV      r0,r1
        0x00001d7a:    6800        .h      LDR      r0,[r0,#0]
        0x00001d7c:    2800        .(      CMP      r0,#0
        0x00001d7e:    d103        ..      BNE      0x1d88 ; SendAT_GPS + 272
        0x00001d80:    48ec        .H      LDR      r0,[pc,#944] ; [0x2134] = 0x20000050
        0x00001d82:    6800        .h      LDR      r0,[r0,#0]
        0x00001d84:    42b0        .B      CMP      r0,r6
        0x00001d86:    dbdd        ..      BLT      0x1d44 ; SendAT_GPS + 204
        0x00001d88:    2119        .!      MOVS     r1,#0x19
        0x00001d8a:    48e4        .H      LDR      r0,[pc,#912] ; [0x211c] = 0x20001204
        0x00001d8c:    f001fa2f    ../.    BL       __aeabi_memclr ; 0x31ee
        0x00001d90:    2000        .       MOVS     r0,#0
        0x00001d92:    49e9        .I      LDR      r1,[pc,#932] ; [0x2138] = 0x2000009c
        0x00001d94:    6008        .`      STR      r0,[r1,#0]
        0x00001d96:    49e9        .I      LDR      r1,[pc,#932] ; [0x213c] = 0x200000a0
        0x00001d98:    6008        .`      STR      r0,[r1,#0]
        0x00001d9a:    e01d        ..      B        0x1dd8 ; SendAT_GPS + 352
        0x00001d9c:    48e1        .H      LDR      r0,[pc,#900] ; [0x2124] = 0x20000f68
        0x00001d9e:    49e7        .I      LDR      r1,[pc,#924] ; [0x213c] = 0x200000a0
        0x00001da0:    6809        .h      LDR      r1,[r1,#0]
        0x00001da2:    5c40        @\      LDRB     r0,[r0,r1]
        0x00001da4:    282f        /(      CMP      r0,#0x2f
        0x00001da6:    dd12        ..      BLE      0x1dce ; SendAT_GPS + 342
        0x00001da8:    48de        .H      LDR      r0,[pc,#888] ; [0x2124] = 0x20000f68
        0x00001daa:    49e4        .I      LDR      r1,[pc,#912] ; [0x213c] = 0x200000a0
        0x00001dac:    6809        .h      LDR      r1,[r1,#0]
        0x00001dae:    5c40        @\      LDRB     r0,[r0,r1]
        0x00001db0:    283a        :(      CMP      r0,#0x3a
        0x00001db2:    da0c        ..      BGE      0x1dce ; SendAT_GPS + 342
        0x00001db4:    48db        .H      LDR      r0,[pc,#876] ; [0x2124] = 0x20000f68
        0x00001db6:    49e1        .I      LDR      r1,[pc,#900] ; [0x213c] = 0x200000a0
        0x00001db8:    6809        .h      LDR      r1,[r1,#0]
        0x00001dba:    5c40        @\      LDRB     r0,[r0,r1]
        0x00001dbc:    49d7        .I      LDR      r1,[pc,#860] ; [0x211c] = 0x20001204
        0x00001dbe:    4ade        .J      LDR      r2,[pc,#888] ; [0x2138] = 0x2000009c
        0x00001dc0:    6812        .h      LDR      r2,[r2,#0]
        0x00001dc2:    5488        .T      STRB     r0,[r1,r2]
        0x00001dc4:    48dc        .H      LDR      r0,[pc,#880] ; [0x2138] = 0x2000009c
        0x00001dc6:    6800        .h      LDR      r0,[r0,#0]
        0x00001dc8:    1c40        @.      ADDS     r0,r0,#1
        0x00001dca:    49db        .I      LDR      r1,[pc,#876] ; [0x2138] = 0x2000009c
        0x00001dcc:    6008        .`      STR      r0,[r1,#0]
        0x00001dce:    48db        .H      LDR      r0,[pc,#876] ; [0x213c] = 0x200000a0
        0x00001dd0:    6800        .h      LDR      r0,[r0,#0]
        0x00001dd2:    1c40        @.      ADDS     r0,r0,#1
        0x00001dd4:    49d9        .I      LDR      r1,[pc,#868] ; [0x213c] = 0x200000a0
        0x00001dd6:    6008        .`      STR      r0,[r1,#0]
        0x00001dd8:    48d2        .H      LDR      r0,[pc,#840] ; [0x2124] = 0x20000f68
        0x00001dda:    f001fa33    ..3.    BL       strlen ; 0x3244
        0x00001dde:    49d7        .I      LDR      r1,[pc,#860] ; [0x213c] = 0x200000a0
        0x00001de0:    6809        .h      LDR      r1,[r1,#0]
        0x00001de2:    4288        .B      CMP      r0,r1
        0x00001de4:    d8da        ..      BHI      0x1d9c ; SendAT_GPS + 292
        0x00001de6:    221a        ."      MOVS     r2,#0x1a
        0x00001de8:    210d        .!      MOVS     r1,#0xd
        0x00001dea:    48cc        .H      LDR      r0,[pc,#816] ; [0x211c] = 0x20001204
        0x00001dec:    f7fefae9    ....    BL       remove_all_chars ; 0x3c2
        0x00001df0:    2000        .       MOVS     r0,#0
        0x00001df2:    49d0        .I      LDR      r1,[pc,#832] ; [0x2134] = 0x20000050
        0x00001df4:    6008        .`      STR      r0,[r1,#0]
        0x00001df6:    49cc        .I      LDR      r1,[pc,#816] ; [0x2128] = 0x2000006c
        0x00001df8:    6008        .`      STR      r0,[r1,#0]
        0x00001dfa:    49cc        .I      LDR      r1,[pc,#816] ; [0x212c] = 0x20000070
        0x00001dfc:    6008        .`      STR      r0,[r1,#0]
        0x00001dfe:    49cc        .I      LDR      r1,[pc,#816] ; [0x2130] = 0x20000074
        0x00001e00:    6008        .`      STR      r0,[r1,#0]
        0x00001e02:    49cf        .I      LDR      r1,[pc,#828] ; [0x2140] = 0x20000048
        0x00001e04:    6008        .`      STR      r0,[r1,#0]
        0x00001e06:    21ff        .!      MOVS     r1,#0xff
        0x00001e08:    31f5        .1      ADDS     r1,r1,#0xf5
        0x00001e0a:    48c6        .H      LDR      r0,[pc,#792] ; [0x2124] = 0x20000f68
        0x00001e0c:    f001f9ef    ....    BL       __aeabi_memclr ; 0x31ee
        0x00001e10:    f7fefdf7    ....    BL       clear ; 0xa02
        0x00001e14:    211a        .!      MOVS     r1,#0x1a
        0x00001e16:    a0c0        ..      ADR      r0,{pc}+0x302 ; 0x2118
        0x00001e18:    f001fe64    ..d.    BL       __0printf ; 0x3ae4
        0x00001e1c:    4638        8F      MOV      r0,r7
        0x00001e1e:    f001fe61    ..a.    BL       __0printf ; 0x3ae4
        0x00001e22:    bf00        ..      NOP      
        0x00001e24:    48bf        .H      LDR      r0,[pc,#764] ; [0x2124] = 0x20000f68
        0x00001e26:    990a        ..      LDR      r1,[sp,#0x28]
        0x00001e28:    f001f9f8    ....    BL       strstr ; 0x321c
        0x00001e2c:    49be        .I      LDR      r1,[pc,#760] ; [0x2128] = 0x2000006c
        0x00001e2e:    6008        .`      STR      r0,[r1,#0]
        0x00001e30:    4621        !F      MOV      r1,r4
        0x00001e32:    48bc        .H      LDR      r0,[pc,#752] ; [0x2124] = 0x20000f68
        0x00001e34:    f001f9f2    ....    BL       strstr ; 0x321c
        0x00001e38:    49bc        .I      LDR      r1,[pc,#752] ; [0x212c] = 0x20000070
        0x00001e3a:    6008        .`      STR      r0,[r1,#0]
        0x00001e3c:    4629        )F      MOV      r1,r5
        0x00001e3e:    48b9        .H      LDR      r0,[pc,#740] ; [0x2124] = 0x20000f68
        0x00001e40:    f001f9ec    ....    BL       strstr ; 0x321c
        0x00001e44:    49ba        .I      LDR      r1,[pc,#744] ; [0x2130] = 0x20000074
        0x00001e46:    6008        .`      STR      r0,[r1,#0]
        0x00001e48:    48b7        .H      LDR      r0,[pc,#732] ; [0x2128] = 0x2000006c
        0x00001e4a:    6800        .h      LDR      r0,[r0,#0]
        0x00001e4c:    2800        .(      CMP      r0,#0
        0x00001e4e:    d10b        ..      BNE      0x1e68 ; SendAT_GPS + 496
        0x00001e50:    48b6        .H      LDR      r0,[pc,#728] ; [0x212c] = 0x20000070
        0x00001e52:    6800        .h      LDR      r0,[r0,#0]
        0x00001e54:    2800        .(      CMP      r0,#0
        0x00001e56:    d107        ..      BNE      0x1e68 ; SendAT_GPS + 496
        0x00001e58:    4608        .F      MOV      r0,r1
        0x00001e5a:    6800        .h      LDR      r0,[r0,#0]
        0x00001e5c:    2800        .(      CMP      r0,#0
        0x00001e5e:    d103        ..      BNE      0x1e68 ; SendAT_GPS + 496
        0x00001e60:    48b4        .H      LDR      r0,[pc,#720] ; [0x2134] = 0x20000050
        0x00001e62:    6800        .h      LDR      r0,[r0,#0]
        0x00001e64:    42b0        .B      CMP      r0,r6
        0x00001e66:    dbdd        ..      BLT      0x1e24 ; SendAT_GPS + 428
        0x00001e68:    49ad        .I      LDR      r1,[pc,#692] ; [0x2120] = 0x1748
        0x00001e6a:    3130        01      ADDS     r1,r1,#0x30
        0x00001e6c:    48ad        .H      LDR      r0,[pc,#692] ; [0x2124] = 0x20000f68
        0x00001e6e:    f001f9d5    ....    BL       strstr ; 0x321c
        0x00001e72:    2800        .(      CMP      r0,#0
        0x00001e74:    d05d        ].      BEQ      0x1f32 ; SendAT_GPS + 698
        0x00001e76:    48b3        .H      LDR      r0,[pc,#716] ; [0x2144] = 0x40400000
        0x00001e78:    49b3        .I      LDR      r1,[pc,#716] ; [0x2148] = 0x20000054
        0x00001e7a:    6008        .`      STR      r0,[r1,#0]
        0x00001e7c:    48b3        .H      LDR      r0,[pc,#716] ; [0x214c] = 0x400e0040
        0x00001e7e:    6880        .h      LDR      r0,[r0,#8]
        0x00001e80:    2101        .!      MOVS     r1,#1
        0x00001e82:    02c9        ..      LSLS     r1,r1,#11
        0x00001e84:    4308        .C      ORRS     r0,r0,r1
        0x00001e86:    49b1        .I      LDR      r1,[pc,#708] ; [0x214c] = 0x400e0040
        0x00001e88:    6088        .`      STR      r0,[r1,#8]
        0x00001e8a:    49b0        .I      LDR      r1,[pc,#704] ; [0x214c] = 0x400e0040
        0x00001e8c:    3940        @9      SUBS     r1,r1,#0x40
        0x00001e8e:    6809        .h      LDR      r1,[r1,#0]
        0x00001e90:    0508        ..      LSLS     r0,r1,#20
        0x00001e92:    0d00        ..      LSRS     r0,r0,#20
        0x00001e94:    f001faca    ....    BL       __aeabi_ui2f ; 0x342c
        0x00001e98:    49ab        .I      LDR      r1,[pc,#684] ; [0x2148] = 0x20000054
        0x00001e9a:    6008        .`      STR      r0,[r1,#0]
        0x00001e9c:    4608        .F      MOV      r0,r1
        0x00001e9e:    6800        .h      LDR      r0,[r0,#0]
        0x00001ea0:    f001facb    ....    BL       __aeabi_f2d ; 0x343a
        0x00001ea4:    4aaa        .J      LDR      r2,[pc,#680] ; [0x2150] = 0xdb22d0e5
        0x00001ea6:    4bab        .K      LDR      r3,[pc,#684] ; [0x2154] = 0x400a7ef9
        0x00001ea8:    9101        ..      STR      r1,[sp,#4]
        0x00001eaa:    9000        ..      STR      r0,[sp,#0]
        0x00001eac:    f001f9de    ....    BL       __aeabi_dmul ; 0x326c
        0x00001eb0:    2200        ."      MOVS     r2,#0
        0x00001eb2:    4ba9        .K      LDR      r3,[pc,#676] ; [0x2158] = 0x40b00000
        0x00001eb4:    9103        ..      STR      r1,[sp,#0xc]
        0x00001eb6:    9002        ..      STR      r0,[sp,#8]
        0x00001eb8:    f001fa40    ..@.    BL       __aeabi_ddiv ; 0x333c
        0x00001ebc:    4aa7        .J      LDR      r2,[pc,#668] ; [0x215c] = 0xe737ca49
        0x00001ebe:    4ba8        .K      LDR      r3,[pc,#672] ; [0x2160] = 0x3ffe15ba
        0x00001ec0:    9105        ..      STR      r1,[sp,#0x14]
        0x00001ec2:    9004        ..      STR      r0,[sp,#0x10]
        0x00001ec4:    f001f9d2    ....    BL       __aeabi_dmul ; 0x326c
        0x00001ec8:    9107        ..      STR      r1,[sp,#0x1c]
        0x00001eca:    9006        ..      STR      r0,[sp,#0x18]
        0x00001ecc:    f001faf2    ....    BL       __aeabi_d2f ; 0x34b4
        0x00001ed0:    499d        .I      LDR      r1,[pc,#628] ; [0x2148] = 0x20000054
        0x00001ed2:    6008        .`      STR      r0,[r1,#0]
        0x00001ed4:    2164        d!      MOVS     r1,#0x64
        0x00001ed6:    48a3        .H      LDR      r0,[pc,#652] ; [0x2164] = 0x200011a0
        0x00001ed8:    f001f989    ....    BL       __aeabi_memclr ; 0x31ee
        0x00001edc:    48a1        .H      LDR      r0,[pc,#644] ; [0x2164] = 0x200011a0
        0x00001ede:    212c        ,!      MOVS     r1,#0x2c
        0x00001ee0:    2343        C#      MOVS     r3,#0x43
        0x00001ee2:    220a        ."      MOVS     r2,#0xa
        0x00001ee4:    9100        ..      STR      r1,[sp,#0]
        0x00001ee6:    9001        ..      STR      r0,[sp,#4]
        0x00001ee8:    2102        .!      MOVS     r1,#2
        0x00001eea:    488e        .H      LDR      r0,[pc,#568] ; [0x2124] = 0x20000f68
        0x00001eec:    f002fd70    ..p.    BL       parse_g ; 0x49d0
        0x00001ef0:    498a        .I      LDR      r1,[pc,#552] ; [0x211c] = 0x20001204
        0x00001ef2:    489d        .H      LDR      r0,[pc,#628] ; [0x2168] = 0x200001bc
        0x00001ef4:    f001f986    ....    BL       strcat ; 0x3204
        0x00001ef8:    a19c        ..      ADR      r1,{pc}+0x274 ; 0x216c
        0x00001efa:    489b        .H      LDR      r0,[pc,#620] ; [0x2168] = 0x200001bc
        0x00001efc:    f001f982    ....    BL       strcat ; 0x3204
        0x00001f00:    4998        .I      LDR      r1,[pc,#608] ; [0x2164] = 0x200011a0
        0x00001f02:    4899        .H      LDR      r0,[pc,#612] ; [0x2168] = 0x200001bc
        0x00001f04:    f001f97e    ..~.    BL       strcat ; 0x3204
        0x00001f08:    2164        d!      MOVS     r1,#0x64
        0x00001f0a:    4896        .H      LDR      r0,[pc,#600] ; [0x2164] = 0x200011a0
        0x00001f0c:    f001f96f    ..o.    BL       __aeabi_memclr ; 0x31ee
        0x00001f10:    488d        .H      LDR      r0,[pc,#564] ; [0x2148] = 0x20000054
        0x00001f12:    6800        .h      LDR      r0,[r0,#0]
        0x00001f14:    f001fa91    ....    BL       __aeabi_f2d ; 0x343a
        0x00001f18:    4602        .F      MOV      r2,r0
        0x00001f1a:    460b        .F      MOV      r3,r1
        0x00001f1c:    9107        ..      STR      r1,[sp,#0x1c]
        0x00001f1e:    9006        ..      STR      r0,[sp,#0x18]
        0x00001f20:    497f        .I      LDR      r1,[pc,#508] ; [0x2120] = 0x1748
        0x00001f22:    3164        d1      ADDS     r1,r1,#0x64
        0x00001f24:    488f        .H      LDR      r0,[pc,#572] ; [0x2164] = 0x200011a0
        0x00001f26:    f001fded    ....    BL       __0sprintf ; 0x3b04
        0x00001f2a:    498e        .I      LDR      r1,[pc,#568] ; [0x2164] = 0x200011a0
        0x00001f2c:    488e        .H      LDR      r0,[pc,#568] ; [0x2168] = 0x200001bc
        0x00001f2e:    f001f969    ..i.    BL       strcat ; 0x3204
        0x00001f32:    488d        .H      LDR      r0,[pc,#564] ; [0x2168] = 0x200001bc
        0x00001f34:    f001f986    ....    BL       strlen ; 0x3244
        0x00001f38:    498d        .I      LDR      r1,[pc,#564] ; [0x2170] = 0xb54
        0x00001f3a:    4288        .B      CMP      r0,r1
        0x00001f3c:    d90c        ..      BLS      0x1f58 ; SendAT_GPS + 736
        0x00001f3e:    498d        .I      LDR      r1,[pc,#564] ; [0x2174] = 0xdac
        0x00001f40:    4889        .H      LDR      r0,[pc,#548] ; [0x2168] = 0x200001bc
        0x00001f42:    f001f954    ..T.    BL       __aeabi_memclr ; 0x31ee
        0x00001f46:    4975        uI      LDR      r1,[pc,#468] ; [0x211c] = 0x20001204
        0x00001f48:    4887        .H      LDR      r0,[pc,#540] ; [0x2168] = 0x200001bc
        0x00001f4a:    f001f95b    ..[.    BL       strcat ; 0x3204
        0x00001f4e:    4974        tI      LDR      r1,[pc,#464] ; [0x2120] = 0x1748
        0x00001f50:    3178        x1      ADDS     r1,r1,#0x78
        0x00001f52:    4885        .H      LDR      r0,[pc,#532] ; [0x2168] = 0x200001bc
        0x00001f54:    f001f956    ..V.    BL       strcat ; 0x3204
        0x00001f58:    2001        .       MOVS     r0,#1
        0x00001f5a:    4987        .I      LDR      r1,[pc,#540] ; [0x2178] = 0x50004240
        0x00001f5c:    6088        .`      STR      r0,[r1,#8]
        0x00001f5e:    4887        .H      LDR      r0,[pc,#540] ; [0x217c] = 0x20000024
        0x00001f60:    6800        .h      LDR      r0,[r0,#0]
        0x00001f62:    f002fc95    ....    BL       osMutexRelease ; 0x4890
        0x00001f66:    2001        .       MOVS     r0,#1
        0x00001f68:    f002fc12    ....    BL       osDelay ; 0x4790
        0x00001f6c:    b00d        ..      ADD      sp,sp,#0x34
        0x00001f6e:    bdf0        ..      POP      {r4-r7,pc}
    I2C1_IRQHandler
        0x00001f70:    2001        .       MOVS     r0,#1
        0x00001f72:    4983        .I      LDR      r1,[pc,#524] ; [0x2180] = 0x40120000
        0x00001f74:    6048        H`      STR      r0,[r1,#4]
        0x00001f76:    4608        .F      MOV      r0,r1
        0x00001f78:    6880        .h      LDR      r0,[r0,#8]
        0x00001f7a:    4982        .I      LDR      r1,[pc,#520] ; [0x2184] = 0x20000034
        0x00001f7c:    6008        .`      STR      r0,[r1,#0]
        0x00001f7e:    4770        pG      BX       lr
    I2C_MasterRx
        0x00001f80:    b510        ..      PUSH     {r4,lr}
        0x00001f82:    4604        .F      MOV      r4,r0
        0x00001f84:    2c08        .,      CMP      r4,#8
        0x00001f86:    d10c        ..      BNE      0x1fa2 ; I2C_MasterRx + 34
        0x00001f88:    487f        .H      LDR      r0,[pc,#508] ; [0x2188] = 0x20000030
        0x00001f8a:    7800        .x      LDRB     r0,[r0,#0]
        0x00001f8c:    0040        @.      LSLS     r0,r0,#1
        0x00001f8e:    497c        |I      LDR      r1,[pc,#496] ; [0x2180] = 0x40120000
        0x00001f90:    6148        Ha      STR      r0,[r1,#0x14]
        0x00001f92:    4608        .F      MOV      r0,r1
        0x00001f94:    6800        .h      LDR      r0,[r0,#0]
        0x00001f96:    211e        .!      MOVS     r1,#0x1e
        0x00001f98:    4388        .C      BICS     r0,r0,r1
        0x00001f9a:    3010        .0      ADDS     r0,r0,#0x10
        0x00001f9c:    4978        xI      LDR      r1,[pc,#480] ; [0x2180] = 0x40120000
        0x00001f9e:    6008        .`      STR      r0,[r1,#0]
        0x00001fa0:    e072        r.      B        0x2088 ; I2C_MasterRx + 264
        0x00001fa2:    2c18        .,      CMP      r4,#0x18
        0x00001fa4:    d111        ..      BNE      0x1fca ; I2C_MasterRx + 74
        0x00001fa6:    4879        yH      LDR      r0,[pc,#484] ; [0x218c] = 0x2000003a
        0x00001fa8:    7801        .x      LDRB     r1,[r0,#0]
        0x00001faa:    7800        .x      LDRB     r0,[r0,#0]
        0x00001fac:    1c40        @.      ADDS     r0,r0,#1
        0x00001fae:    4a77        wJ      LDR      r2,[pc,#476] ; [0x218c] = 0x2000003a
        0x00001fb0:    7010        .p      STRB     r0,[r2,#0]
        0x00001fb2:    4877        wH      LDR      r0,[pc,#476] ; [0x2190] = 0x20000038
        0x00001fb4:    5c40        @\      LDRB     r0,[r0,r1]
        0x00001fb6:    4972        rI      LDR      r1,[pc,#456] ; [0x2180] = 0x40120000
        0x00001fb8:    6148        Ha      STR      r0,[r1,#0x14]
        0x00001fba:    4608        .F      MOV      r0,r1
        0x00001fbc:    6800        .h      LDR      r0,[r0,#0]
        0x00001fbe:    211e        .!      MOVS     r1,#0x1e
        0x00001fc0:    4388        .C      BICS     r0,r0,r1
        0x00001fc2:    3010        .0      ADDS     r0,r0,#0x10
        0x00001fc4:    496e        nI      LDR      r1,[pc,#440] ; [0x2180] = 0x40120000
        0x00001fc6:    6008        .`      STR      r0,[r1,#0]
        0x00001fc8:    e05e        ^.      B        0x2088 ; I2C_MasterRx + 264
        0x00001fca:    2c20         ,      CMP      r4,#0x20
        0x00001fcc:    d109        ..      BNE      0x1fe2 ; I2C_MasterRx + 98
        0x00001fce:    486c        lH      LDR      r0,[pc,#432] ; [0x2180] = 0x40120000
        0x00001fd0:    6800        .h      LDR      r0,[r0,#0]
        0x00001fd2:    211e        .!      MOVS     r1,#0x1e
        0x00001fd4:    4388        .C      BICS     r0,r0,r1
        0x00001fd6:    3008        .0      ADDS     r0,r0,#8
        0x00001fd8:    2114        .!      MOVS     r1,#0x14
        0x00001fda:    4308        .C      ORRS     r0,r0,r1
        0x00001fdc:    4968        hI      LDR      r1,[pc,#416] ; [0x2180] = 0x40120000
        0x00001fde:    6008        .`      STR      r0,[r1,#0]
        0x00001fe0:    e052        R.      B        0x2088 ; I2C_MasterRx + 264
        0x00001fe2:    2c28        (,      CMP      r4,#0x28
        0x00001fe4:    d11f        ..      BNE      0x2026 ; I2C_MasterRx + 166
        0x00001fe6:    4869        iH      LDR      r0,[pc,#420] ; [0x218c] = 0x2000003a
        0x00001fe8:    7800        .x      LDRB     r0,[r0,#0]
        0x00001fea:    2802        .(      CMP      r0,#2
        0x00001fec:    d011        ..      BEQ      0x2012 ; I2C_MasterRx + 146
        0x00001fee:    4867        gH      LDR      r0,[pc,#412] ; [0x218c] = 0x2000003a
        0x00001ff0:    7801        .x      LDRB     r1,[r0,#0]
        0x00001ff2:    7800        .x      LDRB     r0,[r0,#0]
        0x00001ff4:    1c40        @.      ADDS     r0,r0,#1
        0x00001ff6:    4a65        eJ      LDR      r2,[pc,#404] ; [0x218c] = 0x2000003a
        0x00001ff8:    7010        .p      STRB     r0,[r2,#0]
        0x00001ffa:    4865        eH      LDR      r0,[pc,#404] ; [0x2190] = 0x20000038
        0x00001ffc:    5c40        @\      LDRB     r0,[r0,r1]
        0x00001ffe:    4960        `I      LDR      r1,[pc,#384] ; [0x2180] = 0x40120000
        0x00002000:    6148        Ha      STR      r0,[r1,#0x14]
        0x00002002:    4608        .F      MOV      r0,r1
        0x00002004:    6800        .h      LDR      r0,[r0,#0]
        0x00002006:    211e        .!      MOVS     r1,#0x1e
        0x00002008:    4388        .C      BICS     r0,r0,r1
        0x0000200a:    3010        .0      ADDS     r0,r0,#0x10
        0x0000200c:    495c        \I      LDR      r1,[pc,#368] ; [0x2180] = 0x40120000
        0x0000200e:    6008        .`      STR      r0,[r1,#0]
        0x00002010:    e03a        :.      B        0x2088 ; I2C_MasterRx + 264
        0x00002012:    485b        [H      LDR      r0,[pc,#364] ; [0x2180] = 0x40120000
        0x00002014:    6800        .h      LDR      r0,[r0,#0]
        0x00002016:    211e        .!      MOVS     r1,#0x1e
        0x00002018:    4388        .C      BICS     r0,r0,r1
        0x0000201a:    3008        .0      ADDS     r0,r0,#8
        0x0000201c:    2110        .!      MOVS     r1,#0x10
        0x0000201e:    4308        .C      ORRS     r0,r0,r1
        0x00002020:    4957        WI      LDR      r1,[pc,#348] ; [0x2180] = 0x40120000
        0x00002022:    6008        .`      STR      r0,[r1,#0]
        0x00002024:    e030        0.      B        0x2088 ; I2C_MasterRx + 264
        0x00002026:    2c10        .,      CMP      r4,#0x10
        0x00002028:    d10d        ..      BNE      0x2046 ; I2C_MasterRx + 198
        0x0000202a:    4857        WH      LDR      r0,[pc,#348] ; [0x2188] = 0x20000030
        0x0000202c:    7800        .x      LDRB     r0,[r0,#0]
        0x0000202e:    0040        @.      LSLS     r0,r0,#1
        0x00002030:    1c40        @.      ADDS     r0,r0,#1
        0x00002032:    4953        SI      LDR      r1,[pc,#332] ; [0x2180] = 0x40120000
        0x00002034:    6148        Ha      STR      r0,[r1,#0x14]
        0x00002036:    4608        .F      MOV      r0,r1
        0x00002038:    6800        .h      LDR      r0,[r0,#0]
        0x0000203a:    211e        .!      MOVS     r1,#0x1e
        0x0000203c:    4388        .C      BICS     r0,r0,r1
        0x0000203e:    3010        .0      ADDS     r0,r0,#0x10
        0x00002040:    494f        OI      LDR      r1,[pc,#316] ; [0x2180] = 0x40120000
        0x00002042:    6008        .`      STR      r0,[r1,#0]
        0x00002044:    e020         .      B        0x2088 ; I2C_MasterRx + 264
        0x00002046:    2c40        @,      CMP      r4,#0x40
        0x00002048:    d107        ..      BNE      0x205a ; I2C_MasterRx + 218
        0x0000204a:    484d        MH      LDR      r0,[pc,#308] ; [0x2180] = 0x40120000
        0x0000204c:    6800        .h      LDR      r0,[r0,#0]
        0x0000204e:    211e        .!      MOVS     r1,#0x1e
        0x00002050:    4388        .C      BICS     r0,r0,r1
        0x00002052:    3010        .0      ADDS     r0,r0,#0x10
        0x00002054:    494a        JI      LDR      r1,[pc,#296] ; [0x2180] = 0x40120000
        0x00002056:    6008        .`      STR      r0,[r1,#0]
        0x00002058:    e016        ..      B        0x2088 ; I2C_MasterRx + 264
        0x0000205a:    2c58        X,      CMP      r4,#0x58
        0x0000205c:    d110        ..      BNE      0x2080 ; I2C_MasterRx + 256
        0x0000205e:    4848        HH      LDR      r0,[pc,#288] ; [0x2180] = 0x40120000
        0x00002060:    6940        @i      LDR      r0,[r0,#0x14]
        0x00002062:    494c        LI      LDR      r1,[pc,#304] ; [0x2194] = 0x20000039
        0x00002064:    7008        .p      STRB     r0,[r1,#0]
        0x00002066:    4846        FH      LDR      r0,[pc,#280] ; [0x2180] = 0x40120000
        0x00002068:    6800        .h      LDR      r0,[r0,#0]
        0x0000206a:    211e        .!      MOVS     r1,#0x1e
        0x0000206c:    4388        .C      BICS     r0,r0,r1
        0x0000206e:    1d00        ..      ADDS     r0,r0,#4
        0x00002070:    2110        .!      MOVS     r1,#0x10
        0x00002072:    4308        .C      ORRS     r0,r0,r1
        0x00002074:    4942        BI      LDR      r1,[pc,#264] ; [0x2180] = 0x40120000
        0x00002076:    6008        .`      STR      r0,[r1,#0]
        0x00002078:    2001        .       MOVS     r0,#1
        0x0000207a:    4947        GI      LDR      r1,[pc,#284] ; [0x2198] = 0x2000003b
        0x0000207c:    7008        .p      STRB     r0,[r1,#0]
        0x0000207e:    e003        ..      B        0x2088 ; I2C_MasterRx + 264
        0x00002080:    4621        !F      MOV      r1,r4
        0x00002082:    a046        F.      ADR      r0,{pc}+0x11a ; 0x219c
        0x00002084:    f001fd2e    ....    BL       __0printf ; 0x3ae4
        0x00002088:    bd10        ..      POP      {r4,pc}
    I2C_MasterTx
        0x0000208a:    b510        ..      PUSH     {r4,lr}
        0x0000208c:    4604        .F      MOV      r4,r0
        0x0000208e:    2c08        .,      CMP      r4,#8
        0x00002090:    d10c        ..      BNE      0x20ac ; I2C_MasterTx + 34
        0x00002092:    483d        =H      LDR      r0,[pc,#244] ; [0x2188] = 0x20000030
        0x00002094:    7800        .x      LDRB     r0,[r0,#0]
        0x00002096:    0040        @.      LSLS     r0,r0,#1
        0x00002098:    4939        9I      LDR      r1,[pc,#228] ; [0x2180] = 0x40120000
        0x0000209a:    6148        Ha      STR      r0,[r1,#0x14]
        0x0000209c:    4608        .F      MOV      r0,r1
        0x0000209e:    6800        .h      LDR      r0,[r0,#0]
        0x000020a0:    211e        .!      MOVS     r1,#0x1e
        0x000020a2:    4388        .C      BICS     r0,r0,r1
        0x000020a4:    3010        .0      ADDS     r0,r0,#0x10
        0x000020a6:    4936        6I      LDR      r1,[pc,#216] ; [0x2180] = 0x40120000
        0x000020a8:    6008        .`      STR      r0,[r1,#0]
        0x000020aa:    e09c        ..      B        0x21e6 ; I2C_MasterTx + 348
        0x000020ac:    2c18        .,      CMP      r4,#0x18
        0x000020ae:    d111        ..      BNE      0x20d4 ; I2C_MasterTx + 74
        0x000020b0:    4836        6H      LDR      r0,[pc,#216] ; [0x218c] = 0x2000003a
        0x000020b2:    7801        .x      LDRB     r1,[r0,#0]
        0x000020b4:    7800        .x      LDRB     r0,[r0,#0]
        0x000020b6:    1c40        @.      ADDS     r0,r0,#1
        0x000020b8:    4a34        4J      LDR      r2,[pc,#208] ; [0x218c] = 0x2000003a
        0x000020ba:    7010        .p      STRB     r0,[r2,#0]
        0x000020bc:    4834        4H      LDR      r0,[pc,#208] ; [0x2190] = 0x20000038
        0x000020be:    5c40        @\      LDRB     r0,[r0,r1]
        0x000020c0:    492f        /I      LDR      r1,[pc,#188] ; [0x2180] = 0x40120000
        0x000020c2:    6148        Ha      STR      r0,[r1,#0x14]
        0x000020c4:    4608        .F      MOV      r0,r1
        0x000020c6:    6800        .h      LDR      r0,[r0,#0]
        0x000020c8:    211e        .!      MOVS     r1,#0x1e
        0x000020ca:    4388        .C      BICS     r0,r0,r1
        0x000020cc:    3010        .0      ADDS     r0,r0,#0x10
        0x000020ce:    492c        ,I      LDR      r1,[pc,#176] ; [0x2180] = 0x40120000
        0x000020d0:    6008        .`      STR      r0,[r1,#0]
        0x000020d2:    e088        ..      B        0x21e6 ; I2C_MasterTx + 348
        0x000020d4:    2c20         ,      CMP      r4,#0x20
        0x000020d6:    d109        ..      BNE      0x20ec ; I2C_MasterTx + 98
        0x000020d8:    4829        )H      LDR      r0,[pc,#164] ; [0x2180] = 0x40120000
        0x000020da:    6800        .h      LDR      r0,[r0,#0]
        0x000020dc:    211e        .!      MOVS     r1,#0x1e
        0x000020de:    4388        .C      BICS     r0,r0,r1
        0x000020e0:    3008        .0      ADDS     r0,r0,#8
        0x000020e2:    2114        .!      MOVS     r1,#0x14
        0x000020e4:    4308        .C      ORRS     r0,r0,r1
        0x000020e6:    4926        &I      LDR      r1,[pc,#152] ; [0x2180] = 0x40120000
        0x000020e8:    6008        .`      STR      r0,[r1,#0]
        0x000020ea:    e07c        |.      B        0x21e6 ; I2C_MasterTx + 348
        0x000020ec:    2c28        (,      CMP      r4,#0x28
        0x000020ee:    d176        v.      BNE      0x21de ; I2C_MasterTx + 340
        0x000020f0:    4826        &H      LDR      r0,[pc,#152] ; [0x218c] = 0x2000003a
        0x000020f2:    7800        .x      LDRB     r0,[r0,#0]
        0x000020f4:    2803        .(      CMP      r0,#3
        0x000020f6:    d064        d.      BEQ      0x21c2 ; I2C_MasterTx + 312
        0x000020f8:    4824        $H      LDR      r0,[pc,#144] ; [0x218c] = 0x2000003a
        0x000020fa:    7801        .x      LDRB     r1,[r0,#0]
        0x000020fc:    7800        .x      LDRB     r0,[r0,#0]
        0x000020fe:    1c40        @.      ADDS     r0,r0,#1
        0x00002100:    4a22        "J      LDR      r2,[pc,#136] ; [0x218c] = 0x2000003a
        0x00002102:    7010        .p      STRB     r0,[r2,#0]
        0x00002104:    4822        "H      LDR      r0,[pc,#136] ; [0x2190] = 0x20000038
        0x00002106:    5c40        @\      LDRB     r0,[r0,r1]
        0x00002108:    491d        .I      LDR      r1,[pc,#116] ; [0x2180] = 0x40120000
        0x0000210a:    6148        Ha      STR      r0,[r1,#0x14]
        0x0000210c:    4608        .F      MOV      r0,r1
        0x0000210e:    6800        .h      LDR      r0,[r0,#0]
        0x00002110:    211e        .!      MOVS     r1,#0x1e
        0x00002112:    4388        .C      BICS     r0,r0,r1
        0x00002114:    3010        .0      ADDS     r0,r0,#0x10
        0x00002116:    e051        Q.      B        0x21bc ; I2C_MasterTx + 306
    $d
        0x00002118:    00006325    %c..    DCD    25381
        0x0000211c:    20001204    ...     DCD    536875524
        0x00002120:    00001748    H...    DCD    5960
        0x00002124:    20000f68    h..     DCD    536874856
        0x00002128:    2000006c    l..     DCD    536871020
        0x0000212c:    20000070    p..     DCD    536871024
        0x00002130:    20000074    t..     DCD    536871028
        0x00002134:    20000050    P..     DCD    536870992
        0x00002138:    2000009c    ...     DCD    536871068
        0x0000213c:    200000a0    ...     DCD    536871072
        0x00002140:    20000048    H..     DCD    536870984
        0x00002144:    40400000    ..@@    DCD    1077936128
        0x00002148:    20000054    T..     DCD    536870996
        0x0000214c:    400e0040    @..@    DCD    1074659392
        0x00002150:    db22d0e5    ..".    DCD    3676492005
        0x00002154:    400a7ef9    .~.@    DCD    1074429689
        0x00002158:    40b00000    ...@    DCD    1085276160
        0x0000215c:    e737ca49    I.7.    DCD    3879193161
        0x00002160:    3ffe15ba    ...?    DCD    1073616314
        0x00002164:    200011a0    ...     DCD    536875424
        0x00002168:    200001bc    ...     DCD    536871356
        0x0000216c:    0000002c    ,...    DCD    44
        0x00002170:    00000b54    T...    DCD    2900
        0x00002174:    00000dac    ....    DCD    3500
        0x00002178:    50004240    @B.P    DCD    1342194240
        0x0000217c:    20000024    $..     DCD    536870948
        0x00002180:    40120000    ...@    DCD    1074921472
        0x00002184:    20000034    4..     DCD    536870964
        0x00002188:    20000030    0..     DCD    536870960
        0x0000218c:    2000003a    :..     DCD    536870970
        0x00002190:    20000038    8..     DCD    536870968
        0x00002194:    20000039    9..     DCD    536870969
        0x00002198:    2000003b    ;..     DCD    536870971
        0x0000219c:    74617453    Stat    DCD    1952543827
        0x000021a0:    30207375    us 0    DCD    807433077
        0x000021a4:    20782578    x%x     DCD    544744824
        0x000021a8:    4e207369    is N    DCD    1310749545
        0x000021ac:    7020544f    OT p    DCD    1881166927
        0x000021b0:    65636f72    roce    DCD    1701015410
        0x000021b4:    64657373    ssed    DCD    1684370291
        0x000021b8:    0000000a    ....    DCD    10
    $t
        0x000021bc:    4963        cI      LDR      r1,[pc,#396] ; [0x234c] = 0x40120000
        0x000021be:    6008        .`      STR      r0,[r1,#0]
        0x000021c0:    e011        ..      B        0x21e6 ; I2C_MasterTx + 348
        0x000021c2:    4862        bH      LDR      r0,[pc,#392] ; [0x234c] = 0x40120000
        0x000021c4:    6800        .h      LDR      r0,[r0,#0]
        0x000021c6:    211e        .!      MOVS     r1,#0x1e
        0x000021c8:    4388        .C      BICS     r0,r0,r1
        0x000021ca:    1d00        ..      ADDS     r0,r0,#4
        0x000021cc:    2110        .!      MOVS     r1,#0x10
        0x000021ce:    4308        .C      ORRS     r0,r0,r1
        0x000021d0:    495e        ^I      LDR      r1,[pc,#376] ; [0x234c] = 0x40120000
        0x000021d2:    6008        .`      STR      r0,[r1,#0]
        0x000021d4:    2001        .       MOVS     r0,#1
        0x000021d6:    495e        ^I      LDR      r1,[pc,#376] ; [0x2350] = 0x2000003b
        0x000021d8:    7008        .p      STRB     r0,[r1,#0]
        0x000021da:    e004        ..      B        0x21e6 ; I2C_MasterTx + 348
        0x000021dc:    e7ff        ..      B        0x21de ; I2C_MasterTx + 340
        0x000021de:    4621        !F      MOV      r1,r4
        0x000021e0:    485c        \H      LDR      r0,[pc,#368] ; [0x2354] = 0x219c
        0x000021e2:    f001fc7f    ....    BL       __0printf ; 0x3ae4
        0x000021e6:    bd10        ..      POP      {r4,pc}
    I2C_Write
        0x000021e8:    4a58        XJ      LDR      r2,[pc,#352] ; [0x234c] = 0x40120000
        0x000021ea:    6812        .h      LDR      r2,[r2,#0]
        0x000021ec:    231e        .#      MOVS     r3,#0x1e
        0x000021ee:    439a        .C      BICS     r2,r2,r3
        0x000021f0:    3208        .2      ADDS     r2,r2,#8
        0x000021f2:    4b56        VK      LDR      r3,[pc,#344] ; [0x234c] = 0x40120000
        0x000021f4:    601a        .`      STR      r2,[r3,#0]
        0x000021f6:    bf00        ..      NOP      
        0x000021f8:    4a57        WJ      LDR      r2,[pc,#348] ; [0x2358] = 0x20000034
        0x000021fa:    6812        .h      LDR      r2,[r2,#0]
        0x000021fc:    2a08        .*      CMP      r2,#8
        0x000021fe:    d1fb        ..      BNE      0x21f8 ; I2C_Write + 16
        0x00002200:    4a56        VJ      LDR      r2,[pc,#344] ; [0x235c] = 0x20000030
        0x00002202:    7812        .x      LDRB     r2,[r2,#0]
        0x00002204:    0052        R.      LSLS     r2,r2,#1
        0x00002206:    4b51        QK      LDR      r3,[pc,#324] ; [0x234c] = 0x40120000
        0x00002208:    615a        Za      STR      r2,[r3,#0x14]
        0x0000220a:    461a        .F      MOV      r2,r3
        0x0000220c:    6812        .h      LDR      r2,[r2,#0]
        0x0000220e:    231e        .#      MOVS     r3,#0x1e
        0x00002210:    439a        .C      BICS     r2,r2,r3
        0x00002212:    3210        .2      ADDS     r2,r2,#0x10
        0x00002214:    4b4d        MK      LDR      r3,[pc,#308] ; [0x234c] = 0x40120000
        0x00002216:    601a        .`      STR      r2,[r3,#0]
        0x00002218:    bf00        ..      NOP      
        0x0000221a:    4a4f        OJ      LDR      r2,[pc,#316] ; [0x2358] = 0x20000034
        0x0000221c:    6812        .h      LDR      r2,[r2,#0]
        0x0000221e:    2a18        .*      CMP      r2,#0x18
        0x00002220:    d1fb        ..      BNE      0x221a ; I2C_Write + 50
        0x00002222:    4a4a        JJ      LDR      r2,[pc,#296] ; [0x234c] = 0x40120000
        0x00002224:    6150        Pa      STR      r0,[r2,#0x14]
        0x00002226:    6812        .h      LDR      r2,[r2,#0]
        0x00002228:    231e        .#      MOVS     r3,#0x1e
        0x0000222a:    439a        .C      BICS     r2,r2,r3
        0x0000222c:    3210        .2      ADDS     r2,r2,#0x10
        0x0000222e:    4b47        GK      LDR      r3,[pc,#284] ; [0x234c] = 0x40120000
        0x00002230:    601a        .`      STR      r2,[r3,#0]
        0x00002232:    bf00        ..      NOP      
        0x00002234:    4a48        HJ      LDR      r2,[pc,#288] ; [0x2358] = 0x20000034
        0x00002236:    6812        .h      LDR      r2,[r2,#0]
        0x00002238:    2a28        (*      CMP      r2,#0x28
        0x0000223a:    d1fb        ..      BNE      0x2234 ; I2C_Write + 76
        0x0000223c:    2200        ."      MOVS     r2,#0
        0x0000223e:    4b46        FK      LDR      r3,[pc,#280] ; [0x2358] = 0x20000034
        0x00002240:    601a        .`      STR      r2,[r3,#0]
        0x00002242:    4a42        BJ      LDR      r2,[pc,#264] ; [0x234c] = 0x40120000
        0x00002244:    6151        Qa      STR      r1,[r2,#0x14]
        0x00002246:    6812        .h      LDR      r2,[r2,#0]
        0x00002248:    231e        .#      MOVS     r3,#0x1e
        0x0000224a:    439a        .C      BICS     r2,r2,r3
        0x0000224c:    3210        .2      ADDS     r2,r2,#0x10
        0x0000224e:    4b3f        ?K      LDR      r3,[pc,#252] ; [0x234c] = 0x40120000
        0x00002250:    601a        .`      STR      r2,[r3,#0]
        0x00002252:    bf00        ..      NOP      
        0x00002254:    4a40        @J      LDR      r2,[pc,#256] ; [0x2358] = 0x20000034
        0x00002256:    6812        .h      LDR      r2,[r2,#0]
        0x00002258:    2a28        (*      CMP      r2,#0x28
        0x0000225a:    d1fb        ..      BNE      0x2254 ; I2C_Write + 108
        0x0000225c:    4a3b        ;J      LDR      r2,[pc,#236] ; [0x234c] = 0x40120000
        0x0000225e:    6812        .h      LDR      r2,[r2,#0]
        0x00002260:    231e        .#      MOVS     r3,#0x1e
        0x00002262:    439a        .C      BICS     r2,r2,r3
        0x00002264:    1d12        ..      ADDS     r2,r2,#4
        0x00002266:    2310        .#      MOVS     r3,#0x10
        0x00002268:    431a        .C      ORRS     r2,r2,r3
        0x0000226a:    4b38        8K      LDR      r3,[pc,#224] ; [0x234c] = 0x40120000
        0x0000226c:    601a        .`      STR      r2,[r3,#0]
        0x0000226e:    4770        pG      BX       lr
    I2C_Read
        0x00002270:    4601        .F      MOV      r1,r0
        0x00002272:    4836        6H      LDR      r0,[pc,#216] ; [0x234c] = 0x40120000
        0x00002274:    6800        .h      LDR      r0,[r0,#0]
        0x00002276:    221e        ."      MOVS     r2,#0x1e
        0x00002278:    4390        .C      BICS     r0,r0,r2
        0x0000227a:    3008        .0      ADDS     r0,r0,#8
        0x0000227c:    4a33        3J      LDR      r2,[pc,#204] ; [0x234c] = 0x40120000
        0x0000227e:    6010        .`      STR      r0,[r2,#0]
        0x00002280:    bf00        ..      NOP      
        0x00002282:    4835        5H      LDR      r0,[pc,#212] ; [0x2358] = 0x20000034
        0x00002284:    6800        .h      LDR      r0,[r0,#0]
        0x00002286:    2808        .(      CMP      r0,#8
        0x00002288:    d1fb        ..      BNE      0x2282 ; I2C_Read + 18
        0x0000228a:    4834        4H      LDR      r0,[pc,#208] ; [0x235c] = 0x20000030
        0x0000228c:    7800        .x      LDRB     r0,[r0,#0]
        0x0000228e:    0040        @.      LSLS     r0,r0,#1
        0x00002290:    4a2e        .J      LDR      r2,[pc,#184] ; [0x234c] = 0x40120000
        0x00002292:    6150        Pa      STR      r0,[r2,#0x14]
        0x00002294:    4610        .F      MOV      r0,r2
        0x00002296:    6800        .h      LDR      r0,[r0,#0]
        0x00002298:    221e        ."      MOVS     r2,#0x1e
        0x0000229a:    4390        .C      BICS     r0,r0,r2
        0x0000229c:    3010        .0      ADDS     r0,r0,#0x10
        0x0000229e:    4a2b        +J      LDR      r2,[pc,#172] ; [0x234c] = 0x40120000
        0x000022a0:    6010        .`      STR      r0,[r2,#0]
        0x000022a2:    bf00        ..      NOP      
        0x000022a4:    482c        ,H      LDR      r0,[pc,#176] ; [0x2358] = 0x20000034
        0x000022a6:    6800        .h      LDR      r0,[r0,#0]
        0x000022a8:    2818        .(      CMP      r0,#0x18
        0x000022aa:    d1fb        ..      BNE      0x22a4 ; I2C_Read + 52
        0x000022ac:    4827        'H      LDR      r0,[pc,#156] ; [0x234c] = 0x40120000
        0x000022ae:    6141        Aa      STR      r1,[r0,#0x14]
        0x000022b0:    6800        .h      LDR      r0,[r0,#0]
        0x000022b2:    221e        ."      MOVS     r2,#0x1e
        0x000022b4:    4390        .C      BICS     r0,r0,r2
        0x000022b6:    3010        .0      ADDS     r0,r0,#0x10
        0x000022b8:    4a24        $J      LDR      r2,[pc,#144] ; [0x234c] = 0x40120000
        0x000022ba:    6010        .`      STR      r0,[r2,#0]
        0x000022bc:    bf00        ..      NOP      
        0x000022be:    4826        &H      LDR      r0,[pc,#152] ; [0x2358] = 0x20000034
        0x000022c0:    6800        .h      LDR      r0,[r0,#0]
        0x000022c2:    2828        ((      CMP      r0,#0x28
        0x000022c4:    d1fb        ..      BNE      0x22be ; I2C_Read + 78
        0x000022c6:    4821        !H      LDR      r0,[pc,#132] ; [0x234c] = 0x40120000
        0x000022c8:    6800        .h      LDR      r0,[r0,#0]
        0x000022ca:    221e        ."      MOVS     r2,#0x1e
        0x000022cc:    4390        .C      BICS     r0,r0,r2
        0x000022ce:    3008        .0      ADDS     r0,r0,#8
        0x000022d0:    2210        ."      MOVS     r2,#0x10
        0x000022d2:    4310        .C      ORRS     r0,r0,r2
        0x000022d4:    4a1d        .J      LDR      r2,[pc,#116] ; [0x234c] = 0x40120000
        0x000022d6:    6010        .`      STR      r0,[r2,#0]
        0x000022d8:    bf00        ..      NOP      
        0x000022da:    481f        .H      LDR      r0,[pc,#124] ; [0x2358] = 0x20000034
        0x000022dc:    6800        .h      LDR      r0,[r0,#0]
        0x000022de:    2810        .(      CMP      r0,#0x10
        0x000022e0:    d1fb        ..      BNE      0x22da ; I2C_Read + 106
        0x000022e2:    481e        .H      LDR      r0,[pc,#120] ; [0x235c] = 0x20000030
        0x000022e4:    7800        .x      LDRB     r0,[r0,#0]
        0x000022e6:    0040        @.      LSLS     r0,r0,#1
        0x000022e8:    1c40        @.      ADDS     r0,r0,#1
        0x000022ea:    4a18        .J      LDR      r2,[pc,#96] ; [0x234c] = 0x40120000
        0x000022ec:    6150        Pa      STR      r0,[r2,#0x14]
        0x000022ee:    4610        .F      MOV      r0,r2
        0x000022f0:    6800        .h      LDR      r0,[r0,#0]
        0x000022f2:    221e        ."      MOVS     r2,#0x1e
        0x000022f4:    4390        .C      BICS     r0,r0,r2
        0x000022f6:    3010        .0      ADDS     r0,r0,#0x10
        0x000022f8:    4a14        .J      LDR      r2,[pc,#80] ; [0x234c] = 0x40120000
        0x000022fa:    6010        .`      STR      r0,[r2,#0]
        0x000022fc:    bf00        ..      NOP      
        0x000022fe:    4816        .H      LDR      r0,[pc,#88] ; [0x2358] = 0x20000034
        0x00002300:    6800        .h      LDR      r0,[r0,#0]
        0x00002302:    2840        @(      CMP      r0,#0x40
        0x00002304:    d1fb        ..      BNE      0x22fe ; I2C_Read + 142
        0x00002306:    4811        .H      LDR      r0,[pc,#68] ; [0x234c] = 0x40120000
        0x00002308:    6800        .h      LDR      r0,[r0,#0]
        0x0000230a:    221e        ."      MOVS     r2,#0x1e
        0x0000230c:    4390        .C      BICS     r0,r0,r2
        0x0000230e:    3010        .0      ADDS     r0,r0,#0x10
        0x00002310:    4a0e        .J      LDR      r2,[pc,#56] ; [0x234c] = 0x40120000
        0x00002312:    6010        .`      STR      r0,[r2,#0]
        0x00002314:    bf00        ..      NOP      
        0x00002316:    4810        .H      LDR      r0,[pc,#64] ; [0x2358] = 0x20000034
        0x00002318:    6800        .h      LDR      r0,[r0,#0]
        0x0000231a:    2858        X(      CMP      r0,#0x58
        0x0000231c:    d1fb        ..      BNE      0x2316 ; I2C_Read + 166
        0x0000231e:    480b        .H      LDR      r0,[pc,#44] ; [0x234c] = 0x40120000
        0x00002320:    6940        @i      LDR      r0,[r0,#0x14]
        0x00002322:    4a0f        .J      LDR      r2,[pc,#60] ; [0x2360] = 0x20000039
        0x00002324:    7010        .p      STRB     r0,[r2,#0]
        0x00002326:    4809        .H      LDR      r0,[pc,#36] ; [0x234c] = 0x40120000
        0x00002328:    6800        .h      LDR      r0,[r0,#0]
        0x0000232a:    221e        ."      MOVS     r2,#0x1e
        0x0000232c:    4390        .C      BICS     r0,r0,r2
        0x0000232e:    1d00        ..      ADDS     r0,r0,#4
        0x00002330:    2210        ."      MOVS     r2,#0x10
        0x00002332:    4310        .C      ORRS     r0,r0,r2
        0x00002334:    4a05        .J      LDR      r2,[pc,#20] ; [0x234c] = 0x40120000
        0x00002336:    6010        .`      STR      r0,[r2,#0]
        0x00002338:    4809        .H      LDR      r0,[pc,#36] ; [0x2360] = 0x20000039
        0x0000233a:    7800        .x      LDRB     r0,[r0,#0]
        0x0000233c:    4770        pG      BX       lr
    NVIC_EnableIRQ
        0x0000233e:    06c2        ..      LSLS     r2,r0,#27
        0x00002340:    0ed2        ..      LSRS     r2,r2,#27
        0x00002342:    2101        .!      MOVS     r1,#1
        0x00002344:    4091        .@      LSLS     r1,r1,r2
        0x00002346:    4a07        .J      LDR      r2,[pc,#28] ; [0x2364] = 0xe000e100
        0x00002348:    6011        .`      STR      r1,[r2,#0]
        0x0000234a:    4770        pG      BX       lr
    $d
        0x0000234c:    40120000    ...@    DCD    1074921472
        0x00002350:    2000003b    ;..     DCD    536870971
        0x00002354:    0000219c    .!..    DCD    8604
        0x00002358:    20000034    4..     DCD    536870964
        0x0000235c:    20000030    0..     DCD    536870960
        0x00002360:    20000039    9..     DCD    536870969
        0x00002364:    e000e100    ....    DCD    3758153984
    $t
    .text
    CLK_DisableCKO
        0x00002368:    48fe        .H      LDR      r0,[pc,#1016] ; [0x2764] = 0x50000200
        0x0000236a:    6880        .h      LDR      r0,[r0,#8]
        0x0000236c:    2140        @!      MOVS     r1,#0x40
        0x0000236e:    4388        .C      BICS     r0,r0,r1
        0x00002370:    49fc        .I      LDR      r1,[pc,#1008] ; [0x2764] = 0x50000200
        0x00002372:    6088        .`      STR      r0,[r1,#8]
        0x00002374:    4770        pG      BX       lr
    CLK_EnableCKO
        0x00002376:    2210        ."      MOVS     r2,#0x10
        0x00002378:    430a        .C      ORRS     r2,r2,r1
        0x0000237a:    4bfa        .K      LDR      r3,[pc,#1000] ; [0x2764] = 0x50000200
        0x0000237c:    629a        .b      STR      r2,[r3,#0x28]
        0x0000237e:    461a        .F      MOV      r2,r3
        0x00002380:    6892        .h      LDR      r2,[r2,#8]
        0x00002382:    2340        @#      MOVS     r3,#0x40
        0x00002384:    431a        .C      ORRS     r2,r2,r3
        0x00002386:    4bf7        .K      LDR      r3,[pc,#988] ; [0x2764] = 0x50000200
        0x00002388:    609a        .`      STR      r2,[r3,#8]
        0x0000238a:    461a        .F      MOV      r2,r3
        0x0000238c:    6992        .i      LDR      r2,[r2,#0x18]
        0x0000238e:    230c        .#      MOVS     r3,#0xc
        0x00002390:    439a        .C      BICS     r2,r2,r3
        0x00002392:    4302        .C      ORRS     r2,r2,r0
        0x00002394:    4bf3        .K      LDR      r3,[pc,#972] ; [0x2764] = 0x50000200
        0x00002396:    619a        .a      STR      r2,[r3,#0x18]
        0x00002398:    4770        pG      BX       lr
    CLK_PowerDown
        0x0000239a:    2004        .       MOVS     r0,#4
        0x0000239c:    49f2        .I      LDR      r1,[pc,#968] ; [0x2768] = 0xe000ed00
        0x0000239e:    6108        .a      STR      r0,[r1,#0x10]
        0x000023a0:    48f0        .H      LDR      r0,[pc,#960] ; [0x2764] = 0x50000200
        0x000023a2:    6800        .h      LDR      r0,[r0,#0]
        0x000023a4:    2150        P!      MOVS     r1,#0x50
        0x000023a6:    4308        .C      ORRS     r0,r0,r1
        0x000023a8:    49ee        .I      LDR      r1,[pc,#952] ; [0x2764] = 0x50000200
        0x000023aa:    6008        .`      STR      r0,[r1,#0]
        0x000023ac:    bf30        0.      WFI      
        0x000023ae:    4770        pG      BX       lr
    CLK_Idle
        0x000023b0:    48ec        .H      LDR      r0,[pc,#944] ; [0x2764] = 0x50000200
        0x000023b2:    6800        .h      LDR      r0,[r0,#0]
        0x000023b4:    2140        @!      MOVS     r1,#0x40
        0x000023b6:    4388        .C      BICS     r0,r0,r1
        0x000023b8:    49ea        .I      LDR      r1,[pc,#936] ; [0x2764] = 0x50000200
        0x000023ba:    6008        .`      STR      r0,[r1,#0]
        0x000023bc:    bf30        0.      WFI      
        0x000023be:    4770        pG      BX       lr
    CLK_GetHXTFreq
        0x000023c0:    48e8        .H      LDR      r0,[pc,#928] ; [0x2764] = 0x50000200
        0x000023c2:    6800        .h      LDR      r0,[r0,#0]
        0x000023c4:    07c0        ..      LSLS     r0,r0,#31
        0x000023c6:    0fc0        ..      LSRS     r0,r0,#31
        0x000023c8:    2800        .(      CMP      r0,#0
        0x000023ca:    d001        ..      BEQ      0x23d0 ; CLK_GetHXTFreq + 16
        0x000023cc:    48e7        .H      LDR      r0,[pc,#924] ; [0x276c] = 0xb71b00
        0x000023ce:    4770        pG      BX       lr
        0x000023d0:    2000        .       MOVS     r0,#0
        0x000023d2:    e7fc        ..      B        0x23ce ; CLK_GetHXTFreq + 14
    CLK_GetLXTFreq
        0x000023d4:    48e3        .H      LDR      r0,[pc,#908] ; [0x2764] = 0x50000200
        0x000023d6:    6800        .h      LDR      r0,[r0,#0]
        0x000023d8:    2102        .!      MOVS     r1,#2
        0x000023da:    4008        .@      ANDS     r0,r0,r1
        0x000023dc:    2800        .(      CMP      r0,#0
        0x000023de:    d001        ..      BEQ      0x23e4 ; CLK_GetLXTFreq + 16
        0x000023e0:    0388        ..      LSLS     r0,r1,#14
        0x000023e2:    4770        pG      BX       lr
        0x000023e4:    2000        .       MOVS     r0,#0
        0x000023e6:    e7fc        ..      B        0x23e2 ; CLK_GetLXTFreq + 14
    CLK_GetHCLKFreq
        0x000023e8:    b510        ..      PUSH     {r4,lr}
        0x000023ea:    f7fdff99    ....    BL       SystemCoreClockUpdate ; 0x320
        0x000023ee:    48e0        .H      LDR      r0,[pc,#896] ; [0x2770] = 0x20000000
        0x000023f0:    6800        .h      LDR      r0,[r0,#0]
        0x000023f2:    bd10        ..      POP      {r4,pc}
    CLK_GetCPUFreq
        0x000023f4:    b510        ..      PUSH     {r4,lr}
        0x000023f6:    f7fdff93    ....    BL       SystemCoreClockUpdate ; 0x320
        0x000023fa:    48dd        .H      LDR      r0,[pc,#884] ; [0x2770] = 0x20000000
        0x000023fc:    6800        .h      LDR      r0,[r0,#0]
        0x000023fe:    bd10        ..      POP      {r4,pc}
    CLK_GetPLLClockFreq
        0x00002400:    b5fe        ..      PUSH     {r1-r7,lr}
        0x00002402:    2000        .       MOVS     r0,#0
        0x00002404:    9002        ..      STR      r0,[sp,#8]
        0x00002406:    48d7        .H      LDR      r0,[pc,#860] ; [0x2764] = 0x50000200
        0x00002408:    6a45        Ej      LDR      r5,[r0,#0x24]
        0x0000240a:    01c0        ..      LSLS     r0,r0,#7
        0x0000240c:    4028        (@      ANDS     r0,r0,r5
        0x0000240e:    2800        .(      CMP      r0,#0
        0x00002410:    d001        ..      BEQ      0x2416 ; CLK_GetPLLClockFreq + 22
        0x00002412:    2000        .       MOVS     r0,#0
        0x00002414:    bdfe        ..      POP      {r1-r7,pc}
        0x00002416:    2001        .       MOVS     r0,#1
        0x00002418:    0440        @.      LSLS     r0,r0,#17
        0x0000241a:    4028        (@      ANDS     r0,r0,r5
        0x0000241c:    2800        .(      CMP      r0,#0
        0x0000241e:    d001        ..      BEQ      0x2424 ; CLK_GetPLLClockFreq + 36
        0x00002420:    4fd2        .O      LDR      r7,[pc,#840] ; [0x276c] = 0xb71b00
        0x00002422:    e000        ..      B        0x2426 ; CLK_GetPLLClockFreq + 38
        0x00002424:    4fd1        .O      LDR      r7,[pc,#836] ; [0x276c] = 0xb71b00
        0x00002426:    2001        .       MOVS     r0,#1
        0x00002428:    0300        ..      LSLS     r0,r0,#12
        0x0000242a:    4028        (@      ANDS     r0,r0,r5
        0x0000242c:    2800        .(      CMP      r0,#0
        0x0000242e:    d001        ..      BEQ      0x2434 ; CLK_GetPLLClockFreq + 52
        0x00002430:    2002        .       MOVS     r0,#2
        0x00002432:    e000        ..      B        0x2436 ; CLK_GetPLLClockFreq + 54
        0x00002434:    2001        .       MOVS     r0,#1
        0x00002436:    9001        ..      STR      r0,[sp,#4]
        0x00002438:    2003        .       MOVS     r0,#3
        0x0000243a:    0200        ..      LSLS     r0,r0,#8
        0x0000243c:    4028        (@      ANDS     r0,r0,r5
        0x0000243e:    0a06        ..      LSRS     r6,r0,#8
        0x00002440:    2e00        ..      CMP      r6,#0
        0x00002442:    d101        ..      BNE      0x2448 ; CLK_GetPLLClockFreq + 72
        0x00002444:    2402        .$      MOVS     r4,#2
        0x00002446:    e008        ..      B        0x245a ; CLK_GetPLLClockFreq + 90
        0x00002448:    2e01        ..      CMP      r6,#1
        0x0000244a:    d101        ..      BNE      0x2450 ; CLK_GetPLLClockFreq + 80
        0x0000244c:    2404        .$      MOVS     r4,#4
        0x0000244e:    e004        ..      B        0x245a ; CLK_GetPLLClockFreq + 90
        0x00002450:    2e02        ..      CMP      r6,#2
        0x00002452:    d101        ..      BNE      0x2458 ; CLK_GetPLLClockFreq + 88
        0x00002454:    2408        .$      MOVS     r4,#8
        0x00002456:    e000        ..      B        0x245a ; CLK_GetPLLClockFreq + 90
        0x00002458:    2410        .$      MOVS     r4,#0x10
        0x0000245a:    06a9        ..      LSLS     r1,r5,#26
        0x0000245c:    0e89        ..      LSRS     r1,r1,#26
        0x0000245e:    3120         1      ADDS     r1,r1,#0x20
        0x00002460:    4379        yC      MULS     r1,r7,r1
        0x00002462:    4608        .F      MOV      r0,r1
        0x00002464:    4621        !F      MOV      r1,r4
        0x00002466:    f000fe61    ..a.    BL       __aeabi_uidiv ; 0x312c
        0x0000246a:    9000        ..      STR      r0,[sp,#0]
        0x0000246c:    9901        ..      LDR      r1,[sp,#4]
        0x0000246e:    f000fe5d    ..].    BL       __aeabi_uidiv ; 0x312c
        0x00002472:    9002        ..      STR      r0,[sp,#8]
        0x00002474:    9802        ..      LDR      r0,[sp,#8]
        0x00002476:    e7cd        ..      B        0x2414 ; CLK_GetPLLClockFreq + 20
    CLK_WaitClockReady
        0x00002478:    4601        .F      MOV      r1,r0
        0x0000247a:    4abe        .J      LDR      r2,[pc,#760] ; [0x2774] = 0xea60
        0x0000247c:    e005        ..      B        0x248a ; CLK_WaitClockReady + 18
        0x0000247e:    4610        .F      MOV      r0,r2
        0x00002480:    1e52        R.      SUBS     r2,r2,#1
        0x00002482:    2800        .(      CMP      r0,#0
        0x00002484:    dc01        ..      BGT      0x248a ; CLK_WaitClockReady + 18
        0x00002486:    2000        .       MOVS     r0,#0
        0x00002488:    4770        pG      BX       lr
        0x0000248a:    48b6        .H      LDR      r0,[pc,#728] ; [0x2764] = 0x50000200
        0x0000248c:    68c0        .h      LDR      r0,[r0,#0xc]
        0x0000248e:    4008        .@      ANDS     r0,r0,r1
        0x00002490:    4288        .B      CMP      r0,r1
        0x00002492:    d1f4        ..      BNE      0x247e ; CLK_WaitClockReady + 6
        0x00002494:    2001        .       MOVS     r0,#1
        0x00002496:    e7f7        ..      B        0x2488 ; CLK_WaitClockReady + 16
    CLK_SetHCLK
        0x00002498:    b570        p.      PUSH     {r4-r6,lr}
        0x0000249a:    4604        .F      MOV      r4,r0
        0x0000249c:    460d        .F      MOV      r5,r1
        0x0000249e:    48b1        .H      LDR      r0,[pc,#708] ; [0x2764] = 0x50000200
        0x000024a0:    68c0        .h      LDR      r0,[r0,#0xc]
        0x000024a2:    2110        .!      MOVS     r1,#0x10
        0x000024a4:    4008        .@      ANDS     r0,r0,r1
        0x000024a6:    4606        .F      MOV      r6,r0
        0x000024a8:    48ae        .H      LDR      r0,[pc,#696] ; [0x2764] = 0x50000200
        0x000024aa:    6800        .h      LDR      r0,[r0,#0]
        0x000024ac:    2104        .!      MOVS     r1,#4
        0x000024ae:    4308        .C      ORRS     r0,r0,r1
        0x000024b0:    49ac        .I      LDR      r1,[pc,#688] ; [0x2764] = 0x50000200
        0x000024b2:    6008        .`      STR      r0,[r1,#0]
        0x000024b4:    2010        .       MOVS     r0,#0x10
        0x000024b6:    f7ffffdf    ....    BL       CLK_WaitClockReady ; 0x2478
        0x000024ba:    48aa        .H      LDR      r0,[pc,#680] ; [0x2764] = 0x50000200
        0x000024bc:    6900        .i      LDR      r0,[r0,#0x10]
        0x000024be:    08c0        ..      LSRS     r0,r0,#3
        0x000024c0:    00c0        ..      LSLS     r0,r0,#3
        0x000024c2:    1dc0        ..      ADDS     r0,r0,#7
        0x000024c4:    49a7        .I      LDR      r1,[pc,#668] ; [0x2764] = 0x50000200
        0x000024c6:    6108        .a      STR      r0,[r1,#0x10]
        0x000024c8:    4608        .F      MOV      r0,r1
        0x000024ca:    69c0        .i      LDR      r0,[r0,#0x1c]
        0x000024cc:    0900        ..      LSRS     r0,r0,#4
        0x000024ce:    0100        ..      LSLS     r0,r0,#4
        0x000024d0:    4328        (C      ORRS     r0,r0,r5
        0x000024d2:    61c8        .a      STR      r0,[r1,#0x1c]
        0x000024d4:    4608        .F      MOV      r0,r1
        0x000024d6:    6900        .i      LDR      r0,[r0,#0x10]
        0x000024d8:    08c0        ..      LSRS     r0,r0,#3
        0x000024da:    00c0        ..      LSLS     r0,r0,#3
        0x000024dc:    4320         C      ORRS     r0,r0,r4
        0x000024de:    6108        .a      STR      r0,[r1,#0x10]
        0x000024e0:    f7fdff1e    ....    BL       SystemCoreClockUpdate ; 0x320
        0x000024e4:    2e00        ..      CMP      r6,#0
        0x000024e6:    d105        ..      BNE      0x24f4 ; CLK_SetHCLK + 92
        0x000024e8:    489e        .H      LDR      r0,[pc,#632] ; [0x2764] = 0x50000200
        0x000024ea:    6800        .h      LDR      r0,[r0,#0]
        0x000024ec:    2110        .!      MOVS     r1,#0x10
        0x000024ee:    4388        .C      BICS     r0,r0,r1
        0x000024f0:    499c        .I      LDR      r1,[pc,#624] ; [0x2764] = 0x50000200
        0x000024f2:    6008        .`      STR      r0,[r1,#0]
        0x000024f4:    bd70        p.      POP      {r4-r6,pc}
    CLK_EnablePLL
        0x000024f6:    b5f3        ..      PUSH     {r0,r1,r4-r7,lr}
        0x000024f8:    b087        ..      SUB      sp,sp,#0x1c
        0x000024fa:    460f        .F      MOV      r7,r1
        0x000024fc:    489e        .H      LDR      r0,[pc,#632] ; [0x2778] = 0x5bcc
        0x000024fe:    4601        .F      MOV      r1,r0
        0x00002500:    c90e        ..      LDM      r1,{r1-r3}
        0x00002502:    68c0        .h      LDR      r0,[r0,#0xc]
        0x00002504:    ac01        ..      ADD      r4,sp,#4
        0x00002506:    c40e        ..      STM      r4!,{r1-r3}
        0x00002508:    9004        ..      STR      r0,[sp,#0x10]
        0x0000250a:    489c        .H      LDR      r0,[pc,#624] ; [0x277c] = 0x2dc6c00
        0x0000250c:    4287        .B      CMP      r7,r0
        0x0000250e:    d201        ..      BCS      0x2514 ; CLK_EnablePLL + 30
        0x00002510:    4607        .F      MOV      r7,r0
        0x00002512:    e003        ..      B        0x251c ; CLK_EnablePLL + 38
        0x00002514:    489a        .H      LDR      r0,[pc,#616] ; [0x2780] = 0x7270e00
        0x00002516:    4287        .B      CMP      r7,r0
        0x00002518:    d900        ..      BLS      0x251c ; CLK_EnablePLL + 38
        0x0000251a:    4607        .F      MOV      r7,r0
        0x0000251c:    2101        .!      MOVS     r1,#1
        0x0000251e:    0449        I.      LSLS     r1,r1,#17
        0x00002520:    9807        ..      LDR      r0,[sp,#0x1c]
        0x00002522:    4288        .B      CMP      r0,r1
        0x00002524:    d004        ..      BEQ      0x2530 ; CLK_EnablePLL + 58
        0x00002526:    2000        .       MOVS     r0,#0
        0x00002528:    9005        ..      STR      r0,[sp,#0x14]
        0x0000252a:    4890        .H      LDR      r0,[pc,#576] ; [0x276c] = 0xb71b00
        0x0000252c:    9006        ..      STR      r0,[sp,#0x18]
        0x0000252e:    e004        ..      B        0x253a ; CLK_EnablePLL + 68
        0x00002530:    2001        .       MOVS     r0,#1
        0x00002532:    0440        @.      LSLS     r0,r0,#17
        0x00002534:    9005        ..      STR      r0,[sp,#0x14]
        0x00002536:    488d        .H      LDR      r0,[pc,#564] ; [0x276c] = 0xb71b00
        0x00002538:    9006        ..      STR      r0,[sp,#0x18]
        0x0000253a:    4992        .I      LDR      r1,[pc,#584] ; [0x2784] = 0xf4240
        0x0000253c:    4638        8F      MOV      r0,r7
        0x0000253e:    f000fdf5    ....    BL       __aeabi_uidiv ; 0x312c
        0x00002542:    4605        .F      MOV      r5,r0
        0x00002544:    498f        .I      LDR      r1,[pc,#572] ; [0x2784] = 0xf4240
        0x00002546:    9806        ..      LDR      r0,[sp,#0x18]
        0x00002548:    f000fdf0    ....    BL       __aeabi_uidiv ; 0x312c
        0x0000254c:    4604        .F      MOV      r4,r0
        0x0000254e:    210c        .!      MOVS     r1,#0xc
        0x00002550:    9806        ..      LDR      r0,[sp,#0x18]
        0x00002552:    f000fdeb    ....    BL       __aeabi_uidiv ; 0x312c
        0x00002556:    2900        .)      CMP      r1,#0
        0x00002558:    d109        ..      BNE      0x256e ; CLK_EnablePLL + 120
        0x0000255a:    2103        .!      MOVS     r1,#3
        0x0000255c:    4628        (F      MOV      r0,r5
        0x0000255e:    f000fde5    ....    BL       __aeabi_uidiv ; 0x312c
        0x00002562:    0085        ..      LSLS     r5,r0,#2
        0x00002564:    2103        .!      MOVS     r1,#3
        0x00002566:    4620         F      MOV      r0,r4
        0x00002568:    f000fde0    ....    BL       __aeabi_uidiv ; 0x312c
        0x0000256c:    0084        ..      LSLS     r4,r0,#2
        0x0000256e:    e001        ..      B        0x2574 ; CLK_EnablePLL + 126
        0x00002570:    0864        d.      LSRS     r4,r4,#1
        0x00002572:    086d        m.      LSRS     r5,r5,#1
        0x00002574:    2c10        .,      CMP      r4,#0x10
        0x00002576:    d8fb        ..      BHI      0x2570 ; CLK_EnablePLL + 122
        0x00002578:    2d5f        _-      CMP      r5,#0x5f
        0x0000257a:    d8f9        ..      BHI      0x2570 ; CLK_EnablePLL + 122
        0x0000257c:    2603        .&      MOVS     r6,#3
        0x0000257e:    e006        ..      B        0x258e ; CLK_EnablePLL + 152
        0x00002580:    00b0        ..      LSLS     r0,r6,#2
        0x00002582:    a901        ..      ADD      r1,sp,#4
        0x00002584:    5808        .X      LDR      r0,[r1,r0]
        0x00002586:    42a0        .B      CMP      r0,r4
        0x00002588:    d100        ..      BNE      0x258c ; CLK_EnablePLL + 150
        0x0000258a:    e002        ..      B        0x2592 ; CLK_EnablePLL + 156
        0x0000258c:    1e76        v.      SUBS     r6,r6,#1
        0x0000258e:    2e00        ..      CMP      r6,#0
        0x00002590:    daf6        ..      BGE      0x2580 ; CLK_EnablePLL + 138
        0x00002592:    bf00        ..      NOP      
        0x00002594:    0230        0.      LSLS     r0,r6,#8
        0x00002596:    9905        ..      LDR      r1,[sp,#0x14]
        0x00002598:    4308        .C      ORRS     r0,r0,r1
        0x0000259a:    4629        )F      MOV      r1,r5
        0x0000259c:    3920         9      SUBS     r1,r1,#0x20
        0x0000259e:    4308        .C      ORRS     r0,r0,r1
        0x000025a0:    4970        pI      LDR      r1,[pc,#448] ; [0x2764] = 0x50000200
        0x000025a2:    6248        Hb      STR      r0,[r1,#0x24]
        0x000025a4:    4608        .F      MOV      r0,r1
        0x000025a6:    6a40        @j      LDR      r0,[r0,#0x24]
        0x000025a8:    01c9        ..      LSLS     r1,r1,#7
        0x000025aa:    4388        .C      BICS     r0,r0,r1
        0x000025ac:    496d        mI      LDR      r1,[pc,#436] ; [0x2764] = 0x50000200
        0x000025ae:    6248        Hb      STR      r0,[r1,#0x24]
        0x000025b0:    2004        .       MOVS     r0,#4
        0x000025b2:    f7ffff61    ..a.    BL       CLK_WaitClockReady ; 0x2478
        0x000025b6:    f7ffff23    ..#.    BL       CLK_GetPLLClockFreq ; 0x2400
        0x000025ba:    b009        ..      ADD      sp,sp,#0x24
        0x000025bc:    bdf0        ..      POP      {r4-r7,pc}
    CLK_EnableXtalRC
        0x000025be:    b510        ..      PUSH     {r4,lr}
        0x000025c0:    4604        .F      MOV      r4,r0
        0x000025c2:    4868        hH      LDR      r0,[pc,#416] ; [0x2764] = 0x50000200
        0x000025c4:    6800        .h      LDR      r0,[r0,#0]
        0x000025c6:    4320         C      ORRS     r0,r0,r4
        0x000025c8:    4966        fI      LDR      r1,[pc,#408] ; [0x2764] = 0x50000200
        0x000025ca:    6008        .`      STR      r0,[r1,#0]
        0x000025cc:    07e0        ..      LSLS     r0,r4,#31
        0x000025ce:    0fc0        ..      LSRS     r0,r0,#31
        0x000025d0:    2800        .(      CMP      r0,#0
        0x000025d2:    d002        ..      BEQ      0x25da ; CLK_EnableXtalRC + 28
        0x000025d4:    2001        .       MOVS     r0,#1
        0x000025d6:    f7ffff4f    ..O.    BL       CLK_WaitClockReady ; 0x2478
        0x000025da:    2002        .       MOVS     r0,#2
        0x000025dc:    4020         @      ANDS     r0,r0,r4
        0x000025de:    2800        .(      CMP      r0,#0
        0x000025e0:    d002        ..      BEQ      0x25e8 ; CLK_EnableXtalRC + 42
        0x000025e2:    2002        .       MOVS     r0,#2
        0x000025e4:    f7ffff48    ..H.    BL       CLK_WaitClockReady ; 0x2478
        0x000025e8:    2004        .       MOVS     r0,#4
        0x000025ea:    4020         @      ANDS     r0,r0,r4
        0x000025ec:    2800        .(      CMP      r0,#0
        0x000025ee:    d002        ..      BEQ      0x25f6 ; CLK_EnableXtalRC + 56
        0x000025f0:    2010        .       MOVS     r0,#0x10
        0x000025f2:    f7ffff41    ..A.    BL       CLK_WaitClockReady ; 0x2478
        0x000025f6:    2008        .       MOVS     r0,#8
        0x000025f8:    4020         @      ANDS     r0,r0,r4
        0x000025fa:    2800        .(      CMP      r0,#0
        0x000025fc:    d002        ..      BEQ      0x2604 ; CLK_EnableXtalRC + 70
        0x000025fe:    2008        .       MOVS     r0,#8
        0x00002600:    f7ffff3a    ..:.    BL       CLK_WaitClockReady ; 0x2478
        0x00002604:    bd10        ..      POP      {r4,pc}
    CLK_SetCoreClock
        0x00002606:    b570        p.      PUSH     {r4-r6,lr}
        0x00002608:    4604        .F      MOV      r4,r0
        0x0000260a:    4856        VH      LDR      r0,[pc,#344] ; [0x2764] = 0x50000200
        0x0000260c:    68c0        .h      LDR      r0,[r0,#0xc]
        0x0000260e:    2110        .!      MOVS     r1,#0x10
        0x00002610:    4008        .@      ANDS     r0,r0,r1
        0x00002612:    4605        .F      MOV      r5,r0
        0x00002614:    4855        UH      LDR      r0,[pc,#340] ; [0x276c] = 0xb71b00
        0x00002616:    4284        .B      CMP      r4,r0
        0x00002618:    d109        ..      BNE      0x262e ; CLK_SetCoreClock + 40
        0x0000261a:    2004        .       MOVS     r0,#4
        0x0000261c:    f7ffffcf    ....    BL       CLK_EnableXtalRC ; 0x25be
        0x00002620:    2100        .!      MOVS     r1,#0
        0x00002622:    2007        .       MOVS     r0,#7
        0x00002624:    f7ffff38    ..8.    BL       CLK_SetHCLK ; 0x2498
        0x00002628:    4851        QH      LDR      r0,[pc,#324] ; [0x2770] = 0x20000000
        0x0000262a:    6800        .h      LDR      r0,[r0,#0]
        0x0000262c:    bd70        p.      POP      {r4-r6,pc}
        0x0000262e:    4856        VH      LDR      r0,[pc,#344] ; [0x2788] = 0x16e3600
        0x00002630:    4284        .B      CMP      r4,r0
        0x00002632:    d200        ..      BCS      0x2636 ; CLK_SetCoreClock + 48
        0x00002634:    4604        .F      MOV      r4,r0
        0x00002636:    4855        UH      LDR      r0,[pc,#340] ; [0x278c] = 0x280de80
        0x00002638:    4284        .B      CMP      r4,r0
        0x0000263a:    d900        ..      BLS      0x263e ; CLK_SetCoreClock + 56
        0x0000263c:    4604        .F      MOV      r4,r0
        0x0000263e:    4849        IH      LDR      r0,[pc,#292] ; [0x2764] = 0x50000200
        0x00002640:    6800        .h      LDR      r0,[r0,#0]
        0x00002642:    07c0        ..      LSLS     r0,r0,#31
        0x00002644:    0fc0        ..      LSRS     r0,r0,#31
        0x00002646:    2800        .(      CMP      r0,#0
        0x00002648:    d004        ..      BEQ      0x2654 ; CLK_SetCoreClock + 78
        0x0000264a:    0061        a.      LSLS     r1,r4,#1
        0x0000264c:    2000        .       MOVS     r0,#0
        0x0000264e:    f7ffff52    ..R.    BL       CLK_EnablePLL ; 0x24f6
        0x00002652:    e009        ..      B        0x2668 ; CLK_SetCoreClock + 98
        0x00002654:    0061        a.      LSLS     r1,r4,#1
        0x00002656:    2001        .       MOVS     r0,#1
        0x00002658:    0440        @.      LSLS     r0,r0,#17
        0x0000265a:    f7ffff4c    ..L.    BL       CLK_EnablePLL ; 0x24f6
        0x0000265e:    4841        AH      LDR      r0,[pc,#260] ; [0x2764] = 0x50000200
        0x00002660:    68c0        .h      LDR      r0,[r0,#0xc]
        0x00002662:    2110        .!      MOVS     r1,#0x10
        0x00002664:    4008        .@      ANDS     r0,r0,r1
        0x00002666:    4605        .F      MOV      r5,r0
        0x00002668:    2101        .!      MOVS     r1,#1
        0x0000266a:    2002        .       MOVS     r0,#2
        0x0000266c:    f7ffff14    ....    BL       CLK_SetHCLK ; 0x2498
        0x00002670:    2d00        .-      CMP      r5,#0
        0x00002672:    d105        ..      BNE      0x2680 ; CLK_SetCoreClock + 122
        0x00002674:    483b        ;H      LDR      r0,[pc,#236] ; [0x2764] = 0x50000200
        0x00002676:    6800        .h      LDR      r0,[r0,#0]
        0x00002678:    2104        .!      MOVS     r1,#4
        0x0000267a:    4388        .C      BICS     r0,r0,r1
        0x0000267c:    4939        9I      LDR      r1,[pc,#228] ; [0x2764] = 0x50000200
        0x0000267e:    6008        .`      STR      r0,[r1,#0]
        0x00002680:    483b        ;H      LDR      r0,[pc,#236] ; [0x2770] = 0x20000000
        0x00002682:    6800        .h      LDR      r0,[r0,#0]
        0x00002684:    e7d2        ..      B        0x262c ; CLK_SetCoreClock + 38
    CLK_SetModuleClock
        0x00002686:    b5f0        ..      PUSH     {r4-r7,lr}
        0x00002688:    460b        .F      MOV      r3,r1
        0x0000268a:    2100        .!      MOVS     r1,#0
        0x0000268c:    2400        .$      MOVS     r4,#0
        0x0000268e:    2500        .%      MOVS     r5,#0
        0x00002690:    0386        ..      LSLS     r6,r0,#14
        0x00002692:    0e36        6.      LSRS     r6,r6,#24
        0x00002694:    2e00        ..      CMP      r6,#0
        0x00002696:    d010        ..      BEQ      0x26ba ; CLK_SetModuleClock + 52
        0x00002698:    0306        ..      LSLS     r6,r0,#12
        0x0000269a:    0fb6        ..      LSRS     r6,r6,#30
        0x0000269c:    00b6        ..      LSLS     r6,r6,#2
        0x0000269e:    4f31        1O      LDR      r7,[pc,#196] ; [0x2764] = 0x50000200
        0x000026a0:    371c        .7      ADDS     r7,r7,#0x1c
        0x000026a2:    19f5        ..      ADDS     r5,r6,r7
        0x000026a4:    6829        )h      LDR      r1,[r5,#0]
        0x000026a6:    0386        ..      LSLS     r6,r0,#14
        0x000026a8:    0e37        7.      LSRS     r7,r6,#24
        0x000026aa:    0586        ..      LSLS     r6,r0,#22
        0x000026ac:    0ef6        ..      LSRS     r6,r6,#27
        0x000026ae:    40b7        .@      LSLS     r7,r7,r6
        0x000026b0:    460e        .F      MOV      r6,r1
        0x000026b2:    43be        .C      BICS     r6,r6,r7
        0x000026b4:    4316        .C      ORRS     r6,r6,r2
        0x000026b6:    4631        1F      MOV      r1,r6
        0x000026b8:    6029        )`      STR      r1,[r5,#0]
        0x000026ba:    00c6        ..      LSLS     r6,r0,#3
        0x000026bc:    0f36        6.      LSRS     r6,r6,#28
        0x000026be:    2e00        ..      CMP      r6,#0
        0x000026c0:    d010        ..      BEQ      0x26e4 ; CLK_SetModuleClock + 94
        0x000026c2:    0046        F.      LSLS     r6,r0,#1
        0x000026c4:    0fb6        ..      LSRS     r6,r6,#30
        0x000026c6:    00b6        ..      LSLS     r6,r6,#2
        0x000026c8:    4f26        &O      LDR      r7,[pc,#152] ; [0x2764] = 0x50000200
        0x000026ca:    3710        .7      ADDS     r7,r7,#0x10
        0x000026cc:    19f4        ..      ADDS     r4,r6,r7
        0x000026ce:    6821        !h      LDR      r1,[r4,#0]
        0x000026d0:    00c6        ..      LSLS     r6,r0,#3
        0x000026d2:    0f37        7.      LSRS     r7,r6,#28
        0x000026d4:    01c6        ..      LSLS     r6,r0,#7
        0x000026d6:    0ef6        ..      LSRS     r6,r6,#27
        0x000026d8:    40b7        .@      LSLS     r7,r7,r6
        0x000026da:    460e        .F      MOV      r6,r1
        0x000026dc:    43be        .C      BICS     r6,r6,r7
        0x000026de:    431e        .C      ORRS     r6,r6,r3
        0x000026e0:    4631        1F      MOV      r1,r6
        0x000026e2:    6021        !`      STR      r1,[r4,#0]
        0x000026e4:    bdf0        ..      POP      {r4-r7,pc}
    CLK_DisableXtalRC
        0x000026e6:    491f        .I      LDR      r1,[pc,#124] ; [0x2764] = 0x50000200
        0x000026e8:    6809        .h      LDR      r1,[r1,#0]
        0x000026ea:    4381        .C      BICS     r1,r1,r0
        0x000026ec:    4a1d        .J      LDR      r2,[pc,#116] ; [0x2764] = 0x50000200
        0x000026ee:    6011        .`      STR      r1,[r2,#0]
        0x000026f0:    4770        pG      BX       lr
    CLK_EnableModuleClock
        0x000026f2:    0fc1        ..      LSRS     r1,r0,#31
        0x000026f4:    0089        ..      LSLS     r1,r1,#2
        0x000026f6:    4a1b        .J      LDR      r2,[pc,#108] ; [0x2764] = 0x50000200
        0x000026f8:    1889        ..      ADDS     r1,r1,r2
        0x000026fa:    6849        Ih      LDR      r1,[r1,#4]
        0x000026fc:    06c3        ..      LSLS     r3,r0,#27
        0x000026fe:    0edb        ..      LSRS     r3,r3,#27
        0x00002700:    2201        ."      MOVS     r2,#1
        0x00002702:    409a        .@      LSLS     r2,r2,r3
        0x00002704:    4311        .C      ORRS     r1,r1,r2
        0x00002706:    0fc2        ..      LSRS     r2,r0,#31
        0x00002708:    0092        ..      LSLS     r2,r2,#2
        0x0000270a:    4b16        .K      LDR      r3,[pc,#88] ; [0x2764] = 0x50000200
        0x0000270c:    18d2        ..      ADDS     r2,r2,r3
        0x0000270e:    6051        Q`      STR      r1,[r2,#4]
        0x00002710:    4770        pG      BX       lr
    CLK_DisableModuleClock
        0x00002712:    0fc1        ..      LSRS     r1,r0,#31
        0x00002714:    0089        ..      LSLS     r1,r1,#2
        0x00002716:    4a13        .J      LDR      r2,[pc,#76] ; [0x2764] = 0x50000200
        0x00002718:    1889        ..      ADDS     r1,r1,r2
        0x0000271a:    684a        Jh      LDR      r2,[r1,#4]
        0x0000271c:    06c3        ..      LSLS     r3,r0,#27
        0x0000271e:    0edb        ..      LSRS     r3,r3,#27
        0x00002720:    2101        .!      MOVS     r1,#1
        0x00002722:    4099        .@      LSLS     r1,r1,r3
        0x00002724:    438a        .C      BICS     r2,r2,r1
        0x00002726:    0fc1        ..      LSRS     r1,r0,#31
        0x00002728:    0089        ..      LSLS     r1,r1,#2
        0x0000272a:    4b0e        .K      LDR      r3,[pc,#56] ; [0x2764] = 0x50000200
        0x0000272c:    18c9        ..      ADDS     r1,r1,r3
        0x0000272e:    604a        J`      STR      r2,[r1,#4]
        0x00002730:    4770        pG      BX       lr
    CLK_DisablePLL
        0x00002732:    480c        .H      LDR      r0,[pc,#48] ; [0x2764] = 0x50000200
        0x00002734:    6a40        @j      LDR      r0,[r0,#0x24]
        0x00002736:    2101        .!      MOVS     r1,#1
        0x00002738:    0409        ..      LSLS     r1,r1,#16
        0x0000273a:    4308        .C      ORRS     r0,r0,r1
        0x0000273c:    4909        .I      LDR      r1,[pc,#36] ; [0x2764] = 0x50000200
        0x0000273e:    6248        Hb      STR      r0,[r1,#0x24]
        0x00002740:    4770        pG      BX       lr
    CLK_SysTickDelay
        0x00002742:    4913        .I      LDR      r1,[pc,#76] ; [0x2790] = 0x20000004
        0x00002744:    6809        .h      LDR      r1,[r1,#0]
        0x00002746:    4341        AC      MULS     r1,r0,r1
        0x00002748:    4a12        .J      LDR      r2,[pc,#72] ; [0x2794] = 0xe000e000
        0x0000274a:    6151        Qa      STR      r1,[r2,#0x14]
        0x0000274c:    2100        .!      MOVS     r1,#0
        0x0000274e:    6191        .a      STR      r1,[r2,#0x18]
        0x00002750:    2105        .!      MOVS     r1,#5
        0x00002752:    6111        .a      STR      r1,[r2,#0x10]
        0x00002754:    bf00        ..      NOP      
        0x00002756:    490f        .I      LDR      r1,[pc,#60] ; [0x2794] = 0xe000e000
        0x00002758:    6909        .i      LDR      r1,[r1,#0x10]
        0x0000275a:    2201        ."      MOVS     r2,#1
        0x0000275c:    0412        ..      LSLS     r2,r2,#16
        0x0000275e:    4011        .@      ANDS     r1,r1,r2
        0x00002760:    2900        .)      CMP      r1,#0
        0x00002762:    e019        ..      B        0x2798 ; CLK_SysTickDelay + 86
    $d
        0x00002764:    50000200    ...P    DCD    1342177792
        0x00002768:    e000ed00    ....    DCD    3758157056
        0x0000276c:    00b71b00    ....    DCD    12000000
        0x00002770:    20000000    ...     DCD    536870912
        0x00002774:    0000ea60    `...    DCD    60000
        0x00002778:    00005bcc    .[..    DCD    23500
        0x0000277c:    02dc6c00    .l..    DCD    48000000
        0x00002780:    07270e00    ..'.    DCD    120000000
        0x00002784:    000f4240    @B..    DCD    1000000
        0x00002788:    016e3600    .6n.    DCD    24000000
        0x0000278c:    0280de80    ....    DCD    42000000
        0x00002790:    20000004    ...     DCD    536870916
        0x00002794:    e000e000    ....    DCD    3758153728
    $t
        0x00002798:    d0dd        ..      BEQ      0x2756 ; CLK_SysTickDelay + 20
        0x0000279a:    2100        .!      MOVS     r1,#0
        0x0000279c:    4a12        .J      LDR      r2,[pc,#72] ; [0x27e8] = 0xe000e000
        0x0000279e:    6111        .a      STR      r1,[r2,#0x10]
        0x000027a0:    4770        pG      BX       lr
    CLK_EnableSysTick
        0x000027a2:    2200        ."      MOVS     r2,#0
        0x000027a4:    4b10        .K      LDR      r3,[pc,#64] ; [0x27e8] = 0xe000e000
        0x000027a6:    611a        .a      STR      r2,[r3,#0x10]
        0x000027a8:    2801        .(      CMP      r0,#1
        0x000027aa:    d106        ..      BNE      0x27ba ; CLK_EnableSysTick + 24
        0x000027ac:    461a        .F      MOV      r2,r3
        0x000027ae:    6912        .i      LDR      r2,[r2,#0x10]
        0x000027b0:    2304        .#      MOVS     r3,#4
        0x000027b2:    431a        .C      ORRS     r2,r2,r3
        0x000027b4:    4b0c        .K      LDR      r3,[pc,#48] ; [0x27e8] = 0xe000e000
        0x000027b6:    611a        .a      STR      r2,[r3,#0x10]
        0x000027b8:    e005        ..      B        0x27c6 ; CLK_EnableSysTick + 36
        0x000027ba:    4a0b        .J      LDR      r2,[pc,#44] ; [0x27e8] = 0xe000e000
        0x000027bc:    6912        .i      LDR      r2,[r2,#0x10]
        0x000027be:    2304        .#      MOVS     r3,#4
        0x000027c0:    439a        .C      BICS     r2,r2,r3
        0x000027c2:    4b09        .K      LDR      r3,[pc,#36] ; [0x27e8] = 0xe000e000
        0x000027c4:    611a        .a      STR      r2,[r3,#0x10]
        0x000027c6:    4a08        .J      LDR      r2,[pc,#32] ; [0x27e8] = 0xe000e000
        0x000027c8:    6151        Qa      STR      r1,[r2,#0x14]
        0x000027ca:    2200        ."      MOVS     r2,#0
        0x000027cc:    4b06        .K      LDR      r3,[pc,#24] ; [0x27e8] = 0xe000e000
        0x000027ce:    619a        .a      STR      r2,[r3,#0x18]
        0x000027d0:    461a        .F      MOV      r2,r3
        0x000027d2:    6912        .i      LDR      r2,[r2,#0x10]
        0x000027d4:    2301        .#      MOVS     r3,#1
        0x000027d6:    431a        .C      ORRS     r2,r2,r3
        0x000027d8:    4b03        .K      LDR      r3,[pc,#12] ; [0x27e8] = 0xe000e000
        0x000027da:    611a        .a      STR      r2,[r3,#0x10]
        0x000027dc:    4770        pG      BX       lr
    CLK_DisableSysTick
        0x000027de:    2000        .       MOVS     r0,#0
        0x000027e0:    4901        .I      LDR      r1,[pc,#4] ; [0x27e8] = 0xe000e000
        0x000027e2:    6108        .a      STR      r0,[r1,#0x10]
        0x000027e4:    4770        pG      BX       lr
    $d
        0x000027e6:    0000        ..      DCW    0
        0x000027e8:    e000e000    ....    DCD    3758153728
    $t
    .text
    GPIO_SetMode
        0x000027ec:    b570        p.      PUSH     {r4-r6,lr}
        0x000027ee:    4603        .F      MOV      r3,r0
        0x000027f0:    2000        .       MOVS     r0,#0
        0x000027f2:    e00f        ..      B        0x2814 ; GPIO_SetMode + 40
        0x000027f4:    2401        .$      MOVS     r4,#1
        0x000027f6:    4084        .@      LSLS     r4,r4,r0
        0x000027f8:    400c        .@      ANDS     r4,r4,r1
        0x000027fa:    2c00        .,      CMP      r4,#0
        0x000027fc:    d009        ..      BEQ      0x2812 ; GPIO_SetMode + 38
        0x000027fe:    681c        .h      LDR      r4,[r3,#0]
        0x00002800:    0046        F.      LSLS     r6,r0,#1
        0x00002802:    2503        .%      MOVS     r5,#3
        0x00002804:    40b5        .@      LSLS     r5,r5,r6
        0x00002806:    43ac        .C      BICS     r4,r4,r5
        0x00002808:    0046        F.      LSLS     r6,r0,#1
        0x0000280a:    4615        .F      MOV      r5,r2
        0x0000280c:    40b5        .@      LSLS     r5,r5,r6
        0x0000280e:    432c        ,C      ORRS     r4,r4,r5
        0x00002810:    601c        .`      STR      r4,[r3,#0]
        0x00002812:    1c40        @.      ADDS     r0,r0,#1
        0x00002814:    2810        .(      CMP      r0,#0x10
        0x00002816:    d3ed        ..      BCC      0x27f4 ; GPIO_SetMode + 8
        0x00002818:    bd70        p.      POP      {r4-r6,pc}
    GPIO_EnableInt
        0x0000281a:    b510        ..      PUSH     {r4,lr}
        0x0000281c:    6984        .i      LDR      r4,[r0,#0x18]
        0x0000281e:    0e13        ..      LSRS     r3,r2,#24
        0x00002820:    408b        .@      LSLS     r3,r3,r1
        0x00002822:    431c        .C      ORRS     r4,r4,r3
        0x00002824:    6184        .a      STR      r4,[r0,#0x18]
        0x00002826:    69c3        .i      LDR      r3,[r0,#0x1c]
        0x00002828:    0214        ..      LSLS     r4,r2,#8
        0x0000282a:    0a24        $.      LSRS     r4,r4,#8
        0x0000282c:    408c        .@      LSLS     r4,r4,r1
        0x0000282e:    4323        #C      ORRS     r3,r3,r4
        0x00002830:    61c3        .a      STR      r3,[r0,#0x1c]
        0x00002832:    bd10        ..      POP      {r4,pc}
    GPIO_DisableInt
        0x00002834:    6982        .i      LDR      r2,[r0,#0x18]
        0x00002836:    2301        .#      MOVS     r3,#1
        0x00002838:    408b        .@      LSLS     r3,r3,r1
        0x0000283a:    439a        .C      BICS     r2,r2,r3
        0x0000283c:    6182        .a      STR      r2,[r0,#0x18]
        0x0000283e:    69c3        .i      LDR      r3,[r0,#0x1c]
        0x00002840:    4a02        .J      LDR      r2,[pc,#8] ; [0x284c] = 0x10001
        0x00002842:    408a        .@      LSLS     r2,r2,r1
        0x00002844:    4393        .C      BICS     r3,r3,r2
        0x00002846:    61c3        .a      STR      r3,[r0,#0x1c]
        0x00002848:    4770        pG      BX       lr
    $d
        0x0000284a:    0000        ..      DCW    0
        0x0000284c:    00010001    ....    DCD    65537
    $t
    .text
    UART_ClearIntFlag
        0x00002850:    2204        ."      MOVS     r2,#4
        0x00002852:    400a        .@      ANDS     r2,r2,r1
        0x00002854:    2a00        .*      CMP      r2,#0
        0x00002856:    d007        ..      BEQ      0x2868 ; UART_ClearIntFlag + 24
        0x00002858:    6982        .i      LDR      r2,[r0,#0x18]
        0x0000285a:    2360        `#      MOVS     r3,#0x60
        0x0000285c:    431a        .C      ORRS     r2,r2,r3
        0x0000285e:    6182        .a      STR      r2,[r0,#0x18]
        0x00002860:    6942        Bi      LDR      r2,[r0,#0x14]
        0x00002862:    2301        .#      MOVS     r3,#1
        0x00002864:    431a        .C      ORRS     r2,r2,r3
        0x00002866:    6142        Ba      STR      r2,[r0,#0x14]
        0x00002868:    2208        ."      MOVS     r2,#8
        0x0000286a:    400a        .@      ANDS     r2,r2,r1
        0x0000286c:    2a00        .*      CMP      r2,#0
        0x0000286e:    d004        ..      BEQ      0x287a ; UART_ClearIntFlag + 42
        0x00002870:    69c2        .i      LDR      r2,[r0,#0x1c]
        0x00002872:    2301        .#      MOVS     r3,#1
        0x00002874:    049b        ..      LSLS     r3,r3,#18
        0x00002876:    431a        .C      ORRS     r2,r2,r3
        0x00002878:    61c2        .a      STR      r2,[r0,#0x1c]
        0x0000287a:    2220         "      MOVS     r2,#0x20
        0x0000287c:    400a        .@      ANDS     r2,r2,r1
        0x0000287e:    2a00        .*      CMP      r2,#0
        0x00002880:    d004        ..      BEQ      0x288c ; UART_ClearIntFlag + 60
        0x00002882:    6982        .i      LDR      r2,[r0,#0x18]
        0x00002884:    23ff        .#      MOVS     r3,#0xff
        0x00002886:    3302        .3      ADDS     r3,#2
        0x00002888:    431a        .C      ORRS     r2,r2,r3
        0x0000288a:    6182        .a      STR      r2,[r0,#0x18]
        0x0000288c:    2240        @"      MOVS     r2,#0x40
        0x0000288e:    400a        .@      ANDS     r2,r2,r1
        0x00002890:    2a00        .*      CMP      r2,#0
        0x00002892:    d003        ..      BEQ      0x289c ; UART_ClearIntFlag + 76
        0x00002894:    6902        .i      LDR      r2,[r0,#0x10]
        0x00002896:    2340        @#      MOVS     r3,#0x40
        0x00002898:    431a        .C      ORRS     r2,r2,r3
        0x0000289a:    6102        .a      STR      r2,[r0,#0x10]
        0x0000289c:    2280        ."      MOVS     r2,#0x80
        0x0000289e:    400a        .@      ANDS     r2,r2,r1
        0x000028a0:    2a00        .*      CMP      r2,#0
        0x000028a2:    d003        ..      BEQ      0x28ac ; UART_ClearIntFlag + 92
        0x000028a4:    6942        Bi      LDR      r2,[r0,#0x14]
        0x000028a6:    2306        .#      MOVS     r3,#6
        0x000028a8:    431a        .C      ORRS     r2,r2,r3
        0x000028aa:    6142        Ba      STR      r2,[r0,#0x14]
        0x000028ac:    22ff        ."      MOVS     r2,#0xff
        0x000028ae:    3201        .2      ADDS     r2,#1
        0x000028b0:    400a        .@      ANDS     r2,r2,r1
        0x000028b2:    2a00        .*      CMP      r2,#0
        0x000028b4:    d003        ..      BEQ      0x28be ; UART_ClearIntFlag + 110
        0x000028b6:    6942        Bi      LDR      r2,[r0,#0x14]
        0x000028b8:    2338        8#      MOVS     r3,#0x38
        0x000028ba:    431a        .C      ORRS     r2,r2,r3
        0x000028bc:    6142        Ba      STR      r2,[r0,#0x14]
        0x000028be:    4770        pG      BX       lr
    UART_Close
        0x000028c0:    2100        .!      MOVS     r1,#0
        0x000028c2:    60c1        .`      STR      r1,[r0,#0xc]
        0x000028c4:    4770        pG      BX       lr
    UART_DisableFlowCtrl
        0x000028c6:    6841        Ah      LDR      r1,[r0,#4]
        0x000028c8:    2230        0"      MOVS     r2,#0x30
        0x000028ca:    4391        .C      BICS     r1,r1,r2
        0x000028cc:    6041        A`      STR      r1,[r0,#4]
        0x000028ce:    4770        pG      BX       lr
    UART_DisableInt
        0x000028d0:    68c2        .h      LDR      r2,[r0,#0xc]
        0x000028d2:    438a        .C      BICS     r2,r2,r1
        0x000028d4:    60c2        .`      STR      r2,[r0,#0xc]
        0x000028d6:    4770        pG      BX       lr
    UART_EnableFlowCtrl
        0x000028d8:    69c1        .i      LDR      r1,[r0,#0x1c]
        0x000028da:    4aa6        .J      LDR      r2,[pc,#664] ; [0x2b74] = 0x10001
        0x000028dc:    4311        .C      ORRS     r1,r1,r2
        0x000028de:    61c1        .a      STR      r1,[r0,#0x1c]
        0x000028e0:    6841        Ah      LDR      r1,[r0,#4]
        0x000028e2:    2230        0"      MOVS     r2,#0x30
        0x000028e4:    4311        .C      ORRS     r1,r1,r2
        0x000028e6:    6041        A`      STR      r1,[r0,#4]
        0x000028e8:    4770        pG      BX       lr
    UART_EnableInt
        0x000028ea:    68c2        .h      LDR      r2,[r0,#0xc]
        0x000028ec:    430a        .C      ORRS     r2,r2,r1
        0x000028ee:    60c2        .`      STR      r2,[r0,#0xc]
        0x000028f0:    4770        pG      BX       lr
    UART_Open
        0x000028f2:    b5f0        ..      PUSH     {r4-r7,lr}
        0x000028f4:    b087        ..      SUB      sp,sp,#0x1c
        0x000028f6:    4604        .F      MOV      r4,r0
        0x000028f8:    460d        .F      MOV      r5,r1
        0x000028fa:    489f        .H      LDR      r0,[pc,#636] ; [0x2b78] = 0x5bdc
        0x000028fc:    4601        .F      MOV      r1,r0
        0x000028fe:    c90e        ..      LDM      r1,{r1-r3}
        0x00002900:    68c0        .h      LDR      r0,[r0,#0xc]
        0x00002902:    ae02        ..      ADD      r6,sp,#8
        0x00002904:    c60e        ..      STM      r6!,{r1-r3}
        0x00002906:    9005        ..      STR      r0,[sp,#0x14]
        0x00002908:    489c        .H      LDR      r0,[pc,#624] ; [0x2b7c] = 0x50000200
        0x0000290a:    6940        @i      LDR      r0,[r0,#0x14]
        0x0000290c:    0780        ..      LSLS     r0,r0,#30
        0x0000290e:    0f80        ..      LSRS     r0,r0,#30
        0x00002910:    9006        ..      STR      r0,[sp,#0x18]
        0x00002912:    9806        ..      LDR      r0,[sp,#0x18]
        0x00002914:    0080        ..      LSLS     r0,r0,#2
        0x00002916:    a902        ..      ADD      r1,sp,#8
        0x00002918:    580f        .X      LDR      r7,[r1,r0]
        0x0000291a:    4898        .H      LDR      r0,[pc,#608] ; [0x2b7c] = 0x50000200
        0x0000291c:    69c0        .i      LDR      r0,[r0,#0x1c]
        0x0000291e:    210f        .!      MOVS     r1,#0xf
        0x00002920:    0209        ..      LSLS     r1,r1,#8
        0x00002922:    4008        .@      ANDS     r0,r0,r1
        0x00002924:    0a00        ..      LSRS     r0,r0,#8
        0x00002926:    1c40        @.      ADDS     r0,r0,#1
        0x00002928:    9001        ..      STR      r0,[sp,#4]
        0x0000292a:    2f00        ./      CMP      r7,#0
        0x0000292c:    d107        ..      BNE      0x293e ; UART_Open + 76
        0x0000292e:    f7fdfc99    ....    BL       SysGet_PLLClockFreq ; 0x264
        0x00002932:    9000        ..      STR      r0,[sp,#0]
        0x00002934:    9901        ..      LDR      r1,[sp,#4]
        0x00002936:    f000fbf9    ....    BL       __aeabi_uidiv ; 0x312c
        0x0000293a:    4607        .F      MOV      r7,r0
        0x0000293c:    e004        ..      B        0x2948 ; UART_Open + 86
        0x0000293e:    4638        8F      MOV      r0,r7
        0x00002940:    9901        ..      LDR      r1,[sp,#4]
        0x00002942:    f000fbf3    ....    BL       __aeabi_uidiv ; 0x312c
        0x00002946:    4607        .F      MOV      r7,r0
        0x00002948:    2000        .       MOVS     r0,#0
        0x0000294a:    63a0        .c      STR      r0,[r4,#0x38]
        0x0000294c:    2003        .       MOVS     r0,#3
        0x0000294e:    60a0        .`      STR      r0,[r4,#8]
        0x00002950:    2d00        .-      CMP      r5,#0
        0x00002952:    d016        ..      BEQ      0x2982 ; UART_Open + 144
        0x00002954:    0869        i.      LSRS     r1,r5,#1
        0x00002956:    19c8        ..      ADDS     r0,r1,r7
        0x00002958:    4629        )F      MOV      r1,r5
        0x0000295a:    f000fbe7    ....    BL       __aeabi_uidiv ; 0x312c
        0x0000295e:    1e46        F.      SUBS     r6,r0,#1
        0x00002960:    4884        .H      LDR      r0,[pc,#528] ; [0x2b74] = 0x10001
        0x00002962:    1e80        ..      SUBS     r0,r0,#2
        0x00002964:    4286        .B      CMP      r6,r0
        0x00002966:    d90b        ..      BLS      0x2980 ; UART_Open + 142
        0x00002968:    00e9        ..      LSLS     r1,r5,#3
        0x0000296a:    19c8        ..      ADDS     r0,r1,r7
        0x0000296c:    4629        )F      MOV      r1,r5
        0x0000296e:    f000fbdd    ....    BL       __aeabi_uidiv ; 0x312c
        0x00002972:    0900        ..      LSRS     r0,r0,#4
        0x00002974:    1e40        @.      SUBS     r0,r0,#1
        0x00002976:    2101        .!      MOVS     r1,#1
        0x00002978:    07c9        ..      LSLS     r1,r1,#31
        0x0000297a:    4308        .C      ORRS     r0,r0,r1
        0x0000297c:    6260        `b      STR      r0,[r4,#0x24]
        0x0000297e:    e000        ..      B        0x2982 ; UART_Open + 144
        0x00002980:    6266        fb      STR      r6,[r4,#0x24]
        0x00002982:    b007        ..      ADD      sp,sp,#0x1c
        0x00002984:    bdf0        ..      POP      {r4-r7,pc}
    UART_Read
        0x00002986:    b570        p.      PUSH     {r4-r6,lr}
        0x00002988:    4603        .F      MOV      r3,r0
        0x0000298a:    460c        .F      MOV      r4,r1
        0x0000298c:    2100        .!      MOVS     r1,#0
        0x0000298e:    e010        ..      B        0x29b2 ; UART_Read + 44
        0x00002990:    2500        .%      MOVS     r5,#0
        0x00002992:    e006        ..      B        0x29a2 ; UART_Read + 28
        0x00002994:    1c6d        m.      ADDS     r5,r5,#1
        0x00002996:    2001        .       MOVS     r0,#1
        0x00002998:    0780        ..      LSLS     r0,r0,#30
        0x0000299a:    4285        .B      CMP      r5,r0
        0x0000299c:    d301        ..      BCC      0x29a2 ; UART_Read + 28
        0x0000299e:    2000        .       MOVS     r0,#0
        0x000029a0:    bd70        p.      POP      {r4-r6,pc}
        0x000029a2:    6998        .i      LDR      r0,[r3,#0x18]
        0x000029a4:    2602        .&      MOVS     r6,#2
        0x000029a6:    4030        0@      ANDS     r0,r0,r6
        0x000029a8:    2800        .(      CMP      r0,#0
        0x000029aa:    d1f3        ..      BNE      0x2994 ; UART_Read + 14
        0x000029ac:    6818        .h      LDR      r0,[r3,#0]
        0x000029ae:    5460        `T      STRB     r0,[r4,r1]
        0x000029b0:    1c49        I.      ADDS     r1,r1,#1
        0x000029b2:    4291        .B      CMP      r1,r2
        0x000029b4:    d3ec        ..      BCC      0x2990 ; UART_Read + 10
        0x000029b6:    4608        .F      MOV      r0,r1
        0x000029b8:    e7f2        ..      B        0x29a0 ; UART_Read + 26
    UART_SetLine_Config
        0x000029ba:    b5ff        ..      PUSH     {r0-r7,lr}
        0x000029bc:    b087        ..      SUB      sp,sp,#0x1c
        0x000029be:    4604        .F      MOV      r4,r0
        0x000029c0:    460d        .F      MOV      r5,r1
        0x000029c2:    486d        mH      LDR      r0,[pc,#436] ; [0x2b78] = 0x5bdc
        0x000029c4:    3010        .0      ADDS     r0,r0,#0x10
        0x000029c6:    4601        .F      MOV      r1,r0
        0x000029c8:    c90e        ..      LDM      r1,{r1-r3}
        0x000029ca:    68c0        .h      LDR      r0,[r0,#0xc]
        0x000029cc:    ae02        ..      ADD      r6,sp,#8
        0x000029ce:    c60e        ..      STM      r6!,{r1-r3}
        0x000029d0:    9005        ..      STR      r0,[sp,#0x14]
        0x000029d2:    2700        .'      MOVS     r7,#0
        0x000029d4:    4869        iH      LDR      r0,[pc,#420] ; [0x2b7c] = 0x50000200
        0x000029d6:    6940        @i      LDR      r0,[r0,#0x14]
        0x000029d8:    0780        ..      LSLS     r0,r0,#30
        0x000029da:    0f80        ..      LSRS     r0,r0,#30
        0x000029dc:    9006        ..      STR      r0,[sp,#0x18]
        0x000029de:    9806        ..      LDR      r0,[sp,#0x18]
        0x000029e0:    0080        ..      LSLS     r0,r0,#2
        0x000029e2:    a902        ..      ADD      r1,sp,#8
        0x000029e4:    580e        .X      LDR      r6,[r1,r0]
        0x000029e6:    4865        eH      LDR      r0,[pc,#404] ; [0x2b7c] = 0x50000200
        0x000029e8:    69c0        .i      LDR      r0,[r0,#0x1c]
        0x000029ea:    210f        .!      MOVS     r1,#0xf
        0x000029ec:    0209        ..      LSLS     r1,r1,#8
        0x000029ee:    4008        .@      ANDS     r0,r0,r1
        0x000029f0:    0a00        ..      LSRS     r0,r0,#8
        0x000029f2:    1c40        @.      ADDS     r0,r0,#1
        0x000029f4:    9001        ..      STR      r0,[sp,#4]
        0x000029f6:    2e00        ..      CMP      r6,#0
        0x000029f8:    d107        ..      BNE      0x2a0a ; UART_SetLine_Config + 80
        0x000029fa:    f7fdfc33    ..3.    BL       SysGet_PLLClockFreq ; 0x264
        0x000029fe:    9000        ..      STR      r0,[sp,#0]
        0x00002a00:    9901        ..      LDR      r1,[sp,#4]
        0x00002a02:    f000fb93    ....    BL       __aeabi_uidiv ; 0x312c
        0x00002a06:    4606        .F      MOV      r6,r0
        0x00002a08:    e004        ..      B        0x2a14 ; UART_SetLine_Config + 90
        0x00002a0a:    4630        0F      MOV      r0,r6
        0x00002a0c:    9901        ..      LDR      r1,[sp,#4]
        0x00002a0e:    f000fb8d    ....    BL       __aeabi_uidiv ; 0x312c
        0x00002a12:    4606        .F      MOV      r6,r0
        0x00002a14:    2d00        .-      CMP      r5,#0
        0x00002a16:    d016        ..      BEQ      0x2a46 ; UART_SetLine_Config + 140
        0x00002a18:    0869        i.      LSRS     r1,r5,#1
        0x00002a1a:    1988        ..      ADDS     r0,r1,r6
        0x00002a1c:    4629        )F      MOV      r1,r5
        0x00002a1e:    f000fb85    ....    BL       __aeabi_uidiv ; 0x312c
        0x00002a22:    1e47        G.      SUBS     r7,r0,#1
        0x00002a24:    4853        SH      LDR      r0,[pc,#332] ; [0x2b74] = 0x10001
        0x00002a26:    1e80        ..      SUBS     r0,r0,#2
        0x00002a28:    4287        .B      CMP      r7,r0
        0x00002a2a:    d90b        ..      BLS      0x2a44 ; UART_SetLine_Config + 138
        0x00002a2c:    00e9        ..      LSLS     r1,r5,#3
        0x00002a2e:    1988        ..      ADDS     r0,r1,r6
        0x00002a30:    4629        )F      MOV      r1,r5
        0x00002a32:    f000fb7b    ..{.    BL       __aeabi_uidiv ; 0x312c
        0x00002a36:    0900        ..      LSRS     r0,r0,#4
        0x00002a38:    1e40        @.      SUBS     r0,r0,#1
        0x00002a3a:    2101        .!      MOVS     r1,#1
        0x00002a3c:    07c9        ..      LSLS     r1,r1,#31
        0x00002a3e:    4308        .C      ORRS     r0,r0,r1
        0x00002a40:    6260        `b      STR      r0,[r4,#0x24]
        0x00002a42:    e000        ..      B        0x2a46 ; UART_SetLine_Config + 140
        0x00002a44:    6267        gb      STR      r7,[r4,#0x24]
        0x00002a46:    990a        ..      LDR      r1,[sp,#0x28]
        0x00002a48:    9809        ..      LDR      r0,[sp,#0x24]
        0x00002a4a:    4308        .C      ORRS     r0,r0,r1
        0x00002a4c:    9910        ..      LDR      r1,[sp,#0x40]
        0x00002a4e:    4308        .C      ORRS     r0,r0,r1
        0x00002a50:    60a0        .`      STR      r0,[r4,#8]
        0x00002a52:    b00b        ..      ADD      sp,sp,#0x2c
        0x00002a54:    bdf0        ..      POP      {r4-r7,pc}
    UART_SetTimeoutCnt
        0x00002a56:    6a02        .j      LDR      r2,[r0,#0x20]
        0x00002a58:    0a52        R.      LSRS     r2,r2,#9
        0x00002a5a:    0252        R.      LSLS     r2,r2,#9
        0x00002a5c:    430a        .C      ORRS     r2,r2,r1
        0x00002a5e:    6202        .b      STR      r2,[r0,#0x20]
        0x00002a60:    68c2        .h      LDR      r2,[r0,#0xc]
        0x00002a62:    2310        .#      MOVS     r3,#0x10
        0x00002a64:    431a        .C      ORRS     r2,r2,r3
        0x00002a66:    60c2        .`      STR      r2,[r0,#0xc]
        0x00002a68:    4770        pG      BX       lr
    UART_SelectIrDAMode
        0x00002a6a:    b5f0        ..      PUSH     {r4-r7,lr}
        0x00002a6c:    b087        ..      SUB      sp,sp,#0x1c
        0x00002a6e:    4604        .F      MOV      r4,r0
        0x00002a70:    460e        .F      MOV      r6,r1
        0x00002a72:    4617        .F      MOV      r7,r2
        0x00002a74:    4840        @H      LDR      r0,[pc,#256] ; [0x2b78] = 0x5bdc
        0x00002a76:    3020         0      ADDS     r0,r0,#0x20
        0x00002a78:    4601        .F      MOV      r1,r0
        0x00002a7a:    c90e        ..      LDM      r1,{r1-r3}
        0x00002a7c:    68c0        .h      LDR      r0,[r0,#0xc]
        0x00002a7e:    ad02        ..      ADD      r5,sp,#8
        0x00002a80:    c50e        ..      STM      r5!,{r1-r3}
        0x00002a82:    9005        ..      STR      r0,[sp,#0x14]
        0x00002a84:    483d        =H      LDR      r0,[pc,#244] ; [0x2b7c] = 0x50000200
        0x00002a86:    6940        @i      LDR      r0,[r0,#0x14]
        0x00002a88:    0780        ..      LSLS     r0,r0,#30
        0x00002a8a:    0f80        ..      LSRS     r0,r0,#30
        0x00002a8c:    9006        ..      STR      r0,[sp,#0x18]
        0x00002a8e:    9806        ..      LDR      r0,[sp,#0x18]
        0x00002a90:    0080        ..      LSLS     r0,r0,#2
        0x00002a92:    a902        ..      ADD      r1,sp,#8
        0x00002a94:    580d        .X      LDR      r5,[r1,r0]
        0x00002a96:    4839        9H      LDR      r0,[pc,#228] ; [0x2b7c] = 0x50000200
        0x00002a98:    69c0        .i      LDR      r0,[r0,#0x1c]
        0x00002a9a:    210f        .!      MOVS     r1,#0xf
        0x00002a9c:    0209        ..      LSLS     r1,r1,#8
        0x00002a9e:    4008        .@      ANDS     r0,r0,r1
        0x00002aa0:    0a00        ..      LSRS     r0,r0,#8
        0x00002aa2:    1c40        @.      ADDS     r0,r0,#1
        0x00002aa4:    9001        ..      STR      r0,[sp,#4]
        0x00002aa6:    2d00        .-      CMP      r5,#0
        0x00002aa8:    d107        ..      BNE      0x2aba ; UART_SelectIrDAMode + 80
        0x00002aaa:    f7fdfbdb    ....    BL       SysGet_PLLClockFreq ; 0x264
        0x00002aae:    9000        ..      STR      r0,[sp,#0]
        0x00002ab0:    9901        ..      LDR      r1,[sp,#4]
        0x00002ab2:    f000fb3b    ..;.    BL       __aeabi_uidiv ; 0x312c
        0x00002ab6:    4605        .F      MOV      r5,r0
        0x00002ab8:    e004        ..      B        0x2ac4 ; UART_SelectIrDAMode + 90
        0x00002aba:    4628        (F      MOV      r0,r5
        0x00002abc:    9901        ..      LDR      r1,[sp,#4]
        0x00002abe:    f000fb35    ..5.    BL       __aeabi_uidiv ; 0x312c
        0x00002ac2:    4605        .F      MOV      r5,r0
        0x00002ac4:    00f1        ..      LSLS     r1,r6,#3
        0x00002ac6:    1948        H.      ADDS     r0,r1,r5
        0x00002ac8:    4631        1F      MOV      r1,r6
        0x00002aca:    f000fb2f    ../.    BL       __aeabi_uidiv ; 0x312c
        0x00002ace:    0900        ..      LSRS     r0,r0,#4
        0x00002ad0:    1e40        @.      SUBS     r0,r0,#1
        0x00002ad2:    2101        .!      MOVS     r1,#1
        0x00002ad4:    07c9        ..      LSLS     r1,r1,#31
        0x00002ad6:    4308        .C      ORRS     r0,r0,r1
        0x00002ad8:    6260        `b      STR      r0,[r4,#0x24]
        0x00002ada:    6b20         k      LDR      r0,[r4,#0x30]
        0x00002adc:    2120         !      MOVS     r1,#0x20
        0x00002ade:    4388        .C      BICS     r0,r0,r1
        0x00002ae0:    6320         c      STR      r0,[r4,#0x30]
        0x00002ae2:    6b20         k      LDR      r0,[r4,#0x30]
        0x00002ae4:    2140        @!      MOVS     r1,#0x40
        0x00002ae6:    4308        .C      ORRS     r0,r0,r1
        0x00002ae8:    6320         c      STR      r0,[r4,#0x30]
        0x00002aea:    2f00        ./      CMP      r7,#0
        0x00002aec:    d003        ..      BEQ      0x2af6 ; UART_SelectIrDAMode + 140
        0x00002aee:    6b20         k      LDR      r0,[r4,#0x30]
        0x00002af0:    2102        .!      MOVS     r1,#2
        0x00002af2:    4308        .C      ORRS     r0,r0,r1
        0x00002af4:    e002        ..      B        0x2afc ; UART_SelectIrDAMode + 146
        0x00002af6:    6b20         k      LDR      r0,[r4,#0x30]
        0x00002af8:    2102        .!      MOVS     r1,#2
        0x00002afa:    4388        .C      BICS     r0,r0,r1
        0x00002afc:    6320         c      STR      r0,[r4,#0x30]
        0x00002afe:    2002        .       MOVS     r0,#2
        0x00002b00:    63a0        .c      STR      r0,[r4,#0x38]
        0x00002b02:    b007        ..      ADD      sp,sp,#0x1c
        0x00002b04:    bdf0        ..      POP      {r4-r7,pc}
    UART_SelectRS485Mode
        0x00002b06:    b510        ..      PUSH     {r4,lr}
        0x00002b08:    2303        .#      MOVS     r3,#3
        0x00002b0a:    6383        .c      STR      r3,[r0,#0x38]
        0x00002b0c:    2300        .#      MOVS     r3,#0
        0x00002b0e:    6343        Cc      STR      r3,[r0,#0x34]
        0x00002b10:    6b43        Ck      LDR      r3,[r0,#0x34]
        0x00002b12:    0614        ..      LSLS     r4,r2,#24
        0x00002b14:    430c        .C      ORRS     r4,r4,r1
        0x00002b16:    4323        #C      ORRS     r3,r3,r4
        0x00002b18:    6343        Cc      STR      r3,[r0,#0x34]
        0x00002b1a:    bd10        ..      POP      {r4,pc}
    UART_SelectLINMode
        0x00002b1c:    b510        ..      PUSH     {r4,lr}
        0x00002b1e:    2301        .#      MOVS     r3,#1
        0x00002b20:    6383        .c      STR      r3,[r0,#0x38]
        0x00002b22:    6383        .c      STR      r3,[r0,#0x38]
        0x00002b24:    6b43        Ck      LDR      r3,[r0,#0x34]
        0x00002b26:    24c7        .$      MOVS     r4,#0xc7
        0x00002b28:    43a3        .C      BICS     r3,r3,r4
        0x00002b2a:    6343        Cc      STR      r3,[r0,#0x34]
        0x00002b2c:    6b43        Ck      LDR      r3,[r0,#0x34]
        0x00002b2e:    0754        T.      LSLS     r4,r2,#29
        0x00002b30:    0f64        d.      LSRS     r4,r4,#29
        0x00002b32:    4323        #C      ORRS     r3,r3,r4
        0x00002b34:    6343        Cc      STR      r3,[r0,#0x34]
        0x00002b36:    6b43        Ck      LDR      r3,[r0,#0x34]
        0x00002b38:    430b        .C      ORRS     r3,r3,r1
        0x00002b3a:    6343        Cc      STR      r3,[r0,#0x34]
        0x00002b3c:    bd10        ..      POP      {r4,pc}
    UART_Write
        0x00002b3e:    b570        p.      PUSH     {r4-r6,lr}
        0x00002b40:    4603        .F      MOV      r3,r0
        0x00002b42:    460c        .F      MOV      r4,r1
        0x00002b44:    2100        .!      MOVS     r1,#0
        0x00002b46:    e011        ..      B        0x2b6c ; UART_Write + 46
        0x00002b48:    2500        .%      MOVS     r5,#0
        0x00002b4a:    e006        ..      B        0x2b5a ; UART_Write + 28
        0x00002b4c:    1c6d        m.      ADDS     r5,r5,#1
        0x00002b4e:    2001        .       MOVS     r0,#1
        0x00002b50:    0780        ..      LSLS     r0,r0,#30
        0x00002b52:    4285        .B      CMP      r5,r0
        0x00002b54:    d301        ..      BCC      0x2b5a ; UART_Write + 28
        0x00002b56:    2000        .       MOVS     r0,#0
        0x00002b58:    bd70        p.      POP      {r4-r6,pc}
        0x00002b5a:    6998        .i      LDR      r0,[r3,#0x18]
        0x00002b5c:    2601        .&      MOVS     r6,#1
        0x00002b5e:    0276        v.      LSLS     r6,r6,#9
        0x00002b60:    4030        0@      ANDS     r0,r0,r6
        0x00002b62:    2800        .(      CMP      r0,#0
        0x00002b64:    d0f2        ..      BEQ      0x2b4c ; UART_Write + 14
        0x00002b66:    5c60        `\      LDRB     r0,[r4,r1]
        0x00002b68:    6018        .`      STR      r0,[r3,#0]
        0x00002b6a:    1c49        I.      ADDS     r1,r1,#1
        0x00002b6c:    4291        .B      CMP      r1,r2
        0x00002b6e:    d1eb        ..      BNE      0x2b48 ; UART_Write + 10
        0x00002b70:    4608        .F      MOV      r0,r1
        0x00002b72:    e7f1        ..      B        0x2b58 ; UART_Write + 26
    $d
        0x00002b74:    00010001    ....    DCD    65537
        0x00002b78:    00005bdc    .[..    DCD    23516
        0x00002b7c:    50000200    ...P    DCD    1342177792
    $t
    .text
    stackDump
        0x00002b80:    b510        ..      PUSH     {r4,lr}
        0x00002b82:    4604        .F      MOV      r4,r0
        0x00002b84:    a056        V.      ADR      r0,{pc}+0x15c ; 0x2ce0
        0x00002b86:    6821        !h      LDR      r1,[r4,#0]
        0x00002b88:    f000ffac    ....    BL       __0printf ; 0x3ae4
        0x00002b8c:    a057        W.      ADR      r0,{pc}+0x160 ; 0x2cec
        0x00002b8e:    6861        ah      LDR      r1,[r4,#4]
        0x00002b90:    f000ffa8    ....    BL       __0printf ; 0x3ae4
        0x00002b94:    a058        X.      ADR      r0,{pc}+0x164 ; 0x2cf8
        0x00002b96:    68a1        .h      LDR      r1,[r4,#8]
        0x00002b98:    f000ffa4    ....    BL       __0printf ; 0x3ae4
        0x00002b9c:    a059        Y.      ADR      r0,{pc}+0x168 ; 0x2d04
        0x00002b9e:    68e1        .h      LDR      r1,[r4,#0xc]
        0x00002ba0:    f000ffa0    ....    BL       __0printf ; 0x3ae4
        0x00002ba4:    a05a        Z.      ADR      r0,{pc}+0x16c ; 0x2d10
        0x00002ba6:    6921        !i      LDR      r1,[r4,#0x10]
        0x00002ba8:    f000ff9c    ....    BL       __0printf ; 0x3ae4
        0x00002bac:    a05b        [.      ADR      r0,{pc}+0x170 ; 0x2d1c
        0x00002bae:    6961        ai      LDR      r1,[r4,#0x14]
        0x00002bb0:    f000ff98    ....    BL       __0printf ; 0x3ae4
        0x00002bb4:    a05c        \.      ADR      r0,{pc}+0x174 ; 0x2d28
        0x00002bb6:    69a1        .i      LDR      r1,[r4,#0x18]
        0x00002bb8:    f000ff94    ....    BL       __0printf ; 0x3ae4
        0x00002bbc:    a05d        ].      ADR      r0,{pc}+0x178 ; 0x2d34
        0x00002bbe:    69e1        .i      LDR      r1,[r4,#0x1c]
        0x00002bc0:    f000ff90    ....    BL       __0printf ; 0x3ae4
        0x00002bc4:    bd10        ..      POP      {r4,pc}
    SendChar_To_UART1
        0x00002bc6:    bf00        ..      NOP      
        0x00002bc8:    495d        ]I      LDR      r1,[pc,#372] ; [0x2d40] = 0x40150000
        0x00002bca:    6989        .i      LDR      r1,[r1,#0x18]
        0x00002bcc:    2201        ."      MOVS     r2,#1
        0x00002bce:    0292        ..      LSLS     r2,r2,#10
        0x00002bd0:    4011        .@      ANDS     r1,r1,r2
        0x00002bd2:    2900        .)      CMP      r1,#0
        0x00002bd4:    d1f8        ..      BNE      0x2bc8 ; SendChar_To_UART1 + 2
        0x00002bd6:    495a        ZI      LDR      r1,[pc,#360] ; [0x2d40] = 0x40150000
        0x00002bd8:    6008        .`      STR      r0,[r1,#0]
        0x00002bda:    280a        .(      CMP      r0,#0xa
        0x00002bdc:    d10a        ..      BNE      0x2bf4 ; SendChar_To_UART1 + 46
        0x00002bde:    bf00        ..      NOP      
        0x00002be0:    4957        WI      LDR      r1,[pc,#348] ; [0x2d40] = 0x40150000
        0x00002be2:    6989        .i      LDR      r1,[r1,#0x18]
        0x00002be4:    2201        ."      MOVS     r2,#1
        0x00002be6:    0292        ..      LSLS     r2,r2,#10
        0x00002be8:    4011        .@      ANDS     r1,r1,r2
        0x00002bea:    2900        .)      CMP      r1,#0
        0x00002bec:    d1f8        ..      BNE      0x2be0 ; SendChar_To_UART1 + 26
        0x00002bee:    210d        .!      MOVS     r1,#0xd
        0x00002bf0:    4a53        SJ      LDR      r2,[pc,#332] ; [0x2d40] = 0x40150000
        0x00002bf2:    6011        .`      STR      r1,[r2,#0]
        0x00002bf4:    4770        pG      BX       lr
    send_string_to_uart1
        0x00002bf6:    b510        ..      PUSH     {r4,lr}
        0x00002bf8:    4603        .F      MOV      r3,r0
        0x00002bfa:    2400        .$      MOVS     r4,#0
        0x00002bfc:    e003        ..      B        0x2c06 ; send_string_to_uart1 + 16
        0x00002bfe:    7818        .x      LDRB     r0,[r3,#0]
        0x00002c00:    f7ffffe1    ....    BL       SendChar_To_UART1 ; 0x2bc6
        0x00002c04:    1c5b        [.      ADDS     r3,r3,#1
        0x00002c06:    7818        .x      LDRB     r0,[r3,#0]
        0x00002c08:    2800        .(      CMP      r0,#0
        0x00002c0a:    d1f8        ..      BNE      0x2bfe ; send_string_to_uart1 + 8
        0x00002c0c:    bd10        ..      POP      {r4,pc}
    Hard_Fault_Handler
    __tagsym$$used
        0x00002c0e:    a04d        M.      ADR      r0,{pc}+0x136 ; 0x2d44
        0x00002c10:    f7fffff1    ....    BL       send_string_to_uart1 ; 0x2bf6
        0x00002c14:    bf00        ..      NOP      
        0x00002c16:    e006        ..      B        0x2c26 ; Hard_Fault_Handler + 24
        0x00002c18:    2059        Y       MOVS     r0,#0x59
        0x00002c1a:    4950        PI      LDR      r1,[pc,#320] ; [0x2d5c] = 0x50000100
        0x00002c1c:    6008        .`      STR      r0,[r1,#0]
        0x00002c1e:    2016        .       MOVS     r0,#0x16
        0x00002c20:    6008        .`      STR      r0,[r1,#0]
        0x00002c22:    2088        .       MOVS     r0,#0x88
        0x00002c24:    6008        .`      STR      r0,[r1,#0]
        0x00002c26:    484d        MH      LDR      r0,[pc,#308] ; [0x2d5c] = 0x50000100
        0x00002c28:    6800        .h      LDR      r0,[r0,#0]
        0x00002c2a:    2801        .(      CMP      r0,#1
        0x00002c2c:    d1f4        ..      BNE      0x2c18 ; Hard_Fault_Handler + 10
        0x00002c2e:    bf00        ..      NOP      
        0x00002c30:    2005        .       MOVS     r0,#5
        0x00002c32:    0700        ..      LSLS     r0,r0,#28
        0x00002c34:    6880        .h      LDR      r0,[r0,#8]
        0x00002c36:    2101        .!      MOVS     r1,#1
        0x00002c38:    4308        .C      ORRS     r0,r0,r1
        0x00002c3a:    2105        .!      MOVS     r1,#5
        0x00002c3c:    0709        ..      LSLS     r1,r1,#28
        0x00002c3e:    6088        .`      STR      r0,[r1,#8]
        0x00002c40:    bf00        ..      NOP      
        0x00002c42:    e7fe        ..      B        0x2c42 ; Hard_Fault_Handler + 52
    SendChar_ToUART
        0x00002c44:    bf00        ..      NOP      
        0x00002c46:    4946        FI      LDR      r1,[pc,#280] ; [0x2d60] = 0x40050000
        0x00002c48:    6989        .i      LDR      r1,[r1,#0x18]
        0x00002c4a:    2201        ."      MOVS     r2,#1
        0x00002c4c:    0292        ..      LSLS     r2,r2,#10
        0x00002c4e:    4011        .@      ANDS     r1,r1,r2
        0x00002c50:    2900        .)      CMP      r1,#0
        0x00002c52:    d1f8        ..      BNE      0x2c46 ; SendChar_ToUART + 2
        0x00002c54:    4942        BI      LDR      r1,[pc,#264] ; [0x2d60] = 0x40050000
        0x00002c56:    6008        .`      STR      r0,[r1,#0]
        0x00002c58:    280a        .(      CMP      r0,#0xa
        0x00002c5a:    d10a        ..      BNE      0x2c72 ; SendChar_ToUART + 46
        0x00002c5c:    bf00        ..      NOP      
        0x00002c5e:    4940        @I      LDR      r1,[pc,#256] ; [0x2d60] = 0x40050000
        0x00002c60:    6989        .i      LDR      r1,[r1,#0x18]
        0x00002c62:    2201        ."      MOVS     r2,#1
        0x00002c64:    0292        ..      LSLS     r2,r2,#10
        0x00002c66:    4011        .@      ANDS     r1,r1,r2
        0x00002c68:    2900        .)      CMP      r1,#0
        0x00002c6a:    d1f8        ..      BNE      0x2c5e ; SendChar_ToUART + 26
        0x00002c6c:    210d        .!      MOVS     r1,#0xd
        0x00002c6e:    4a3c        <J      LDR      r2,[pc,#240] ; [0x2d60] = 0x40050000
        0x00002c70:    6011        .`      STR      r1,[r2,#0]
        0x00002c72:    4770        pG      BX       lr
    SendChar
        0x00002c74:    b500        ..      PUSH     {lr}
        0x00002c76:    4603        .F      MOV      r3,r0
        0x00002c78:    4618        .F      MOV      r0,r3
        0x00002c7a:    f7ffffe3    ....    BL       SendChar_ToUART ; 0x2c44
        0x00002c7e:    bd00        ..      POP      {pc}
    GetChar
        0x00002c80:    e009        ..      B        0x2c96 ; GetChar + 22
        0x00002c82:    4837        7H      LDR      r0,[pc,#220] ; [0x2d60] = 0x40050000
        0x00002c84:    6980        .i      LDR      r0,[r0,#0x18]
        0x00002c86:    2102        .!      MOVS     r1,#2
        0x00002c88:    4008        .@      ANDS     r0,r0,r1
        0x00002c8a:    2800        .(      CMP      r0,#0
        0x00002c8c:    d103        ..      BNE      0x2c96 ; GetChar + 22
        0x00002c8e:    4834        4H      LDR      r0,[pc,#208] ; [0x2d60] = 0x40050000
        0x00002c90:    6800        .h      LDR      r0,[r0,#0]
        0x00002c92:    b2c0        ..      UXTB     r0,r0
        0x00002c94:    4770        pG      BX       lr
        0x00002c96:    e7f4        ..      B        0x2c82 ; GetChar + 2
    kbhit
        0x00002c98:    4831        1H      LDR      r0,[pc,#196] ; [0x2d60] = 0x40050000
        0x00002c9a:    6980        .i      LDR      r0,[r0,#0x18]
        0x00002c9c:    0841        A.      LSRS     r1,r0,#1
        0x00002c9e:    2001        .       MOVS     r0,#1
        0x00002ca0:    4388        .C      BICS     r0,r0,r1
        0x00002ca2:    4770        pG      BX       lr
    IsDebugFifoEmpty
        0x00002ca4:    482e        .H      LDR      r0,[pc,#184] ; [0x2d60] = 0x40050000
        0x00002ca6:    6980        .i      LDR      r0,[r0,#0x18]
        0x00002ca8:    2101        .!      MOVS     r1,#1
        0x00002caa:    02c9        ..      LSLS     r1,r1,#11
        0x00002cac:    4008        .@      ANDS     r0,r0,r1
        0x00002cae:    0ac0        ..      LSRS     r0,r0,#11
        0x00002cb0:    4770        pG      BX       lr
    _ttywrch
        0x00002cb2:    b510        ..      PUSH     {r4,lr}
        0x00002cb4:    4604        .F      MOV      r4,r0
        0x00002cb6:    4620         F      MOV      r0,r4
        0x00002cb8:    f7ffffdc    ....    BL       SendChar ; 0x2c74
        0x00002cbc:    bd10        ..      POP      {r4,pc}
    fputc
        0x00002cbe:    b530        0.      PUSH     {r4,r5,lr}
        0x00002cc0:    4604        .F      MOV      r4,r0
        0x00002cc2:    460d        .F      MOV      r5,r1
        0x00002cc4:    4620         F      MOV      r0,r4
        0x00002cc6:    f7ffffd5    ....    BL       SendChar ; 0x2c74
        0x00002cca:    4620         F      MOV      r0,r4
        0x00002ccc:    bd30        0.      POP      {r4,r5,pc}
    fgetc
        0x00002cce:    b500        ..      PUSH     {lr}
        0x00002cd0:    4602        .F      MOV      r2,r0
        0x00002cd2:    f7ffffd5    ....    BL       GetChar ; 0x2c80
        0x00002cd6:    bd00        ..      POP      {pc}
    ferror
        0x00002cd8:    4601        .F      MOV      r1,r0
        0x00002cda:    2000        .       MOVS     r0,#0
        0x00002cdc:    43c0        .C      MVNS     r0,r0
        0x00002cde:    4770        pG      BX       lr
    $d
        0x00002ce0:    20203072    r0      DCD    538980466
        0x00002ce4:    7830203d    = 0x    DCD    2016419901
        0x00002ce8:    000a7825    %x..    DCD    686117
        0x00002cec:    20203172    r1      DCD    538980722
        0x00002cf0:    7830203d    = 0x    DCD    2016419901
        0x00002cf4:    000a7825    %x..    DCD    686117
        0x00002cf8:    20203272    r2      DCD    538980978
        0x00002cfc:    7830203d    = 0x    DCD    2016419901
        0x00002d00:    000a7825    %x..    DCD    686117
        0x00002d04:    20203372    r3      DCD    538981234
        0x00002d08:    7830203d    = 0x    DCD    2016419901
        0x00002d0c:    000a7825    %x..    DCD    686117
        0x00002d10:    20323172    r12     DCD    540160370
        0x00002d14:    7830203d    = 0x    DCD    2016419901
        0x00002d18:    000a7825    %x..    DCD    686117
        0x00002d1c:    2020726c    lr      DCD    538997356
        0x00002d20:    7830203d    = 0x    DCD    2016419901
        0x00002d24:    000a7825    %x..    DCD    686117
        0x00002d28:    20206370    pc      DCD    538993520
        0x00002d2c:    7830203d    = 0x    DCD    2016419901
        0x00002d30:    000a7825    %x..    DCD    686117
        0x00002d34:    20727370    psr     DCD    544371568
        0x00002d38:    7830203d    = 0x    DCD    2016419901
        0x00002d3c:    000a7825    %x..    DCD    686117
        0x00002d40:    40150000    ...@    DCD    1075118080
        0x00002d44:    48206e49    In H    DCD    1210084937
        0x00002d48:    20647261    ard     DCD    543453793
        0x00002d4c:    6c756146    Faul    DCD    1819631942
        0x00002d50:    61482074    t Ha    DCD    1632116852
        0x00002d54:    656c646e    ndle    DCD    1701602414
        0x00002d58:    000a0d72    r...    DCD    658802
        0x00002d5c:    50000100    ...P    DCD    1342177536
        0x00002d60:    40050000    ...@    DCD    1074069504
    $t
    .text
    ADC_Open
        0x00002d64:    b530        0.      PUSH     {r4,r5,lr}
        0x00002d66:    4604        .F      MOV      r4,r0
        0x00002d68:    4868        hH      LDR      r0,[pc,#416] ; [0x2f0c] = 0x400e0040
        0x00002d6a:    6880        .h      LDR      r0,[r0,#8]
        0x00002d6c:    2501        .%      MOVS     r5,#1
        0x00002d6e:    02ad        ..      LSLS     r5,r5,#10
        0x00002d70:    43a8        .C      BICS     r0,r0,r5
        0x00002d72:    4308        .C      ORRS     r0,r0,r1
        0x00002d74:    4d65        eM      LDR      r5,[pc,#404] ; [0x2f0c] = 0x400e0040
        0x00002d76:    60a8        .`      STR      r0,[r5,#8]
        0x00002d78:    4628        (F      MOV      r0,r5
        0x00002d7a:    6880        .h      LDR      r0,[r0,#8]
        0x00002d7c:    250c        .%      MOVS     r5,#0xc
        0x00002d7e:    43a8        .C      BICS     r0,r0,r5
        0x00002d80:    4310        .C      ORRS     r0,r0,r2
        0x00002d82:    4d62        bM      LDR      r5,[pc,#392] ; [0x2f0c] = 0x400e0040
        0x00002d84:    60a8        .`      STR      r0,[r5,#8]
        0x00002d86:    4628        (F      MOV      r0,r5
        0x00002d88:    6880        .h      LDR      r0,[r0,#8]
        0x00002d8a:    2503        .%      MOVS     r5,#3
        0x00002d8c:    042d        -.      LSLS     r5,r5,#16
        0x00002d8e:    43a8        .C      BICS     r0,r0,r5
        0x00002d90:    00ad        ..      LSLS     r5,r5,#2
        0x00002d92:    4328        (C      ORRS     r0,r0,r5
        0x00002d94:    4d5d        ]M      LDR      r5,[pc,#372] ; [0x2f0c] = 0x400e0040
        0x00002d96:    60a8        .`      STR      r0,[r5,#8]
        0x00002d98:    4628        (F      MOV      r0,r5
        0x00002d9a:    60c3        .`      STR      r3,[r0,#0xc]
        0x00002d9c:    bd30        0.      POP      {r4,r5,pc}
    ADC_Close
        0x00002d9e:    2105        .!      MOVS     r1,#5
        0x00002da0:    0709        ..      LSLS     r1,r1,#28
        0x00002da2:    68c9        .h      LDR      r1,[r1,#0xc]
        0x00002da4:    2201        ."      MOVS     r2,#1
        0x00002da6:    0712        ..      LSLS     r2,r2,#28
        0x00002da8:    4311        .C      ORRS     r1,r1,r2
        0x00002daa:    2205        ."      MOVS     r2,#5
        0x00002dac:    0712        ..      LSLS     r2,r2,#28
        0x00002dae:    60d1        .`      STR      r1,[r2,#0xc]
        0x00002db0:    4611        .F      MOV      r1,r2
        0x00002db2:    68c9        .h      LDR      r1,[r1,#0xc]
        0x00002db4:    2201        ."      MOVS     r2,#1
        0x00002db6:    0712        ..      LSLS     r2,r2,#28
        0x00002db8:    4391        .C      BICS     r1,r1,r2
        0x00002dba:    2205        ."      MOVS     r2,#5
        0x00002dbc:    0712        ..      LSLS     r2,r2,#28
        0x00002dbe:    60d1        .`      STR      r1,[r2,#0xc]
        0x00002dc0:    4770        pG      BX       lr
    ADC_EnableHWTrigger
        0x00002dc2:    b530        0.      PUSH     {r4,r5,lr}
        0x00002dc4:    4603        .F      MOV      r3,r0
        0x00002dc6:    4851        QH      LDR      r0,[pc,#324] ; [0x2f0c] = 0x400e0040
        0x00002dc8:    6880        .h      LDR      r0,[r0,#8]
        0x00002dca:    24ff        .$      MOVS     r4,#0xff
        0x00002dcc:    34f1        .4      ADDS     r4,r4,#0xf1
        0x00002dce:    43a0        .C      BICS     r0,r0,r4
        0x00002dd0:    4c4e        NL      LDR      r4,[pc,#312] ; [0x2f0c] = 0x400e0040
        0x00002dd2:    60a0        .`      STR      r0,[r4,#8]
        0x00002dd4:    4620         F      MOV      r0,r4
        0x00002dd6:    6884        .h      LDR      r4,[r0,#8]
        0x00002dd8:    4608        .F      MOV      r0,r1
        0x00002dda:    4310        .C      ORRS     r0,r0,r2
        0x00002ddc:    25ff        .%      MOVS     r5,#0xff
        0x00002dde:    3501        .5      ADDS     r5,#1
        0x00002de0:    4328        (C      ORRS     r0,r0,r5
        0x00002de2:    4304        .C      ORRS     r4,r4,r0
        0x00002de4:    4849        IH      LDR      r0,[pc,#292] ; [0x2f0c] = 0x400e0040
        0x00002de6:    6084        .`      STR      r4,[r0,#8]
        0x00002de8:    bd30        0.      POP      {r4,r5,pc}
    ADC_DisableHWTrigger
        0x00002dea:    4948        HI      LDR      r1,[pc,#288] ; [0x2f0c] = 0x400e0040
        0x00002dec:    6889        .h      LDR      r1,[r1,#8]
        0x00002dee:    22ff        ."      MOVS     r2,#0xff
        0x00002df0:    32f1        .2      ADDS     r2,r2,#0xf1
        0x00002df2:    4391        .C      BICS     r1,r1,r2
        0x00002df4:    4a45        EJ      LDR      r2,[pc,#276] ; [0x2f0c] = 0x400e0040
        0x00002df6:    6091        .`      STR      r1,[r2,#8]
        0x00002df8:    4770        pG      BX       lr
    ADC_EnableTimerTrigger
        0x00002dfa:    b510        ..      PUSH     {r4,lr}
        0x00002dfc:    4603        .F      MOV      r3,r0
        0x00002dfe:    4843        CH      LDR      r0,[pc,#268] ; [0x2f0c] = 0x400e0040
        0x00002e00:    6880        .h      LDR      r0,[r0,#8]
        0x00002e02:    4c43        CL      LDR      r4,[pc,#268] ; [0x2f10] = 0xffcfff
        0x00002e04:    4020         @      ANDS     r0,r0,r4
        0x00002e06:    4c41        AL      LDR      r4,[pc,#260] ; [0x2f0c] = 0x400e0040
        0x00002e08:    60a0        .`      STR      r0,[r4,#8]
        0x00002e0a:    0610        ..      LSLS     r0,r2,#24
        0x00002e0c:    030c        ..      LSLS     r4,r1,#12
        0x00002e0e:    4320         C      ORRS     r0,r0,r4
        0x00002e10:    2401        .$      MOVS     r4,#1
        0x00002e12:    03e4        ..      LSLS     r4,r4,#15
        0x00002e14:    4320         C      ORRS     r0,r0,r4
        0x00002e16:    4c3d        =L      LDR      r4,[pc,#244] ; [0x2f0c] = 0x400e0040
        0x00002e18:    68a4        .h      LDR      r4,[r4,#8]
        0x00002e1a:    4320         C      ORRS     r0,r0,r4
        0x00002e1c:    4c3b        ;L      LDR      r4,[pc,#236] ; [0x2f0c] = 0x400e0040
        0x00002e1e:    60a0        .`      STR      r0,[r4,#8]
        0x00002e20:    bd10        ..      POP      {r4,pc}
    ADC_DisableTimerTrigger
        0x00002e22:    493a        :I      LDR      r1,[pc,#232] ; [0x2f0c] = 0x400e0040
        0x00002e24:    6889        .h      LDR      r1,[r1,#8]
        0x00002e26:    2201        ."      MOVS     r2,#1
        0x00002e28:    03d2        ..      LSLS     r2,r2,#15
        0x00002e2a:    4391        .C      BICS     r1,r1,r2
        0x00002e2c:    4a37        7J      LDR      r2,[pc,#220] ; [0x2f0c] = 0x400e0040
        0x00002e2e:    6091        .`      STR      r1,[r2,#8]
        0x00002e30:    4770        pG      BX       lr
    ADC_SetExtraSampleTime
        0x00002e32:    b530        0.      PUSH     {r4,r5,lr}
        0x00002e34:    4603        .F      MOV      r3,r0
        0x00002e36:    2908        .)      CMP      r1,#8
        0x00002e38:    d20c        ..      BCS      0x2e54 ; ADC_SetExtraSampleTime + 34
        0x00002e3a:    4834        4H      LDR      r0,[pc,#208] ; [0x2f0c] = 0x400e0040
        0x00002e3c:    6b00        .k      LDR      r0,[r0,#0x30]
        0x00002e3e:    008d        ..      LSLS     r5,r1,#2
        0x00002e40:    240f        .$      MOVS     r4,#0xf
        0x00002e42:    40ac        .@      LSLS     r4,r4,r5
        0x00002e44:    43a0        .C      BICS     r0,r0,r4
        0x00002e46:    008d        ..      LSLS     r5,r1,#2
        0x00002e48:    4614        .F      MOV      r4,r2
        0x00002e4a:    40ac        .@      LSLS     r4,r4,r5
        0x00002e4c:    4320         C      ORRS     r0,r0,r4
        0x00002e4e:    4c2f        /L      LDR      r4,[pc,#188] ; [0x2f0c] = 0x400e0040
        0x00002e50:    6320         c      STR      r0,[r4,#0x30]
        0x00002e52:    e01b        ..      B        0x2e8c ; ADC_SetExtraSampleTime + 90
        0x00002e54:    290c        .)      CMP      r1,#0xc
        0x00002e56:    d210        ..      BCS      0x2e7a ; ADC_SetExtraSampleTime + 72
        0x00002e58:    482c        ,H      LDR      r0,[pc,#176] ; [0x2f0c] = 0x400e0040
        0x00002e5a:    6b40        @k      LDR      r0,[r0,#0x34]
        0x00002e5c:    460c        .F      MOV      r4,r1
        0x00002e5e:    3c08        .<      SUBS     r4,r4,#8
        0x00002e60:    00a5        ..      LSLS     r5,r4,#2
        0x00002e62:    240f        .$      MOVS     r4,#0xf
        0x00002e64:    40ac        .@      LSLS     r4,r4,r5
        0x00002e66:    43a0        .C      BICS     r0,r0,r4
        0x00002e68:    460c        .F      MOV      r4,r1
        0x00002e6a:    3c08        .<      SUBS     r4,r4,#8
        0x00002e6c:    00a5        ..      LSLS     r5,r4,#2
        0x00002e6e:    4614        .F      MOV      r4,r2
        0x00002e70:    40ac        .@      LSLS     r4,r4,r5
        0x00002e72:    4320         C      ORRS     r0,r0,r4
        0x00002e74:    4c25        %L      LDR      r4,[pc,#148] ; [0x2f0c] = 0x400e0040
        0x00002e76:    6360        `c      STR      r0,[r4,#0x34]
        0x00002e78:    e008        ..      B        0x2e8c ; ADC_SetExtraSampleTime + 90
        0x00002e7a:    4824        $H      LDR      r0,[pc,#144] ; [0x2f0c] = 0x400e0040
        0x00002e7c:    6b40        @k      LDR      r0,[r0,#0x34]
        0x00002e7e:    240f        .$      MOVS     r4,#0xf
        0x00002e80:    0424        $.      LSLS     r4,r4,#16
        0x00002e82:    43a0        .C      BICS     r0,r0,r4
        0x00002e84:    0414        ..      LSLS     r4,r2,#16
        0x00002e86:    4320         C      ORRS     r0,r0,r4
        0x00002e88:    4c20         L      LDR      r4,[pc,#128] ; [0x2f0c] = 0x400e0040
        0x00002e8a:    6360        `c      STR      r0,[r4,#0x34]
        0x00002e8c:    bd30        0.      POP      {r4,r5,pc}
    ADC_EnableInt
        0x00002e8e:    07ca        ..      LSLS     r2,r1,#31
        0x00002e90:    0fd2        ..      LSRS     r2,r2,#31
        0x00002e92:    2a00        .*      CMP      r2,#0
        0x00002e94:    d005        ..      BEQ      0x2ea2 ; ADC_EnableInt + 20
        0x00002e96:    4a1d        .J      LDR      r2,[pc,#116] ; [0x2f0c] = 0x400e0040
        0x00002e98:    6892        .h      LDR      r2,[r2,#8]
        0x00002e9a:    2302        .#      MOVS     r3,#2
        0x00002e9c:    431a        .C      ORRS     r2,r2,r3
        0x00002e9e:    4b1b        .K      LDR      r3,[pc,#108] ; [0x2f0c] = 0x400e0040
        0x00002ea0:    609a        .`      STR      r2,[r3,#8]
        0x00002ea2:    2202        ."      MOVS     r2,#2
        0x00002ea4:    400a        .@      ANDS     r2,r2,r1
        0x00002ea6:    2a00        .*      CMP      r2,#0
        0x00002ea8:    d005        ..      BEQ      0x2eb6 ; ADC_EnableInt + 40
        0x00002eaa:    4a18        .J      LDR      r2,[pc,#96] ; [0x2f0c] = 0x400e0040
        0x00002eac:    6912        .i      LDR      r2,[r2,#0x10]
        0x00002eae:    2302        .#      MOVS     r3,#2
        0x00002eb0:    431a        .C      ORRS     r2,r2,r3
        0x00002eb2:    4b16        .K      LDR      r3,[pc,#88] ; [0x2f0c] = 0x400e0040
        0x00002eb4:    611a        .a      STR      r2,[r3,#0x10]
        0x00002eb6:    2204        ."      MOVS     r2,#4
        0x00002eb8:    400a        .@      ANDS     r2,r2,r1
        0x00002eba:    2a00        .*      CMP      r2,#0
        0x00002ebc:    d005        ..      BEQ      0x2eca ; ADC_EnableInt + 60
        0x00002ebe:    4a13        .J      LDR      r2,[pc,#76] ; [0x2f0c] = 0x400e0040
        0x00002ec0:    6952        Ri      LDR      r2,[r2,#0x14]
        0x00002ec2:    2302        .#      MOVS     r3,#2
        0x00002ec4:    431a        .C      ORRS     r2,r2,r3
        0x00002ec6:    4b11        .K      LDR      r3,[pc,#68] ; [0x2f0c] = 0x400e0040
        0x00002ec8:    615a        Za      STR      r2,[r3,#0x14]
        0x00002eca:    4770        pG      BX       lr
    ADC_DisableInt
        0x00002ecc:    07ca        ..      LSLS     r2,r1,#31
        0x00002ece:    0fd2        ..      LSRS     r2,r2,#31
        0x00002ed0:    2a00        .*      CMP      r2,#0
        0x00002ed2:    d005        ..      BEQ      0x2ee0 ; ADC_DisableInt + 20
        0x00002ed4:    4a0d        .J      LDR      r2,[pc,#52] ; [0x2f0c] = 0x400e0040
        0x00002ed6:    6892        .h      LDR      r2,[r2,#8]
        0x00002ed8:    2302        .#      MOVS     r3,#2
        0x00002eda:    439a        .C      BICS     r2,r2,r3
        0x00002edc:    4b0b        .K      LDR      r3,[pc,#44] ; [0x2f0c] = 0x400e0040
        0x00002ede:    609a        .`      STR      r2,[r3,#8]
        0x00002ee0:    2202        ."      MOVS     r2,#2
        0x00002ee2:    400a        .@      ANDS     r2,r2,r1
        0x00002ee4:    2a00        .*      CMP      r2,#0
        0x00002ee6:    d005        ..      BEQ      0x2ef4 ; ADC_DisableInt + 40
        0x00002ee8:    4a08        .J      LDR      r2,[pc,#32] ; [0x2f0c] = 0x400e0040
        0x00002eea:    6912        .i      LDR      r2,[r2,#0x10]
        0x00002eec:    2302        .#      MOVS     r3,#2
        0x00002eee:    439a        .C      BICS     r2,r2,r3
        0x00002ef0:    4b06        .K      LDR      r3,[pc,#24] ; [0x2f0c] = 0x400e0040
        0x00002ef2:    611a        .a      STR      r2,[r3,#0x10]
        0x00002ef4:    2204        ."      MOVS     r2,#4
        0x00002ef6:    400a        .@      ANDS     r2,r2,r1
        0x00002ef8:    2a00        .*      CMP      r2,#0
        0x00002efa:    d005        ..      BEQ      0x2f08 ; ADC_DisableInt + 60
        0x00002efc:    4a03        .J      LDR      r2,[pc,#12] ; [0x2f0c] = 0x400e0040
        0x00002efe:    6952        Ri      LDR      r2,[r2,#0x14]
        0x00002f00:    2302        .#      MOVS     r3,#2
        0x00002f02:    439a        .C      BICS     r2,r2,r3
        0x00002f04:    4b01        .K      LDR      r3,[pc,#4] ; [0x2f0c] = 0x400e0040
        0x00002f06:    615a        Za      STR      r2,[r3,#0x14]
        0x00002f08:    4770        pG      BX       lr
    $d
        0x00002f0a:    0000        ..      DCW    0
        0x00002f0c:    400e0040    @..@    DCD    1074659392
        0x00002f10:    00ffcfff    ....    DCD    16764927
    $t
    .text
    WWDT_Open
        0x00002f14:    b510        ..      PUSH     {r4,lr}
        0x00002f16:    4b04        .K      LDR      r3,[pc,#16] ; [0x2f28] = 0x40004100
        0x00002f18:    609a        .`      STR      r2,[r3,#8]
        0x00002f1a:    040b        ..      LSLS     r3,r1,#16
        0x00002f1c:    4303        .C      ORRS     r3,r3,r0
        0x00002f1e:    2401        .$      MOVS     r4,#1
        0x00002f20:    4323        #C      ORRS     r3,r3,r4
        0x00002f22:    4c01        .L      LDR      r4,[pc,#4] ; [0x2f28] = 0x40004100
        0x00002f24:    6063        c`      STR      r3,[r4,#4]
        0x00002f26:    bd10        ..      POP      {r4,pc}
    $d
        0x00002f28:    40004100    .A.@    DCD    1073758464
    $t
    .text
    I2C_Open
        0x00002f2c:    b5f8        ..      PUSH     {r3-r7,lr}
        0x00002f2e:    4604        .F      MOV      r4,r0
        0x00002f30:    460d        .F      MOV      r5,r1
        0x00002f32:    00a9        ..      LSLS     r1,r5,#2
        0x00002f34:    4a70        pJ      LDR      r2,[pc,#448] ; [0x30f8] = 0x20000000
        0x00002f36:    6812        .h      LDR      r2,[r2,#0]
        0x00002f38:    230a        .#      MOVS     r3,#0xa
        0x00002f3a:    435a        ZC      MULS     r2,r3,r2
        0x00002f3c:    4610        .F      MOV      r0,r2
        0x00002f3e:    f000f8f5    ....    BL       __aeabi_uidiv ; 0x312c
        0x00002f42:    1d47        G.      ADDS     r7,r0,#5
        0x00002f44:    210a        .!      MOVS     r1,#0xa
        0x00002f46:    4638        8F      MOV      r0,r7
        0x00002f48:    f000f8f0    ....    BL       __aeabi_uidiv ; 0x312c
        0x00002f4c:    1e46        F.      SUBS     r6,r0,#1
        0x00002f4e:    60e6        .`      STR      r6,[r4,#0xc]
        0x00002f50:    6820         h      LDR      r0,[r4,#0]
        0x00002f52:    2101        .!      MOVS     r1,#1
        0x00002f54:    4308        .C      ORRS     r0,r0,r1
        0x00002f56:    6020         `      STR      r0,[r4,#0]
        0x00002f58:    1c70        p.      ADDS     r0,r6,#1
        0x00002f5a:    0081        ..      LSLS     r1,r0,#2
        0x00002f5c:    4866        fH      LDR      r0,[pc,#408] ; [0x30f8] = 0x20000000
        0x00002f5e:    6800        .h      LDR      r0,[r0,#0]
        0x00002f60:    f000f8e4    ....    BL       __aeabi_uidiv ; 0x312c
        0x00002f64:    bdf8        ..      POP      {r3-r7,pc}
    I2C_Close
        0x00002f66:    4965        eI      LDR      r1,[pc,#404] ; [0x30fc] = 0x40020000
        0x00002f68:    4288        .B      CMP      r0,r1
        0x00002f6a:    d10f        ..      BNE      0x2f8c ; I2C_Close + 38
        0x00002f6c:    2105        .!      MOVS     r1,#5
        0x00002f6e:    0709        ..      LSLS     r1,r1,#28
        0x00002f70:    68c9        .h      LDR      r1,[r1,#0xc]
        0x00002f72:    1582        ..      ASRS     r2,r0,#22
        0x00002f74:    4311        .C      ORRS     r1,r1,r2
        0x00002f76:    2205        ."      MOVS     r2,#5
        0x00002f78:    0712        ..      LSLS     r2,r2,#28
        0x00002f7a:    60d1        .`      STR      r1,[r2,#0xc]
        0x00002f7c:    4611        .F      MOV      r1,r2
        0x00002f7e:    68c9        .h      LDR      r1,[r1,#0xc]
        0x00002f80:    1582        ..      ASRS     r2,r0,#22
        0x00002f82:    4391        .C      BICS     r1,r1,r2
        0x00002f84:    2205        ."      MOVS     r2,#5
        0x00002f86:    0712        ..      LSLS     r2,r2,#28
        0x00002f88:    60d1        .`      STR      r1,[r2,#0xc]
        0x00002f8a:    e010        ..      B        0x2fae ; I2C_Close + 72
        0x00002f8c:    2105        .!      MOVS     r1,#5
        0x00002f8e:    0709        ..      LSLS     r1,r1,#28
        0x00002f90:    68c9        .h      LDR      r1,[r1,#0xc]
        0x00002f92:    2201        ."      MOVS     r2,#1
        0x00002f94:    0252        R.      LSLS     r2,r2,#9
        0x00002f96:    4311        .C      ORRS     r1,r1,r2
        0x00002f98:    2205        ."      MOVS     r2,#5
        0x00002f9a:    0712        ..      LSLS     r2,r2,#28
        0x00002f9c:    60d1        .`      STR      r1,[r2,#0xc]
        0x00002f9e:    4611        .F      MOV      r1,r2
        0x00002fa0:    68c9        .h      LDR      r1,[r1,#0xc]
        0x00002fa2:    2201        ."      MOVS     r2,#1
        0x00002fa4:    0252        R.      LSLS     r2,r2,#9
        0x00002fa6:    4391        .C      BICS     r1,r1,r2
        0x00002fa8:    2205        ."      MOVS     r2,#5
        0x00002faa:    0712        ..      LSLS     r2,r2,#28
        0x00002fac:    60d1        .`      STR      r1,[r2,#0xc]
        0x00002fae:    6801        .h      LDR      r1,[r0,#0]
        0x00002fb0:    0849        I.      LSRS     r1,r1,#1
        0x00002fb2:    0049        I.      LSLS     r1,r1,#1
        0x00002fb4:    6001        .`      STR      r1,[r0,#0]
        0x00002fb6:    4770        pG      BX       lr
    I2C_ClearTimeoutFlag
        0x00002fb8:    6841        Ah      LDR      r1,[r0,#4]
        0x00002fba:    2202        ."      MOVS     r2,#2
        0x00002fbc:    4311        .C      ORRS     r1,r1,r2
        0x00002fbe:    6041        A`      STR      r1,[r0,#4]
        0x00002fc0:    4770        pG      BX       lr
    I2C_Trigger
        0x00002fc2:    b5f0        ..      PUSH     {r4-r7,lr}
        0x00002fc4:    4604        .F      MOV      r4,r0
        0x00002fc6:    2000        .       MOVS     r0,#0
        0x00002fc8:    6826        &h      LDR      r6,[r4,#0]
        0x00002fca:    270e        .'      MOVS     r7,#0xe
        0x00002fcc:    43be        .C      BICS     r6,r6,r7
        0x00002fce:    4635        5F      MOV      r5,r6
        0x00002fd0:    2900        .)      CMP      r1,#0
        0x00002fd2:    d001        ..      BEQ      0x2fd8 ; I2C_Trigger + 22
        0x00002fd4:    2608        .&      MOVS     r6,#8
        0x00002fd6:    4330        0C      ORRS     r0,r0,r6
        0x00002fd8:    2a00        .*      CMP      r2,#0
        0x00002fda:    d001        ..      BEQ      0x2fe0 ; I2C_Trigger + 30
        0x00002fdc:    2604        .&      MOVS     r6,#4
        0x00002fde:    4330        0C      ORRS     r0,r0,r6
        0x00002fe0:    2b00        .+      CMP      r3,#0
        0x00002fe2:    d001        ..      BEQ      0x2fe8 ; I2C_Trigger + 38
        0x00002fe4:    2610        .&      MOVS     r6,#0x10
        0x00002fe6:    4330        0C      ORRS     r0,r0,r6
        0x00002fe8:    9e05        ..      LDR      r6,[sp,#0x14]
        0x00002fea:    2e00        ..      CMP      r6,#0
        0x00002fec:    d001        ..      BEQ      0x2ff2 ; I2C_Trigger + 48
        0x00002fee:    2602        .&      MOVS     r6,#2
        0x00002ff0:    4330        0C      ORRS     r0,r0,r6
        0x00002ff2:    462e        .F      MOV      r6,r5
        0x00002ff4:    4306        .C      ORRS     r6,r6,r0
        0x00002ff6:    6026        &`      STR      r6,[r4,#0]
        0x00002ff8:    bdf0        ..      POP      {r4-r7,pc}
    I2C_DisableInt
        0x00002ffa:    6801        .h      LDR      r1,[r0,#0]
        0x00002ffc:    2280        ."      MOVS     r2,#0x80
        0x00002ffe:    4391        .C      BICS     r1,r1,r2
        0x00003000:    6001        .`      STR      r1,[r0,#0]
        0x00003002:    4770        pG      BX       lr
    I2C_EnableInt
        0x00003004:    6801        .h      LDR      r1,[r0,#0]
        0x00003006:    2280        ."      MOVS     r2,#0x80
        0x00003008:    4311        .C      ORRS     r1,r1,r2
        0x0000300a:    6001        .`      STR      r1,[r0,#0]
        0x0000300c:    4770        pG      BX       lr
    I2C_GetBusClockFreq
        0x0000300e:    b570        p.      PUSH     {r4-r6,lr}
        0x00003010:    4604        .F      MOV      r4,r0
        0x00003012:    68e5        .h      LDR      r5,[r4,#0xc]
        0x00003014:    1c68        h.      ADDS     r0,r5,#1
        0x00003016:    0081        ..      LSLS     r1,r0,#2
        0x00003018:    4837        7H      LDR      r0,[pc,#220] ; [0x30f8] = 0x20000000
        0x0000301a:    6800        .h      LDR      r0,[r0,#0]
        0x0000301c:    f000f886    ....    BL       __aeabi_uidiv ; 0x312c
        0x00003020:    bd70        p.      POP      {r4-r6,pc}
    I2C_SetBusClockFreq
        0x00003022:    b5f8        ..      PUSH     {r3-r7,lr}
        0x00003024:    4604        .F      MOV      r4,r0
        0x00003026:    460d        .F      MOV      r5,r1
        0x00003028:    00a9        ..      LSLS     r1,r5,#2
        0x0000302a:    4a33        3J      LDR      r2,[pc,#204] ; [0x30f8] = 0x20000000
        0x0000302c:    6812        .h      LDR      r2,[r2,#0]
        0x0000302e:    230a        .#      MOVS     r3,#0xa
        0x00003030:    435a        ZC      MULS     r2,r3,r2
        0x00003032:    4610        .F      MOV      r0,r2
        0x00003034:    f000f87a    ..z.    BL       __aeabi_uidiv ; 0x312c
        0x00003038:    1d47        G.      ADDS     r7,r0,#5
        0x0000303a:    210a        .!      MOVS     r1,#0xa
        0x0000303c:    4638        8F      MOV      r0,r7
        0x0000303e:    f000f875    ..u.    BL       __aeabi_uidiv ; 0x312c
        0x00003042:    1e46        F.      SUBS     r6,r0,#1
        0x00003044:    60e6        .`      STR      r6,[r4,#0xc]
        0x00003046:    1c70        p.      ADDS     r0,r6,#1
        0x00003048:    0081        ..      LSLS     r1,r0,#2
        0x0000304a:    482b        +H      LDR      r0,[pc,#172] ; [0x30f8] = 0x20000000
        0x0000304c:    6800        .h      LDR      r0,[r0,#0]
        0x0000304e:    f000f86d    ..m.    BL       __aeabi_uidiv ; 0x312c
        0x00003052:    bdf8        ..      POP      {r3-r7,pc}
    I2C_GetIntFlag
        0x00003054:    4601        .F      MOV      r1,r0
        0x00003056:    6848        Hh      LDR      r0,[r1,#4]
        0x00003058:    07c0        ..      LSLS     r0,r0,#31
        0x0000305a:    0fc0        ..      LSRS     r0,r0,#31
        0x0000305c:    2201        ."      MOVS     r2,#1
        0x0000305e:    4050        P@      EORS     r0,r0,r2
        0x00003060:    4050        P@      EORS     r0,r0,r2
        0x00003062:    4770        pG      BX       lr
    I2C_ClearIntFlag
        0x00003064:    6841        Ah      LDR      r1,[r0,#4]
        0x00003066:    2201        ."      MOVS     r2,#1
        0x00003068:    4311        .C      ORRS     r1,r1,r2
        0x0000306a:    6041        A`      STR      r1,[r0,#4]
        0x0000306c:    4770        pG      BX       lr
    I2C_GetStatus
        0x0000306e:    4601        .F      MOV      r1,r0
        0x00003070:    6888        .h      LDR      r0,[r1,#8]
        0x00003072:    4770        pG      BX       lr
    I2C_GetData
        0x00003074:    4601        .F      MOV      r1,r0
        0x00003076:    6948        Hi      LDR      r0,[r1,#0x14]
        0x00003078:    4770        pG      BX       lr
    I2C_SetData
        0x0000307a:    6141        Aa      STR      r1,[r0,#0x14]
        0x0000307c:    4770        pG      BX       lr
    I2C_SetSlaveAddr
        0x0000307e:    b510        ..      PUSH     {r4,lr}
        0x00003080:    2900        .)      CMP      r1,#0
        0x00003082:    d002        ..      BEQ      0x308a ; I2C_SetSlaveAddr + 12
        0x00003084:    2901        .)      CMP      r1,#1
        0x00003086:    d108        ..      BNE      0x309a ; I2C_SetSlaveAddr + 28
        0x00003088:    e003        ..      B        0x3092 ; I2C_SetSlaveAddr + 20
        0x0000308a:    0054        T.      LSLS     r4,r2,#1
        0x0000308c:    431c        .C      ORRS     r4,r4,r3
        0x0000308e:    6184        .a      STR      r4,[r0,#0x18]
        0x00003090:    e003        ..      B        0x309a ; I2C_SetSlaveAddr + 28
        0x00003092:    0054        T.      LSLS     r4,r2,#1
        0x00003094:    431c        .C      ORRS     r4,r4,r3
        0x00003096:    61c4        .a      STR      r4,[r0,#0x1c]
        0x00003098:    bf00        ..      NOP      
        0x0000309a:    bf00        ..      NOP      
        0x0000309c:    bd10        ..      POP      {r4,pc}
    I2C_SetSlaveAddrMask
        0x0000309e:    2900        .)      CMP      r1,#0
        0x000030a0:    d002        ..      BEQ      0x30a8 ; I2C_SetSlaveAddrMask + 10
        0x000030a2:    2901        .)      CMP      r1,#1
        0x000030a4:    d106        ..      BNE      0x30b4 ; I2C_SetSlaveAddrMask + 22
        0x000030a6:    e002        ..      B        0x30ae ; I2C_SetSlaveAddrMask + 16
        0x000030a8:    0053        S.      LSLS     r3,r2,#1
        0x000030aa:    6283        .b      STR      r3,[r0,#0x28]
        0x000030ac:    e002        ..      B        0x30b4 ; I2C_SetSlaveAddrMask + 22
        0x000030ae:    0053        S.      LSLS     r3,r2,#1
        0x000030b0:    62c3        .b      STR      r3,[r0,#0x2c]
        0x000030b2:    bf00        ..      NOP      
        0x000030b4:    bf00        ..      NOP      
        0x000030b6:    4770        pG      BX       lr
    I2C_EnableTimeout
        0x000030b8:    2900        .)      CMP      r1,#0
        0x000030ba:    d004        ..      BEQ      0x30c6 ; I2C_EnableTimeout + 14
        0x000030bc:    6902        .i      LDR      r2,[r0,#0x10]
        0x000030be:    2302        .#      MOVS     r3,#2
        0x000030c0:    431a        .C      ORRS     r2,r2,r3
        0x000030c2:    6102        .a      STR      r2,[r0,#0x10]
        0x000030c4:    e003        ..      B        0x30ce ; I2C_EnableTimeout + 22
        0x000030c6:    6902        .i      LDR      r2,[r0,#0x10]
        0x000030c8:    2302        .#      MOVS     r3,#2
        0x000030ca:    439a        .C      BICS     r2,r2,r3
        0x000030cc:    6102        .a      STR      r2,[r0,#0x10]
        0x000030ce:    6902        .i      LDR      r2,[r0,#0x10]
        0x000030d0:    2301        .#      MOVS     r3,#1
        0x000030d2:    431a        .C      ORRS     r2,r2,r3
        0x000030d4:    6102        .a      STR      r2,[r0,#0x10]
        0x000030d6:    4770        pG      BX       lr
    I2C_DisableTimeout
        0x000030d8:    6901        .i      LDR      r1,[r0,#0x10]
        0x000030da:    0849        I.      LSRS     r1,r1,#1
        0x000030dc:    0049        I.      LSLS     r1,r1,#1
        0x000030de:    6101        .a      STR      r1,[r0,#0x10]
        0x000030e0:    4770        pG      BX       lr
    I2C_EnableWakeup
        0x000030e2:    6c01        .l      LDR      r1,[r0,#0x40]
        0x000030e4:    2201        ."      MOVS     r2,#1
        0x000030e6:    4311        .C      ORRS     r1,r1,r2
        0x000030e8:    6401        .d      STR      r1,[r0,#0x40]
        0x000030ea:    4770        pG      BX       lr
    I2C_DisableWakeup
        0x000030ec:    6c01        .l      LDR      r1,[r0,#0x40]
        0x000030ee:    0849        I.      LSRS     r1,r1,#1
        0x000030f0:    0049        I.      LSLS     r1,r1,#1
        0x000030f2:    6401        .d      STR      r1,[r0,#0x40]
        0x000030f4:    4770        pG      BX       lr
    $d
        0x000030f6:    0000        ..      DCW    0
        0x000030f8:    20000000    ...     DCD    536870912
        0x000030fc:    40020000    ...@    DCD    1073872896
    $t
    .text
    os_idle_demon
        0x00003100:    bf00        ..      NOP      
        0x00003102:    e7fe        ..      B        0x3102 ; os_idle_demon + 2
    os_error
        0x00003104:    4604        .F      MOV      r4,r0
        0x00003106:    2c01        .,      CMP      r4,#1
        0x00003108:    d006        ..      BEQ      0x3118 ; os_error + 20
        0x0000310a:    2c02        .,      CMP      r4,#2
        0x0000310c:    d005        ..      BEQ      0x311a ; os_error + 22
        0x0000310e:    2c03        .,      CMP      r4,#3
        0x00003110:    d004        ..      BEQ      0x311c ; os_error + 24
        0x00003112:    2c04        .,      CMP      r4,#4
        0x00003114:    d104        ..      BNE      0x3120 ; os_error + 28
        0x00003116:    e002        ..      B        0x311e ; os_error + 26
        0x00003118:    e003        ..      B        0x3122 ; os_error + 30
        0x0000311a:    e002        ..      B        0x3122 ; os_error + 30
        0x0000311c:    e001        ..      B        0x3122 ; os_error + 30
        0x0000311e:    e000        ..      B        0x3122 ; os_error + 30
        0x00003120:    bf00        ..      NOP      
        0x00003122:    bf00        ..      NOP      
        0x00003124:    f7fffd73    ..s.    BL       Hard_Fault_Handler ; 0x2c0e
        0x00003128:    bf00        ..      NOP      
        0x0000312a:    e7fe        ..      B        0x312a ; os_error + 38
    .text
    __aeabi_uidiv
    __aeabi_uidivmod
        0x0000312c:    b530        0.      PUSH     {r4,r5,lr}
        0x0000312e:    460b        .F      MOV      r3,r1
        0x00003130:    4601        .F      MOV      r1,r0
        0x00003132:    2000        .       MOVS     r0,#0
        0x00003134:    2220         "      MOVS     r2,#0x20
        0x00003136:    2401        .$      MOVS     r4,#1
        0x00003138:    e009        ..      B        0x314e ; __aeabi_uidiv + 34
        0x0000313a:    460d        .F      MOV      r5,r1
        0x0000313c:    40d5        .@      LSRS     r5,r5,r2
        0x0000313e:    429d        .B      CMP      r5,r3
        0x00003140:    d305        ..      BCC      0x314e ; __aeabi_uidiv + 34
        0x00003142:    461d        .F      MOV      r5,r3
        0x00003144:    4095        .@      LSLS     r5,r5,r2
        0x00003146:    1b49        I.      SUBS     r1,r1,r5
        0x00003148:    4625        %F      MOV      r5,r4
        0x0000314a:    4095        .@      LSLS     r5,r5,r2
        0x0000314c:    1940        @.      ADDS     r0,r0,r5
        0x0000314e:    4615        .F      MOV      r5,r2
        0x00003150:    1e52        R.      SUBS     r2,r2,#1
        0x00003152:    2d00        .-      CMP      r5,#0
        0x00003154:    dcf1        ..      BGT      0x313a ; __aeabi_uidiv + 14
        0x00003156:    bd30        0.      POP      {r4,r5,pc}
    .text
    __aeabi_idiv
    __aeabi_idivmod
        0x00003158:    b570        p.      PUSH     {r4-r6,lr}
        0x0000315a:    2400        .$      MOVS     r4,#0
        0x0000315c:    4625        %F      MOV      r5,r4
        0x0000315e:    2800        .(      CMP      r0,#0
        0x00003160:    da01        ..      BGE      0x3166 ; __aeabi_idiv + 14
        0x00003162:    2401        .$      MOVS     r4,#1
        0x00003164:    4240        @B      RSBS     r0,r0,#0
        0x00003166:    2900        .)      CMP      r1,#0
        0x00003168:    da01        ..      BGE      0x316e ; __aeabi_idiv + 22
        0x0000316a:    2501        .%      MOVS     r5,#1
        0x0000316c:    4249        IB      RSBS     r1,r1,#0
        0x0000316e:    f7ffffdd    ....    BL       __aeabi_uidiv ; 0x312c
        0x00003172:    42ac        .B      CMP      r4,r5
        0x00003174:    d000        ..      BEQ      0x3178 ; __aeabi_idiv + 32
        0x00003176:    4240        @B      RSBS     r0,r0,#0
        0x00003178:    2c00        .,      CMP      r4,#0
        0x0000317a:    d000        ..      BEQ      0x317e ; __aeabi_idiv + 38
        0x0000317c:    4249        IB      RSBS     r1,r1,#0
        0x0000317e:    bd70        p.      POP      {r4-r6,pc}
    .text
    __aeabi_uldivmod
        0x00003180:    b5f0        ..      PUSH     {r4-r7,lr}
        0x00003182:    b41f        ..      PUSH     {r0-r4}
        0x00003184:    4606        .F      MOV      r6,r0
        0x00003186:    2000        .       MOVS     r0,#0
        0x00003188:    b082        ..      SUB      sp,sp,#8
        0x0000318a:    4605        .F      MOV      r5,r0
        0x0000318c:    2440        @$      MOVS     r4,#0x40
        0x0000318e:    9101        ..      STR      r1,[sp,#4]
        0x00003190:    9000        ..      STR      r0,[sp,#0]
        0x00003192:    e01b        ..      B        0x31cc ; __aeabi_uldivmod + 76
        0x00003194:    9901        ..      LDR      r1,[sp,#4]
        0x00003196:    4622        "F      MOV      r2,r4
        0x00003198:    460f        .F      MOV      r7,r1
        0x0000319a:    4630        0F      MOV      r0,r6
        0x0000319c:    f000f9b6    ....    BL       __aeabi_llsr ; 0x350c
        0x000031a0:    9a04        ..      LDR      r2,[sp,#0x10]
        0x000031a2:    9b05        ..      LDR      r3,[sp,#0x14]
        0x000031a4:    1a80        ..      SUBS     r0,r0,r2
        0x000031a6:    4199        .A      SBCS     r1,r1,r3
        0x000031a8:    d310        ..      BCC      0x31cc ; __aeabi_uldivmod + 76
        0x000031aa:    4610        .F      MOV      r0,r2
        0x000031ac:    4619        .F      MOV      r1,r3
        0x000031ae:    4622        "F      MOV      r2,r4
        0x000031b0:    f000f99c    ....    BL       __aeabi_llsl ; 0x34ec
        0x000031b4:    1a36        6.      SUBS     r6,r6,r0
        0x000031b6:    418f        .A      SBCS     r7,r7,r1
        0x000031b8:    9701        ..      STR      r7,[sp,#4]
        0x000031ba:    4622        "F      MOV      r2,r4
        0x000031bc:    2001        .       MOVS     r0,#1
        0x000031be:    2100        .!      MOVS     r1,#0
        0x000031c0:    9f00        ..      LDR      r7,[sp,#0]
        0x000031c2:    f000f993    ....    BL       __aeabi_llsl ; 0x34ec
        0x000031c6:    1838        8.      ADDS     r0,r7,r0
        0x000031c8:    414d        MA      ADCS     r5,r5,r1
        0x000031ca:    9000        ..      STR      r0,[sp,#0]
        0x000031cc:    4620         F      MOV      r0,r4
        0x000031ce:    1e64        d.      SUBS     r4,r4,#1
        0x000031d0:    2800        .(      CMP      r0,#0
        0x000031d2:    dcdf        ..      BGT      0x3194 ; __aeabi_uldivmod + 20
        0x000031d4:    9b01        ..      LDR      r3,[sp,#4]
        0x000031d6:    9800        ..      LDR      r0,[sp,#0]
        0x000031d8:    4629        )F      MOV      r1,r5
        0x000031da:    4632        2F      MOV      r2,r6
        0x000031dc:    b007        ..      ADD      sp,sp,#0x1c
        0x000031de:    bdf0        ..      POP      {r4-r7,pc}
    .text
    __aeabi_memset
    __aeabi_memset4
    __aeabi_memset8
        0x000031e0:    b2d2        ..      UXTB     r2,r2
        0x000031e2:    e001        ..      B        0x31e8 ; __aeabi_memset + 8
        0x000031e4:    7002        .p      STRB     r2,[r0,#0]
        0x000031e6:    1c40        @.      ADDS     r0,r0,#1
        0x000031e8:    1e49        I.      SUBS     r1,r1,#1
        0x000031ea:    d2fb        ..      BCS      0x31e4 ; __aeabi_memset + 4
        0x000031ec:    4770        pG      BX       lr
    __aeabi_memclr
    __aeabi_memclr4
    __aeabi_memclr8
        0x000031ee:    2200        ."      MOVS     r2,#0
        0x000031f0:    e7f6        ..      B        __aeabi_memset ; 0x31e0
    _memset$wrapper
        0x000031f2:    b510        ..      PUSH     {r4,lr}
        0x000031f4:    4613        .F      MOV      r3,r2
        0x000031f6:    460a        .F      MOV      r2,r1
        0x000031f8:    4604        .F      MOV      r4,r0
        0x000031fa:    4619        .F      MOV      r1,r3
        0x000031fc:    f7fffff0    ....    BL       __aeabi_memset ; 0x31e0
        0x00003200:    4620         F      MOV      r0,r4
        0x00003202:    bd10        ..      POP      {r4,pc}
    .text
    strcat
        0x00003204:    1e42        B.      SUBS     r2,r0,#1
        0x00003206:    7853        Sx      LDRB     r3,[r2,#1]
        0x00003208:    1c52        R.      ADDS     r2,r2,#1
        0x0000320a:    2b00        .+      CMP      r3,#0
        0x0000320c:    d1fb        ..      BNE      0x3206 ; strcat + 2
        0x0000320e:    780b        .x      LDRB     r3,[r1,#0]
        0x00003210:    7013        .p      STRB     r3,[r2,#0]
        0x00003212:    1c49        I.      ADDS     r1,r1,#1
        0x00003214:    1c52        R.      ADDS     r2,r2,#1
        0x00003216:    2b00        .+      CMP      r3,#0
        0x00003218:    d1f9        ..      BNE      0x320e ; strcat + 10
        0x0000321a:    4770        pG      BX       lr
    .text
    strstr
        0x0000321c:    b530        0.      PUSH     {r4,r5,lr}
        0x0000321e:    4605        .F      MOV      r5,r0
        0x00003220:    462a        *F      MOV      r2,r5
        0x00003222:    460b        .F      MOV      r3,r1
        0x00003224:    7810        .x      LDRB     r0,[r2,#0]
        0x00003226:    781c        .x      LDRB     r4,[r3,#0]
        0x00003228:    1c52        R.      ADDS     r2,r2,#1
        0x0000322a:    1c5b        [.      ADDS     r3,r3,#1
        0x0000322c:    2800        .(      CMP      r0,#0
        0x0000322e:    d001        ..      BEQ      0x3234 ; strstr + 24
        0x00003230:    42a0        .B      CMP      r0,r4
        0x00003232:    d0f7        ..      BEQ      0x3224 ; strstr + 8
        0x00003234:    2c00        .,      CMP      r4,#0
        0x00003236:    d003        ..      BEQ      0x3240 ; strstr + 36
        0x00003238:    2800        .(      CMP      r0,#0
        0x0000323a:    d002        ..      BEQ      0x3242 ; strstr + 38
        0x0000323c:    1c6d        m.      ADDS     r5,r5,#1
        0x0000323e:    e7ef        ..      B        0x3220 ; strstr + 4
        0x00003240:    4628        (F      MOV      r0,r5
        0x00003242:    bd30        0.      POP      {r4,r5,pc}
    .text
    strlen
        0x00003244:    1c42        B.      ADDS     r2,r0,#1
        0x00003246:    7801        .x      LDRB     r1,[r0,#0]
        0x00003248:    1c40        @.      ADDS     r0,r0,#1
        0x0000324a:    2900        .)      CMP      r1,#0
        0x0000324c:    d1fb        ..      BNE      0x3246 ; strlen + 2
        0x0000324e:    1a80        ..      SUBS     r0,r0,r2
        0x00003250:    4770        pG      BX       lr
    .text
    atoi
        0x00003252:    b570        p.      PUSH     {r4-r6,lr}
        0x00003254:    4606        .F      MOV      r6,r0
        0x00003256:    f000fc99    ....    BL       __aeabi_errno_addr ; 0x3b8c
        0x0000325a:    6804        .h      LDR      r4,[r0,#0]
        0x0000325c:    4605        .F      MOV      r5,r0
        0x0000325e:    220a        ."      MOVS     r2,#0xa
        0x00003260:    2100        .!      MOVS     r1,#0
        0x00003262:    4630        0F      MOV      r0,r6
        0x00003264:    f000f964    ..d.    BL       strtol ; 0x3530
        0x00003268:    602c        ,`      STR      r4,[r5,#0]
        0x0000326a:    bd70        p.      POP      {r4-r6,pc}
    .text
    __aeabi_dmul
        0x0000326c:    b5f0        ..      PUSH     {r4-r7,lr}
        0x0000326e:    b41f        ..      PUSH     {r0-r4}
        0x00003270:    b088        ..      SUB      sp,sp,#0x20
        0x00003272:    990b        ..      LDR      r1,[sp,#0x2c]
        0x00003274:    9809        ..      LDR      r0,[sp,#0x24]
        0x00003276:    2400        .$      MOVS     r4,#0
        0x00003278:    4048        H@      EORS     r0,r0,r1
        0x0000327a:    9909        ..      LDR      r1,[sp,#0x24]
        0x0000327c:    0fc0        ..      LSRS     r0,r0,#31
        0x0000327e:    0049        I.      LSLS     r1,r1,#1
        0x00003280:    0849        I.      LSRS     r1,r1,#1
        0x00003282:    9109        ..      STR      r1,[sp,#0x24]
        0x00003284:    07c0        ..      LSLS     r0,r0,#31
        0x00003286:    990b        ..      LDR      r1,[sp,#0x2c]
        0x00003288:    9000        ..      STR      r0,[sp,#0]
        0x0000328a:    0049        I.      LSLS     r1,r1,#1
        0x0000328c:    0849        I.      LSRS     r1,r1,#1
        0x0000328e:    910b        ..      STR      r1,[sp,#0x2c]
        0x00003290:    9909        ..      LDR      r1,[sp,#0x24]
        0x00003292:    9808        ..      LDR      r0,[sp,#0x20]
        0x00003294:    46a6        .F      MOV      lr,r4
        0x00003296:    4308        .C      ORRS     r0,r0,r1
        0x00003298:    d01c        ..      BEQ      0x32d4 ; __aeabi_dmul + 104
        0x0000329a:    990b        ..      LDR      r1,[sp,#0x2c]
        0x0000329c:    980a        ..      LDR      r0,[sp,#0x28]
        0x0000329e:    4308        .C      ORRS     r0,r0,r1
        0x000032a0:    d018        ..      BEQ      0x32d4 ; __aeabi_dmul + 104
        0x000032a2:    9809        ..      LDR      r0,[sp,#0x24]
        0x000032a4:    2401        .$      MOVS     r4,#1
        0x000032a6:    0040        @.      LSLS     r0,r0,#1
        0x000032a8:    0d42        B.      LSRS     r2,r0,#21
        0x000032aa:    0048        H.      LSLS     r0,r1,#1
        0x000032ac:    0d41        A.      LSRS     r1,r0,#21
        0x000032ae:    9809        ..      LDR      r0,[sp,#0x24]
        0x000032b0:    0524        $.      LSLS     r4,r4,#20
        0x000032b2:    0300        ..      LSLS     r0,r0,#12
        0x000032b4:    0b00        ..      LSRS     r0,r0,#12
        0x000032b6:    4320         C      ORRS     r0,r0,r4
        0x000032b8:    9009        ..      STR      r0,[sp,#0x24]
        0x000032ba:    980b        ..      LDR      r0,[sp,#0x2c]
        0x000032bc:    0300        ..      LSLS     r0,r0,#12
        0x000032be:    0b00        ..      LSRS     r0,r0,#12
        0x000032c0:    4320         C      ORRS     r0,r0,r4
        0x000032c2:    900b        ..      STR      r0,[sp,#0x2c]
        0x000032c4:    1850        P.      ADDS     r0,r2,r1
        0x000032c6:    491c        .I      LDR      r1,[pc,#112] ; [0x3338] = 0xfffffc0d
        0x000032c8:    1840        @.      ADDS     r0,r0,r1
        0x000032ca:    2200        ."      MOVS     r2,#0
        0x000032cc:    9001        ..      STR      r0,[sp,#4]
        0x000032ce:    4614        .F      MOV      r4,r2
        0x000032d0:    4610        .F      MOV      r0,r2
        0x000032d2:    e005        ..      B        0x32e0 ; __aeabi_dmul + 116
        0x000032d4:    2000        .       MOVS     r0,#0
        0x000032d6:    4601        .F      MOV      r1,r0
        0x000032d8:    b00d        ..      ADD      sp,sp,#0x34
        0x000032da:    bdf0        ..      POP      {r4-r7,pc}
        0x000032dc:    2803        .(      CMP      r0,#3
        0x000032de:    da01        ..      BGE      0x32e4 ; __aeabi_dmul + 120
        0x000032e0:    4603        .F      MOV      r3,r0
        0x000032e2:    e000        ..      B        0x32e6 ; __aeabi_dmul + 122
        0x000032e4:    2303        .#      MOVS     r3,#3
        0x000032e6:    469c        .F      MOV      r12,r3
        0x000032e8:    1ac1        ..      SUBS     r1,r0,r3
        0x000032ea:    ae0a        ..      ADD      r6,sp,#0x28
        0x000032ec:    e00a        ..      B        0x3304 ; __aeabi_dmul + 152
        0x000032ee:    005f        _.      LSLS     r7,r3,#1
        0x000032f0:    ad08        ..      ADD      r5,sp,#0x20
        0x000032f2:    5bed        .[      LDRH     r5,[r5,r7]
        0x000032f4:    004f        O.      LSLS     r7,r1,#1
        0x000032f6:    5bf7        .[      LDRH     r7,[r6,r7]
        0x000032f8:    437d        }C      MULS     r5,r7,r5
        0x000032fa:    2700        .'      MOVS     r7,#0
        0x000032fc:    18aa        ..      ADDS     r2,r5,r2
        0x000032fe:    417c        |A      ADCS     r4,r4,r7
        0x00003300:    1c49        I.      ADDS     r1,r1,#1
        0x00003302:    1e5b        [.      SUBS     r3,r3,#1
        0x00003304:    4561        aE      CMP      r1,r12
        0x00003306:    ddf2        ..      BLE      0x32ee ; __aeabi_dmul + 130
        0x00003308:    0041        A.      LSLS     r1,r0,#1
        0x0000330a:    ab04        ..      ADD      r3,sp,#0x10
        0x0000330c:    525a        ZR      STRH     r2,[r3,r1]
        0x0000330e:    0421        !.      LSLS     r1,r4,#16
        0x00003310:    0c12        ..      LSRS     r2,r2,#16
        0x00003312:    430a        .C      ORRS     r2,r2,r1
        0x00003314:    0c24        $.      LSRS     r4,r4,#16
        0x00003316:    1c40        @.      ADDS     r0,r0,#1
        0x00003318:    2808        .(      CMP      r0,#8
        0x0000331a:    dbdf        ..      BLT      0x32dc ; __aeabi_dmul + 112
        0x0000331c:    9801        ..      LDR      r0,[sp,#4]
        0x0000331e:    9002        ..      STR      r0,[sp,#8]
        0x00003320:    9900        ..      LDR      r1,[sp,#0]
        0x00003322:    4670        pF      MOV      r0,lr
        0x00003324:    9101        ..      STR      r1,[sp,#4]
        0x00003326:    9000        ..      STR      r0,[sp,#0]
        0x00003328:    9b05        ..      LDR      r3,[sp,#0x14]
        0x0000332a:    9a04        ..      LDR      r2,[sp,#0x10]
        0x0000332c:    9907        ..      LDR      r1,[sp,#0x1c]
        0x0000332e:    9806        ..      LDR      r0,[sp,#0x18]
        0x00003330:    f000f984    ....    BL       _double_epilogue ; 0x363c
        0x00003334:    e7d0        ..      B        0x32d8 ; __aeabi_dmul + 108
    $d
        0x00003336:    0000        ..      DCW    0
        0x00003338:    fffffc0d    ....    DCD    4294966285
    $t
    .text
    __aeabi_ddiv
        0x0000333c:    b5f0        ..      PUSH     {r4-r7,lr}
        0x0000333e:    460c        .F      MOV      r4,r1
        0x00003340:    405c        \@      EORS     r4,r4,r3
        0x00003342:    b085        ..      SUB      sp,sp,#0x14
        0x00003344:    0fe4        ..      LSRS     r4,r4,#31
        0x00003346:    07e4        ..      LSLS     r4,r4,#31
        0x00003348:    9403        ..      STR      r4,[sp,#0xc]
        0x0000334a:    004c        L.      LSLS     r4,r1,#1
        0x0000334c:    2600        .&      MOVS     r6,#0
        0x0000334e:    0864        d.      LSRS     r4,r4,#1
        0x00003350:    0059        Y.      LSLS     r1,r3,#1
        0x00003352:    4694        .F      MOV      r12,r2
        0x00003354:    0849        I.      LSRS     r1,r1,#1
        0x00003356:    4602        .F      MOV      r2,r0
        0x00003358:    9602        ..      STR      r6,[sp,#8]
        0x0000335a:    4322        "C      ORRS     r2,r2,r4
        0x0000335c:    d021        !.      BEQ      0x33a2 ; __aeabi_ddiv + 102
        0x0000335e:    4662        bF      MOV      r2,r12
        0x00003360:    430a        .C      ORRS     r2,r2,r1
        0x00003362:    d01e        ..      BEQ      0x33a2 ; __aeabi_ddiv + 102
        0x00003364:    0062        b.      LSLS     r2,r4,#1
        0x00003366:    0d57        W.      LSRS     r7,r2,#21
        0x00003368:    004a        J.      LSLS     r2,r1,#1
        0x0000336a:    030e        ..      LSLS     r6,r1,#12
        0x0000336c:    0323        #.      LSLS     r3,r4,#12
        0x0000336e:    0d55        U.      LSRS     r5,r2,#21
        0x00003370:    2401        .$      MOVS     r4,#1
        0x00003372:    4602        .F      MOV      r2,r0
        0x00003374:    492c        ,I      LDR      r1,[pc,#176] ; [0x3428] = 0x3fd
        0x00003376:    0524        $.      LSLS     r4,r4,#20
        0x00003378:    1b78        x.      SUBS     r0,r7,r5
        0x0000337a:    0b1b        ..      LSRS     r3,r3,#12
        0x0000337c:    0b36        6.      LSRS     r6,r6,#12
        0x0000337e:    1840        @.      ADDS     r0,r0,r1
        0x00003380:    4323        #C      ORRS     r3,r3,r4
        0x00003382:    4326        &C      ORRS     r6,r6,r4
        0x00003384:    4661        aF      MOV      r1,r12
        0x00003386:    9000        ..      STR      r0,[sp,#0]
        0x00003388:    461c        .F      MOV      r4,r3
        0x0000338a:    1a50        P.      SUBS     r0,r2,r1
        0x0000338c:    41b4        .A      SBCS     r4,r4,r6
        0x0000338e:    d303        ..      BCC      0x3398 ; __aeabi_ddiv + 92
        0x00003390:    9800        ..      LDR      r0,[sp,#0]
        0x00003392:    1c40        @.      ADDS     r0,r0,#1
        0x00003394:    9000        ..      STR      r0,[sp,#0]
        0x00003396:    e002        ..      B        0x339e ; __aeabi_ddiv + 98
        0x00003398:    1892        ..      ADDS     r2,r2,r2
        0x0000339a:    9800        ..      LDR      r0,[sp,#0]
        0x0000339c:    415b        [A      ADCS     r3,r3,r3
        0x0000339e:    2800        .(      CMP      r0,#0
        0x000033a0:    da03        ..      BGE      0x33aa ; __aeabi_ddiv + 110
        0x000033a2:    2000        .       MOVS     r0,#0
        0x000033a4:    4601        .F      MOV      r1,r0
        0x000033a6:    b005        ..      ADD      sp,sp,#0x14
        0x000033a8:    bdf0        ..      POP      {r4-r7,pc}
        0x000033aa:    2000        .       MOVS     r0,#0
        0x000033ac:    2101        .!      MOVS     r1,#1
        0x000033ae:    0509        ..      LSLS     r1,r1,#20
        0x000033b0:    4607        .F      MOV      r7,r0
        0x000033b2:    4686        .F      MOV      lr,r0
        0x000033b4:    e011        ..      B        0x33da ; __aeabi_ddiv + 158
        0x000033b6:    4664        dF      MOV      r4,r12
        0x000033b8:    461d        .F      MOV      r5,r3
        0x000033ba:    1b14        ..      SUBS     r4,r2,r4
        0x000033bc:    41b5        .A      SBCS     r5,r5,r6
        0x000033be:    d306        ..      BCC      0x33ce ; __aeabi_ddiv + 146
        0x000033c0:    4665        eF      MOV      r5,r12
        0x000033c2:    1b52        R.      SUBS     r2,r2,r5
        0x000033c4:    41b3        .A      SBCS     r3,r3,r6
        0x000033c6:    4674        tF      MOV      r4,lr
        0x000033c8:    4307        .C      ORRS     r7,r7,r0
        0x000033ca:    430c        .C      ORRS     r4,r4,r1
        0x000033cc:    46a6        .F      MOV      lr,r4
        0x000033ce:    07cd        ..      LSLS     r5,r1,#31
        0x000033d0:    0840        @.      LSRS     r0,r0,#1
        0x000033d2:    0849        I.      LSRS     r1,r1,#1
        0x000033d4:    4328        (C      ORRS     r0,r0,r5
        0x000033d6:    1892        ..      ADDS     r2,r2,r2
        0x000033d8:    415b        [A      ADCS     r3,r3,r3
        0x000033da:    4605        .F      MOV      r5,r0
        0x000033dc:    430d        .C      ORRS     r5,r5,r1
        0x000033de:    d1ea        ..      BNE      0x33b6 ; __aeabi_ddiv + 122
        0x000033e0:    4610        .F      MOV      r0,r2
        0x000033e2:    4318        .C      ORRS     r0,r0,r3
        0x000033e4:    d013        ..      BEQ      0x340e ; __aeabi_ddiv + 210
        0x000033e6:    4660        `F      MOV      r0,r12
        0x000033e8:    4619        .F      MOV      r1,r3
        0x000033ea:    4050        P@      EORS     r0,r0,r2
        0x000033ec:    4071        q@      EORS     r1,r1,r6
        0x000033ee:    4308        .C      ORRS     r0,r0,r1
        0x000033f0:    d006        ..      BEQ      0x3400 ; __aeabi_ddiv + 196
        0x000033f2:    4660        `F      MOV      r0,r12
        0x000033f4:    1a10        ..      SUBS     r0,r2,r0
        0x000033f6:    41b3        .A      SBCS     r3,r3,r6
        0x000033f8:    d206        ..      BCS      0x3408 ; __aeabi_ddiv + 204
        0x000033fa:    2201        ."      MOVS     r2,#1
        0x000033fc:    2300        .#      MOVS     r3,#0
        0x000033fe:    e006        ..      B        0x340e ; __aeabi_ddiv + 210
        0x00003400:    2200        ."      MOVS     r2,#0
        0x00003402:    2301        .#      MOVS     r3,#1
        0x00003404:    07db        ..      LSLS     r3,r3,#31
        0x00003406:    e002        ..      B        0x340e ; __aeabi_ddiv + 210
        0x00003408:    2201        ."      MOVS     r2,#1
        0x0000340a:    43d2        .C      MVNS     r2,r2
        0x0000340c:    1053        S.      ASRS     r3,r2,#1
        0x0000340e:    9800        ..      LDR      r0,[sp,#0]
        0x00003410:    4674        tF      MOV      r4,lr
        0x00003412:    0501        ..      LSLS     r1,r0,#20
        0x00003414:    1c38        8.      ADDS     r0,r7,#0
        0x00003416:    4161        aA      ADCS     r1,r1,r4
        0x00003418:    9c02        ..      LDR      r4,[sp,#8]
        0x0000341a:    9d03        ..      LDR      r5,[sp,#0xc]
        0x0000341c:    1900        ..      ADDS     r0,r0,r4
        0x0000341e:    4169        iA      ADCS     r1,r1,r5
        0x00003420:    f000f8ff    ....    BL       _double_round ; 0x3622
        0x00003424:    e7bf        ..      B        0x33a6 ; __aeabi_ddiv + 106
    $d
        0x00003426:    0000        ..      DCW    0
        0x00003428:    000003fd    ....    DCD    1021
    $t
    .text
    __aeabi_ui2f
        0x0000342c:    b510        ..      PUSH     {r4,lr}
        0x0000342e:    2200        ."      MOVS     r2,#0
        0x00003430:    2396        .#      MOVS     r3,#0x96
        0x00003432:    4611        .F      MOV      r1,r2
        0x00003434:    f000f8bc    ....    BL       _float_epilogue ; 0x35b0
        0x00003438:    bd10        ..      POP      {r4,pc}
    .text
    __aeabi_f2d
        0x0000343a:    0fc2        ..      LSRS     r2,r0,#31
        0x0000343c:    07d2        ..      LSLS     r2,r2,#31
        0x0000343e:    0040        @.      LSLS     r0,r0,#1
        0x00003440:    0840        @.      LSRS     r0,r0,#1
        0x00003442:    d00b        ..      BEQ      0x345c ; __aeabi_f2d + 34
        0x00003444:    0dc1        ..      LSRS     r1,r0,#23
        0x00003446:    2307        .#      MOVS     r3,#7
        0x00003448:    01db        ..      LSLS     r3,r3,#7
        0x0000344a:    18c9        ..      ADDS     r1,r1,r3
        0x0000344c:    0240        @.      LSLS     r0,r0,#9
        0x0000344e:    0509        ..      LSLS     r1,r1,#20
        0x00003450:    0a40        @.      LSRS     r0,r0,#9
        0x00003452:    4311        .C      ORRS     r1,r1,r2
        0x00003454:    08c2        ..      LSRS     r2,r0,#3
        0x00003456:    0740        @.      LSLS     r0,r0,#29
        0x00003458:    4311        .C      ORRS     r1,r1,r2
        0x0000345a:    4770        pG      BX       lr
        0x0000345c:    2000        .       MOVS     r0,#0
        0x0000345e:    4601        .F      MOV      r1,r0
        0x00003460:    4770        pG      BX       lr
        0x00003462:    0000        ..      MOVS     r0,r0
    .text
    __aeabi_cdcmpeq
    __aeabi_cdcmple
        0x00003464:    b510        ..      PUSH     {r4,lr}
        0x00003466:    2900        .)      CMP      r1,#0
        0x00003468:    db04        ..      BLT      0x3474 ; __aeabi_cdcmpeq + 16
        0x0000346a:    2401        .$      MOVS     r4,#1
        0x0000346c:    07e4        ..      LSLS     r4,r4,#31
        0x0000346e:    4240        @B      RSBS     r0,r0,#0
        0x00003470:    418c        .A      SBCS     r4,r4,r1
        0x00003472:    4621        !F      MOV      r1,r4
        0x00003474:    2b00        .+      CMP      r3,#0
        0x00003476:    db04        ..      BLT      0x3482 ; __aeabi_cdcmpeq + 30
        0x00003478:    461c        .F      MOV      r4,r3
        0x0000347a:    2301        .#      MOVS     r3,#1
        0x0000347c:    07db        ..      LSLS     r3,r3,#31
        0x0000347e:    4252        RB      RSBS     r2,r2,#0
        0x00003480:    41a3        .A      SBCS     r3,r3,r4
        0x00003482:    428b        .B      CMP      r3,r1
        0x00003484:    d100        ..      BNE      0x3488 ; __aeabi_cdcmpeq + 36
        0x00003486:    4282        .B      CMP      r2,r0
        0x00003488:    bd10        ..      POP      {r4,pc}
    $d
        0x0000348a:    0000        ..      DCW    0
    $t
    .text
    __aeabi_cdrcmple
        0x0000348c:    b510        ..      PUSH     {r4,lr}
        0x0000348e:    2900        .)      CMP      r1,#0
        0x00003490:    db04        ..      BLT      0x349c ; __aeabi_cdrcmple + 16
        0x00003492:    2401        .$      MOVS     r4,#1
        0x00003494:    07e4        ..      LSLS     r4,r4,#31
        0x00003496:    4240        @B      RSBS     r0,r0,#0
        0x00003498:    418c        .A      SBCS     r4,r4,r1
        0x0000349a:    4621        !F      MOV      r1,r4
        0x0000349c:    2b00        .+      CMP      r3,#0
        0x0000349e:    db04        ..      BLT      0x34aa ; __aeabi_cdrcmple + 30
        0x000034a0:    461c        .F      MOV      r4,r3
        0x000034a2:    2301        .#      MOVS     r3,#1
        0x000034a4:    07db        ..      LSLS     r3,r3,#31
        0x000034a6:    4252        RB      RSBS     r2,r2,#0
        0x000034a8:    41a3        .A      SBCS     r3,r3,r4
        0x000034aa:    4299        .B      CMP      r1,r3
        0x000034ac:    d100        ..      BNE      0x34b0 ; __aeabi_cdrcmple + 36
        0x000034ae:    4290        .B      CMP      r0,r2
        0x000034b0:    bd10        ..      POP      {r4,pc}
    $d
        0x000034b2:    0000        ..      DCW    0
    $t
    .text
    __aeabi_d2f
        0x000034b4:    0fcb        ..      LSRS     r3,r1,#31
        0x000034b6:    07db        ..      LSLS     r3,r3,#31
        0x000034b8:    0049        I.      LSLS     r1,r1,#1
        0x000034ba:    b510        ..      PUSH     {r4,lr}
        0x000034bc:    0849        I.      LSRS     r1,r1,#1
        0x000034be:    4602        .F      MOV      r2,r0
        0x000034c0:    430a        .C      ORRS     r2,r2,r1
        0x000034c2:    d007        ..      BEQ      0x34d4 ; __aeabi_d2f + 32
        0x000034c4:    0d0a        ..      LSRS     r2,r1,#20
        0x000034c6:    2407        .$      MOVS     r4,#7
        0x000034c8:    0309        ..      LSLS     r1,r1,#12
        0x000034ca:    01e4        ..      LSLS     r4,r4,#7
        0x000034cc:    0b09        ..      LSRS     r1,r1,#12
        0x000034ce:    1b12        ..      SUBS     r2,r2,r4
        0x000034d0:    2a00        .*      CMP      r2,#0
        0x000034d2:    dc01        ..      BGT      0x34d8 ; __aeabi_d2f + 36
        0x000034d4:    2000        .       MOVS     r0,#0
        0x000034d6:    bd10        ..      POP      {r4,pc}
        0x000034d8:    00c9        ..      LSLS     r1,r1,#3
        0x000034da:    0f44        D.      LSRS     r4,r0,#29
        0x000034dc:    430c        .C      ORRS     r4,r4,r1
        0x000034de:    00c1        ..      LSLS     r1,r0,#3
        0x000034e0:    18e0        ..      ADDS     r0,r4,r3
        0x000034e2:    05d2        ..      LSLS     r2,r2,#23
        0x000034e4:    1880        ..      ADDS     r0,r0,r2
        0x000034e6:    f000f85b    ..[.    BL       __I$use$fp ; 0x35a0
        0x000034ea:    bd10        ..      POP      {r4,pc}
    .text
    __aeabi_llsl
    _ll_shift_l
        0x000034ec:    b510        ..      PUSH     {r4,lr}
        0x000034ee:    2a20         *      CMP      r2,#0x20
        0x000034f0:    db04        ..      BLT      0x34fc ; __aeabi_llsl + 16
        0x000034f2:    4601        .F      MOV      r1,r0
        0x000034f4:    3a20         :      SUBS     r2,r2,#0x20
        0x000034f6:    4091        .@      LSLS     r1,r1,r2
        0x000034f8:    2000        .       MOVS     r0,#0
        0x000034fa:    bd10        ..      POP      {r4,pc}
        0x000034fc:    4091        .@      LSLS     r1,r1,r2
        0x000034fe:    2320         #      MOVS     r3,#0x20
        0x00003500:    1a9c        ..      SUBS     r4,r3,r2
        0x00003502:    4603        .F      MOV      r3,r0
        0x00003504:    40e3        .@      LSRS     r3,r3,r4
        0x00003506:    4319        .C      ORRS     r1,r1,r3
        0x00003508:    4090        .@      LSLS     r0,r0,r2
        0x0000350a:    bd10        ..      POP      {r4,pc}
    .text
    __aeabi_llsr
    _ll_ushift_r
        0x0000350c:    b510        ..      PUSH     {r4,lr}
        0x0000350e:    2a20         *      CMP      r2,#0x20
        0x00003510:    db04        ..      BLT      0x351c ; __aeabi_llsr + 16
        0x00003512:    4608        .F      MOV      r0,r1
        0x00003514:    3a20         :      SUBS     r2,r2,#0x20
        0x00003516:    40d0        .@      LSRS     r0,r0,r2
        0x00003518:    2100        .!      MOVS     r1,#0
        0x0000351a:    bd10        ..      POP      {r4,pc}
        0x0000351c:    460b        .F      MOV      r3,r1
        0x0000351e:    40d3        .@      LSRS     r3,r3,r2
        0x00003520:    40d0        .@      LSRS     r0,r0,r2
        0x00003522:    2420         $      MOVS     r4,#0x20
        0x00003524:    1aa2        ..      SUBS     r2,r4,r2
        0x00003526:    4091        .@      LSLS     r1,r1,r2
        0x00003528:    4308        .C      ORRS     r0,r0,r1
        0x0000352a:    4619        .F      MOV      r1,r3
        0x0000352c:    bd10        ..      POP      {r4,pc}
        0x0000352e:    0000        ..      MOVS     r0,r0
    .text
    strtol
        0x00003530:    b5f7        ..      PUSH     {r0-r2,r4-r7,lr}
        0x00003532:    9c00        ..      LDR      r4,[sp,#0]
        0x00003534:    460f        .F      MOV      r7,r1
        0x00003536:    2600        .&      MOVS     r6,#0
        0x00003538:    7825        %x      LDRB     r5,[r4,#0]
        0x0000353a:    1c64        d.      ADDS     r4,r4,#1
        0x0000353c:    2d00        .-      CMP      r5,#0
        0x0000353e:    d005        ..      BEQ      0x354c ; strtol + 28
        0x00003540:    f000f9c6    ....    BL       __rt_ctype_table ; 0x38d0
        0x00003544:    6800        .h      LDR      r0,[r0,#0]
        0x00003546:    5d40        @]      LDRB     r0,[r0,r5]
        0x00003548:    07c0        ..      LSLS     r0,r0,#31
        0x0000354a:    d1f5        ..      BNE      0x3538 ; strtol + 8
        0x0000354c:    2d2b        +-      CMP      r5,#0x2b
        0x0000354e:    d002        ..      BEQ      0x3556 ; strtol + 38
        0x00003550:    2d2d        --      CMP      r5,#0x2d
        0x00003552:    d018        ..      BEQ      0x3586 ; strtol + 86
        0x00003554:    1e64        d.      SUBS     r4,r4,#1
        0x00003556:    4639        9F      MOV      r1,r7
        0x00003558:    4620         F      MOV      r0,r4
        0x0000355a:    9a02        ..      LDR      r2,[sp,#8]
        0x0000355c:    f000f9bc    ....    BL       _strtoul ; 0x38d8
        0x00003560:    2f00        ./      CMP      r7,#0
        0x00003562:    d004        ..      BEQ      0x356e ; strtol + 62
        0x00003564:    6839        9h      LDR      r1,[r7,#0]
        0x00003566:    42a1        .B      CMP      r1,r4
        0x00003568:    d101        ..      BNE      0x356e ; strtol + 62
        0x0000356a:    9900        ..      LDR      r1,[sp,#0]
        0x0000356c:    6039        9`      STR      r1,[r7,#0]
        0x0000356e:    0571        q.      LSLS     r1,r6,#21
        0x00003570:    2402        .$      MOVS     r4,#2
        0x00003572:    2900        .)      CMP      r1,#0
        0x00003574:    da0b        ..      BGE      0x358e ; strtol + 94
        0x00003576:    4240        @B      RSBS     r0,r0,#0
        0x00003578:    2800        .(      CMP      r0,#0
        0x0000357a:    dd03        ..      BLE      0x3584 ; strtol + 84
        0x0000357c:    f000fb06    ....    BL       __aeabi_errno_addr ; 0x3b8c
        0x00003580:    6004        .`      STR      r4,[r0,#0]
        0x00003582:    07a0        ..      LSLS     r0,r4,#30
        0x00003584:    bdfe        ..      POP      {r1-r7,pc}
        0x00003586:    2001        .       MOVS     r0,#1
        0x00003588:    0280        ..      LSLS     r0,r0,#10
        0x0000358a:    4306        .C      ORRS     r6,r6,r0
        0x0000358c:    e7e3        ..      B        0x3556 ; strtol + 38
        0x0000358e:    2800        .(      CMP      r0,#0
        0x00003590:    daf8        ..      BGE      0x3584 ; strtol + 84
        0x00003592:    f000fafb    ....    BL       __aeabi_errno_addr ; 0x3b8c
        0x00003596:    6004        .`      STR      r4,[r0,#0]
        0x00003598:    4800        .H      LDR      r0,[pc,#0] ; [0x359c] = 0x7fffffff
        0x0000359a:    bdfe        ..      POP      {r1-r7,pc}
    $d
        0x0000359c:    7fffffff    ....    DCD    2147483647
    $t
    .text
    .text
    __I$use$fp
    _float_round
        0x000035a0:    2900        .)      CMP      r1,#0
        0x000035a2:    da04        ..      BGE      0x35ae ; __I$use$fp + 14
        0x000035a4:    1c40        @.      ADDS     r0,r0,#1
        0x000035a6:    0049        I.      LSLS     r1,r1,#1
        0x000035a8:    d101        ..      BNE      0x35ae ; __I$use$fp + 14
        0x000035aa:    0840        @.      LSRS     r0,r0,#1
        0x000035ac:    0040        @.      LSLS     r0,r0,#1
        0x000035ae:    4770        pG      BX       lr
    _float_epilogue
        0x000035b0:    b470        p.      PUSH     {r4-r6}
        0x000035b2:    2400        .$      MOVS     r4,#0
        0x000035b4:    0c05        ..      LSRS     r5,r0,#16
        0x000035b6:    d105        ..      BNE      0x35c4 ; _float_epilogue + 20
        0x000035b8:    2410        .$      MOVS     r4,#0x10
        0x000035ba:    0400        ..      LSLS     r0,r0,#16
        0x000035bc:    d102        ..      BNE      0x35c4 ; _float_epilogue + 20
        0x000035be:    2900        .)      CMP      r1,#0
        0x000035c0:    d021        !.      BEQ      0x3606 ; _float_epilogue + 86
        0x000035c2:    2411        .$      MOVS     r4,#0x11
        0x000035c4:    0e05        ..      LSRS     r5,r0,#24
        0x000035c6:    d101        ..      BNE      0x35cc ; _float_epilogue + 28
        0x000035c8:    0200        ..      LSLS     r0,r0,#8
        0x000035ca:    3408        .4      ADDS     r4,r4,#8
        0x000035cc:    0f05        ..      LSRS     r5,r0,#28
        0x000035ce:    d101        ..      BNE      0x35d4 ; _float_epilogue + 36
        0x000035d0:    0100        ..      LSLS     r0,r0,#4
        0x000035d2:    1d24        $.      ADDS     r4,r4,#4
        0x000035d4:    0f85        ..      LSRS     r5,r0,#30
        0x000035d6:    d101        ..      BNE      0x35dc ; _float_epilogue + 44
        0x000035d8:    0080        ..      LSLS     r0,r0,#2
        0x000035da:    1ca4        ..      ADDS     r4,r4,#2
        0x000035dc:    2800        .(      CMP      r0,#0
        0x000035de:    db01        ..      BLT      0x35e4 ; _float_epilogue + 52
        0x000035e0:    0040        @.      LSLS     r0,r0,#1
        0x000035e2:    1c64        d.      ADDS     r4,r4,#1
        0x000035e4:    2900        .)      CMP      r1,#0
        0x000035e6:    d008        ..      BEQ      0x35fa ; _float_epilogue + 74
        0x000035e8:    2520         %      MOVS     r5,#0x20
        0x000035ea:    1b2e        ..      SUBS     r6,r5,r4
        0x000035ec:    460d        .F      MOV      r5,r1
        0x000035ee:    40f5        .@      LSRS     r5,r5,r6
        0x000035f0:    40a1        .@      LSLS     r1,r1,r4
        0x000035f2:    d000        ..      BEQ      0x35f6 ; _float_epilogue + 70
        0x000035f4:    2101        .!      MOVS     r1,#1
        0x000035f6:    4329        )C      ORRS     r1,r1,r5
        0x000035f8:    4308        .C      ORRS     r0,r0,r1
        0x000035fa:    0601        ..      LSLS     r1,r0,#24
        0x000035fc:    1b1b        ..      SUBS     r3,r3,r4
        0x000035fe:    0a00        ..      LSRS     r0,r0,#8
        0x00003600:    1ddb        ..      ADDS     r3,r3,#7
        0x00003602:    d502        ..      BPL      0x360a ; _float_epilogue + 90
        0x00003604:    2000        .       MOVS     r0,#0
        0x00003606:    bc70        p.      POP      {r4-r6}
        0x00003608:    4770        pG      BX       lr
        0x0000360a:    05db        ..      LSLS     r3,r3,#23
        0x0000360c:    1818        ..      ADDS     r0,r3,r0
        0x0000360e:    1880        ..      ADDS     r0,r0,r2
        0x00003610:    2900        .)      CMP      r1,#0
        0x00003612:    daf8        ..      BGE      0x3606 ; _float_epilogue + 86
        0x00003614:    1c40        @.      ADDS     r0,r0,#1
        0x00003616:    0049        I.      LSLS     r1,r1,#1
        0x00003618:    d1f5        ..      BNE      0x3606 ; _float_epilogue + 86
        0x0000361a:    bc70        p.      POP      {r4-r6}
        0x0000361c:    0840        @.      LSRS     r0,r0,#1
        0x0000361e:    0040        @.      LSLS     r0,r0,#1
        0x00003620:    4770        pG      BX       lr
    .text
    _double_round
        0x00003622:    b510        ..      PUSH     {r4,lr}
        0x00003624:    2b00        .+      CMP      r3,#0
        0x00003626:    da08        ..      BGE      0x363a ; _double_round + 24
        0x00003628:    2400        .$      MOVS     r4,#0
        0x0000362a:    1c40        @.      ADDS     r0,r0,#1
        0x0000362c:    4161        aA      ADCS     r1,r1,r4
        0x0000362e:    1892        ..      ADDS     r2,r2,r2
        0x00003630:    415b        [A      ADCS     r3,r3,r3
        0x00003632:    431a        .C      ORRS     r2,r2,r3
        0x00003634:    d101        ..      BNE      0x363a ; _double_round + 24
        0x00003636:    0840        @.      LSRS     r0,r0,#1
        0x00003638:    0040        @.      LSLS     r0,r0,#1
        0x0000363a:    bd10        ..      POP      {r4,pc}
    _double_epilogue
        0x0000363c:    b5f0        ..      PUSH     {r4-r7,lr}
        0x0000363e:    b41f        ..      PUSH     {r0-r4}
        0x00003640:    b082        ..      SUB      sp,sp,#8
        0x00003642:    4605        .F      MOV      r5,r0
        0x00003644:    000c        ..      MOVS     r4,r1
        0x00003646:    d003        ..      BEQ      0x3650 ; _double_epilogue + 20
        0x00003648:    4608        .F      MOV      r0,r1
        0x0000364a:    f000fa6f    ..o.    BL       __ARM_clz ; 0x3b2c
        0x0000364e:    e002        ..      B        0x3656 ; _double_epilogue + 26
        0x00003650:    f000fa6c    ..l.    BL       __ARM_clz ; 0x3b2c
        0x00003654:    3020         0      ADDS     r0,r0,#0x20
        0x00003656:    4602        .F      MOV      r2,r0
        0x00003658:    9000        ..      STR      r0,[sp,#0]
        0x0000365a:    4621        !F      MOV      r1,r4
        0x0000365c:    4628        (F      MOV      r0,r5
        0x0000365e:    f7ffff45    ..E.    BL       __aeabi_llsl ; 0x34ec
        0x00003662:    9b04        ..      LDR      r3,[sp,#0x10]
        0x00003664:    9a05        ..      LDR      r2,[sp,#0x14]
        0x00003666:    4604        .F      MOV      r4,r0
        0x00003668:    460f        .F      MOV      r7,r1
        0x0000366a:    4318        .C      ORRS     r0,r0,r3
        0x0000366c:    4311        .C      ORRS     r1,r1,r2
        0x0000366e:    4308        .C      ORRS     r0,r0,r1
        0x00003670:    d014        ..      BEQ      0x369c ; _double_epilogue + 96
        0x00003672:    4618        .F      MOV      r0,r3
        0x00003674:    4310        .C      ORRS     r0,r0,r2
        0x00003676:    d01b        ..      BEQ      0x36b0 ; _double_epilogue + 116
        0x00003678:    9800        ..      LDR      r0,[sp,#0]
        0x0000367a:    2140        @!      MOVS     r1,#0x40
        0x0000367c:    1a0a        ..      SUBS     r2,r1,r0
        0x0000367e:    4618        .F      MOV      r0,r3
        0x00003680:    9905        ..      LDR      r1,[sp,#0x14]
        0x00003682:    f7ffff43    ..C.    BL       __aeabi_llsr ; 0x350c
        0x00003686:    4605        .F      MOV      r5,r0
        0x00003688:    460e        .F      MOV      r6,r1
        0x0000368a:    9a00        ..      LDR      r2,[sp,#0]
        0x0000368c:    9905        ..      LDR      r1,[sp,#0x14]
        0x0000368e:    9804        ..      LDR      r0,[sp,#0x10]
        0x00003690:    f7ffff2c    ..,.    BL       __aeabi_llsl ; 0x34ec
        0x00003694:    4308        .C      ORRS     r0,r0,r1
        0x00003696:    d005        ..      BEQ      0x36a4 ; _double_epilogue + 104
        0x00003698:    2001        .       MOVS     r0,#1
        0x0000369a:    e004        ..      B        0x36a6 ; _double_epilogue + 106
        0x0000369c:    4620         F      MOV      r0,r4
        0x0000369e:    4639        9F      MOV      r1,r7
        0x000036a0:    b007        ..      ADD      sp,sp,#0x1c
        0x000036a2:    bdf0        ..      POP      {r4-r7,pc}
        0x000036a4:    2000        .       MOVS     r0,#0
        0x000036a6:    17c1        ..      ASRS     r1,r0,#31
        0x000036a8:    4305        .C      ORRS     r5,r5,r0
        0x000036aa:    430e        .C      ORRS     r6,r6,r1
        0x000036ac:    432c        ,C      ORRS     r4,r4,r5
        0x000036ae:    4337        7C      ORRS     r7,r7,r6
        0x000036b0:    9900        ..      LDR      r1,[sp,#0]
        0x000036b2:    980e        ..      LDR      r0,[sp,#0x38]
        0x000036b4:    0563        c.      LSLS     r3,r4,#21
        0x000036b6:    1a40        @.      SUBS     r0,r0,r1
        0x000036b8:    0579        y.      LSLS     r1,r7,#21
        0x000036ba:    0ae4        ..      LSRS     r4,r4,#11
        0x000036bc:    2200        ."      MOVS     r2,#0
        0x000036be:    430c        .C      ORRS     r4,r4,r1
        0x000036c0:    0afd        ..      LSRS     r5,r7,#11
        0x000036c2:    300a        .0      ADDS     r0,r0,#0xa
        0x000036c4:    d502        ..      BPL      0x36cc ; _double_epilogue + 144
        0x000036c6:    2000        .       MOVS     r0,#0
        0x000036c8:    4601        .F      MOV      r1,r0
        0x000036ca:    e7e9        ..      B        0x36a0 ; _double_epilogue + 100
        0x000036cc:    0501        ..      LSLS     r1,r0,#20
        0x000036ce:    1910        ..      ADDS     r0,r2,r4
        0x000036d0:    4169        iA      ADCS     r1,r1,r5
        0x000036d2:    9c0c        ..      LDR      r4,[sp,#0x30]
        0x000036d4:    9d0d        ..      LDR      r5,[sp,#0x34]
        0x000036d6:    1900        ..      ADDS     r0,r0,r4
        0x000036d8:    4169        iA      ADCS     r1,r1,r5
        0x000036da:    f7ffffa2    ....    BL       _double_round ; 0x3622
        0x000036de:    e7df        ..      B        0x36a0 ; _double_epilogue + 100
    .text
    __aeabi_dadd
        0x000036e0:    b5f0        ..      PUSH     {r4-r7,lr}
        0x000036e2:    4607        .F      MOV      r7,r0
        0x000036e4:    4608        .F      MOV      r0,r1
        0x000036e6:    4058        X@      EORS     r0,r0,r3
        0x000036e8:    b087        ..      SUB      sp,sp,#0x1c
        0x000036ea:    0fc0        ..      LSRS     r0,r0,#31
        0x000036ec:    9004        ..      STR      r0,[sp,#0x10]
        0x000036ee:    0048        H.      LSLS     r0,r1,#1
        0x000036f0:    460e        .F      MOV      r6,r1
        0x000036f2:    0059        Y.      LSLS     r1,r3,#1
        0x000036f4:    0840        @.      LSRS     r0,r0,#1
        0x000036f6:    0849        I.      LSRS     r1,r1,#1
        0x000036f8:    1abc        ..      SUBS     r4,r7,r2
        0x000036fa:    4188        .A      SBCS     r0,r0,r1
        0x000036fc:    d205        ..      BCS      0x370a ; __aeabi_dadd + 42
        0x000036fe:    4638        8F      MOV      r0,r7
        0x00003700:    4631        1F      MOV      r1,r6
        0x00003702:    461e        .F      MOV      r6,r3
        0x00003704:    4617        .F      MOV      r7,r2
        0x00003706:    460b        .F      MOV      r3,r1
        0x00003708:    4602        .F      MOV      r2,r0
        0x0000370a:    0058        X.      LSLS     r0,r3,#1
        0x0000370c:    0840        @.      LSRS     r0,r0,#1
        0x0000370e:    4310        .C      ORRS     r0,r0,r2
        0x00003710:    d04c        L.      BEQ      0x37ac ; __aeabi_dadd + 204
        0x00003712:    0d30        0.      LSRS     r0,r6,#20
        0x00003714:    9003        ..      STR      r0,[sp,#0xc]
        0x00003716:    0540        @.      LSLS     r0,r0,#21
        0x00003718:    0059        Y.      LSLS     r1,r3,#1
        0x0000371a:    0d40        @.      LSRS     r0,r0,#21
        0x0000371c:    0d49        I.      LSRS     r1,r1,#21
        0x0000371e:    9005        ..      STR      r0,[sp,#0x14]
        0x00003720:    1a40        @.      SUBS     r0,r0,r1
        0x00003722:    9002        ..      STR      r0,[sp,#8]
        0x00003724:    2840        @(      CMP      r0,#0x40
        0x00003726:    da72        r.      BGE      0x380e ; __aeabi_dadd + 302
        0x00003728:    0318        ..      LSLS     r0,r3,#12
        0x0000372a:    2101        .!      MOVS     r1,#1
        0x0000372c:    0b00        ..      LSRS     r0,r0,#12
        0x0000372e:    0509        ..      LSLS     r1,r1,#20
        0x00003730:    4308        .C      ORRS     r0,r0,r1
        0x00003732:    9001        ..      STR      r0,[sp,#4]
        0x00003734:    9804        ..      LDR      r0,[sp,#0x10]
        0x00003736:    9200        ..      STR      r2,[sp,#0]
        0x00003738:    2800        .(      CMP      r0,#0
        0x0000373a:    d005        ..      BEQ      0x3748 ; __aeabi_dadd + 104
        0x0000373c:    9901        ..      LDR      r1,[sp,#4]
        0x0000373e:    4252        RB      RSBS     r2,r2,#0
        0x00003740:    2000        .       MOVS     r0,#0
        0x00003742:    4188        .A      SBCS     r0,r0,r1
        0x00003744:    9200        ..      STR      r2,[sp,#0]
        0x00003746:    9001        ..      STR      r0,[sp,#4]
        0x00003748:    9802        ..      LDR      r0,[sp,#8]
        0x0000374a:    2140        @!      MOVS     r1,#0x40
        0x0000374c:    1a0a        ..      SUBS     r2,r1,r0
        0x0000374e:    9901        ..      LDR      r1,[sp,#4]
        0x00003750:    9800        ..      LDR      r0,[sp,#0]
        0x00003752:    f7fffecb    ....    BL       __aeabi_llsl ; 0x34ec
        0x00003756:    4605        .F      MOV      r5,r0
        0x00003758:    460c        .F      MOV      r4,r1
        0x0000375a:    466b        kF      MOV      r3,sp
        0x0000375c:    cb07        ..      LDM      r3!,{r0-r2}
        0x0000375e:    f000f8a3    ....    BL       __aeabi_lasr ; 0x38a8
        0x00003762:    19c0        ..      ADDS     r0,r0,r7
        0x00003764:    4171        qA      ADCS     r1,r1,r6
        0x00003766:    9a03        ..      LDR      r2,[sp,#0xc]
        0x00003768:    0d0e        ..      LSRS     r6,r1,#20
        0x0000376a:    2300        .#      MOVS     r3,#0
        0x0000376c:    17d7        ..      ASRS     r7,r2,#31
        0x0000376e:    4056        V@      EORS     r6,r6,r2
        0x00003770:    461a        .F      MOV      r2,r3
        0x00003772:    407a        z@      EORS     r2,r2,r7
        0x00003774:    4316        .C      ORRS     r6,r6,r2
        0x00003776:    d044        D.      BEQ      0x3802 ; __aeabi_dadd + 290
        0x00003778:    9a04        ..      LDR      r2,[sp,#0x10]
        0x0000377a:    2a00        .*      CMP      r2,#0
        0x0000377c:    d02d        -.      BEQ      0x37da ; __aeabi_dadd + 250
        0x0000377e:    9a02        ..      LDR      r2,[sp,#8]
        0x00003780:    2a01        .*      CMP      r2,#1
        0x00003782:    9a03        ..      LDR      r2,[sp,#0xc]
        0x00003784:    dc15        ..      BGT      0x37b2 ; __aeabi_dadd + 210
        0x00003786:    0512        ..      LSLS     r2,r2,#20
        0x00003788:    1ac0        ..      SUBS     r0,r0,r3
        0x0000378a:    4191        .A      SBCS     r1,r1,r2
        0x0000378c:    2601        .&      MOVS     r6,#1
        0x0000378e:    0536        6.      LSLS     r6,r6,#20
        0x00003790:    1c00        ..      ADDS     r0,r0,#0
        0x00003792:    4171        qA      ADCS     r1,r1,r6
        0x00003794:    0fd2        ..      LSRS     r2,r2,#31
        0x00003796:    9e05        ..      LDR      r6,[sp,#0x14]
        0x00003798:    07d2        ..      LSLS     r2,r2,#31
        0x0000379a:    9300        ..      STR      r3,[sp,#0]
        0x0000379c:    9201        ..      STR      r2,[sp,#4]
        0x0000379e:    9602        ..      STR      r6,[sp,#8]
        0x000037a0:    462a        *F      MOV      r2,r5
        0x000037a2:    4623        #F      MOV      r3,r4
        0x000037a4:    f7ffff4a    ..J.    BL       _double_epilogue ; 0x363c
        0x000037a8:    b007        ..      ADD      sp,sp,#0x1c
        0x000037aa:    bdf0        ..      POP      {r4-r7,pc}
        0x000037ac:    4638        8F      MOV      r0,r7
        0x000037ae:    4631        1F      MOV      r1,r6
        0x000037b0:    e7fa        ..      B        0x37a8 ; __aeabi_dadd + 200
        0x000037b2:    0516        ..      LSLS     r6,r2,#20
        0x000037b4:    4a22        "J      LDR      r2,[pc,#136] ; [0x3840] = 0xffe00000
        0x000037b6:    460f        .F      MOV      r7,r1
        0x000037b8:    18b2        ..      ADDS     r2,r6,r2
        0x000037ba:    1ac0        ..      SUBS     r0,r0,r3
        0x000037bc:    41b7        .A      SBCS     r7,r7,r6
        0x000037be:    2101        .!      MOVS     r1,#1
        0x000037c0:    0509        ..      LSLS     r1,r1,#20
        0x000037c2:    1c00        ..      ADDS     r0,r0,#0
        0x000037c4:    414f        OA      ADCS     r7,r7,r1
        0x000037c6:    1800        ..      ADDS     r0,r0,r0
        0x000037c8:    417f        .A      ADCS     r7,r7,r7
        0x000037ca:    4611        .F      MOV      r1,r2
        0x000037cc:    1818        ..      ADDS     r0,r3,r0
        0x000037ce:    4179        yA      ADCS     r1,r1,r7
        0x000037d0:    0fe2        ..      LSRS     r2,r4,#31
        0x000037d2:    4310        .C      ORRS     r0,r0,r2
        0x000037d4:    196d        m.      ADDS     r5,r5,r5
        0x000037d6:    4164        dA      ADCS     r4,r4,r4
        0x000037d8:    e013        ..      B        0x3802 ; __aeabi_dadd + 290
        0x000037da:    07e2        ..      LSLS     r2,r4,#31
        0x000037dc:    086d        m.      LSRS     r5,r5,#1
        0x000037de:    4315        .C      ORRS     r5,r5,r2
        0x000037e0:    0864        d.      LSRS     r4,r4,#1
        0x000037e2:    07c2        ..      LSLS     r2,r0,#31
        0x000037e4:    4314        .C      ORRS     r4,r4,r2
        0x000037e6:    9a03        ..      LDR      r2,[sp,#0xc]
        0x000037e8:    2601        .&      MOVS     r6,#1
        0x000037ea:    0512        ..      LSLS     r2,r2,#20
        0x000037ec:    1ac0        ..      SUBS     r0,r0,r3
        0x000037ee:    4191        .A      SBCS     r1,r1,r2
        0x000037f0:    0536        6.      LSLS     r6,r6,#20
        0x000037f2:    1c00        ..      ADDS     r0,r0,#0
        0x000037f4:    4171        qA      ADCS     r1,r1,r6
        0x000037f6:    07ce        ..      LSLS     r6,r1,#31
        0x000037f8:    0840        @.      LSRS     r0,r0,#1
        0x000037fa:    4330        0C      ORRS     r0,r0,r6
        0x000037fc:    0849        I.      LSRS     r1,r1,#1
        0x000037fe:    18c0        ..      ADDS     r0,r0,r3
        0x00003800:    4151        QA      ADCS     r1,r1,r2
        0x00003802:    462a        *F      MOV      r2,r5
        0x00003804:    4623        #F      MOV      r3,r4
        0x00003806:    f7ffff0c    ....    BL       _double_round ; 0x3622
        0x0000380a:    e7cd        ..      B        0x37a8 ; __aeabi_dadd + 200
        0x0000380c:    e7ff        ..      B        0x380e ; __aeabi_dadd + 302
        0x0000380e:    9804        ..      LDR      r0,[sp,#0x10]
        0x00003810:    2201        ."      MOVS     r2,#1
        0x00003812:    0040        @.      LSLS     r0,r0,#1
        0x00003814:    17c1        ..      ASRS     r1,r0,#31
        0x00003816:    1a12        ..      SUBS     r2,r2,r0
        0x00003818:    2300        .#      MOVS     r3,#0
        0x0000381a:    418b        .A      SBCS     r3,r3,r1
        0x0000381c:    9804        ..      LDR      r0,[sp,#0x10]
        0x0000381e:    4631        1F      MOV      r1,r6
        0x00003820:    17c4        ..      ASRS     r4,r0,#31
        0x00003822:    1a38        8.      SUBS     r0,r7,r0
        0x00003824:    41a1        .A      SBCS     r1,r1,r4
        0x00003826:    e7ee        ..      B        0x3806 ; __aeabi_dadd + 294
    __aeabi_dsub
        0x00003828:    b430        0.      PUSH     {r4,r5}
        0x0000382a:    2401        .$      MOVS     r4,#1
        0x0000382c:    07e4        ..      LSLS     r4,r4,#31
        0x0000382e:    4063        c@      EORS     r3,r3,r4
        0x00003830:    bc30        0.      POP      {r4,r5}
        0x00003832:    e755        U.      B        __aeabi_dadd ; 0x36e0
    __aeabi_drsub
        0x00003834:    b430        0.      PUSH     {r4,r5}
        0x00003836:    2401        .$      MOVS     r4,#1
        0x00003838:    07e4        ..      LSLS     r4,r4,#31
        0x0000383a:    4061        a@      EORS     r1,r1,r4
        0x0000383c:    bc30        0.      POP      {r4,r5}
        0x0000383e:    e74f        O.      B        __aeabi_dadd ; 0x36e0
    $d
        0x00003840:    ffe00000    ....    DCD    4292870144
    $t
    .text
    __aeabi_d2ulz
        0x00003844:    004a        J.      LSLS     r2,r1,#1
        0x00003846:    0309        ..      LSLS     r1,r1,#12
        0x00003848:    2301        .#      MOVS     r3,#1
        0x0000384a:    0b09        ..      LSRS     r1,r1,#12
        0x0000384c:    051b        ..      LSLS     r3,r3,#20
        0x0000384e:    4319        .C      ORRS     r1,r1,r3
        0x00003850:    4b0a        .K      LDR      r3,[pc,#40] ; [0x387c] = 0x3ff
        0x00003852:    b510        ..      PUSH     {r4,lr}
        0x00003854:    0d52        R.      LSRS     r2,r2,#21
        0x00003856:    429a        .B      CMP      r2,r3
        0x00003858:    da02        ..      BGE      0x3860 ; __aeabi_d2ulz + 28
        0x0000385a:    2000        .       MOVS     r0,#0
        0x0000385c:    4601        .F      MOV      r1,r0
        0x0000385e:    bd10        ..      POP      {r4,pc}
        0x00003860:    4b06        .K      LDR      r3,[pc,#24] ; [0x387c] = 0x3ff
        0x00003862:    3334        43      ADDS     r3,r3,#0x34
        0x00003864:    429a        .B      CMP      r2,r3
        0x00003866:    dc03        ..      BGT      0x3870 ; __aeabi_d2ulz + 44
        0x00003868:    1a9a        ..      SUBS     r2,r3,r2
        0x0000386a:    f7fffe4f    ..O.    BL       __aeabi_llsr ; 0x350c
        0x0000386e:    bd10        ..      POP      {r4,pc}
        0x00003870:    4b03        .K      LDR      r3,[pc,#12] ; [0x3880] = 0xfffffbcd
        0x00003872:    18d2        ..      ADDS     r2,r2,r3
        0x00003874:    f7fffe3a    ..:.    BL       __aeabi_llsl ; 0x34ec
        0x00003878:    bd10        ..      POP      {r4,pc}
    $d
        0x0000387a:    0000        ..      DCW    0
        0x0000387c:    000003ff    ....    DCD    1023
        0x00003880:    fffffbcd    ....    DCD    4294966221
    $t
    .text
    __scatterload
    __scatterload_rt2
        0x00003884:    4c06        .L      LDR      r4,[pc,#24] ; [0x38a0] = 0x5d74
        0x00003886:    2501        .%      MOVS     r5,#1
        0x00003888:    4e06        .N      LDR      r6,[pc,#24] ; [0x38a4] = 0x5d94
        0x0000388a:    e005        ..      B        0x3898 ; __scatterload + 20
        0x0000388c:    68e3        .h      LDR      r3,[r4,#0xc]
        0x0000388e:    cc07        ..      LDM      r4!,{r0-r2}
        0x00003890:    432b        +C      ORRS     r3,r3,r5
        0x00003892:    3c0c        .<      SUBS     r4,r4,#0xc
        0x00003894:    4798        .G      BLX      r3
        0x00003896:    3410        .4      ADDS     r4,r4,#0x10
        0x00003898:    42b4        .B      CMP      r4,r6
        0x0000389a:    d3f7        ..      BCC      0x388c ; __scatterload + 8
        0x0000389c:    f7fcfc14    ....    BL       __main_after_scatterload ; 0xc8
    $d
        0x000038a0:    00005d74    t]..    DCD    23924
        0x000038a4:    00005d94    .]..    DCD    23956
    $t
    .text
    __aeabi_lasr
    _ll_sshift_r
        0x000038a8:    b510        ..      PUSH     {r4,lr}
        0x000038aa:    2a20         *      CMP      r2,#0x20
        0x000038ac:    db06        ..      BLT      0x38bc ; __aeabi_lasr + 20
        0x000038ae:    17cb        ..      ASRS     r3,r1,#31
        0x000038b0:    4608        .F      MOV      r0,r1
        0x000038b2:    3a20         :      SUBS     r2,r2,#0x20
        0x000038b4:    4110        .A      ASRS     r0,r0,r2
        0x000038b6:    17c1        ..      ASRS     r1,r0,#31
        0x000038b8:    430b        .C      ORRS     r3,r3,r1
        0x000038ba:    e006        ..      B        0x38ca ; __aeabi_lasr + 34
        0x000038bc:    460b        .F      MOV      r3,r1
        0x000038be:    4113        .A      ASRS     r3,r3,r2
        0x000038c0:    40d0        .@      LSRS     r0,r0,r2
        0x000038c2:    2420         $      MOVS     r4,#0x20
        0x000038c4:    1aa2        ..      SUBS     r2,r4,r2
        0x000038c6:    4091        .@      LSLS     r1,r1,r2
        0x000038c8:    4308        .C      ORRS     r0,r0,r1
        0x000038ca:    4619        .F      MOV      r1,r3
        0x000038cc:    bd10        ..      POP      {r4,pc}
        0x000038ce:    0000        ..      MOVS     r0,r0
    .text
    __rt_ctype_table
        0x000038d0:    4800        .H      LDR      r0,[pc,#0] ; [0x38d4] = 0x5cf8
        0x000038d2:    4770        pG      BX       lr
    $d
        0x000038d4:    00005cf8    .\..    DCD    23800
    $t
    .text
    _strtoul
        0x000038d8:    b5f7        ..      PUSH     {r0-r2,r4-r7,lr}
        0x000038da:    b082        ..      SUB      sp,sp,#8
        0x000038dc:    9c02        ..      LDR      r4,[sp,#8]
        0x000038de:    2700        .'      MOVS     r7,#0
        0x000038e0:    7820         x      LDRB     r0,[r4,#0]
        0x000038e2:    1c64        d.      ADDS     r4,r4,#1
        0x000038e4:    4615        .F      MOV      r5,r2
        0x000038e6:    9701        ..      STR      r7,[sp,#4]
        0x000038e8:    2830        0(      CMP      r0,#0x30
        0x000038ea:    d002        ..      BEQ      0x38f2 ; _strtoul + 26
        0x000038ec:    2d00        .-      CMP      r5,#0
        0x000038ee:    d015        ..      BEQ      0x391c ; _strtoul + 68
        0x000038f0:    e015        ..      B        0x391e ; _strtoul + 70
        0x000038f2:    7820         x      LDRB     r0,[r4,#0]
        0x000038f4:    2701        .'      MOVS     r7,#1
        0x000038f6:    1c64        d.      ADDS     r4,r4,#1
        0x000038f8:    2878        x(      CMP      r0,#0x78
        0x000038fa:    d004        ..      BEQ      0x3906 ; _strtoul + 46
        0x000038fc:    2858        X(      CMP      r0,#0x58
        0x000038fe:    d002        ..      BEQ      0x3906 ; _strtoul + 46
        0x00003900:    2d00        .-      CMP      r5,#0
        0x00003902:    d009        ..      BEQ      0x3918 ; _strtoul + 64
        0x00003904:    e00b        ..      B        0x391e ; _strtoul + 70
        0x00003906:    2d00        .-      CMP      r5,#0
        0x00003908:    d001        ..      BEQ      0x390e ; _strtoul + 54
        0x0000390a:    2d10        .-      CMP      r5,#0x10
        0x0000390c:    d107        ..      BNE      0x391e ; _strtoul + 70
        0x0000390e:    2700        .'      MOVS     r7,#0
        0x00003910:    2510        .%      MOVS     r5,#0x10
        0x00003912:    7820         x      LDRB     r0,[r4,#0]
        0x00003914:    1c64        d.      ADDS     r4,r4,#1
        0x00003916:    e002        ..      B        0x391e ; _strtoul + 70
        0x00003918:    2508        .%      MOVS     r5,#8
        0x0000391a:    e000        ..      B        0x391e ; _strtoul + 70
        0x0000391c:    250a        .%      MOVS     r5,#0xa
        0x0000391e:    2600        .&      MOVS     r6,#0
        0x00003920:    9600        ..      STR      r6,[sp,#0]
        0x00003922:    e010        ..      B        0x3946 ; _strtoul + 110
        0x00003924:    9900        ..      LDR      r1,[sp,#0]
        0x00003926:    2701        .'      MOVS     r7,#1
        0x00003928:    4369        iC      MULS     r1,r5,r1
        0x0000392a:    1808        ..      ADDS     r0,r1,r0
        0x0000392c:    0c02        ..      LSRS     r2,r0,#16
        0x0000392e:    4629        )F      MOV      r1,r5
        0x00003930:    b280        ..      UXTH     r0,r0
        0x00003932:    4371        qC      MULS     r1,r6,r1
        0x00003934:    9000        ..      STR      r0,[sp,#0]
        0x00003936:    188e        ..      ADDS     r6,r1,r2
        0x00003938:    0438        8.      LSLS     r0,r7,#16
        0x0000393a:    4286        .B      CMP      r6,r0
        0x0000393c:    d301        ..      BCC      0x3942 ; _strtoul + 106
        0x0000393e:    2001        .       MOVS     r0,#1
        0x00003940:    9001        ..      STR      r0,[sp,#4]
        0x00003942:    7820         x      LDRB     r0,[r4,#0]
        0x00003944:    1c64        d.      ADDS     r4,r4,#1
        0x00003946:    4629        )F      MOV      r1,r5
        0x00003948:    f000f819    ....    BL       _chval ; 0x397e
        0x0000394c:    2800        .(      CMP      r0,#0
        0x0000394e:    dae9        ..      BGE      0x3924 ; _strtoul + 76
        0x00003950:    9803        ..      LDR      r0,[sp,#0xc]
        0x00003952:    2800        .(      CMP      r0,#0
        0x00003954:    d005        ..      BEQ      0x3962 ; _strtoul + 138
        0x00003956:    2f00        ./      CMP      r7,#0
        0x00003958:    d001        ..      BEQ      0x395e ; _strtoul + 134
        0x0000395a:    1e64        d.      SUBS     r4,r4,#1
        0x0000395c:    e000        ..      B        0x3960 ; _strtoul + 136
        0x0000395e:    9c02        ..      LDR      r4,[sp,#8]
        0x00003960:    6004        .`      STR      r4,[r0,#0]
        0x00003962:    9801        ..      LDR      r0,[sp,#4]
        0x00003964:    2800        .(      CMP      r0,#0
        0x00003966:    d006        ..      BEQ      0x3976 ; _strtoul + 158
        0x00003968:    f000f910    ....    BL       __aeabi_errno_addr ; 0x3b8c
        0x0000396c:    2102        .!      MOVS     r1,#2
        0x0000396e:    6001        .`      STR      r1,[r0,#0]
        0x00003970:    1ec8        ..      SUBS     r0,r1,#3
        0x00003972:    b005        ..      ADD      sp,sp,#0x14
        0x00003974:    bdf0        ..      POP      {r4-r7,pc}
        0x00003976:    9900        ..      LDR      r1,[sp,#0]
        0x00003978:    0430        0.      LSLS     r0,r6,#16
        0x0000397a:    4308        .C      ORRS     r0,r0,r1
        0x0000397c:    e7f9        ..      B        0x3972 ; _strtoul + 154
    .text
    _chval
        0x0000397e:    283a        :(      CMP      r0,#0x3a
        0x00003980:    d200        ..      BCS      0x3984 ; _chval + 6
        0x00003982:    3830        08      SUBS     r0,r0,#0x30
        0x00003984:    2320         #      MOVS     r3,#0x20
        0x00003986:    4602        .F      MOV      r2,r0
        0x00003988:    439a        .C      BICS     r2,r2,r3
        0x0000398a:    2a41        A*      CMP      r2,#0x41
        0x0000398c:    d301        ..      BCC      0x3992 ; _chval + 20
        0x0000398e:    4610        .F      MOV      r0,r2
        0x00003990:    3837        78      SUBS     r0,r0,#0x37
        0x00003992:    4288        .B      CMP      r0,r1
        0x00003994:    d301        ..      BCC      0x399a ; _chval + 28
        0x00003996:    2000        .       MOVS     r0,#0
        0x00003998:    43c0        .C      MVNS     r0,r0
        0x0000399a:    4770        pG      BX       lr
    $d
    SVC_TABLE
    SVC_Count
        0x0000399c:    00000000    ....    DCD    0
    $t
    i.SYS_Init
    SVC_Table
    SYS_Init
        0x000039a0:    b510        ..      PUSH     {r4,lr}
        0x000039a2:    f7fdf817    ....    BL       SYS_UnlockReg ; 0x9d4
        0x000039a6:    4849        IH      LDR      r0,[pc,#292] ; [0x3acc] = 0x50000200
        0x000039a8:    6800        .h      LDR      r0,[r0,#0]
        0x000039aa:    2101        .!      MOVS     r1,#1
        0x000039ac:    4308        .C      ORRS     r0,r0,r1
        0x000039ae:    4947        GI      LDR      r1,[pc,#284] ; [0x3acc] = 0x50000200
        0x000039b0:    6008        .`      STR      r0,[r1,#0]
        0x000039b2:    2001        .       MOVS     r0,#1
        0x000039b4:    f7fefd60    ..`.    BL       CLK_WaitClockReady ; 0x2478
        0x000039b8:    4844        DH      LDR      r0,[pc,#272] ; [0x3acc] = 0x50000200
        0x000039ba:    6900        .i      LDR      r0,[r0,#0x10]
        0x000039bc:    08c0        ..      LSRS     r0,r0,#3
        0x000039be:    00c0        ..      LSLS     r0,r0,#3
        0x000039c0:    4942        BI      LDR      r1,[pc,#264] ; [0x3acc] = 0x50000200
        0x000039c2:    6108        .a      STR      r0,[r1,#0x10]
        0x000039c4:    4608        .F      MOV      r0,r1
        0x000039c6:    6900        .i      LDR      r0,[r0,#0x10]
        0x000039c8:    6108        .a      STR      r0,[r1,#0x10]
        0x000039ca:    4608        .F      MOV      r0,r1
        0x000039cc:    6880        .h      LDR      r0,[r0,#8]
        0x000039ce:    01c9        ..      LSLS     r1,r1,#7
        0x000039d0:    4308        .C      ORRS     r0,r0,r1
        0x000039d2:    493e        >I      LDR      r1,[pc,#248] ; [0x3acc] = 0x50000200
        0x000039d4:    6088        .`      STR      r0,[r1,#8]
        0x000039d6:    4608        .F      MOV      r0,r1
        0x000039d8:    6880        .h      LDR      r0,[r0,#8]
        0x000039da:    0209        ..      LSLS     r1,r1,#8
        0x000039dc:    4308        .C      ORRS     r0,r0,r1
        0x000039de:    493b        ;I      LDR      r1,[pc,#236] ; [0x3acc] = 0x50000200
        0x000039e0:    6088        .`      STR      r0,[r1,#8]
        0x000039e2:    483b        ;H      LDR      r0,[pc,#236] ; [0x3ad0] = 0xa623fe1c
        0x000039e4:    f7fefe85    ....    BL       CLK_EnableModuleClock ; 0x26f2
        0x000039e8:    2007        .       MOVS     r0,#7
        0x000039ea:    0740        @.      LSLS     r0,r0,#29
        0x000039ec:    f7fefe81    ....    BL       CLK_EnableModuleClock ; 0x26f2
        0x000039f0:    4838        8H      LDR      r0,[pc,#224] ; [0x3ad4] = 0x80000009
        0x000039f2:    f7fefe7e    ..~.    BL       CLK_EnableModuleClock ; 0x26f2
        0x000039f6:    2200        ."      MOVS     r2,#0
        0x000039f8:    4611        .F      MOV      r1,r2
        0x000039fa:    4837        7H      LDR      r0,[pc,#220] ; [0x3ad8] = 0xa6003d10
        0x000039fc:    f7fefe43    ..C.    BL       CLK_SetModuleClock ; 0x2686
        0x00003a00:    2200        ."      MOVS     r2,#0
        0x00003a02:    4611        .F      MOV      r1,r2
        0x00003a04:    4834        4H      LDR      r0,[pc,#208] ; [0x3ad8] = 0xa6003d10
        0x00003a06:    1c40        @.      ADDS     r0,r0,#1
        0x00003a08:    f7fefe3d    ..=.    BL       CLK_SetModuleClock ; 0x2686
        0x00003a0c:    2200        ."      MOVS     r2,#0
        0x00003a0e:    4611        .F      MOV      r1,r2
        0x00003a10:    2007        .       MOVS     r0,#7
        0x00003a12:    0740        @.      LSLS     r0,r0,#29
        0x00003a14:    f7fefe37    ..7.    BL       CLK_SetModuleClock ; 0x2686
        0x00003a18:    f7fcfc82    ....    BL       SystemCoreClockUpdate ; 0x320
        0x00003a1c:    2005        .       MOVS     r0,#5
        0x00003a1e:    0700        ..      LSLS     r0,r0,#28
        0x00003a20:    6b80        .k      LDR      r0,[r0,#0x38]
        0x00003a22:    2177        w!      MOVS     r1,#0x77
        0x00003a24:    4388        .C      BICS     r0,r0,r1
        0x00003a26:    2105        .!      MOVS     r1,#5
        0x00003a28:    0709        ..      LSLS     r1,r1,#28
        0x00003a2a:    6388        .c      STR      r0,[r1,#0x38]
        0x00003a2c:    4608        .F      MOV      r0,r1
        0x00003a2e:    6b80        .k      LDR      r0,[r0,#0x38]
        0x00003a30:    2111        .!      MOVS     r1,#0x11
        0x00003a32:    4308        .C      ORRS     r0,r0,r1
        0x00003a34:    2105        .!      MOVS     r1,#5
        0x00003a36:    0709        ..      LSLS     r1,r1,#28
        0x00003a38:    6388        .c      STR      r0,[r1,#0x38]
        0x00003a3a:    4608        .F      MOV      r0,r1
        0x00003a3c:    6b80        .k      LDR      r0,[r0,#0x38]
        0x00003a3e:    2177        w!      MOVS     r1,#0x77
        0x00003a40:    0409        ..      LSLS     r1,r1,#16
        0x00003a42:    4388        .C      BICS     r0,r0,r1
        0x00003a44:    2105        .!      MOVS     r1,#5
        0x00003a46:    0709        ..      LSLS     r1,r1,#28
        0x00003a48:    6388        .c      STR      r0,[r1,#0x38]
        0x00003a4a:    4608        .F      MOV      r0,r1
        0x00003a4c:    6b80        .k      LDR      r0,[r0,#0x38]
        0x00003a4e:    2111        .!      MOVS     r1,#0x11
        0x00003a50:    0409        ..      LSLS     r1,r1,#16
        0x00003a52:    4308        .C      ORRS     r0,r0,r1
        0x00003a54:    2105        .!      MOVS     r1,#5
        0x00003a56:    0709        ..      LSLS     r1,r1,#28
        0x00003a58:    6388        .c      STR      r0,[r1,#0x38]
        0x00003a5a:    4608        .F      MOV      r0,r1
        0x00003a5c:    6b40        @k      LDR      r0,[r0,#0x34]
        0x00003a5e:    2111        .!      MOVS     r1,#0x11
        0x00003a60:    0209        ..      LSLS     r1,r1,#8
        0x00003a62:    4308        .C      ORRS     r0,r0,r1
        0x00003a64:    2105        .!      MOVS     r1,#5
        0x00003a66:    0709        ..      LSLS     r1,r1,#28
        0x00003a68:    6348        Hc      STR      r0,[r1,#0x34]
        0x00003a6a:    4818        .H      LDR      r0,[pc,#96] ; [0x3acc] = 0x50000200
        0x00003a6c:    6880        .h      LDR      r0,[r0,#8]
        0x00003a6e:    2101        .!      MOVS     r1,#1
        0x00003a70:    0249        I.      LSLS     r1,r1,#9
        0x00003a72:    4308        .C      ORRS     r0,r0,r1
        0x00003a74:    4915        .I      LDR      r1,[pc,#84] ; [0x3acc] = 0x50000200
        0x00003a76:    6088        .`      STR      r0,[r1,#8]
        0x00003a78:    2005        .       MOVS     r0,#5
        0x00003a7a:    0700        ..      LSLS     r0,r0,#28
        0x00003a7c:    68c0        .h      LDR      r0,[r0,#0xc]
        0x00003a7e:    2101        .!      MOVS     r1,#1
        0x00003a80:    0249        I.      LSLS     r1,r1,#9
        0x00003a82:    4308        .C      ORRS     r0,r0,r1
        0x00003a84:    2105        .!      MOVS     r1,#5
        0x00003a86:    0709        ..      LSLS     r1,r1,#28
        0x00003a88:    60c8        .`      STR      r0,[r1,#0xc]
        0x00003a8a:    4608        .F      MOV      r0,r1
        0x00003a8c:    68c0        .h      LDR      r0,[r0,#0xc]
        0x00003a8e:    2101        .!      MOVS     r1,#1
        0x00003a90:    0249        I.      LSLS     r1,r1,#9
        0x00003a92:    4388        .C      BICS     r0,r0,r1
        0x00003a94:    2105        .!      MOVS     r1,#5
        0x00003a96:    0709        ..      LSLS     r1,r1,#28
        0x00003a98:    60c8        .`      STR      r0,[r1,#0xc]
        0x00003a9a:    4608        .F      MOV      r0,r1
        0x00003a9c:    6b00        .k      LDR      r0,[r0,#0x30]
        0x00003a9e:    08c0        ..      LSRS     r0,r0,#3
        0x00003aa0:    00c0        ..      LSLS     r0,r0,#3
        0x00003aa2:    6308        .c      STR      r0,[r1,#0x30]
        0x00003aa4:    4608        .F      MOV      r0,r1
        0x00003aa6:    6b00        .k      LDR      r0,[r0,#0x30]
        0x00003aa8:    2101        .!      MOVS     r1,#1
        0x00003aaa:    4308        .C      ORRS     r0,r0,r1
        0x00003aac:    2105        .!      MOVS     r1,#5
        0x00003aae:    0709        ..      LSLS     r1,r1,#28
        0x00003ab0:    6308        .c      STR      r0,[r1,#0x30]
        0x00003ab2:    480a        .H      LDR      r0,[pc,#40] ; [0x3adc] = 0x50004000
        0x00003ab4:    6840        @h      LDR      r0,[r0,#4]
        0x00003ab6:    2101        .!      MOVS     r1,#1
        0x00003ab8:    0409        ..      LSLS     r1,r1,#16
        0x00003aba:    4308        .C      ORRS     r0,r0,r1
        0x00003abc:    4907        .I      LDR      r1,[pc,#28] ; [0x3adc] = 0x50004000
        0x00003abe:    6048        H`      STR      r0,[r1,#4]
        0x00003ac0:    bf00        ..      NOP      
        0x00003ac2:    2000        .       MOVS     r0,#0
        0x00003ac4:    4906        .I      LDR      r1,[pc,#24] ; [0x3ae0] = 0x50000100
        0x00003ac6:    6008        .`      STR      r0,[r1,#0]
        0x00003ac8:    bf00        ..      NOP      
        0x00003aca:    bd10        ..      POP      {r4,pc}
    $d
        0x00003acc:    50000200    ...P    DCD    1342177792
        0x00003ad0:    a623fe1c    ..#.    DCD    2787376668
        0x00003ad4:    80000009    ....    DCD    2147483657
        0x00003ad8:    a6003d10    .=..    DCD    2785033488
        0x00003adc:    50004000    .@.P    DCD    1342193664
        0x00003ae0:    50000100    ...P    DCD    1342177536
    $t
    i.__0printf
    __0printf
    __1printf
    __2printf
    __c89printf
    printf
        0x00003ae4:    b40f        ..      PUSH     {r0-r3}
        0x00003ae6:    b510        ..      PUSH     {r4,lr}
        0x00003ae8:    a903        ..      ADD      r1,sp,#0xc
        0x00003aea:    4b04        .K      LDR      r3,[pc,#16] ; [0x3afc] = 0x2cbf
        0x00003aec:    4a04        .J      LDR      r2,[pc,#16] ; [0x3b00] = 0x200000a4
        0x00003aee:    9802        ..      LDR      r0,[sp,#8]
        0x00003af0:    f000f930    ..0.    BL       _printf_core ; 0x3d54
        0x00003af4:    bc10        ..      POP      {r4}
        0x00003af6:    bc08        ..      POP      {r3}
        0x00003af8:    b004        ..      ADD      sp,sp,#0x10
        0x00003afa:    4718        .G      BX       r3
    $d
        0x00003afc:    00002cbf    .,..    DCD    11455
        0x00003b00:    200000a4    ...     DCD    536871076
    $t
    i.__0sprintf
    __0sprintf
    __1sprintf
    __2sprintf
    __c89sprintf
    sprintf
        0x00003b04:    b40f        ..      PUSH     {r0-r3}
        0x00003b06:    b510        ..      PUSH     {r4,lr}
        0x00003b08:    a904        ..      ADD      r1,sp,#0x10
        0x00003b0a:    4b07        .K      LDR      r3,[pc,#28] ; [0x3b28] = 0x448d
        0x00003b0c:    aa02        ..      ADD      r2,sp,#8
        0x00003b0e:    9803        ..      LDR      r0,[sp,#0xc]
        0x00003b10:    f000f920    .. .    BL       _printf_core ; 0x3d54
        0x00003b14:    4604        .F      MOV      r4,r0
        0x00003b16:    a902        ..      ADD      r1,sp,#8
        0x00003b18:    2000        .       MOVS     r0,#0
        0x00003b1a:    f000fcb7    ....    BL       _sputc ; 0x448c
        0x00003b1e:    4620         F      MOV      r0,r4
        0x00003b20:    bc10        ..      POP      {r4}
        0x00003b22:    bc08        ..      POP      {r3}
        0x00003b24:    b004        ..      ADD      sp,sp,#0x10
        0x00003b26:    4718        .G      BX       r3
    $d
        0x00003b28:    0000448d    .D..    DCD    17549
    $t
    i.__ARM_clz
    __ARM_clz
        0x00003b2c:    2120         !      MOVS     r1,#0x20
        0x00003b2e:    0c02        ..      LSRS     r2,r0,#16
        0x00003b30:    d001        ..      BEQ      0x3b36 ; __ARM_clz + 10
        0x00003b32:    2110        .!      MOVS     r1,#0x10
        0x00003b34:    4610        .F      MOV      r0,r2
        0x00003b36:    0a02        ..      LSRS     r2,r0,#8
        0x00003b38:    d001        ..      BEQ      0x3b3e ; __ARM_clz + 18
        0x00003b3a:    4610        .F      MOV      r0,r2
        0x00003b3c:    3908        .9      SUBS     r1,r1,#8
        0x00003b3e:    0902        ..      LSRS     r2,r0,#4
        0x00003b40:    d001        ..      BEQ      0x3b46 ; __ARM_clz + 26
        0x00003b42:    4610        .F      MOV      r0,r2
        0x00003b44:    1f09        ..      SUBS     r1,r1,#4
        0x00003b46:    0882        ..      LSRS     r2,r0,#2
        0x00003b48:    d001        ..      BEQ      0x3b4e ; __ARM_clz + 34
        0x00003b4a:    4610        .F      MOV      r0,r2
        0x00003b4c:    1e89        ..      SUBS     r1,r1,#2
        0x00003b4e:    0842        B.      LSRS     r2,r0,#1
        0x00003b50:    d001        ..      BEQ      0x3b56 ; __ARM_clz + 42
        0x00003b52:    1e88        ..      SUBS     r0,r1,#2
        0x00003b54:    4770        pG      BX       lr
        0x00003b56:    1a08        ..      SUBS     r0,r1,r0
        0x00003b58:    4770        pG      BX       lr
    i.__ARM_common_ll_muluu
    __ARM_common_ll_muluu
        0x00003b5a:    b5f8        ..      PUSH     {r3-r7,lr}
        0x00003b5c:    0c04        ..      LSRS     r4,r0,#16
        0x00003b5e:    b28b        ..      UXTH     r3,r1
        0x00003b60:    4626        &F      MOV      r6,r4
        0x00003b62:    b282        ..      UXTH     r2,r0
        0x00003b64:    435e        ^C      MULS     r6,r3,r6
        0x00003b66:    0c0d        ..      LSRS     r5,r1,#16
        0x00003b68:    4610        .F      MOV      r0,r2
        0x00003b6a:    0c37        7.      LSRS     r7,r6,#16
        0x00003b6c:    4358        XC      MULS     r0,r3,r0
        0x00003b6e:    0436        6.      LSLS     r6,r6,#16
        0x00003b70:    1980        ..      ADDS     r0,r0,r6
        0x00003b72:    2100        .!      MOVS     r1,#0
        0x00003b74:    4179        yA      ADCS     r1,r1,r7
        0x00003b76:    4616        .F      MOV      r6,r2
        0x00003b78:    436e        nC      MULS     r6,r5,r6
        0x00003b7a:    0c37        7.      LSRS     r7,r6,#16
        0x00003b7c:    0436        6.      LSLS     r6,r6,#16
        0x00003b7e:    1980        ..      ADDS     r0,r0,r6
        0x00003b80:    4179        yA      ADCS     r1,r1,r7
        0x00003b82:    4626        &F      MOV      r6,r4
        0x00003b84:    436e        nC      MULS     r6,r5,r6
        0x00003b86:    1989        ..      ADDS     r1,r1,r6
        0x00003b88:    bdf8        ..      POP      {r3-r7,pc}
        0x00003b8a:    0000        ..      MOVS     r0,r0
    i.__aeabi_errno_addr
    __aeabi_errno_addr
    __rt_errno_addr
        0x00003b8c:    4800        .H      LDR      r0,[pc,#0] ; [0x3b90] = 0x200000e0
        0x00003b8e:    4770        pG      BX       lr
    $d
        0x00003b90:    200000e0    ...     DCD    536871136
    $t
    i.__scatterload_copy
    __scatterload_copy
        0x00003b94:    e002        ..      B        0x3b9c ; __scatterload_copy + 8
        0x00003b96:    c808        ..      LDM      r0!,{r3}
        0x00003b98:    1f12        ..      SUBS     r2,r2,#4
        0x00003b9a:    c108        ..      STM      r1!,{r3}
        0x00003b9c:    2a00        .*      CMP      r2,#0
        0x00003b9e:    d1fa        ..      BNE      0x3b96 ; __scatterload_copy + 2
        0x00003ba0:    4770        pG      BX       lr
    i.__scatterload_null
    __scatterload_null
        0x00003ba2:    4770        pG      BX       lr
    i.__scatterload_zeroinit
    __scatterload_zeroinit
        0x00003ba4:    2000        .       MOVS     r0,#0
        0x00003ba6:    e001        ..      B        0x3bac ; __scatterload_zeroinit + 8
        0x00003ba8:    c101        ..      STM      r1!,{r0}
        0x00003baa:    1f12        ..      SUBS     r2,r2,#4
        0x00003bac:    2a00        .*      CMP      r2,#0
        0x00003bae:    d1fb        ..      BNE      0x3ba8 ; __scatterload_zeroinit + 4
        0x00003bb0:    4770        pG      BX       lr
        0x00003bb2:    0000        ..      MOVS     r0,r0
    i._fp_digits
    _fp_digits
        0x00003bb4:    b5f0        ..      PUSH     {r4-r7,lr}
        0x00003bb6:    b41f        ..      PUSH     {r0-r4}
        0x00003bb8:    b084        ..      SUB      sp,sp,#0x10
        0x00003bba:    9807        ..      LDR      r0,[sp,#0x1c]
        0x00003bbc:    9906        ..      LDR      r1,[sp,#0x18]
        0x00003bbe:    0d02        ..      LSRS     r2,r0,#20
        0x00003bc0:    4301        .C      ORRS     r1,r1,r0
        0x00003bc2:    d014        ..      BEQ      0x3bee ; _fp_digits + 58
        0x00003bc4:    484a        JH      LDR      r0,[pc,#296] ; [0x3cf0] = 0xfffffc01
        0x00003bc6:    494b        KI      LDR      r1,[pc,#300] ; [0x3cf4] = 0x4d10
        0x00003bc8:    1810        ..      ADDS     r0,r2,r0
        0x00003bca:    4348        HC      MULS     r0,r1,r0
        0x00003bcc:    1405        ..      ASRS     r5,r0,#16
        0x00003bce:    980f        ..      LDR      r0,[sp,#0x3c]
        0x00003bd0:    2801        .(      CMP      r0,#1
        0x00003bd2:    980e        ..      LDR      r0,[sp,#0x38]
        0x00003bd4:    d01c        ..      BEQ      0x3c10 ; _fp_digits + 92
        0x00003bd6:    1a28        (.      SUBS     r0,r5,r0
        0x00003bd8:    1c40        @.      ADDS     r0,r0,#1
        0x00003bda:    2400        .$      MOVS     r4,#0
        0x00003bdc:    4e46        FN      LDR      r6,[pc,#280] ; [0x3cf8] = 0x40240000
        0x00003bde:    4947        GI      LDR      r1,[pc,#284] ; [0x3cfc] = 0x3ff00000
        0x00003be0:    9400        ..      STR      r4,[sp,#0]
        0x00003be2:    9101        ..      STR      r1,[sp,#4]
        0x00003be4:    9002        ..      STR      r0,[sp,#8]
        0x00003be6:    2800        .(      CMP      r0,#0
        0x00003be8:    da14        ..      BGE      0x3c14 ; _fp_digits + 96
        0x00003bea:    4247        GB      RSBS     r7,r0,#0
        0x00003bec:    e027        '.      B        0x3c3e ; _fp_digits + 138
        0x00003bee:    980f        ..      LDR      r0,[sp,#0x3c]
        0x00003bf0:    2401        .$      MOVS     r4,#1
        0x00003bf2:    a343        C.      ADR      r3,{pc}+0x10e ; 0x3d00
        0x00003bf4:    2801        .(      CMP      r0,#1
        0x00003bf6:    d008        ..      BEQ      0x3c0a ; _fp_digits + 86
        0x00003bf8:    2100        .!      MOVS     r1,#0
        0x00003bfa:    9804        ..      LDR      r0,[sp,#0x10]
        0x00003bfc:    9a0f        ..      LDR      r2,[sp,#0x3c]
        0x00003bfe:    6084        .`      STR      r4,[r0,#8]
        0x00003c00:    6003        .`      STR      r3,[r0,#0]
        0x00003c02:    60c2        .`      STR      r2,[r0,#0xc]
        0x00003c04:    6041        A`      STR      r1,[r0,#4]
        0x00003c06:    b009        ..      ADD      sp,sp,#0x24
        0x00003c08:    bdf0        ..      POP      {r4-r7,pc}
        0x00003c0a:    980e        ..      LDR      r0,[sp,#0x38]
        0x00003c0c:    43c1        .C      MVNS     r1,r0
        0x00003c0e:    e7f4        ..      B        0x3bfa ; _fp_digits + 70
        0x00003c10:    4240        @B      RSBS     r0,r0,#0
        0x00003c12:    e7e2        ..      B        0x3bda ; _fp_digits + 38
        0x00003c14:    4607        .F      MOV      r7,r0
        0x00003c16:    e012        ..      B        0x3c3e ; _fp_digits + 138
        0x00003c18:    07f8        ..      LSLS     r0,r7,#31
        0x00003c1a:    d007        ..      BEQ      0x3c2c ; _fp_digits + 120
        0x00003c1c:    4622        "F      MOV      r2,r4
        0x00003c1e:    4633        3F      MOV      r3,r6
        0x00003c20:    9901        ..      LDR      r1,[sp,#4]
        0x00003c22:    9800        ..      LDR      r0,[sp,#0]
        0x00003c24:    f7fffb22    ..".    BL       __aeabi_dmul ; 0x326c
        0x00003c28:    9101        ..      STR      r1,[sp,#4]
        0x00003c2a:    9000        ..      STR      r0,[sp,#0]
        0x00003c2c:    4622        "F      MOV      r2,r4
        0x00003c2e:    4633        3F      MOV      r3,r6
        0x00003c30:    4610        .F      MOV      r0,r2
        0x00003c32:    4619        .F      MOV      r1,r3
        0x00003c34:    f7fffb1a    ....    BL       __aeabi_dmul ; 0x326c
        0x00003c38:    4604        .F      MOV      r4,r0
        0x00003c3a:    460e        .F      MOV      r6,r1
        0x00003c3c:    107f        ..      ASRS     r7,r7,#1
        0x00003c3e:    2f00        ./      CMP      r7,#0
        0x00003c40:    d1ea        ..      BNE      0x3c18 ; _fp_digits + 100
        0x00003c42:    9802        ..      LDR      r0,[sp,#8]
        0x00003c44:    9b01        ..      LDR      r3,[sp,#4]
        0x00003c46:    2800        .(      CMP      r0,#0
        0x00003c48:    9a00        ..      LDR      r2,[sp,#0]
        0x00003c4a:    9907        ..      LDR      r1,[sp,#0x1c]
        0x00003c4c:    9806        ..      LDR      r0,[sp,#0x18]
        0x00003c4e:    da02        ..      BGE      0x3c56 ; _fp_digits + 162
        0x00003c50:    f7fffb0c    ....    BL       __aeabi_dmul ; 0x326c
        0x00003c54:    e001        ..      B        0x3c5a ; _fp_digits + 166
        0x00003c56:    f7fffb71    ..q.    BL       __aeabi_ddiv ; 0x333c
        0x00003c5a:    4604        .F      MOV      r4,r0
        0x00003c5c:    460e        .F      MOV      r6,r1
        0x00003c5e:    2200        ."      MOVS     r2,#0
        0x00003c60:    4b28        (K      LDR      r3,[pc,#160] ; [0x3d04] = 0x43f00000
        0x00003c62:    f7fffc13    ....    BL       __aeabi_cdrcmple ; 0x348c
        0x00003c66:    d803        ..      BHI      0x3c70 ; _fp_digits + 188
        0x00003c68:    2000        .       MOVS     r0,#0
        0x00003c6a:    43c0        .C      MVNS     r0,r0
        0x00003c6c:    4601        .F      MOV      r1,r0
        0x00003c6e:    e007        ..      B        0x3c80 ; _fp_digits + 204
        0x00003c70:    2200        ."      MOVS     r2,#0
        0x00003c72:    4b25        %K      LDR      r3,[pc,#148] ; [0x3d08] = 0x3fe00000
        0x00003c74:    4620         F      MOV      r0,r4
        0x00003c76:    4631        1F      MOV      r1,r6
        0x00003c78:    f7fffd32    ..2.    BL       __aeabi_dadd ; 0x36e0
        0x00003c7c:    f7fffde2    ....    BL       __aeabi_d2ulz ; 0x3844
        0x00003c80:    2410        .$      MOVS     r4,#0x10
        0x00003c82:    e009        ..      B        0x3c98 ; _fp_digits + 228
        0x00003c84:    2c00        .,      CMP      r4,#0
        0x00003c86:    db0a        ..      BLT      0x3c9e ; _fp_digits + 234
        0x00003c88:    220a        ."      MOVS     r2,#0xa
        0x00003c8a:    2300        .#      MOVS     r3,#0
        0x00003c8c:    f7fffa78    ..x.    BL       __aeabi_uldivmod ; 0x3180
        0x00003c90:    9b05        ..      LDR      r3,[sp,#0x14]
        0x00003c92:    3230        02      ADDS     r2,r2,#0x30
        0x00003c94:    551a        .U      STRB     r2,[r3,r4]
        0x00003c96:    1e64        d.      SUBS     r4,r4,#1
        0x00003c98:    4602        .F      MOV      r2,r0
        0x00003c9a:    430a        .C      ORRS     r2,r2,r1
        0x00003c9c:    d1f2        ..      BNE      0x3c84 ; _fp_digits + 208
        0x00003c9e:    2211        ."      MOVS     r2,#0x11
        0x00003ca0:    1c64        d.      ADDS     r4,r4,#1
        0x00003ca2:    9b05        ..      LDR      r3,[sp,#0x14]
        0x00003ca4:    1b12        ..      SUBS     r2,r2,r4
        0x00003ca6:    191c        ..      ADDS     r4,r3,r4
        0x00003ca8:    9b0f        ..      LDR      r3,[sp,#0x3c]
        0x00003caa:    2b01        .+      CMP      r3,#1
        0x00003cac:    d003        ..      BEQ      0x3cb6 ; _fp_digits + 258
        0x00003cae:    2301        .#      MOVS     r3,#1
        0x00003cb0:    4308        .C      ORRS     r0,r0,r1
        0x00003cb2:    d10e        ..      BNE      0x3cd2 ; _fp_digits + 286
        0x00003cb4:    e00a        ..      B        0x3ccc ; _fp_digits + 280
        0x00003cb6:    4308        .C      ORRS     r0,r0,r1
        0x00003cb8:    d004        ..      BEQ      0x3cc4 ; _fp_digits + 272
        0x00003cba:    2011        .       MOVS     r0,#0x11
        0x00003cbc:    900e        ..      STR      r0,[sp,#0x38]
        0x00003cbe:    2000        .       MOVS     r0,#0
        0x00003cc0:    900f        ..      STR      r0,[sp,#0x3c]
        0x00003cc2:    e784        ..      B        0x3bce ; _fp_digits + 26
        0x00003cc4:    980e        ..      LDR      r0,[sp,#0x38]
        0x00003cc6:    1a15        ..      SUBS     r5,r2,r0
        0x00003cc8:    1e6d        m.      SUBS     r5,r5,#1
        0x00003cca:    e00b        ..      B        0x3ce4 ; _fp_digits + 304
        0x00003ccc:    980e        ..      LDR      r0,[sp,#0x38]
        0x00003cce:    4282        .B      CMP      r2,r0
        0x00003cd0:    dd02        ..      BLE      0x3cd8 ; _fp_digits + 292
        0x00003cd2:    2300        .#      MOVS     r3,#0
        0x00003cd4:    1c6d        m.      ADDS     r5,r5,#1
        0x00003cd6:    e003        ..      B        0x3ce0 ; _fp_digits + 300
        0x00003cd8:    4282        .B      CMP      r2,r0
        0x00003cda:    da01        ..      BGE      0x3ce0 ; _fp_digits + 300
        0x00003cdc:    2300        .#      MOVS     r3,#0
        0x00003cde:    1e6d        m.      SUBS     r5,r5,#1
        0x00003ce0:    2b00        .+      CMP      r3,#0
        0x00003ce2:    d0ee        ..      BEQ      0x3cc2 ; _fp_digits + 270
        0x00003ce4:    9804        ..      LDR      r0,[sp,#0x10]
        0x00003ce6:    990f        ..      LDR      r1,[sp,#0x3c]
        0x00003ce8:    6082        .`      STR      r2,[r0,#8]
        0x00003cea:    60c1        .`      STR      r1,[r0,#0xc]
        0x00003cec:    c030        0.      STM      r0!,{r4,r5}
        0x00003cee:    e78a        ..      B        0x3c06 ; _fp_digits + 82
    $d
        0x00003cf0:    fffffc01    ....    DCD    4294966273
        0x00003cf4:    00004d10    .M..    DCD    19728
        0x00003cf8:    40240000    ..$@    DCD    1076101120
        0x00003cfc:    3ff00000    ...?    DCD    1072693248
        0x00003d00:    00000030    0...    DCD    48
        0x00003d04:    43f00000    ...C    DCD    1139802112
        0x00003d08:    3fe00000    ...?    DCD    1071644672
    $t
    i._init_box
    _init_box
        0x00003d0c:    b510        ..      PUSH     {r4,lr}
        0x00003d0e:    2a00        .*      CMP      r2,#0
        0x00003d10:    da06        ..      BGE      0x3d20 ; _init_box + 20
        0x00003d12:    0052        R.      LSLS     r2,r2,#1
        0x00003d14:    0852        R.      LSRS     r2,r2,#1
        0x00003d16:    1dd2        ..      ADDS     r2,r2,#7
        0x00003d18:    08d3        ..      LSRS     r3,r2,#3
        0x00003d1a:    00db        ..      LSLS     r3,r3,#3
        0x00003d1c:    2210        ."      MOVS     r2,#0x10
        0x00003d1e:    e003        ..      B        0x3d28 ; _init_box + 28
        0x00003d20:    1cd2        ..      ADDS     r2,r2,#3
        0x00003d22:    0893        ..      LSRS     r3,r2,#2
        0x00003d24:    009b        ..      LSLS     r3,r3,#2
        0x00003d26:    220c        ."      MOVS     r2,#0xc
        0x00003d28:    2b00        .+      CMP      r3,#0
        0x00003d2a:    d002        ..      BEQ      0x3d32 ; _init_box + 38
        0x00003d2c:    189c        ..      ADDS     r4,r3,r2
        0x00003d2e:    428c        .B      CMP      r4,r1
        0x00003d30:    d901        ..      BLS      0x3d36 ; _init_box + 42
        0x00003d32:    2001        .       MOVS     r0,#1
        0x00003d34:    bd10        ..      POP      {r4,pc}
        0x00003d36:    1882        ..      ADDS     r2,r0,r2
        0x00003d38:    6083        .`      STR      r3,[r0,#8]
        0x00003d3a:    1841        A.      ADDS     r1,r0,r1
        0x00003d3c:    6002        .`      STR      r2,[r0,#0]
        0x00003d3e:    6041        A`      STR      r1,[r0,#4]
        0x00003d40:    1ac9        ..      SUBS     r1,r1,r3
        0x00003d42:    18d0        ..      ADDS     r0,r2,r3
        0x00003d44:    4288        .B      CMP      r0,r1
        0x00003d46:    d802        ..      BHI      0x3d4e ; _init_box + 66
        0x00003d48:    6010        .`      STR      r0,[r2,#0]
        0x00003d4a:    4602        .F      MOV      r2,r0
        0x00003d4c:    e7f9        ..      B        0x3d42 ; _init_box + 54
        0x00003d4e:    2000        .       MOVS     r0,#0
        0x00003d50:    6010        .`      STR      r0,[r2,#0]
        0x00003d52:    bd10        ..      POP      {r4,pc}
    i._printf_core
    _printf_core
        0x00003d54:    b5ff        ..      PUSH     {r0-r7,lr}
        0x00003d56:    b097        ..      SUB      sp,sp,#0x5c
        0x00003d58:    4606        .F      MOV      r6,r0
        0x00003d5a:    2500        .%      MOVS     r5,#0
        0x00003d5c:    e218        ..      B        0x4190 ; _printf_core + 1084
        0x00003d5e:    2825        %(      CMP      r0,#0x25
        0x00003d60:    d177        w.      BNE      0x3e52 ; _printf_core + 254
        0x00003d62:    2400        .$      MOVS     r4,#0
        0x00003d64:    4627        'F      MOV      r7,r4
        0x00003d66:    49fd        .I      LDR      r1,[pc,#1012] ; [0x415c] = 0x12809
        0x00003d68:    9404        ..      STR      r4,[sp,#0x10]
        0x00003d6a:    e000        ..      B        0x3d6e ; _printf_core + 26
        0x00003d6c:    4304        .C      ORRS     r4,r4,r0
        0x00003d6e:    1c76        v.      ADDS     r6,r6,#1
        0x00003d70:    7832        2x      LDRB     r2,[r6,#0]
        0x00003d72:    2001        .       MOVS     r0,#1
        0x00003d74:    3a20         :      SUBS     r2,r2,#0x20
        0x00003d76:    4090        .@      LSLS     r0,r0,r2
        0x00003d78:    4208        .B      TST      r0,r1
        0x00003d7a:    d1f7        ..      BNE      0x3d6c ; _printf_core + 24
        0x00003d7c:    7830        0x      LDRB     r0,[r6,#0]
        0x00003d7e:    282a        *(      CMP      r0,#0x2a
        0x00003d80:    d00e        ..      BEQ      0x3da0 ; _printf_core + 76
        0x00003d82:    2202        ."      MOVS     r2,#2
        0x00003d84:    7830        0x      LDRB     r0,[r6,#0]
        0x00003d86:    4601        .F      MOV      r1,r0
        0x00003d88:    3930        09      SUBS     r1,r1,#0x30
        0x00003d8a:    2909        .)      CMP      r1,#9
        0x00003d8c:    d816        ..      BHI      0x3dbc ; _printf_core + 104
        0x00003d8e:    9904        ..      LDR      r1,[sp,#0x10]
        0x00003d90:    230a        .#      MOVS     r3,#0xa
        0x00003d92:    4359        YC      MULS     r1,r3,r1
        0x00003d94:    3930        09      SUBS     r1,r1,#0x30
        0x00003d96:    1840        @.      ADDS     r0,r0,r1
        0x00003d98:    4314        .C      ORRS     r4,r4,r2
        0x00003d9a:    1c76        v.      ADDS     r6,r6,#1
        0x00003d9c:    9004        ..      STR      r0,[sp,#0x10]
        0x00003d9e:    e7f1        ..      B        0x3d84 ; _printf_core + 48
        0x00003da0:    9818        ..      LDR      r0,[sp,#0x60]
        0x00003da2:    c802        ..      LDM      r0!,{r1}
        0x00003da4:    9104        ..      STR      r1,[sp,#0x10]
        0x00003da6:    9018        ..      STR      r0,[sp,#0x60]
        0x00003da8:    2900        .)      CMP      r1,#0
        0x00003daa:    da04        ..      BGE      0x3db6 ; _printf_core + 98
        0x00003dac:    2001        .       MOVS     r0,#1
        0x00003dae:    0340        @.      LSLS     r0,r0,#13
        0x00003db0:    4304        .C      ORRS     r4,r4,r0
        0x00003db2:    4248        HB      RSBS     r0,r1,#0
        0x00003db4:    9004        ..      STR      r0,[sp,#0x10]
        0x00003db6:    2002        .       MOVS     r0,#2
        0x00003db8:    4304        .C      ORRS     r4,r4,r0
        0x00003dba:    1c76        v.      ADDS     r6,r6,#1
        0x00003dbc:    7830        0x      LDRB     r0,[r6,#0]
        0x00003dbe:    282e        .(      CMP      r0,#0x2e
        0x00003dc0:    d114        ..      BNE      0x3dec ; _printf_core + 152
        0x00003dc2:    2004        .       MOVS     r0,#4
        0x00003dc4:    4304        .C      ORRS     r4,r4,r0
        0x00003dc6:    7870        px      LDRB     r0,[r6,#1]
        0x00003dc8:    1c76        v.      ADDS     r6,r6,#1
        0x00003dca:    282a        *(      CMP      r0,#0x2a
        0x00003dcc:    d109        ..      BNE      0x3de2 ; _printf_core + 142
        0x00003dce:    9818        ..      LDR      r0,[sp,#0x60]
        0x00003dd0:    1c76        v.      ADDS     r6,r6,#1
        0x00003dd2:    c880        ..      LDM      r0!,{r7}
        0x00003dd4:    9018        ..      STR      r0,[sp,#0x60]
        0x00003dd6:    e009        ..      B        0x3dec ; _printf_core + 152
        0x00003dd8:    210a        .!      MOVS     r1,#0xa
        0x00003dda:    434f        OC      MULS     r7,r1,r7
        0x00003ddc:    3f30        0?      SUBS     r7,r7,#0x30
        0x00003dde:    19c7        ..      ADDS     r7,r0,r7
        0x00003de0:    1c76        v.      ADDS     r6,r6,#1
        0x00003de2:    7830        0x      LDRB     r0,[r6,#0]
        0x00003de4:    4601        .F      MOV      r1,r0
        0x00003de6:    3930        09      SUBS     r1,r1,#0x30
        0x00003de8:    2909        .)      CMP      r1,#9
        0x00003dea:    d9f5        ..      BLS      0x3dd8 ; _printf_core + 132
        0x00003dec:    7830        0x      LDRB     r0,[r6,#0]
        0x00003dee:    286c        l(      CMP      r0,#0x6c
        0x00003df0:    d010        ..      BEQ      0x3e14 ; _printf_core + 192
        0x00003df2:    dc06        ..      BGT      0x3e02 ; _printf_core + 174
        0x00003df4:    284c        L(      CMP      r0,#0x4c
        0x00003df6:    d01a        ..      BEQ      0x3e2e ; _printf_core + 218
        0x00003df8:    2868        h(      CMP      r0,#0x68
        0x00003dfa:    d00e        ..      BEQ      0x3e1a ; _printf_core + 198
        0x00003dfc:    286a        j(      CMP      r0,#0x6a
        0x00003dfe:    d117        ..      BNE      0x3e30 ; _printf_core + 220
        0x00003e00:    e004        ..      B        0x3e0c ; _printf_core + 184
        0x00003e02:    2874        t(      CMP      r0,#0x74
        0x00003e04:    d013        ..      BEQ      0x3e2e ; _printf_core + 218
        0x00003e06:    287a        z(      CMP      r0,#0x7a
        0x00003e08:    d112        ..      BNE      0x3e30 ; _printf_core + 220
        0x00003e0a:    e010        ..      B        0x3e2e ; _printf_core + 218
        0x00003e0c:    2001        .       MOVS     r0,#1
        0x00003e0e:    0540        @.      LSLS     r0,r0,#21
        0x00003e10:    4304        .C      ORRS     r4,r4,r0
        0x00003e12:    e00c        ..      B        0x3e2e ; _printf_core + 218
        0x00003e14:    2101        .!      MOVS     r1,#1
        0x00003e16:    0509        ..      LSLS     r1,r1,#20
        0x00003e18:    e001        ..      B        0x3e1e ; _printf_core + 202
        0x00003e1a:    2103        .!      MOVS     r1,#3
        0x00003e1c:    0509        ..      LSLS     r1,r1,#20
        0x00003e1e:    430c        .C      ORRS     r4,r4,r1
        0x00003e20:    7871        qx      LDRB     r1,[r6,#1]
        0x00003e22:    4281        .B      CMP      r1,r0
        0x00003e24:    d103        ..      BNE      0x3e2e ; _printf_core + 218
        0x00003e26:    2001        .       MOVS     r0,#1
        0x00003e28:    0500        ..      LSLS     r0,r0,#20
        0x00003e2a:    1824        $.      ADDS     r4,r4,r0
        0x00003e2c:    1c76        v.      ADDS     r6,r6,#1
        0x00003e2e:    1c76        v.      ADDS     r6,r6,#1
        0x00003e30:    7830        0x      LDRB     r0,[r6,#0]
        0x00003e32:    9011        ..      STR      r0,[sp,#0x44]
        0x00003e34:    2866        f(      CMP      r0,#0x66
        0x00003e36:    d00b        ..      BEQ      0x3e50 ; _printf_core + 252
        0x00003e38:    dc13        ..      BGT      0x3e62 ; _printf_core + 270
        0x00003e3a:    2858        X(      CMP      r0,#0x58
        0x00003e3c:    d07d        }.      BEQ      0x3f3a ; _printf_core + 486
        0x00003e3e:    dc09        ..      BGT      0x3e54 ; _printf_core + 256
        0x00003e40:    2800        .(      CMP      r0,#0
        0x00003e42:    d07b        {.      BEQ      0x3f3c ; _printf_core + 488
        0x00003e44:    2845        E(      CMP      r0,#0x45
        0x00003e46:    d0f6        ..      BEQ      0x3e36 ; _printf_core + 226
        0x00003e48:    2846        F(      CMP      r0,#0x46
        0x00003e4a:    d0f4        ..      BEQ      0x3e36 ; _printf_core + 226
        0x00003e4c:    2847        G(      CMP      r0,#0x47
        0x00003e4e:    d11a        ..      BNE      0x3e86 ; _printf_core + 306
        0x00003e50:    e1a5        ..      B        0x419e ; _printf_core + 1098
        0x00003e52:    e018        ..      B        0x3e86 ; _printf_core + 306
        0x00003e54:    2863        c(      CMP      r0,#0x63
        0x00003e56:    d035        5.      BEQ      0x3ec4 ; _printf_core + 368
        0x00003e58:    2864        d(      CMP      r0,#0x64
        0x00003e5a:    d070        p.      BEQ      0x3f3e ; _printf_core + 490
        0x00003e5c:    2865        e(      CMP      r0,#0x65
        0x00003e5e:    d112        ..      BNE      0x3e86 ; _printf_core + 306
        0x00003e60:    e19d        ..      B        0x419e ; _printf_core + 1098
        0x00003e62:    2870        p(      CMP      r0,#0x70
        0x00003e64:    d06c        l.      BEQ      0x3f40 ; _printf_core + 492
        0x00003e66:    dc08        ..      BGT      0x3e7a ; _printf_core + 294
        0x00003e68:    2867        g(      CMP      r0,#0x67
        0x00003e6a:    d0f1        ..      BEQ      0x3e50 ; _printf_core + 252
        0x00003e6c:    2869        i(      CMP      r0,#0x69
        0x00003e6e:    d07b        {.      BEQ      0x3f68 ; _printf_core + 532
        0x00003e70:    286e        n(      CMP      r0,#0x6e
        0x00003e72:    d00d        ..      BEQ      0x3e90 ; _printf_core + 316
        0x00003e74:    286f        o(      CMP      r0,#0x6f
        0x00003e76:    d106        ..      BNE      0x3e86 ; _printf_core + 306
        0x00003e78:    e0ba        ..      B        0x3ff0 ; _printf_core + 668
        0x00003e7a:    2873        s(      CMP      r0,#0x73
        0x00003e7c:    d02e        ..      BEQ      0x3edc ; _printf_core + 392
        0x00003e7e:    2875        u(      CMP      r0,#0x75
        0x00003e80:    d071        q.      BEQ      0x3f66 ; _printf_core + 530
        0x00003e82:    2878        x(      CMP      r0,#0x78
        0x00003e84:    d059        Y.      BEQ      0x3f3a ; _printf_core + 486
        0x00003e86:    9a1a        ..      LDR      r2,[sp,#0x68]
        0x00003e88:    9919        ..      LDR      r1,[sp,#0x64]
        0x00003e8a:    4790        .G      BLX      r2
        0x00003e8c:    1c6d        m.      ADDS     r5,r5,#1
        0x00003e8e:    e17e        ~.      B        0x418e ; _printf_core + 1082
        0x00003e90:    0260        `.      LSLS     r0,r4,#9
        0x00003e92:    0f40        @.      LSRS     r0,r0,#29
        0x00003e94:    2802        .(      CMP      r0,#2
        0x00003e96:    d009        ..      BEQ      0x3eac ; _printf_core + 344
        0x00003e98:    2803        .(      CMP      r0,#3
        0x00003e9a:    d00d        ..      BEQ      0x3eb8 ; _printf_core + 356
        0x00003e9c:    2804        .(      CMP      r0,#4
        0x00003e9e:    9818        ..      LDR      r0,[sp,#0x60]
        0x00003ea0:    6801        .h      LDR      r1,[r0,#0]
        0x00003ea2:    d00d        ..      BEQ      0x3ec0 ; _printf_core + 364
        0x00003ea4:    600d        .`      STR      r5,[r1,#0]
        0x00003ea6:    1d00        ..      ADDS     r0,r0,#4
        0x00003ea8:    9018        ..      STR      r0,[sp,#0x60]
        0x00003eaa:    e170        p.      B        0x418e ; _printf_core + 1082
        0x00003eac:    9818        ..      LDR      r0,[sp,#0x60]
        0x00003eae:    17ea        ..      ASRS     r2,r5,#31
        0x00003eb0:    6801        .h      LDR      r1,[r0,#0]
        0x00003eb2:    600d        .`      STR      r5,[r1,#0]
        0x00003eb4:    604a        J`      STR      r2,[r1,#4]
        0x00003eb6:    e7f6        ..      B        0x3ea6 ; _printf_core + 338
        0x00003eb8:    9818        ..      LDR      r0,[sp,#0x60]
        0x00003eba:    6801        .h      LDR      r1,[r0,#0]
        0x00003ebc:    800d        ..      STRH     r5,[r1,#0]
        0x00003ebe:    e7f2        ..      B        0x3ea6 ; _printf_core + 338
        0x00003ec0:    700d        .p      STRB     r5,[r1,#0]
        0x00003ec2:    e7f0        ..      B        0x3ea6 ; _printf_core + 338
        0x00003ec4:    9818        ..      LDR      r0,[sp,#0x60]
        0x00003ec6:    466a        jF      MOV      r2,sp
        0x00003ec8:    7801        .x      LDRB     r1,[r0,#0]
        0x00003eca:    7211        .r      STRB     r1,[r2,#8]
        0x00003ecc:    1d00        ..      ADDS     r0,r0,#4
        0x00003ece:    9018        ..      STR      r0,[sp,#0x60]
        0x00003ed0:    2000        .       MOVS     r0,#0
        0x00003ed2:    7250        Pr      STRB     r0,[r2,#9]
        0x00003ed4:    a802        ..      ADD      r0,sp,#8
        0x00003ed6:    9000        ..      STR      r0,[sp,#0]
        0x00003ed8:    2001        .       MOVS     r0,#1
        0x00003eda:    e005        ..      B        0x3ee8 ; _printf_core + 404
        0x00003edc:    9818        ..      LDR      r0,[sp,#0x60]
        0x00003ede:    c802        ..      LDM      r0!,{r1}
        0x00003ee0:    9018        ..      STR      r0,[sp,#0x60]
        0x00003ee2:    2000        .       MOVS     r0,#0
        0x00003ee4:    9100        ..      STR      r1,[sp,#0]
        0x00003ee6:    43c0        .C      MVNS     r0,r0
        0x00003ee8:    0761        a.      LSLS     r1,r4,#29
        0x00003eea:    d50d        ..      BPL      0x3f08 ; _printf_core + 436
        0x00003eec:    2100        .!      MOVS     r1,#0
        0x00003eee:    e001        ..      B        0x3ef4 ; _printf_core + 416
        0x00003ef0:    9901        ..      LDR      r1,[sp,#4]
        0x00003ef2:    1c49        I.      ADDS     r1,r1,#1
        0x00003ef4:    9101        ..      STR      r1,[sp,#4]
        0x00003ef6:    42b9        .B      CMP      r1,r7
        0x00003ef8:    da12        ..      BGE      0x3f20 ; _printf_core + 460
        0x00003efa:    4281        .B      CMP      r1,r0
        0x00003efc:    dbf8        ..      BLT      0x3ef0 ; _printf_core + 412
        0x00003efe:    9a00        ..      LDR      r2,[sp,#0]
        0x00003f00:    5c51        Q\      LDRB     r1,[r2,r1]
        0x00003f02:    2900        .)      CMP      r1,#0
        0x00003f04:    d1f4        ..      BNE      0x3ef0 ; _printf_core + 412
        0x00003f06:    e00b        ..      B        0x3f20 ; _printf_core + 460
        0x00003f08:    2100        .!      MOVS     r1,#0
        0x00003f0a:    e001        ..      B        0x3f10 ; _printf_core + 444
        0x00003f0c:    9901        ..      LDR      r1,[sp,#4]
        0x00003f0e:    1c49        I.      ADDS     r1,r1,#1
        0x00003f10:    9101        ..      STR      r1,[sp,#4]
        0x00003f12:    4281        .B      CMP      r1,r0
        0x00003f14:    dbfa        ..      BLT      0x3f0c ; _printf_core + 440
        0x00003f16:    9a01        ..      LDR      r2,[sp,#4]
        0x00003f18:    9900        ..      LDR      r1,[sp,#0]
        0x00003f1a:    5c89        .\      LDRB     r1,[r1,r2]
        0x00003f1c:    2900        .)      CMP      r1,#0
        0x00003f1e:    d1f5        ..      BNE      0x3f0c ; _printf_core + 440
        0x00003f20:    9901        ..      LDR      r1,[sp,#4]
        0x00003f22:    9804        ..      LDR      r0,[sp,#0x10]
        0x00003f24:    9b1a        ..      LDR      r3,[sp,#0x68]
        0x00003f26:    1a47        G.      SUBS     r7,r0,r1
        0x00003f28:    4621        !F      MOV      r1,r4
        0x00003f2a:    4638        8F      MOV      r0,r7
        0x00003f2c:    9a19        ..      LDR      r2,[sp,#0x64]
        0x00003f2e:    f000fa97    ....    BL       _printf_pre_padding ; 0x4460
        0x00003f32:    9901        ..      LDR      r1,[sp,#4]
        0x00003f34:    1940        @.      ADDS     r0,r0,r5
        0x00003f36:    1845        E.      ADDS     r5,r0,r1
        0x00003f38:    e00b        ..      B        0x3f52 ; _printf_core + 510
        0x00003f3a:    e04f        O.      B        0x3fdc ; _printf_core + 648
        0x00003f3c:    e12c        ,.      B        0x4198 ; _printf_core + 1092
        0x00003f3e:    e013        ..      B        0x3f68 ; _printf_core + 532
        0x00003f40:    e04e        N.      B        0x3fe0 ; _printf_core + 652
        0x00003f42:    9800        ..      LDR      r0,[sp,#0]
        0x00003f44:    9900        ..      LDR      r1,[sp,#0]
        0x00003f46:    7800        .x      LDRB     r0,[r0,#0]
        0x00003f48:    1c49        I.      ADDS     r1,r1,#1
        0x00003f4a:    9100        ..      STR      r1,[sp,#0]
        0x00003f4c:    9a1a        ..      LDR      r2,[sp,#0x68]
        0x00003f4e:    9919        ..      LDR      r1,[sp,#0x64]
        0x00003f50:    4790        .G      BLX      r2
        0x00003f52:    9801        ..      LDR      r0,[sp,#4]
        0x00003f54:    1e40        @.      SUBS     r0,r0,#1
        0x00003f56:    9001        ..      STR      r0,[sp,#4]
        0x00003f58:    1c40        @.      ADDS     r0,r0,#1
        0x00003f5a:    d1f2        ..      BNE      0x3f42 ; _printf_core + 494
        0x00003f5c:    4621        !F      MOV      r1,r4
        0x00003f5e:    4638        8F      MOV      r0,r7
        0x00003f60:    9b1a        ..      LDR      r3,[sp,#0x68]
        0x00003f62:    9a19        ..      LDR      r2,[sp,#0x64]
        0x00003f64:    e110        ..      B        0x4188 ; _printf_core + 1076
        0x00003f66:    e037        7.      B        0x3fd8 ; _printf_core + 644
        0x00003f68:    200a        .       MOVS     r0,#0xa
        0x00003f6a:    2100        .!      MOVS     r1,#0
        0x00003f6c:    9000        ..      STR      r0,[sp,#0]
        0x00003f6e:    9101        ..      STR      r1,[sp,#4]
        0x00003f70:    0260        `.      LSLS     r0,r4,#9
        0x00003f72:    0f41        A.      LSRS     r1,r0,#29
        0x00003f74:    2902        .)      CMP      r1,#2
        0x00003f76:    d007        ..      BEQ      0x3f88 ; _printf_core + 564
        0x00003f78:    9a18        ..      LDR      r2,[sp,#0x60]
        0x00003f7a:    ca01        ..      LDM      r2!,{r0}
        0x00003f7c:    9218        ..      STR      r2,[sp,#0x60]
        0x00003f7e:    17c2        ..      ASRS     r2,r0,#31
        0x00003f80:    4694        .F      MOV      r12,r2
        0x00003f82:    2903        .)      CMP      r1,#3
        0x00003f84:    d008        ..      BEQ      0x3f98 ; _printf_core + 580
        0x00003f86:    e00a        ..      B        0x3f9e ; _printf_core + 586
        0x00003f88:    9818        ..      LDR      r0,[sp,#0x60]
        0x00003f8a:    1dc0        ..      ADDS     r0,r0,#7
        0x00003f8c:    08c1        ..      LSRS     r1,r0,#3
        0x00003f8e:    00c9        ..      LSLS     r1,r1,#3
        0x00003f90:    c905        ..      LDM      r1!,{r0,r2}
        0x00003f92:    9118        ..      STR      r1,[sp,#0x60]
        0x00003f94:    4694        .F      MOV      r12,r2
        0x00003f96:    e007        ..      B        0x3fa8 ; _printf_core + 596
        0x00003f98:    b200        ..      SXTH     r0,r0
        0x00003f9a:    17c2        ..      ASRS     r2,r0,#31
        0x00003f9c:    4694        .F      MOV      r12,r2
        0x00003f9e:    2904        .)      CMP      r1,#4
        0x00003fa0:    d102        ..      BNE      0x3fa8 ; _printf_core + 596
        0x00003fa2:    b240        @.      SXTB     r0,r0
        0x00003fa4:    17c1        ..      ASRS     r1,r0,#31
        0x00003fa6:    468c        .F      MOV      r12,r1
        0x00003fa8:    2200        ."      MOVS     r2,#0
        0x00003faa:    4661        aF      MOV      r1,r12
        0x00003fac:    4594        .E      CMP      r12,r2
        0x00003fae:    da06        ..      BGE      0x3fbe ; _printf_core + 618
        0x00003fb0:    460a        .F      MOV      r2,r1
        0x00003fb2:    2100        .!      MOVS     r1,#0
        0x00003fb4:    4240        @B      RSBS     r0,r0,#0
        0x00003fb6:    4191        .A      SBCS     r1,r1,r2
        0x00003fb8:    468c        .F      MOV      r12,r1
        0x00003fba:    212d        -!      MOVS     r1,#0x2d
        0x00003fbc:    e002        ..      B        0x3fc4 ; _printf_core + 624
        0x00003fbe:    0521        !.      LSLS     r1,r4,#20
        0x00003fc0:    d504        ..      BPL      0x3fcc ; _printf_core + 632
        0x00003fc2:    212b        +!      MOVS     r1,#0x2b
        0x00003fc4:    466a        jF      MOV      r2,sp
        0x00003fc6:    7311        .s      STRB     r1,[r2,#0xc]
        0x00003fc8:    2101        .!      MOVS     r1,#1
        0x00003fca:    e003        ..      B        0x3fd4 ; _printf_core + 640
        0x00003fcc:    07e1        ..      LSLS     r1,r4,#31
        0x00003fce:    d001        ..      BEQ      0x3fd4 ; _printf_core + 640
        0x00003fd0:    2120         !      MOVS     r1,#0x20
        0x00003fd2:    e7f7        ..      B        0x3fc4 ; _printf_core + 624
        0x00003fd4:    9102        ..      STR      r1,[sp,#8]
        0x00003fd6:    e055        U.      B        0x4084 ; _printf_core + 816
        0x00003fd8:    200a        .       MOVS     r0,#0xa
        0x00003fda:    e00a        ..      B        0x3ff2 ; _printf_core + 670
        0x00003fdc:    2010        .       MOVS     r0,#0x10
        0x00003fde:    e008        ..      B        0x3ff2 ; _printf_core + 670
        0x00003fe0:    2010        .       MOVS     r0,#0x10
        0x00003fe2:    9000        ..      STR      r0,[sp,#0]
        0x00003fe4:    2100        .!      MOVS     r1,#0
        0x00003fe6:    2004        .       MOVS     r0,#4
        0x00003fe8:    4304        .C      ORRS     r4,r4,r0
        0x00003fea:    9101        ..      STR      r1,[sp,#4]
        0x00003fec:    2708        .'      MOVS     r7,#8
        0x00003fee:    e003        ..      B        0x3ff8 ; _printf_core + 676
        0x00003ff0:    2008        .       MOVS     r0,#8
        0x00003ff2:    2100        .!      MOVS     r1,#0
        0x00003ff4:    9101        ..      STR      r1,[sp,#4]
        0x00003ff6:    9000        ..      STR      r0,[sp,#0]
        0x00003ff8:    0260        `.      LSLS     r0,r4,#9
        0x00003ffa:    0f41        A.      LSRS     r1,r0,#29
        0x00003ffc:    2902        .)      CMP      r1,#2
        0x00003ffe:    d007        ..      BEQ      0x4010 ; _printf_core + 700
        0x00004000:    9a18        ..      LDR      r2,[sp,#0x60]
        0x00004002:    ca01        ..      LDM      r2!,{r0}
        0x00004004:    9218        ..      STR      r2,[sp,#0x60]
        0x00004006:    2200        ."      MOVS     r2,#0
        0x00004008:    4694        .F      MOV      r12,r2
        0x0000400a:    2903        .)      CMP      r1,#3
        0x0000400c:    d008        ..      BEQ      0x4020 ; _printf_core + 716
        0x0000400e:    e008        ..      B        0x4022 ; _printf_core + 718
        0x00004010:    9818        ..      LDR      r0,[sp,#0x60]
        0x00004012:    1dc0        ..      ADDS     r0,r0,#7
        0x00004014:    08c1        ..      LSRS     r1,r0,#3
        0x00004016:    00c9        ..      LSLS     r1,r1,#3
        0x00004018:    c905        ..      LDM      r1!,{r0,r2}
        0x0000401a:    9118        ..      STR      r1,[sp,#0x60]
        0x0000401c:    4694        .F      MOV      r12,r2
        0x0000401e:    e003        ..      B        0x4028 ; _printf_core + 724
        0x00004020:    b280        ..      UXTH     r0,r0
        0x00004022:    2904        .)      CMP      r1,#4
        0x00004024:    d100        ..      BNE      0x4028 ; _printf_core + 724
        0x00004026:    b2c0        ..      UXTB     r0,r0
        0x00004028:    2100        .!      MOVS     r1,#0
        0x0000402a:    9102        ..      STR      r1,[sp,#8]
        0x0000402c:    0721        !.      LSLS     r1,r4,#28
        0x0000402e:    d529        ).      BPL      0x4084 ; _printf_core + 816
        0x00004030:    9911        ..      LDR      r1,[sp,#0x44]
        0x00004032:    2970        p)      CMP      r1,#0x70
        0x00004034:    d006        ..      BEQ      0x4044 ; _printf_core + 752
        0x00004036:    9a00        ..      LDR      r2,[sp,#0]
        0x00004038:    2110        .!      MOVS     r1,#0x10
        0x0000403a:    9b01        ..      LDR      r3,[sp,#4]
        0x0000403c:    404a        J@      EORS     r2,r2,r1
        0x0000403e:    431a        .C      ORRS     r2,r2,r3
        0x00004040:    d005        ..      BEQ      0x404e ; _printf_core + 762
        0x00004042:    e00e        ..      B        0x4062 ; _printf_core + 782
        0x00004044:    2140        @!      MOVS     r1,#0x40
        0x00004046:    466a        jF      MOV      r2,sp
        0x00004048:    7311        .s      STRB     r1,[r2,#0xc]
        0x0000404a:    2101        .!      MOVS     r1,#1
        0x0000404c:    e008        ..      B        0x4060 ; _printf_core + 780
        0x0000404e:    4661        aF      MOV      r1,r12
        0x00004050:    4301        .C      ORRS     r1,r1,r0
        0x00004052:    d006        ..      BEQ      0x4062 ; _printf_core + 782
        0x00004054:    2130        0!      MOVS     r1,#0x30
        0x00004056:    466a        jF      MOV      r2,sp
        0x00004058:    7311        .s      STRB     r1,[r2,#0xc]
        0x0000405a:    9911        ..      LDR      r1,[sp,#0x44]
        0x0000405c:    7351        Qs      STRB     r1,[r2,#0xd]
        0x0000405e:    2102        .!      MOVS     r1,#2
        0x00004060:    9102        ..      STR      r1,[sp,#8]
        0x00004062:    9a00        ..      LDR      r2,[sp,#0]
        0x00004064:    2108        .!      MOVS     r1,#8
        0x00004066:    9b01        ..      LDR      r3,[sp,#4]
        0x00004068:    404a        J@      EORS     r2,r2,r1
        0x0000406a:    431a        .C      ORRS     r2,r2,r3
        0x0000406c:    d10a        ..      BNE      0x4084 ; _printf_core + 816
        0x0000406e:    4661        aF      MOV      r1,r12
        0x00004070:    4301        .C      ORRS     r1,r1,r0
        0x00004072:    d101        ..      BNE      0x4078 ; _printf_core + 804
        0x00004074:    0761        a.      LSLS     r1,r4,#29
        0x00004076:    d505        ..      BPL      0x4084 ; _printf_core + 816
        0x00004078:    2130        0!      MOVS     r1,#0x30
        0x0000407a:    466a        jF      MOV      r2,sp
        0x0000407c:    7311        .s      STRB     r1,[r2,#0xc]
        0x0000407e:    2101        .!      MOVS     r1,#1
        0x00004080:    1e7f        ..      SUBS     r7,r7,#1
        0x00004082:    9102        ..      STR      r1,[sp,#8]
        0x00004084:    9911        ..      LDR      r1,[sp,#0x44]
        0x00004086:    2958        X)      CMP      r1,#0x58
        0x00004088:    d004        ..      BEQ      0x4094 ; _printf_core + 832
        0x0000408a:    a135        5.      ADR      r1,{pc}+0xd6 ; 0x4160
        0x0000408c:    910e        ..      STR      r1,[sp,#0x38]
        0x0000408e:    a90d        ..      ADD      r1,sp,#0x34
        0x00004090:    910d        ..      STR      r1,[sp,#0x34]
        0x00004092:    e00d        ..      B        0x40b0 ; _printf_core + 860
        0x00004094:    a137        7.      ADR      r1,{pc}+0xe0 ; 0x4174
        0x00004096:    e7f9        ..      B        0x408c ; _printf_core + 824
        0x00004098:    4661        aF      MOV      r1,r12
        0x0000409a:    9b01        ..      LDR      r3,[sp,#4]
        0x0000409c:    9a00        ..      LDR      r2,[sp,#0]
        0x0000409e:    f7fff86f    ..o.    BL       __aeabi_uldivmod ; 0x3180
        0x000040a2:    9b0e        ..      LDR      r3,[sp,#0x38]
        0x000040a4:    468c        .F      MOV      r12,r1
        0x000040a6:    5c9b        .\      LDRB     r3,[r3,r2]
        0x000040a8:    9a0d        ..      LDR      r2,[sp,#0x34]
        0x000040aa:    1e52        R.      SUBS     r2,r2,#1
        0x000040ac:    920d        ..      STR      r2,[sp,#0x34]
        0x000040ae:    7013        .p      STRB     r3,[r2,#0]
        0x000040b0:    4661        aF      MOV      r1,r12
        0x000040b2:    4301        .C      ORRS     r1,r1,r0
        0x000040b4:    d1f0        ..      BNE      0x4098 ; _printf_core + 836
        0x000040b6:    980d        ..      LDR      r0,[sp,#0x34]
        0x000040b8:    a905        ..      ADD      r1,sp,#0x14
        0x000040ba:    1a08        ..      SUBS     r0,r1,r0
        0x000040bc:    3020         0      ADDS     r0,r0,#0x20
        0x000040be:    9001        ..      STR      r0,[sp,#4]
        0x000040c0:    0760        `.      LSLS     r0,r4,#29
        0x000040c2:    d503        ..      BPL      0x40cc ; _printf_core + 888
        0x000040c4:    2001        .       MOVS     r0,#1
        0x000040c6:    0400        ..      LSLS     r0,r0,#16
        0x000040c8:    4384        .C      BICS     r4,r4,r0
        0x000040ca:    e000        ..      B        0x40ce ; _printf_core + 890
        0x000040cc:    2701        .'      MOVS     r7,#1
        0x000040ce:    9801        ..      LDR      r0,[sp,#4]
        0x000040d0:    4287        .B      CMP      r7,r0
        0x000040d2:    dd01        ..      BLE      0x40d8 ; _printf_core + 900
        0x000040d4:    1a38        8.      SUBS     r0,r7,r0
        0x000040d6:    e000        ..      B        0x40da ; _printf_core + 902
        0x000040d8:    2000        .       MOVS     r0,#0
        0x000040da:    9901        ..      LDR      r1,[sp,#4]
        0x000040dc:    9000        ..      STR      r0,[sp,#0]
        0x000040de:    1841        A.      ADDS     r1,r0,r1
        0x000040e0:    9802        ..      LDR      r0,[sp,#8]
        0x000040e2:    1809        ..      ADDS     r1,r1,r0
        0x000040e4:    9804        ..      LDR      r0,[sp,#0x10]
        0x000040e6:    1a40        @.      SUBS     r0,r0,r1
        0x000040e8:    9004        ..      STR      r0,[sp,#0x10]
        0x000040ea:    03e0        ..      LSLS     r0,r4,#15
        0x000040ec:    d406        ..      BMI      0x40fc ; _printf_core + 936
        0x000040ee:    4621        !F      MOV      r1,r4
        0x000040f0:    9b1a        ..      LDR      r3,[sp,#0x68]
        0x000040f2:    9a19        ..      LDR      r2,[sp,#0x64]
        0x000040f4:    9804        ..      LDR      r0,[sp,#0x10]
        0x000040f6:    f000f9b3    ....    BL       _printf_pre_padding ; 0x4460
        0x000040fa:    1945        E.      ADDS     r5,r0,r5
        0x000040fc:    2700        .'      MOVS     r7,#0
        0x000040fe:    e006        ..      B        0x410e ; _printf_core + 954
        0x00004100:    a803        ..      ADD      r0,sp,#0xc
        0x00004102:    9a1a        ..      LDR      r2,[sp,#0x68]
        0x00004104:    5dc0        .]      LDRB     r0,[r0,r7]
        0x00004106:    9919        ..      LDR      r1,[sp,#0x64]
        0x00004108:    4790        .G      BLX      r2
        0x0000410a:    1c6d        m.      ADDS     r5,r5,#1
        0x0000410c:    1c7f        ..      ADDS     r7,r7,#1
        0x0000410e:    9802        ..      LDR      r0,[sp,#8]
        0x00004110:    4287        .B      CMP      r7,r0
        0x00004112:    dbf5        ..      BLT      0x4100 ; _printf_core + 940
        0x00004114:    03e0        ..      LSLS     r0,r4,#15
        0x00004116:    d50c        ..      BPL      0x4132 ; _printf_core + 990
        0x00004118:    4621        !F      MOV      r1,r4
        0x0000411a:    9b1a        ..      LDR      r3,[sp,#0x68]
        0x0000411c:    9a19        ..      LDR      r2,[sp,#0x64]
        0x0000411e:    9804        ..      LDR      r0,[sp,#0x10]
        0x00004120:    f000f99e    ....    BL       _printf_pre_padding ; 0x4460
        0x00004124:    1945        E.      ADDS     r5,r0,r5
        0x00004126:    e004        ..      B        0x4132 ; _printf_core + 990
        0x00004128:    9a1a        ..      LDR      r2,[sp,#0x68]
        0x0000412a:    2030        0       MOVS     r0,#0x30
        0x0000412c:    9919        ..      LDR      r1,[sp,#0x64]
        0x0000412e:    4790        .G      BLX      r2
        0x00004130:    1c6d        m.      ADDS     r5,r5,#1
        0x00004132:    9900        ..      LDR      r1,[sp,#0]
        0x00004134:    1e48        H.      SUBS     r0,r1,#1
        0x00004136:    9000        ..      STR      r0,[sp,#0]
        0x00004138:    2900        .)      CMP      r1,#0
        0x0000413a:    dcf5        ..      BGT      0x4128 ; _printf_core + 980
        0x0000413c:    e008        ..      B        0x4150 ; _printf_core + 1020
        0x0000413e:    980d        ..      LDR      r0,[sp,#0x34]
        0x00004140:    990d        ..      LDR      r1,[sp,#0x34]
        0x00004142:    7800        .x      LDRB     r0,[r0,#0]
        0x00004144:    1c49        I.      ADDS     r1,r1,#1
        0x00004146:    910d        ..      STR      r1,[sp,#0x34]
        0x00004148:    9a1a        ..      LDR      r2,[sp,#0x68]
        0x0000414a:    9919        ..      LDR      r1,[sp,#0x64]
        0x0000414c:    4790        .G      BLX      r2
        0x0000414e:    1c6d        m.      ADDS     r5,r5,#1
        0x00004150:    9901        ..      LDR      r1,[sp,#4]
        0x00004152:    1e48        H.      SUBS     r0,r1,#1
        0x00004154:    9001        ..      STR      r0,[sp,#4]
        0x00004156:    2900        .)      CMP      r1,#0
        0x00004158:    dcf1        ..      BGT      0x413e ; _printf_core + 1002
        0x0000415a:    e163        c.      B        0x4424 ; _printf_core + 1744
    $d
        0x0000415c:    00012809    .(..    DCD    75785
        0x00004160:    33323130    0123    DCD    858927408
        0x00004164:    37363534    4567    DCD    926299444
        0x00004168:    62613938    89ab    DCD    1650538808
        0x0000416c:    66656463    cdef    DCD    1717920867
        0x00004170:    00000000    ....    DCD    0
        0x00004174:    33323130    0123    DCD    858927408
        0x00004178:    37363534    4567    DCD    926299444
        0x0000417c:    42413938    89AB    DCD    1111570744
        0x00004180:    46454443    CDEF    DCD    1178944579
        0x00004184:    00000000    ....    DCD    0
    $t
        0x00004188:    f000f95a    ..Z.    BL       _printf_post_padding ; 0x4440
        0x0000418c:    1945        E.      ADDS     r5,r0,r5
        0x0000418e:    1c76        v.      ADDS     r6,r6,#1
        0x00004190:    7830        0x      LDRB     r0,[r6,#0]
        0x00004192:    2800        .(      CMP      r0,#0
        0x00004194:    d000        ..      BEQ      0x4198 ; _printf_core + 1092
        0x00004196:    e5e2        ..      B        0x3d5e ; _printf_core + 10
        0x00004198:    4628        (F      MOV      r0,r5
        0x0000419a:    b01b        ..      ADD      sp,sp,#0x6c
        0x0000419c:    bdf0        ..      POP      {r4-r7,pc}
        0x0000419e:    0760        `.      LSLS     r0,r4,#29
        0x000041a0:    d400        ..      BMI      0x41a4 ; _printf_core + 1104
        0x000041a2:    2706        .'      MOVS     r7,#6
        0x000041a4:    9818        ..      LDR      r0,[sp,#0x60]
        0x000041a6:    1dc0        ..      ADDS     r0,r0,#7
        0x000041a8:    08c1        ..      LSRS     r1,r0,#3
        0x000041aa:    00c9        ..      LSLS     r1,r1,#3
        0x000041ac:    6848        Hh      LDR      r0,[r1,#4]
        0x000041ae:    680a        .h      LDR      r2,[r1,#0]
        0x000041b0:    3108        .1      ADDS     r1,r1,#8
        0x000041b2:    0fc3        ..      LSRS     r3,r0,#31
        0x000041b4:    07db        ..      LSLS     r3,r3,#31
        0x000041b6:    9118        ..      STR      r1,[sp,#0x60]
        0x000041b8:    0019        ..      MOVS     r1,r3
        0x000041ba:    d001        ..      BEQ      0x41c0 ; _printf_core + 1132
        0x000041bc:    a19c        ..      ADR      r1,{pc}+0x274 ; 0x4430
        0x000041be:    e008        ..      B        0x41d2 ; _printf_core + 1150
        0x000041c0:    0521        !.      LSLS     r1,r4,#20
        0x000041c2:    d501        ..      BPL      0x41c8 ; _printf_core + 1140
        0x000041c4:    a19b        ..      ADR      r1,{pc}+0x270 ; 0x4434
        0x000041c6:    e004        ..      B        0x41d2 ; _printf_core + 1150
        0x000041c8:    07e1        ..      LSLS     r1,r4,#31
        0x000041ca:    d001        ..      BEQ      0x41d0 ; _printf_core + 1148
        0x000041cc:    a19a        ..      ADR      r1,{pc}+0x26c ; 0x4438
        0x000041ce:    e000        ..      B        0x41d2 ; _printf_core + 1150
        0x000041d0:    a19a        ..      ADR      r1,{pc}+0x26c ; 0x443c
        0x000041d2:    0043        C.      LSLS     r3,r0,#1
        0x000041d4:    9811        ..      LDR      r0,[sp,#0x44]
        0x000041d6:    085b        [.      LSRS     r3,r3,#1
        0x000041d8:    9110        ..      STR      r1,[sp,#0x40]
        0x000041da:    2865        e(      CMP      r0,#0x65
        0x000041dc:    d00c        ..      BEQ      0x41f8 ; _printf_core + 1188
        0x000041de:    dc06        ..      BGT      0x41ee ; _printf_core + 1178
        0x000041e0:    2845        E(      CMP      r0,#0x45
        0x000041e2:    d009        ..      BEQ      0x41f8 ; _printf_core + 1188
        0x000041e4:    2846        F(      CMP      r0,#0x46
        0x000041e6:    d01d        ..      BEQ      0x4224 ; _printf_core + 1232
        0x000041e8:    2847        G(      CMP      r0,#0x47
        0x000041ea:    d141        A.      BNE      0x4270 ; _printf_core + 1308
        0x000041ec:    e041        A.      B        0x4272 ; _printf_core + 1310
        0x000041ee:    2866        f(      CMP      r0,#0x66
        0x000041f0:    d018        ..      BEQ      0x4224 ; _printf_core + 1232
        0x000041f2:    2867        g(      CMP      r0,#0x67
        0x000041f4:    d13c        <.      BNE      0x4270 ; _printf_core + 1308
        0x000041f6:    e03c        <.      B        0x4272 ; _printf_core + 1310
        0x000041f8:    2100        .!      MOVS     r1,#0
        0x000041fa:    2f11        ./      CMP      r7,#0x11
        0x000041fc:    db01        ..      BLT      0x4202 ; _printf_core + 1198
        0x000041fe:    2011        .       MOVS     r0,#0x11
        0x00004200:    e000        ..      B        0x4204 ; _printf_core + 1200
        0x00004202:    1c78        x.      ADDS     r0,r7,#1
        0x00004204:    9101        ..      STR      r1,[sp,#4]
        0x00004206:    9000        ..      STR      r0,[sp,#0]
        0x00004208:    a908        ..      ADD      r1,sp,#0x20
        0x0000420a:    a811        ..      ADD      r0,sp,#0x44
        0x0000420c:    f7fffcd2    ....    BL       _fp_digits ; 0x3bb4
        0x00004210:    9913        ..      LDR      r1,[sp,#0x4c]
        0x00004212:    9105        ..      STR      r1,[sp,#0x14]
        0x00004214:    2100        .!      MOVS     r1,#0
        0x00004216:    9a11        ..      LDR      r2,[sp,#0x44]
        0x00004218:    9215        ..      STR      r2,[sp,#0x54]
        0x0000421a:    1c7f        ..      ADDS     r7,r7,#1
        0x0000421c:    9812        ..      LDR      r0,[sp,#0x48]
        0x0000421e:    9701        ..      STR      r7,[sp,#4]
        0x00004220:    9100        ..      STR      r1,[sp,#0]
        0x00004222:    e050        P.      B        0x42c6 ; _printf_core + 1394
        0x00004224:    2001        .       MOVS     r0,#1
        0x00004226:    07c0        ..      LSLS     r0,r0,#31
        0x00004228:    9003        ..      STR      r0,[sp,#0xc]
        0x0000422a:    2001        .       MOVS     r0,#1
        0x0000422c:    9001        ..      STR      r0,[sp,#4]
        0x0000422e:    a908        ..      ADD      r1,sp,#0x20
        0x00004230:    9700        ..      STR      r7,[sp,#0]
        0x00004232:    a811        ..      ADD      r0,sp,#0x44
        0x00004234:    f7fffcbe    ....    BL       _fp_digits ; 0x3bb4
        0x00004238:    9a13        ..      LDR      r2,[sp,#0x4c]
        0x0000423a:    9914        ..      LDR      r1,[sp,#0x50]
        0x0000423c:    9205        ..      STR      r2,[sp,#0x14]
        0x0000423e:    2200        ."      MOVS     r2,#0
        0x00004240:    9b11        ..      LDR      r3,[sp,#0x44]
        0x00004242:    9200        ..      STR      r2,[sp,#0]
        0x00004244:    9812        ..      LDR      r0,[sp,#0x48]
        0x00004246:    9315        ..      STR      r3,[sp,#0x54]
        0x00004248:    9a05        ..      LDR      r2,[sp,#0x14]
        0x0000424a:    9201        ..      STR      r2,[sp,#4]
        0x0000424c:    2900        .)      CMP      r1,#0
        0x0000424e:    d001        ..      BEQ      0x4254 ; _printf_core + 1280
        0x00004250:    4610        .F      MOV      r0,r2
        0x00004252:    e002        ..      B        0x425a ; _printf_core + 1286
        0x00004254:    1c79        y.      ADDS     r1,r7,#1
        0x00004256:    1840        @.      ADDS     r0,r0,r1
        0x00004258:    9001        ..      STR      r0,[sp,#4]
        0x0000425a:    1a38        8.      SUBS     r0,r7,r0
        0x0000425c:    d501        ..      BPL      0x4262 ; _printf_core + 1294
        0x0000425e:    9801        ..      LDR      r0,[sp,#4]
        0x00004260:    e004        ..      B        0x426c ; _printf_core + 1304
        0x00004262:    4240        @B      RSBS     r0,r0,#0
        0x00004264:    1e40        @.      SUBS     r0,r0,#1
        0x00004266:    9000        ..      STR      r0,[sp,#0]
        0x00004268:    1c78        x.      ADDS     r0,r7,#1
        0x0000426a:    9001        ..      STR      r0,[sp,#4]
        0x0000426c:    1bc0        ..      SUBS     r0,r0,r7
        0x0000426e:    9002        ..      STR      r0,[sp,#8]
        0x00004270:    e043        C.      B        0x42fa ; _printf_core + 1446
        0x00004272:    2f01        ./      CMP      r7,#1
        0x00004274:    da00        ..      BGE      0x4278 ; _printf_core + 1316
        0x00004276:    2701        .'      MOVS     r7,#1
        0x00004278:    2100        .!      MOVS     r1,#0
        0x0000427a:    2f11        ./      CMP      r7,#0x11
        0x0000427c:    dd01        ..      BLE      0x4282 ; _printf_core + 1326
        0x0000427e:    2011        .       MOVS     r0,#0x11
        0x00004280:    e000        ..      B        0x4284 ; _printf_core + 1328
        0x00004282:    4638        8F      MOV      r0,r7
        0x00004284:    9101        ..      STR      r1,[sp,#4]
        0x00004286:    9000        ..      STR      r0,[sp,#0]
        0x00004288:    a908        ..      ADD      r1,sp,#0x20
        0x0000428a:    a811        ..      ADD      r0,sp,#0x44
        0x0000428c:    f7fffc92    ....    BL       _fp_digits ; 0x3bb4
        0x00004290:    9913        ..      LDR      r1,[sp,#0x4c]
        0x00004292:    9105        ..      STR      r1,[sp,#0x14]
        0x00004294:    9a11        ..      LDR      r2,[sp,#0x44]
        0x00004296:    2100        .!      MOVS     r1,#0
        0x00004298:    9812        ..      LDR      r0,[sp,#0x48]
        0x0000429a:    9215        ..      STR      r2,[sp,#0x54]
        0x0000429c:    9100        ..      STR      r1,[sp,#0]
        0x0000429e:    9701        ..      STR      r7,[sp,#4]
        0x000042a0:    0721        !.      LSLS     r1,r4,#28
        0x000042a2:    d40c        ..      BMI      0x42be ; _printf_core + 1386
        0x000042a4:    9905        ..      LDR      r1,[sp,#0x14]
        0x000042a6:    42b9        .B      CMP      r1,r7
        0x000042a8:    db01        ..      BLT      0x42ae ; _printf_core + 1370
        0x000042aa:    9901        ..      LDR      r1,[sp,#4]
        0x000042ac:    e000        ..      B        0x42b0 ; _printf_core + 1372
        0x000042ae:    9101        ..      STR      r1,[sp,#4]
        0x000042b0:    2901        .)      CMP      r1,#1
        0x000042b2:    dd04        ..      BLE      0x42be ; _printf_core + 1386
        0x000042b4:    9a15        ..      LDR      r2,[sp,#0x54]
        0x000042b6:    1e49        I.      SUBS     r1,r1,#1
        0x000042b8:    5c51        Q\      LDRB     r1,[r2,r1]
        0x000042ba:    2930        0)      CMP      r1,#0x30
        0x000042bc:    d006        ..      BEQ      0x42cc ; _printf_core + 1400
        0x000042be:    42b8        .B      CMP      r0,r7
        0x000042c0:    da01        ..      BGE      0x42c6 ; _printf_core + 1394
        0x000042c2:    1d01        ..      ADDS     r1,r0,#4
        0x000042c4:    da05        ..      BGE      0x42d2 ; _printf_core + 1406
        0x000042c6:    2101        .!      MOVS     r1,#1
        0x000042c8:    9102        ..      STR      r1,[sp,#8]
        0x000042ca:    e015        ..      B        0x42f8 ; _printf_core + 1444
        0x000042cc:    9901        ..      LDR      r1,[sp,#4]
        0x000042ce:    1e49        I.      SUBS     r1,r1,#1
        0x000042d0:    e7ed        ..      B        0x42ae ; _printf_core + 1370
        0x000042d2:    2800        .(      CMP      r0,#0
        0x000042d4:    dc05        ..      BGT      0x42e2 ; _printf_core + 1422
        0x000042d6:    9900        ..      LDR      r1,[sp,#0]
        0x000042d8:    1841        A.      ADDS     r1,r0,r1
        0x000042da:    9100        ..      STR      r1,[sp,#0]
        0x000042dc:    9901        ..      LDR      r1,[sp,#4]
        0x000042de:    1a09        ..      SUBS     r1,r1,r0
        0x000042e0:    e003        ..      B        0x42ea ; _printf_core + 1430
        0x000042e2:    9a01        ..      LDR      r2,[sp,#4]
        0x000042e4:    1c41        A.      ADDS     r1,r0,#1
        0x000042e6:    4291        .B      CMP      r1,r2
        0x000042e8:    dd00        ..      BLE      0x42ec ; _printf_core + 1432
        0x000042ea:    9101        ..      STR      r1,[sp,#4]
        0x000042ec:    9900        ..      LDR      r1,[sp,#0]
        0x000042ee:    1a40        @.      SUBS     r0,r0,r1
        0x000042f0:    1c40        @.      ADDS     r0,r0,#1
        0x000042f2:    9002        ..      STR      r0,[sp,#8]
        0x000042f4:    2001        .       MOVS     r0,#1
        0x000042f6:    07c0        ..      LSLS     r0,r0,#31
        0x000042f8:    9003        ..      STR      r0,[sp,#0xc]
        0x000042fa:    0720         .      LSLS     r0,r4,#28
        0x000042fc:    d406        ..      BMI      0x430c ; _printf_core + 1464
        0x000042fe:    9902        ..      LDR      r1,[sp,#8]
        0x00004300:    9801        ..      LDR      r0,[sp,#4]
        0x00004302:    4281        .B      CMP      r1,r0
        0x00004304:    db02        ..      BLT      0x430c ; _printf_core + 1464
        0x00004306:    2000        .       MOVS     r0,#0
        0x00004308:    43c0        .C      MVNS     r0,r0
        0x0000430a:    9002        ..      STR      r0,[sp,#8]
        0x0000430c:    2000        .       MOVS     r0,#0
        0x0000430e:    4669        iF      MOV      r1,sp
        0x00004310:    77c8        .w      STRB     r0,[r1,#0x1f]
        0x00004312:    af07        ..      ADD      r7,sp,#0x1c
        0x00004314:    2101        .!      MOVS     r1,#1
        0x00004316:    9803        ..      LDR      r0,[sp,#0xc]
        0x00004318:    3703        .7      ADDS     r7,#3
        0x0000431a:    07c9        ..      LSLS     r1,r1,#31
        0x0000431c:    4288        .B      CMP      r0,r1
        0x0000431e:    d024        $.      BEQ      0x436a ; _printf_core + 1558
        0x00004320:    2002        .       MOVS     r0,#2
        0x00004322:    9011        ..      STR      r0,[sp,#0x44]
        0x00004324:    202b        +       MOVS     r0,#0x2b
        0x00004326:    9012        ..      STR      r0,[sp,#0x48]
        0x00004328:    9803        ..      LDR      r0,[sp,#0xc]
        0x0000432a:    2800        .(      CMP      r0,#0
        0x0000432c:    da0c        ..      BGE      0x4348 ; _printf_core + 1524
        0x0000432e:    4240        @B      RSBS     r0,r0,#0
        0x00004330:    9003        ..      STR      r0,[sp,#0xc]
        0x00004332:    202d        -       MOVS     r0,#0x2d
        0x00004334:    9012        ..      STR      r0,[sp,#0x48]
        0x00004336:    e007        ..      B        0x4348 ; _printf_core + 1524
        0x00004338:    210a        .!      MOVS     r1,#0xa
        0x0000433a:    9803        ..      LDR      r0,[sp,#0xc]
        0x0000433c:    f7fefef6    ....    BL       __aeabi_uidiv ; 0x312c
        0x00004340:    3130        01      ADDS     r1,r1,#0x30
        0x00004342:    1e7f        ..      SUBS     r7,r7,#1
        0x00004344:    9003        ..      STR      r0,[sp,#0xc]
        0x00004346:    7039        9p      STRB     r1,[r7,#0]
        0x00004348:    9911        ..      LDR      r1,[sp,#0x44]
        0x0000434a:    1e48        H.      SUBS     r0,r1,#1
        0x0000434c:    9011        ..      STR      r0,[sp,#0x44]
        0x0000434e:    2900        .)      CMP      r1,#0
        0x00004350:    dcf2        ..      BGT      0x4338 ; _printf_core + 1508
        0x00004352:    9803        ..      LDR      r0,[sp,#0xc]
        0x00004354:    2800        .(      CMP      r0,#0
        0x00004356:    d1ef        ..      BNE      0x4338 ; _printf_core + 1508
        0x00004358:    1e79        y.      SUBS     r1,r7,#1
        0x0000435a:    9812        ..      LDR      r0,[sp,#0x48]
        0x0000435c:    7008        .p      STRB     r0,[r1,#0]
        0x0000435e:    7830        0x      LDRB     r0,[r6,#0]
        0x00004360:    2120         !      MOVS     r1,#0x20
        0x00004362:    4008        .@      ANDS     r0,r0,r1
        0x00004364:    3045        E0      ADDS     r0,r0,#0x45
        0x00004366:    1ebf        ..      SUBS     r7,r7,#2
        0x00004368:    7038        8p      STRB     r0,[r7,#0]
        0x0000436a:    a806        ..      ADD      r0,sp,#0x18
        0x0000436c:    1bc0        ..      SUBS     r0,r0,r7
        0x0000436e:    1dc0        ..      ADDS     r0,r0,#7
        0x00004370:    9003        ..      STR      r0,[sp,#0xc]
        0x00004372:    9810        ..      LDR      r0,[sp,#0x40]
        0x00004374:    7800        .x      LDRB     r0,[r0,#0]
        0x00004376:    2800        .(      CMP      r0,#0
        0x00004378:    d000        ..      BEQ      0x437c ; _printf_core + 1576
        0x0000437a:    2001        .       MOVS     r0,#1
        0x0000437c:    9901        ..      LDR      r1,[sp,#4]
        0x0000437e:    1841        A.      ADDS     r1,r0,r1
        0x00004380:    9802        ..      LDR      r0,[sp,#8]
        0x00004382:    17c0        ..      ASRS     r0,r0,#31
        0x00004384:    1809        ..      ADDS     r1,r1,r0
        0x00004386:    9803        ..      LDR      r0,[sp,#0xc]
        0x00004388:    1809        ..      ADDS     r1,r1,r0
        0x0000438a:    9804        ..      LDR      r0,[sp,#0x10]
        0x0000438c:    1a40        @.      SUBS     r0,r0,r1
        0x0000438e:    1e40        @.      SUBS     r0,r0,#1
        0x00004390:    9004        ..      STR      r0,[sp,#0x10]
        0x00004392:    03e0        ..      LSLS     r0,r4,#15
        0x00004394:    d406        ..      BMI      0x43a4 ; _printf_core + 1616
        0x00004396:    4621        !F      MOV      r1,r4
        0x00004398:    9b1a        ..      LDR      r3,[sp,#0x68]
        0x0000439a:    9a19        ..      LDR      r2,[sp,#0x64]
        0x0000439c:    9804        ..      LDR      r0,[sp,#0x10]
        0x0000439e:    f000f85f    .._.    BL       _printf_pre_padding ; 0x4460
        0x000043a2:    1945        E.      ADDS     r5,r0,r5
        0x000043a4:    9810        ..      LDR      r0,[sp,#0x40]
        0x000043a6:    7800        .x      LDRB     r0,[r0,#0]
        0x000043a8:    2800        .(      CMP      r0,#0
        0x000043aa:    d003        ..      BEQ      0x43b4 ; _printf_core + 1632
        0x000043ac:    9a1a        ..      LDR      r2,[sp,#0x68]
        0x000043ae:    9919        ..      LDR      r1,[sp,#0x64]
        0x000043b0:    4790        .G      BLX      r2
        0x000043b2:    1c6d        m.      ADDS     r5,r5,#1
        0x000043b4:    03e0        ..      LSLS     r0,r4,#15
        0x000043b6:    d524        $.      BPL      0x4402 ; _printf_core + 1710
        0x000043b8:    4621        !F      MOV      r1,r4
        0x000043ba:    9b1a        ..      LDR      r3,[sp,#0x68]
        0x000043bc:    9a19        ..      LDR      r2,[sp,#0x64]
        0x000043be:    9804        ..      LDR      r0,[sp,#0x10]
        0x000043c0:    f000f84e    ..N.    BL       _printf_pre_padding ; 0x4460
        0x000043c4:    1945        E.      ADDS     r5,r0,r5
        0x000043c6:    e01c        ..      B        0x4402 ; _printf_core + 1710
        0x000043c8:    9800        ..      LDR      r0,[sp,#0]
        0x000043ca:    2800        .(      CMP      r0,#0
        0x000043cc:    db07        ..      BLT      0x43de ; _printf_core + 1674
        0x000043ce:    9900        ..      LDR      r1,[sp,#0]
        0x000043d0:    9805        ..      LDR      r0,[sp,#0x14]
        0x000043d2:    4288        .B      CMP      r0,r1
        0x000043d4:    dd03        ..      BLE      0x43de ; _printf_core + 1674
        0x000043d6:    9815        ..      LDR      r0,[sp,#0x54]
        0x000043d8:    5c40        @\      LDRB     r0,[r0,r1]
        0x000043da:    9919        ..      LDR      r1,[sp,#0x64]
        0x000043dc:    e001        ..      B        0x43e2 ; _printf_core + 1678
        0x000043de:    9919        ..      LDR      r1,[sp,#0x64]
        0x000043e0:    2030        0       MOVS     r0,#0x30
        0x000043e2:    9a1a        ..      LDR      r2,[sp,#0x68]
        0x000043e4:    4790        .G      BLX      r2
        0x000043e6:    9800        ..      LDR      r0,[sp,#0]
        0x000043e8:    1c6d        m.      ADDS     r5,r5,#1
        0x000043ea:    1c40        @.      ADDS     r0,r0,#1
        0x000043ec:    9000        ..      STR      r0,[sp,#0]
        0x000043ee:    9802        ..      LDR      r0,[sp,#8]
        0x000043f0:    1e40        @.      SUBS     r0,r0,#1
        0x000043f2:    9002        ..      STR      r0,[sp,#8]
        0x000043f4:    2800        .(      CMP      r0,#0
        0x000043f6:    d104        ..      BNE      0x4402 ; _printf_core + 1710
        0x000043f8:    9a1a        ..      LDR      r2,[sp,#0x68]
        0x000043fa:    202e        .       MOVS     r0,#0x2e
        0x000043fc:    9919        ..      LDR      r1,[sp,#0x64]
        0x000043fe:    4790        .G      BLX      r2
        0x00004400:    1c6d        m.      ADDS     r5,r5,#1
        0x00004402:    9901        ..      LDR      r1,[sp,#4]
        0x00004404:    1e48        H.      SUBS     r0,r1,#1
        0x00004406:    9001        ..      STR      r0,[sp,#4]
        0x00004408:    2900        .)      CMP      r1,#0
        0x0000440a:    dcdd        ..      BGT      0x43c8 ; _printf_core + 1652
        0x0000440c:    e005        ..      B        0x441a ; _printf_core + 1734
        0x0000440e:    7838        8x      LDRB     r0,[r7,#0]
        0x00004410:    9a1a        ..      LDR      r2,[sp,#0x68]
        0x00004412:    1c7f        ..      ADDS     r7,r7,#1
        0x00004414:    9919        ..      LDR      r1,[sp,#0x64]
        0x00004416:    4790        .G      BLX      r2
        0x00004418:    1c6d        m.      ADDS     r5,r5,#1
        0x0000441a:    9903        ..      LDR      r1,[sp,#0xc]
        0x0000441c:    1e48        H.      SUBS     r0,r1,#1
        0x0000441e:    9003        ..      STR      r0,[sp,#0xc]
        0x00004420:    2900        .)      CMP      r1,#0
        0x00004422:    dcf4        ..      BGT      0x440e ; _printf_core + 1722
        0x00004424:    4621        !F      MOV      r1,r4
        0x00004426:    9b1a        ..      LDR      r3,[sp,#0x68]
        0x00004428:    9a19        ..      LDR      r2,[sp,#0x64]
        0x0000442a:    9804        ..      LDR      r0,[sp,#0x10]
        0x0000442c:    e6ac        ..      B        0x4188 ; _printf_core + 1076
    $d
        0x0000442e:    0000        ..      DCW    0
        0x00004430:    0000002d    -...    DCD    45
        0x00004434:    0000002b    +...    DCD    43
        0x00004438:    00000020     ...    DCD    32
        0x0000443c:    00000000    ....    DCD    0
    $t
    i._printf_post_padding
    _printf_post_padding
        0x00004440:    b5f8        ..      PUSH     {r3-r7,lr}
        0x00004442:    4604        .F      MOV      r4,r0
        0x00004444:    2500        .%      MOVS     r5,#0
        0x00004446:    461e        .F      MOV      r6,r3
        0x00004448:    4617        .F      MOV      r7,r2
        0x0000444a:    0488        ..      LSLS     r0,r1,#18
        0x0000444c:    d404        ..      BMI      0x4458 ; _printf_post_padding + 24
        0x0000444e:    e005        ..      B        0x445c ; _printf_post_padding + 28
        0x00004450:    4639        9F      MOV      r1,r7
        0x00004452:    2020                MOVS     r0,#0x20
        0x00004454:    47b0        .G      BLX      r6
        0x00004456:    1c6d        m.      ADDS     r5,r5,#1
        0x00004458:    1e64        d.      SUBS     r4,r4,#1
        0x0000445a:    d5f9        ..      BPL      0x4450 ; _printf_post_padding + 16
        0x0000445c:    4628        (F      MOV      r0,r5
        0x0000445e:    bdf8        ..      POP      {r3-r7,pc}
    i._printf_pre_padding
    _printf_pre_padding
        0x00004460:    b5ff        ..      PUSH     {r0-r7,lr}
        0x00004462:    4604        .F      MOV      r4,r0
        0x00004464:    2500        .%      MOVS     r5,#0
        0x00004466:    b081        ..      SUB      sp,sp,#4
        0x00004468:    461e        .F      MOV      r6,r3
        0x0000446a:    03c8        ..      LSLS     r0,r1,#15
        0x0000446c:    d501        ..      BPL      0x4472 ; _printf_pre_padding + 18
        0x0000446e:    2730        0'      MOVS     r7,#0x30
        0x00004470:    e000        ..      B        0x4474 ; _printf_pre_padding + 20
        0x00004472:    2720         '      MOVS     r7,#0x20
        0x00004474:    0488        ..      LSLS     r0,r1,#18
        0x00004476:    d504        ..      BPL      0x4482 ; _printf_pre_padding + 34
        0x00004478:    e005        ..      B        0x4486 ; _printf_pre_padding + 38
        0x0000447a:    4638        8F      MOV      r0,r7
        0x0000447c:    9903        ..      LDR      r1,[sp,#0xc]
        0x0000447e:    47b0        .G      BLX      r6
        0x00004480:    1c6d        m.      ADDS     r5,r5,#1
        0x00004482:    1e64        d.      SUBS     r4,r4,#1
        0x00004484:    d5f9        ..      BPL      0x447a ; _printf_pre_padding + 26
        0x00004486:    4628        (F      MOV      r0,r5
        0x00004488:    b005        ..      ADD      sp,sp,#0x14
        0x0000448a:    bdf0        ..      POP      {r4-r7,pc}
    i._sputc
    _sputc
        0x0000448c:    680a        .h      LDR      r2,[r1,#0]
        0x0000448e:    1c53        S.      ADDS     r3,r2,#1
        0x00004490:    600b        .`      STR      r3,[r1,#0]
        0x00004492:    7010        .p      STRB     r0,[r2,#0]
        0x00004494:    4770        pG      BX       lr
        0x00004496:    0000        ..      MOVS     r0,r0
    i.batteryind
    batteryind
        0x00004498:    b570        p.      PUSH     {r4-r6,lr}
        0x0000449a:    4849        IH      LDR      r0,[pc,#292] ; [0x45c0] = 0x20000010
        0x0000449c:    7800        .x      LDRB     r0,[r0,#0]
        0x0000449e:    1c40        @.      ADDS     r0,r0,#1
        0x000044a0:    b240        @.      SXTB     r0,r0
        0x000044a2:    4947        GI      LDR      r1,[pc,#284] ; [0x45c0] = 0x20000010
        0x000044a4:    7008        .p      STRB     r0,[r1,#0]
        0x000044a6:    4608        .F      MOV      r0,r1
        0x000044a8:    7800        .x      LDRB     r0,[r0,#0]
        0x000044aa:    2801        .(      CMP      r0,#1
        0x000044ac:    d106        ..      BNE      0x44bc ; batteryind + 36
        0x000044ae:    2000        .       MOVS     r0,#0
        0x000044b0:    4944        DI      LDR      r1,[pc,#272] ; [0x45c4] = 0x50004200
        0x000044b2:    60c8        .`      STR      r0,[r1,#0xc]
        0x000044b4:    6108        .a      STR      r0,[r1,#0x10]
        0x000044b6:    6148        Ha      STR      r0,[r1,#0x14]
        0x000044b8:    6188        .a      STR      r0,[r1,#0x18]
        0x000044ba:    e07f        ..      B        0x45bc ; batteryind + 292
        0x000044bc:    4842        BH      LDR      r0,[pc,#264] ; [0x45c8] = 0x20000054
        0x000044be:    6800        .h      LDR      r0,[r0,#0]
        0x000044c0:    f7feffbb    ....    BL       __aeabi_f2d ; 0x343a
        0x000044c4:    4604        .F      MOV      r4,r0
        0x000044c6:    4a41        AJ      LDR      r2,[pc,#260] ; [0x45cc] = 0x66666666
        0x000044c8:    4b41        AK      LDR      r3,[pc,#260] ; [0x45d0] = 0x40126666
        0x000044ca:    f7feffdf    ....    BL       __aeabi_cdrcmple ; 0x348c
        0x000044ce:    d209        ..      BCS      0x44e4 ; batteryind + 76
        0x000044d0:    483c        <H      LDR      r0,[pc,#240] ; [0x45c4] = 0x50004200
        0x000044d2:    6980        .i      LDR      r0,[r0,#0x18]
        0x000044d4:    2101        .!      MOVS     r1,#1
        0x000044d6:    4048        H@      EORS     r0,r0,r1
        0x000044d8:    493a        :I      LDR      r1,[pc,#232] ; [0x45c4] = 0x50004200
        0x000044da:    6188        .a      STR      r0,[r1,#0x18]
        0x000044dc:    6148        Ha      STR      r0,[r1,#0x14]
        0x000044de:    6108        .a      STR      r0,[r1,#0x10]
        0x000044e0:    60c8        .`      STR      r0,[r1,#0xc]
        0x000044e2:    e068        h.      B        0x45b6 ; batteryind + 286
        0x000044e4:    4838        8H      LDR      r0,[pc,#224] ; [0x45c8] = 0x20000054
        0x000044e6:    6800        .h      LDR      r0,[r0,#0]
        0x000044e8:    f7feffa7    ....    BL       __aeabi_f2d ; 0x343a
        0x000044ec:    4604        .F      MOV      r4,r0
        0x000044ee:    2200        ."      MOVS     r2,#0
        0x000044f0:    4b38        8K      LDR      r3,[pc,#224] ; [0x45d4] = 0x400a0000
        0x000044f2:    f7feffb7    ....    BL       __aeabi_cdcmpeq ; 0x3464
        0x000044f6:    d209        ..      BCS      0x450c ; batteryind + 116
        0x000044f8:    4832        2H      LDR      r0,[pc,#200] ; [0x45c4] = 0x50004200
        0x000044fa:    68c0        .h      LDR      r0,[r0,#0xc]
        0x000044fc:    2101        .!      MOVS     r1,#1
        0x000044fe:    4048        H@      EORS     r0,r0,r1
        0x00004500:    4930        0I      LDR      r1,[pc,#192] ; [0x45c4] = 0x50004200
        0x00004502:    60c8        .`      STR      r0,[r1,#0xc]
        0x00004504:    2000        .       MOVS     r0,#0
        0x00004506:    4934        4I      LDR      r1,[pc,#208] ; [0x45d8] = 0x2000005c
        0x00004508:    7008        .p      STRB     r0,[r1,#0]
        0x0000450a:    e054        T.      B        0x45b6 ; batteryind + 286
        0x0000450c:    482e        .H      LDR      r0,[pc,#184] ; [0x45c8] = 0x20000054
        0x0000450e:    6800        .h      LDR      r0,[r0,#0]
        0x00004510:    f7feff93    ....    BL       __aeabi_f2d ; 0x343a
        0x00004514:    4604        .F      MOV      r4,r0
        0x00004516:    2200        ."      MOVS     r2,#0
        0x00004518:    4b30        0K      LDR      r3,[pc,#192] ; [0x45dc] = 0x400c0000
        0x0000451a:    f7feffa3    ....    BL       __aeabi_cdcmpeq ; 0x3464
        0x0000451e:    d20f        ..      BCS      0x4540 ; batteryind + 168
        0x00004520:    4828        (H      LDR      r0,[pc,#160] ; [0x45c4] = 0x50004200
        0x00004522:    68c0        .h      LDR      r0,[r0,#0xc]
        0x00004524:    2101        .!      MOVS     r1,#1
        0x00004526:    4048        H@      EORS     r0,r0,r1
        0x00004528:    4926        &I      LDR      r1,[pc,#152] ; [0x45c4] = 0x50004200
        0x0000452a:    60c8        .`      STR      r0,[r1,#0xc]
        0x0000452c:    4608        .F      MOV      r0,r1
        0x0000452e:    6900        .i      LDR      r0,[r0,#0x10]
        0x00004530:    2101        .!      MOVS     r1,#1
        0x00004532:    4048        H@      EORS     r0,r0,r1
        0x00004534:    4923        #I      LDR      r1,[pc,#140] ; [0x45c4] = 0x50004200
        0x00004536:    6108        .a      STR      r0,[r1,#0x10]
        0x00004538:    2000        .       MOVS     r0,#0
        0x0000453a:    4927        'I      LDR      r1,[pc,#156] ; [0x45d8] = 0x2000005c
        0x0000453c:    7008        .p      STRB     r0,[r1,#0]
        0x0000453e:    e03a        :.      B        0x45b6 ; batteryind + 286
        0x00004540:    4821        !H      LDR      r0,[pc,#132] ; [0x45c8] = 0x20000054
        0x00004542:    6800        .h      LDR      r0,[r0,#0]
        0x00004544:    f7feff79    ..y.    BL       __aeabi_f2d ; 0x343a
        0x00004548:    4604        .F      MOV      r4,r0
        0x0000454a:    2200        ."      MOVS     r2,#0
        0x0000454c:    4b24        $K      LDR      r3,[pc,#144] ; [0x45e0] = 0x400e0000
        0x0000454e:    f7feff89    ....    BL       __aeabi_cdcmpeq ; 0x3464
        0x00004552:    d215        ..      BCS      0x4580 ; batteryind + 232
        0x00004554:    481b        .H      LDR      r0,[pc,#108] ; [0x45c4] = 0x50004200
        0x00004556:    68c0        .h      LDR      r0,[r0,#0xc]
        0x00004558:    2101        .!      MOVS     r1,#1
        0x0000455a:    4048        H@      EORS     r0,r0,r1
        0x0000455c:    4919        .I      LDR      r1,[pc,#100] ; [0x45c4] = 0x50004200
        0x0000455e:    60c8        .`      STR      r0,[r1,#0xc]
        0x00004560:    4608        .F      MOV      r0,r1
        0x00004562:    6900        .i      LDR      r0,[r0,#0x10]
        0x00004564:    2101        .!      MOVS     r1,#1
        0x00004566:    4048        H@      EORS     r0,r0,r1
        0x00004568:    4916        .I      LDR      r1,[pc,#88] ; [0x45c4] = 0x50004200
        0x0000456a:    6108        .a      STR      r0,[r1,#0x10]
        0x0000456c:    4608        .F      MOV      r0,r1
        0x0000456e:    6940        @i      LDR      r0,[r0,#0x14]
        0x00004570:    2101        .!      MOVS     r1,#1
        0x00004572:    4048        H@      EORS     r0,r0,r1
        0x00004574:    4913        .I      LDR      r1,[pc,#76] ; [0x45c4] = 0x50004200
        0x00004576:    6148        Ha      STR      r0,[r1,#0x14]
        0x00004578:    2000        .       MOVS     r0,#0
        0x0000457a:    4917        .I      LDR      r1,[pc,#92] ; [0x45d8] = 0x2000005c
        0x0000457c:    7008        .p      STRB     r0,[r1,#0]
        0x0000457e:    e01a        ..      B        0x45b6 ; batteryind + 286
        0x00004580:    4810        .H      LDR      r0,[pc,#64] ; [0x45c4] = 0x50004200
        0x00004582:    68c0        .h      LDR      r0,[r0,#0xc]
        0x00004584:    2101        .!      MOVS     r1,#1
        0x00004586:    4048        H@      EORS     r0,r0,r1
        0x00004588:    490e        .I      LDR      r1,[pc,#56] ; [0x45c4] = 0x50004200
        0x0000458a:    60c8        .`      STR      r0,[r1,#0xc]
        0x0000458c:    4608        .F      MOV      r0,r1
        0x0000458e:    6900        .i      LDR      r0,[r0,#0x10]
        0x00004590:    2101        .!      MOVS     r1,#1
        0x00004592:    4048        H@      EORS     r0,r0,r1
        0x00004594:    490b        .I      LDR      r1,[pc,#44] ; [0x45c4] = 0x50004200
        0x00004596:    6108        .a      STR      r0,[r1,#0x10]
        0x00004598:    4608        .F      MOV      r0,r1
        0x0000459a:    6940        @i      LDR      r0,[r0,#0x14]
        0x0000459c:    2101        .!      MOVS     r1,#1
        0x0000459e:    4048        H@      EORS     r0,r0,r1
        0x000045a0:    4908        .I      LDR      r1,[pc,#32] ; [0x45c4] = 0x50004200
        0x000045a2:    6148        Ha      STR      r0,[r1,#0x14]
        0x000045a4:    4608        .F      MOV      r0,r1
        0x000045a6:    6980        .i      LDR      r0,[r0,#0x18]
        0x000045a8:    2101        .!      MOVS     r1,#1
        0x000045aa:    4048        H@      EORS     r0,r0,r1
        0x000045ac:    4905        .I      LDR      r1,[pc,#20] ; [0x45c4] = 0x50004200
        0x000045ae:    6188        .a      STR      r0,[r1,#0x18]
        0x000045b0:    2000        .       MOVS     r0,#0
        0x000045b2:    4909        .I      LDR      r1,[pc,#36] ; [0x45d8] = 0x2000005c
        0x000045b4:    7008        .p      STRB     r0,[r1,#0]
        0x000045b6:    2000        .       MOVS     r0,#0
        0x000045b8:    4901        .I      LDR      r1,[pc,#4] ; [0x45c0] = 0x20000010
        0x000045ba:    7008        .p      STRB     r0,[r1,#0]
        0x000045bc:    bd70        p.      POP      {r4-r6,pc}
    $d
        0x000045be:    0000        ..      DCW    0
        0x000045c0:    20000010    ...     DCD    536870928
        0x000045c4:    50004200    .B.P    DCD    1342194176
        0x000045c8:    20000054    T..     DCD    536870996
        0x000045cc:    66666666    ffff    DCD    1717986918
        0x000045d0:    40126666    ff.@    DCD    1074947686
        0x000045d4:    400a0000    ...@    DCD    1074397184
        0x000045d8:    2000005c    \..     DCD    536871004
        0x000045dc:    400c0000    ...@    DCD    1074528256
        0x000045e0:    400e0000    ...@    DCD    1074659328
    $t
    i.checkallnumsinstring
    checkallnumsinstring
        0x000045e4:    b5f8        ..      PUSH     {r3-r7,lr}
        0x000045e6:    4605        .F      MOV      r5,r0
        0x000045e8:    2700        .'      MOVS     r7,#0
        0x000045ea:    4628        (F      MOV      r0,r5
        0x000045ec:    f7fefe2a    ..*.    BL       strlen ; 0x3244
        0x000045f0:    4607        .F      MOV      r7,r0
        0x000045f2:    2400        .$      MOVS     r4,#0
        0x000045f4:    e00a        ..      B        0x460c ; checkallnumsinstring + 40
        0x000045f6:    5d28        (]      LDRB     r0,[r5,r4]
        0x000045f8:    282f        /(      CMP      r0,#0x2f
        0x000045fa:    dd04        ..      BLE      0x4606 ; checkallnumsinstring + 34
        0x000045fc:    5d28        (]      LDRB     r0,[r5,r4]
        0x000045fe:    283a        :(      CMP      r0,#0x3a
        0x00004600:    da01        ..      BGE      0x4606 ; checkallnumsinstring + 34
        0x00004602:    2600        .&      MOVS     r6,#0
        0x00004604:    e001        ..      B        0x460a ; checkallnumsinstring + 38
        0x00004606:    2601        .&      MOVS     r6,#1
        0x00004608:    e002        ..      B        0x4610 ; checkallnumsinstring + 44
        0x0000460a:    1c64        d.      ADDS     r4,r4,#1
        0x0000460c:    42bc        .B      CMP      r4,r7
        0x0000460e:    dbf2        ..      BLT      0x45f6 ; checkallnumsinstring + 18
        0x00004610:    bf00        ..      NOP      
        0x00004612:    b270        p.      SXTB     r0,r6
        0x00004614:    bdf8        ..      POP      {r3-r7,pc}
        0x00004616:    0000        ..      MOVS     r0,r0
    i.fileopen
    fileopen
        0x00004618:    b51c        ..      PUSH     {r2-r4,lr}
        0x0000461a:    200a        .       MOVS     r0,#0xa
        0x0000461c:    4b1d        .K      LDR      r3,[pc,#116] ; [0x4694] = 0x5d48
        0x0000461e:    4a1e        .J      LDR      r2,[pc,#120] ; [0x4698] = 0x5d40
        0x00004620:    491e        .I      LDR      r1,[pc,#120] ; [0x469c] = 0x5d50
        0x00004622:    9000        ..      STR      r0,[sp,#0]
        0x00004624:    481e        .H      LDR      r0,[pc,#120] ; [0x46a0] = 0x5cfc
        0x00004626:    f7fcf9fe    ....    BL       SendAT ; 0xa26
        0x0000462a:    491e        .I      LDR      r1,[pc,#120] ; [0x46a4] = 0x5d44
        0x0000462c:    481e        .H      LDR      r0,[pc,#120] ; [0x46a8] = 0x20000f68
        0x0000462e:    f7fefdf5    ....    BL       strstr ; 0x321c
        0x00004632:    2800        .(      CMP      r0,#0
        0x00004634:    d016        ..      BEQ      0x4664 ; fileopen + 76
        0x00004636:    200a        .       MOVS     r0,#0xa
        0x00004638:    4b16        .K      LDR      r3,[pc,#88] ; [0x4694] = 0x5d48
        0x0000463a:    4a17        .J      LDR      r2,[pc,#92] ; [0x4698] = 0x5d40
        0x0000463c:    4917        .I      LDR      r1,[pc,#92] ; [0x469c] = 0x5d50
        0x0000463e:    9000        ..      STR      r0,[sp,#0]
        0x00004640:    481a        .H      LDR      r0,[pc,#104] ; [0x46ac] = 0x5d18
        0x00004642:    f7fcf9f0    ....    BL       SendAT ; 0xa26
        0x00004646:    2064        d       MOVS     r0,#0x64
        0x00004648:    f000f894    ....    BL       manualdelay ; 0x4774
        0x0000464c:    2114        .!      MOVS     r1,#0x14
        0x0000464e:    4818        .H      LDR      r0,[pc,#96] ; [0x46b0] = 0x20000148
        0x00004650:    f7fefdcd    ....    BL       __aeabi_memclr ; 0x31ee
        0x00004654:    200a        .       MOVS     r0,#0xa
        0x00004656:    4b0f        .K      LDR      r3,[pc,#60] ; [0x4694] = 0x5d48
        0x00004658:    4a0f        .J      LDR      r2,[pc,#60] ; [0x4698] = 0x5d40
        0x0000465a:    4910        .I      LDR      r1,[pc,#64] ; [0x469c] = 0x5d50
        0x0000465c:    9000        ..      STR      r0,[sp,#0]
        0x0000465e:    4810        .H      LDR      r0,[pc,#64] ; [0x46a0] = 0x5cfc
        0x00004660:    f7fcf9e1    ....    BL       SendAT ; 0xa26
        0x00004664:    4812        .H      LDR      r0,[pc,#72] ; [0x46b0] = 0x20000148
        0x00004666:    210a        .!      MOVS     r1,#0xa
        0x00004668:    2320         #      MOVS     r3,#0x20
        0x0000466a:    2202        ."      MOVS     r2,#2
        0x0000466c:    9100        ..      STR      r1,[sp,#0]
        0x0000466e:    9001        ..      STR      r0,[sp,#4]
        0x00004670:    2101        .!      MOVS     r1,#1
        0x00004672:    480d        .H      LDR      r0,[pc,#52] ; [0x46a8] = 0x20000f68
        0x00004674:    f000f9ac    ....    BL       parse_g ; 0x49d0
        0x00004678:    220a        ."      MOVS     r2,#0xa
        0x0000467a:    210d        .!      MOVS     r1,#0xd
        0x0000467c:    480c        .H      LDR      r0,[pc,#48] ; [0x46b0] = 0x20000148
        0x0000467e:    f7fbfea0    ....    BL       remove_all_chars ; 0x3c2
        0x00004682:    2005        .       MOVS     r0,#5
        0x00004684:    4b0b        .K      LDR      r3,[pc,#44] ; [0x46b4] = 0x5d38
        0x00004686:    4a03        .J      LDR      r2,[pc,#12] ; [0x4694] = 0x5d48
        0x00004688:    4903        .I      LDR      r1,[pc,#12] ; [0x4698] = 0x5d40
        0x0000468a:    9000        ..      STR      r0,[sp,#0]
        0x0000468c:    480a        .H      LDR      r0,[pc,#40] ; [0x46b8] = 0x5d28
        0x0000468e:    f7fcf9ca    ....    BL       SendAT ; 0xa26
        0x00004692:    bd1c        ..      POP      {r2-r4,pc}
    $d
        0x00004694:    00005d48    H]..    DCD    23880
        0x00004698:    00005d40    @]..    DCD    23872
        0x0000469c:    00005d50    P]..    DCD    23888
        0x000046a0:    00005cfc    .\..    DCD    23804
        0x000046a4:    00005d44    D]..    DCD    23876
        0x000046a8:    20000f68    h..     DCD    536874856
        0x000046ac:    00005d18    .]..    DCD    23832
        0x000046b0:    20000148    H..     DCD    536871240
        0x000046b4:    00005d38    8]..    DCD    23864
        0x000046b8:    00005d28    (]..    DCD    23848
    $t
    i.isrMessageGet
    isrMessageGet
        0x000046bc:    b50e        ..      PUSH     {r1-r3,lr}
        0x000046be:    4602        .F      MOV      r2,r0
        0x000046c0:    2080        .       MOVS     r0,#0x80
        0x000046c2:    2a00        .*      CMP      r2,#0
        0x000046c4:    d00d        ..      BEQ      0x46e2 ; isrMessageGet + 38
        0x000046c6:    2900        .)      CMP      r1,#0
        0x000046c8:    d10b        ..      BNE      0x46e2 ; isrMessageGet + 38
        0x000046ca:    7811        .x      LDRB     r1,[r2,#0]
        0x000046cc:    2901        .)      CMP      r1,#1
        0x000046ce:    d108        ..      BNE      0x46e2 ; isrMessageGet + 38
        0x000046d0:    4610        .F      MOV      r0,r2
        0x000046d2:    a901        ..      ADD      r1,sp,#4
        0x000046d4:    f000f821    ..!.    BL       isr_mbx_receive ; 0x471a
        0x000046d8:    2804        .(      CMP      r0,#4
        0x000046da:    d001        ..      BEQ      0x46e0 ; isrMessageGet + 36
        0x000046dc:    2000        .       MOVS     r0,#0
        0x000046de:    e000        ..      B        0x46e2 ; isrMessageGet + 38
        0x000046e0:    2010        .       MOVS     r0,#0x10
        0x000046e2:    9a02        ..      LDR      r2,[sp,#8]
        0x000046e4:    9901        ..      LDR      r1,[sp,#4]
        0x000046e6:    b003        ..      ADD      sp,sp,#0xc
        0x000046e8:    bd00        ..      POP      {pc}
    i.isrMessagePut
    isrMessagePut
        0x000046ea:    b570        p.      PUSH     {r4-r6,lr}
        0x000046ec:    460d        .F      MOV      r5,r1
        0x000046ee:    0004        ..      MOVS     r4,r0
        0x000046f0:    d004        ..      BEQ      0x46fc ; isrMessagePut + 18
        0x000046f2:    2a00        .*      CMP      r2,#0
        0x000046f4:    d102        ..      BNE      0x46fc ; isrMessagePut + 18
        0x000046f6:    7820         x      LDRB     r0,[r4,#0]
        0x000046f8:    2801        .(      CMP      r0,#1
        0x000046fa:    d001        ..      BEQ      0x4700 ; isrMessagePut + 22
        0x000046fc:    2080        .       MOVS     r0,#0x80
        0x000046fe:    bd70        p.      POP      {r4-r6,pc}
        0x00004700:    4620         F      MOV      r0,r4
        0x00004702:    f000fb5b    ..[.    BL       rt_mbx_check ; 0x4dbc
        0x00004706:    2800        .(      CMP      r0,#0
        0x00004708:    d005        ..      BEQ      0x4716 ; isrMessagePut + 44
        0x0000470a:    4629        )F      MOV      r1,r5
        0x0000470c:    4620         F      MOV      r0,r4
        0x0000470e:    f000f82a    ..*.    BL       isr_mbx_send ; 0x4766
        0x00004712:    2000        .       MOVS     r0,#0
        0x00004714:    bd70        p.      POP      {r4-r6,pc}
        0x00004716:    2081        .       MOVS     r0,#0x81
        0x00004718:    bd70        p.      POP      {r4-r6,pc}
    i.isr_mbx_receive
    isr_mbx_receive
        0x0000471a:    b510        ..      PUSH     {r4,lr}
        0x0000471c:    4604        .F      MOV      r4,r0
        0x0000471e:    8980        ..      LDRH     r0,[r0,#0xc]
        0x00004720:    2800        .(      CMP      r0,#0
        0x00004722:    d01f        ..      BEQ      0x4764 ; isr_mbx_receive + 74
        0x00004724:    8960        `.      LDRH     r0,[r4,#0xa]
        0x00004726:    0080        ..      LSLS     r0,r0,#2
        0x00004728:    1900        ..      ADDS     r0,r0,r4
        0x0000472a:    6900        .i      LDR      r0,[r0,#0x10]
        0x0000472c:    6008        .`      STR      r0,[r1,#0]
        0x0000472e:    6860        `h      LDR      r0,[r4,#4]
        0x00004730:    2800        .(      CMP      r0,#0
        0x00004732:    d008        ..      BEQ      0x4746 ; isr_mbx_receive + 44
        0x00004734:    7860        `x      LDRB     r0,[r4,#1]
        0x00004736:    2802        .(      CMP      r0,#2
        0x00004738:    d105        ..      BNE      0x4746 ; isr_mbx_receive + 44
        0x0000473a:    2100        .!      MOVS     r1,#0
        0x0000473c:    4620         F      MOV      r0,r4
        0x0000473e:    f000fd31    ..1.    BL       rt_psq_enq ; 0x51a4
        0x00004742:    f000fd1f    ....    BL       rt_psh_req ; 0x5184
        0x00004746:    b672        r.      CPSID    i
        0x00004748:    89a0        ..      LDRH     r0,[r4,#0xc]
        0x0000474a:    1e40        @.      SUBS     r0,r0,#1
        0x0000474c:    81a0        ..      STRH     r0,[r4,#0xc]
        0x0000474e:    b662        b.      CPSIE    i
        0x00004750:    8960        `.      LDRH     r0,[r4,#0xa]
        0x00004752:    1c40        @.      ADDS     r0,r0,#1
        0x00004754:    b280        ..      UXTH     r0,r0
        0x00004756:    8160        `.      STRH     r0,[r4,#0xa]
        0x00004758:    89e1        ..      LDRH     r1,[r4,#0xe]
        0x0000475a:    4288        .B      CMP      r0,r1
        0x0000475c:    d101        ..      BNE      0x4762 ; isr_mbx_receive + 72
        0x0000475e:    2000        .       MOVS     r0,#0
        0x00004760:    8160        `.      STRH     r0,[r4,#0xa]
        0x00004762:    2004        .       MOVS     r0,#4
        0x00004764:    bd10        ..      POP      {r4,pc}
    i.isr_mbx_send
    isr_mbx_send
        0x00004766:    b510        ..      PUSH     {r4,lr}
        0x00004768:    f000fd1c    ....    BL       rt_psq_enq ; 0x51a4
        0x0000476c:    f000fd0a    ....    BL       rt_psh_req ; 0x5184
        0x00004770:    bd10        ..      POP      {r4,pc}
        0x00004772:    0000        ..      MOVS     r0,r0
    i.manualdelay
    manualdelay
        0x00004774:    2100        .!      MOVS     r1,#0
        0x00004776:    e006        ..      B        0x4786 ; manualdelay + 18
        0x00004778:    2200        ."      MOVS     r2,#0
        0x0000477a:    e000        ..      B        0x477e ; manualdelay + 10
        0x0000477c:    1c52        R.      ADDS     r2,r2,#1
        0x0000477e:    4b03        .K      LDR      r3,[pc,#12] ; [0x478c] = 0xffff
        0x00004780:    429a        .B      CMP      r2,r3
        0x00004782:    dbfb        ..      BLT      0x477c ; manualdelay + 8
        0x00004784:    1c49        I.      ADDS     r1,r1,#1
        0x00004786:    4281        .B      CMP      r1,r0
        0x00004788:    dbf6        ..      BLT      0x4778 ; manualdelay + 4
        0x0000478a:    4770        pG      BX       lr
    $d
        0x0000478c:    0000ffff    ....    DCD    65535
    $t
    i.osDelay
    osDelay
        0x00004790:    b580        ..      PUSH     {r7,lr}
        0x00004792:    f3ef8105    ....    MRS      r1,IPSR
        0x00004796:    2900        .)      CMP      r1,#0
        0x00004798:    d001        ..      BEQ      0x479e ; osDelay + 14
        0x0000479a:    2082        .       MOVS     r0,#0x82
        0x0000479c:    bd80        ..      POP      {r7,pc}
        0x0000479e:    4f02        .O      LDR      r7,[pc,#8] ; [0x47a8] = 0x57e5
        0x000047a0:    46bc        .F      MOV      r12,r7
        0x000047a2:    df00        ..      SVC      #0x0 ; formerly SWI
        0x000047a4:    bd80        ..      POP      {r7,pc}
    $d
        0x000047a6:    0000        ..      DCW    0
        0x000047a8:    000057e5    .W..    DCD    22501
    $t
    i.osKernelInitialize
    osKernelInitialize
        0x000047ac:    b580        ..      PUSH     {r7,lr}
        0x000047ae:    f3ef8005    ....    MRS      r0,IPSR
        0x000047b2:    2800        .(      CMP      r0,#0
        0x000047b4:    d001        ..      BEQ      0x47ba ; osKernelInitialize + 14
        0x000047b6:    2082        .       MOVS     r0,#0x82
        0x000047b8:    bd80        ..      POP      {r7,pc}
        0x000047ba:    f3ef8014    ....    MRS      r0,CONTROL
        0x000047be:    07c0        ..      LSLS     r0,r0,#31
        0x000047c0:    d003        ..      BEQ      0x47ca ; osKernelInitialize + 30
        0x000047c2:    4f03        .O      LDR      r7,[pc,#12] ; [0x47d0] = 0x57f9
        0x000047c4:    46bc        .F      MOV      r12,r7
        0x000047c6:    df00        ..      SVC      #0x0 ; formerly SWI
        0x000047c8:    bd80        ..      POP      {r7,pc}
        0x000047ca:    f001f815    ....    BL       svcKernelInitialize ; 0x57f8
        0x000047ce:    bd80        ..      POP      {r7,pc}
    $d
        0x000047d0:    000057f9    .W..    DCD    22521
    $t
    i.osKernelStart
    osKernelStart
        0x000047d4:    b580        ..      PUSH     {r7,lr}
        0x000047d6:    b088        ..      SUB      sp,sp,#0x20
        0x000047d8:    f3ef8005    ....    MRS      r0,IPSR
        0x000047dc:    2800        .(      CMP      r0,#0
        0x000047de:    d002        ..      BEQ      0x47e6 ; osKernelStart + 18
        0x000047e0:    2082        .       MOVS     r0,#0x82
        0x000047e2:    b008        ..      ADD      sp,sp,#0x20
        0x000047e4:    bd80        ..      POP      {r7,pc}
        0x000047e6:    f3ef8014    ....    MRS      r0,CONTROL
        0x000047ea:    0781        ..      LSLS     r1,r0,#30
        0x000047ec:    4812        .H      LDR      r0,[pc,#72] ; [0x4838] = 0x5c24
        0x000047ee:    0f89        ..      LSRS     r1,r1,#30
        0x000047f0:    d006        ..      BEQ      0x4800 ; osKernelStart + 44
        0x000047f2:    2901        .)      CMP      r1,#1
        0x000047f4:    d01a        ..      BEQ      0x482c ; osKernelStart + 88
        0x000047f6:    2902        .)      CMP      r1,#2
        0x000047f8:    d010        ..      BEQ      0x481c ; osKernelStart + 72
        0x000047fa:    2903        .)      CMP      r1,#3
        0x000047fc:    d118        ..      BNE      0x4830 ; osKernelStart + 92
        0x000047fe:    e012        ..      B        0x4826 ; osKernelStart + 82
        0x00004800:    a908        ..      ADD      r1,sp,#0x20
        0x00004802:    f3818809    ....    MSR      PSP,r1
        0x00004806:    7800        .x      LDRB     r0,[r0,#0]
        0x00004808:    07c0        ..      LSLS     r0,r0,#31
        0x0000480a:    d00a        ..      BEQ      0x4822 ; osKernelStart + 78
        0x0000480c:    2002        .       MOVS     r0,#2
        0x0000480e:    f3808814    ....    MSR      CONTROL,r0
        0x00004812:    f3bf8f4f    ..O.    DSB      
        0x00004816:    f3bf8f6f    ..o.    ISB      
        0x0000481a:    e009        ..      B        0x4830 ; osKernelStart + 92
        0x0000481c:    7800        .x      LDRB     r0,[r0,#0]
        0x0000481e:    07c0        ..      LSLS     r0,r0,#31
        0x00004820:    d106        ..      BNE      0x4830 ; osKernelStart + 92
        0x00004822:    2003        .       MOVS     r0,#3
        0x00004824:    e7f3        ..      B        0x480e ; osKernelStart + 58
        0x00004826:    7800        .x      LDRB     r0,[r0,#0]
        0x00004828:    07c0        ..      LSLS     r0,r0,#31
        0x0000482a:    d001        ..      BEQ      0x4830 ; osKernelStart + 92
        0x0000482c:    20ff        .       MOVS     r0,#0xff
        0x0000482e:    e7d8        ..      B        0x47e2 ; osKernelStart + 14
        0x00004830:    4f02        .O      LDR      r7,[pc,#8] ; [0x483c] = 0x5871
        0x00004832:    46bc        .F      MOV      r12,r7
        0x00004834:    df00        ..      SVC      #0x0 ; formerly SWI
        0x00004836:    e7d4        ..      B        0x47e2 ; osKernelStart + 14
    $d
        0x00004838:    00005c24    $\..    DCD    23588
        0x0000483c:    00005871    qX..    DCD    22641
    $t
    i.osMessageGet
    osMessageGet
        0x00004840:    b580        ..      PUSH     {r7,lr}
        0x00004842:    f3ef8205    ....    MRS      r2,IPSR
        0x00004846:    2a00        .*      CMP      r2,#0
        0x00004848:    d002        ..      BEQ      0x4850 ; osMessageGet + 16
        0x0000484a:    f7ffff37    ..7.    BL       isrMessageGet ; 0x46bc
        0x0000484e:    bd80        ..      POP      {r7,pc}
        0x00004850:    4f01        .O      LDR      r7,[pc,#4] ; [0x4858] = 0x58e7
        0x00004852:    46bc        .F      MOV      r12,r7
        0x00004854:    df00        ..      SVC      #0x0 ; formerly SWI
        0x00004856:    bd80        ..      POP      {r7,pc}
    $d
        0x00004858:    000058e7    .X..    DCD    22759
    $t
    i.osMutexCreate
    osMutexCreate
        0x0000485c:    b580        ..      PUSH     {r7,lr}
        0x0000485e:    f3ef8105    ....    MRS      r1,IPSR
        0x00004862:    2900        .)      CMP      r1,#0
        0x00004864:    d001        ..      BEQ      0x486a ; osMutexCreate + 14
        0x00004866:    2000        .       MOVS     r0,#0
        0x00004868:    bd80        ..      POP      {r7,pc}
        0x0000486a:    f3ef8114    ....    MRS      r1,CONTROL
        0x0000486e:    07c9        ..      LSLS     r1,r1,#31
        0x00004870:    d103        ..      BNE      0x487a ; osMutexCreate + 30
        0x00004872:    4905        .I      LDR      r1,[pc,#20] ; [0x4888] = 0x200000bc
        0x00004874:    7849        Ix      LDRB     r1,[r1,#1]
        0x00004876:    2900        .)      CMP      r1,#0
        0x00004878:    d003        ..      BEQ      0x4882 ; osMutexCreate + 38
        0x0000487a:    4f04        .O      LDR      r7,[pc,#16] ; [0x488c] = 0x5923
        0x0000487c:    46bc        .F      MOV      r12,r7
        0x0000487e:    df00        ..      SVC      #0x0 ; formerly SWI
        0x00004880:    bd80        ..      POP      {r7,pc}
        0x00004882:    f001f84e    ..N.    BL       svcMutexCreate ; 0x5922
        0x00004886:    bd80        ..      POP      {r7,pc}
    $d
        0x00004888:    200000bc    ...     DCD    536871100
        0x0000488c:    00005923    #Y..    DCD    22819
    $t
    i.osMutexRelease
    osMutexRelease
        0x00004890:    b580        ..      PUSH     {r7,lr}
        0x00004892:    f3ef8105    ....    MRS      r1,IPSR
        0x00004896:    2900        .)      CMP      r1,#0
        0x00004898:    d001        ..      BEQ      0x489e ; osMutexRelease + 14
        0x0000489a:    2082        .       MOVS     r0,#0x82
        0x0000489c:    bd80        ..      POP      {r7,pc}
        0x0000489e:    4f02        .O      LDR      r7,[pc,#8] ; [0x48a8] = 0x5943
        0x000048a0:    46bc        .F      MOV      r12,r7
        0x000048a2:    df00        ..      SVC      #0x0 ; formerly SWI
        0x000048a4:    bd80        ..      POP      {r7,pc}
    $d
        0x000048a6:    0000        ..      DCW    0
        0x000048a8:    00005943    CY..    DCD    22851
    $t
    i.osMutexWait
    osMutexWait
        0x000048ac:    b580        ..      PUSH     {r7,lr}
        0x000048ae:    f3ef8205    ....    MRS      r2,IPSR
        0x000048b2:    2a00        .*      CMP      r2,#0
        0x000048b4:    d001        ..      BEQ      0x48ba ; osMutexWait + 14
        0x000048b6:    2082        .       MOVS     r0,#0x82
        0x000048b8:    bd80        ..      POP      {r7,pc}
        0x000048ba:    4f02        .O      LDR      r7,[pc,#8] ; [0x48c4] = 0x5967
        0x000048bc:    46bc        .F      MOV      r12,r7
        0x000048be:    df00        ..      SVC      #0x0 ; formerly SWI
        0x000048c0:    bd80        ..      POP      {r7,pc}
    $d
        0x000048c2:    0000        ..      DCW    0
        0x000048c4:    00005967    gY..    DCD    22887
    $t
    i.osThreadCreate
    osThreadCreate
        0x000048c8:    b580        ..      PUSH     {r7,lr}
        0x000048ca:    f3ef8205    ....    MRS      r2,IPSR
        0x000048ce:    2a00        .*      CMP      r2,#0
        0x000048d0:    d001        ..      BEQ      0x48d6 ; osThreadCreate + 14
        0x000048d2:    2000        .       MOVS     r0,#0
        0x000048d4:    bd80        ..      POP      {r7,pc}
        0x000048d6:    f3ef8214    ....    MRS      r2,CONTROL
        0x000048da:    07d2        ..      LSLS     r2,r2,#31
        0x000048dc:    d103        ..      BNE      0x48e6 ; osThreadCreate + 30
        0x000048de:    4a05        .J      LDR      r2,[pc,#20] ; [0x48f4] = 0x200000bc
        0x000048e0:    7852        Rx      LDRB     r2,[r2,#1]
        0x000048e2:    2a00        .*      CMP      r2,#0
        0x000048e4:    d003        ..      BEQ      0x48ee ; osThreadCreate + 38
        0x000048e6:    4f04        .O      LDR      r7,[pc,#16] ; [0x48f8] = 0x59a5
        0x000048e8:    46bc        .F      MOV      r12,r7
        0x000048ea:    df00        ..      SVC      #0x0 ; formerly SWI
        0x000048ec:    bd80        ..      POP      {r7,pc}
        0x000048ee:    f001f859    ..Y.    BL       svcThreadCreate ; 0x59a4
        0x000048f2:    bd80        ..      POP      {r7,pc}
    $d
        0x000048f4:    200000bc    ...     DCD    536871100
        0x000048f8:    000059a5    .Y..    DCD    22949
    $t
    i.osThreadExit
    osThreadExit
        0x000048fc:    4f03        .O      LDR      r7,[pc,#12] ; [0x490c] = 0x5a19
        0x000048fe:    46bc        .F      MOV      r12,r7
        0x00004900:    df00        ..      SVC      #0x0 ; formerly SWI
        0x00004902:    4f03        .O      LDR      r7,[pc,#12] ; [0x4910] = 0x5a35
        0x00004904:    46bc        .F      MOV      r12,r7
        0x00004906:    df00        ..      SVC      #0x0 ; formerly SWI
        0x00004908:    e7fe        ..      B        0x4908 ; osThreadExit + 12
    $d
        0x0000490a:    0000        ..      DCW    0
        0x0000490c:    00005a19    .Z..    DCD    23065
        0x00004910:    00005a35    5Z..    DCD    23093
    $t
    i.osTimerCall
    osTimerCall
        0x00004914:    b580        ..      PUSH     {r7,lr}
        0x00004916:    4f02        .O      LDR      r7,[pc,#8] ; [0x4920] = 0x5a71
        0x00004918:    46bc        .F      MOV      r12,r7
        0x0000491a:    df00        ..      SVC      #0x0 ; formerly SWI
        0x0000491c:    bd80        ..      POP      {r7,pc}
    $d
        0x0000491e:    0000        ..      DCW    0
        0x00004920:    00005a71    qZ..    DCD    23153
    $t
    i.osTimerCreate
    osTimerCreate
        0x00004924:    b580        ..      PUSH     {r7,lr}
        0x00004926:    f3ef8305    ....    MRS      r3,IPSR
        0x0000492a:    2b00        .+      CMP      r3,#0
        0x0000492c:    d001        ..      BEQ      0x4932 ; osTimerCreate + 14
        0x0000492e:    2000        .       MOVS     r0,#0
        0x00004930:    bd80        ..      POP      {r7,pc}
        0x00004932:    f3ef8314    ....    MRS      r3,CONTROL
        0x00004936:    07db        ..      LSLS     r3,r3,#31
        0x00004938:    d103        ..      BNE      0x4942 ; osTimerCreate + 30
        0x0000493a:    4b05        .K      LDR      r3,[pc,#20] ; [0x4950] = 0x200000bc
        0x0000493c:    785b        [x      LDRB     r3,[r3,#1]
        0x0000493e:    2b00        .+      CMP      r3,#0
        0x00004940:    d003        ..      BEQ      0x494a ; osTimerCreate + 38
        0x00004942:    4f04        .O      LDR      r7,[pc,#16] ; [0x4954] = 0x5a8d
        0x00004944:    46bc        .F      MOV      r12,r7
        0x00004946:    df00        ..      SVC      #0x0 ; formerly SWI
        0x00004948:    bd80        ..      POP      {r7,pc}
        0x0000494a:    f001f89f    ....    BL       svcTimerCreate ; 0x5a8c
        0x0000494e:    bd80        ..      POP      {r7,pc}
    $d
        0x00004950:    200000bc    ...     DCD    536871100
        0x00004954:    00005a8d    .Z..    DCD    23181
    $t
    i.osTimerStart
    osTimerStart
        0x00004958:    b580        ..      PUSH     {r7,lr}
        0x0000495a:    f3ef8205    ....    MRS      r2,IPSR
        0x0000495e:    2a00        .*      CMP      r2,#0
        0x00004960:    d001        ..      BEQ      0x4966 ; osTimerStart + 14
        0x00004962:    2082        .       MOVS     r0,#0x82
        0x00004964:    bd80        ..      POP      {r7,pc}
        0x00004966:    4f02        .O      LDR      r7,[pc,#8] ; [0x4970] = 0x5acd
        0x00004968:    46bc        .F      MOV      r12,r7
        0x0000496a:    df00        ..      SVC      #0x0 ; formerly SWI
        0x0000496c:    bd80        ..      POP      {r7,pc}
    $d
        0x0000496e:    0000        ..      DCW    0
        0x00004970:    00005acd    .Z..    DCD    23245
    $t
    i.osTimerThread
    osTimerThread
        0x00004974:    2500        .%      MOVS     r5,#0
        0x00004976:    4c09        .L      LDR      r4,[pc,#36] ; [0x499c] = 0x200000b0
        0x00004978:    43ed        .C      MVNS     r5,r5
        0x0000497a:    4629        )F      MOV      r1,r5
        0x0000497c:    6820         h      LDR      r0,[r4,#0]
        0x0000497e:    f7ffff5f    .._.    BL       osMessageGet ; 0x4840
        0x00004982:    4602        .F      MOV      r2,r0
        0x00004984:    4608        .F      MOV      r0,r1
        0x00004986:    2a10        .*      CMP      r2,#0x10
        0x00004988:    d1f7        ..      BNE      0x497a ; osTimerThread + 6
        0x0000498a:    f7ffffc3    ....    BL       osTimerCall ; 0x4914
        0x0000498e:    2800        .(      CMP      r0,#0
        0x00004990:    d0f3        ..      BEQ      0x497a ; osTimerThread + 6
        0x00004992:    4602        .F      MOV      r2,r0
        0x00004994:    4608        .F      MOV      r0,r1
        0x00004996:    4790        .G      BLX      r2
        0x00004998:    e7ef        ..      B        0x497a ; osTimerThread + 6
    $d
        0x0000499a:    0000        ..      DCW    0
        0x0000499c:    200000b0    ...     DCD    536871088
    $t
    i.os_tick_init
    os_tick_init
        0x000049a0:    4807        .H      LDR      r0,[pc,#28] ; [0x49c0] = 0x5c20
        0x000049a2:    6801        .h      LDR      r1,[r0,#0]
        0x000049a4:    4807        .H      LDR      r0,[pc,#28] ; [0x49c4] = 0xe000e000
        0x000049a6:    6141        Aa      STR      r1,[r0,#0x14]
        0x000049a8:    2100        .!      MOVS     r1,#0
        0x000049aa:    6181        .a      STR      r1,[r0,#0x18]
        0x000049ac:    2107        .!      MOVS     r1,#7
        0x000049ae:    6101        .a      STR      r1,[r0,#0x10]
        0x000049b0:    4805        .H      LDR      r0,[pc,#20] ; [0x49c8] = 0xe000ed00
        0x000049b2:    6a01        .j      LDR      r1,[r0,#0x20]
        0x000049b4:    22ff        ."      MOVS     r2,#0xff
        0x000049b6:    0612        ..      LSLS     r2,r2,#24
        0x000049b8:    4311        .C      ORRS     r1,r1,r2
        0x000049ba:    6201        .b      STR      r1,[r0,#0x20]
        0x000049bc:    1740        @.      ASRS     r0,r0,#29
        0x000049be:    4770        pG      BX       lr
    $d
        0x000049c0:    00005c20     \..    DCD    23584
        0x000049c4:    e000e000    ....    DCD    3758153728
        0x000049c8:    e000ed00    ....    DCD    3758157056
    $t
    i.os_tick_irqack
    os_tick_irqack
        0x000049cc:    4770        pG      BX       lr
        0x000049ce:    0000        ..      MOVS     r0,r0
    i.parse_g
    parse_g
        0x000049d0:    b5ff        ..      PUSH     {r0-r7,lr}
        0x000049d2:    b083        ..      SUB      sp,sp,#0xc
        0x000049d4:    4605        .F      MOV      r5,r0
        0x000049d6:    4628        (F      MOV      r0,r5
        0x000049d8:    f7fefc34    ..4.    BL       strlen ; 0x3244
        0x000049dc:    9002        ..      STR      r0,[sp,#8]
        0x000049de:    980d        ..      LDR      r0,[sp,#0x34]
        0x000049e0:    f7fefc30    ..0.    BL       strlen ; 0x3244
        0x000049e4:    9001        ..      STR      r0,[sp,#4]
        0x000049e6:    9901        ..      LDR      r1,[sp,#4]
        0x000049e8:    980d        ..      LDR      r0,[sp,#0x34]
        0x000049ea:    f7fefc00    ....    BL       __aeabi_memclr ; 0x31ee
        0x000049ee:    2400        .$      MOVS     r4,#0
        0x000049f0:    2600        .&      MOVS     r6,#0
        0x000049f2:    e00a        ..      B        0x4a0a ; parse_g + 58
        0x000049f4:    5d29        )]      LDRB     r1,[r5,r4]
        0x000049f6:    980c        ..      LDR      r0,[sp,#0x30]
        0x000049f8:    4281        .B      CMP      r1,r0
        0x000049fa:    d101        ..      BNE      0x4a00 ; parse_g + 48
        0x000049fc:    1c76        v.      ADDS     r6,r6,#1
        0x000049fe:    9400        ..      STR      r4,[sp,#0]
        0x00004a00:    9805        ..      LDR      r0,[sp,#0x14]
        0x00004a02:    4286        .B      CMP      r6,r0
        0x00004a04:    db00        ..      BLT      0x4a08 ; parse_g + 56
        0x00004a06:    4c12        .L      LDR      r4,[pc,#72] ; [0x4a50] = 0x26ac
        0x00004a08:    1c64        d.      ADDS     r4,r4,#1
        0x00004a0a:    9802        ..      LDR      r0,[sp,#8]
        0x00004a0c:    4284        .B      CMP      r4,r0
        0x00004a0e:    dbf1        ..      BLT      0x49f4 ; parse_g + 36
        0x00004a10:    2400        .$      MOVS     r4,#0
        0x00004a12:    2600        .&      MOVS     r6,#0
        0x00004a14:    e00a        ..      B        0x4a2c ; parse_g + 92
        0x00004a16:    5d29        )]      LDRB     r1,[r5,r4]
        0x00004a18:    9806        ..      LDR      r0,[sp,#0x18]
        0x00004a1a:    4281        .B      CMP      r1,r0
        0x00004a1c:    d101        ..      BNE      0x4a22 ; parse_g + 82
        0x00004a1e:    1c76        v.      ADDS     r6,r6,#1
        0x00004a20:    4627        'F      MOV      r7,r4
        0x00004a22:    9804        ..      LDR      r0,[sp,#0x10]
        0x00004a24:    4286        .B      CMP      r6,r0
        0x00004a26:    db00        ..      BLT      0x4a2a ; parse_g + 90
        0x00004a28:    4c09        .L      LDR      r4,[pc,#36] ; [0x4a50] = 0x26ac
        0x00004a2a:    1c64        d.      ADDS     r4,r4,#1
        0x00004a2c:    9802        ..      LDR      r0,[sp,#8]
        0x00004a2e:    4284        .B      CMP      r4,r0
        0x00004a30:    dbf1        ..      BLT      0x4a16 ; parse_g + 70
        0x00004a32:    2400        .$      MOVS     r4,#0
        0x00004a34:    e005        ..      B        0x4a42 ; parse_g + 114
        0x00004a36:    1938        8.      ADDS     r0,r7,r4
        0x00004a38:    1c40        @.      ADDS     r0,r0,#1
        0x00004a3a:    5c29        )\      LDRB     r1,[r5,r0]
        0x00004a3c:    980d        ..      LDR      r0,[sp,#0x34]
        0x00004a3e:    5501        .U      STRB     r1,[r0,r4]
        0x00004a40:    1c64        d.      ADDS     r4,r4,#1
        0x00004a42:    9800        ..      LDR      r0,[sp,#0]
        0x00004a44:    1bc0        ..      SUBS     r0,r0,r7
        0x00004a46:    1e40        @.      SUBS     r0,r0,#1
        0x00004a48:    42a0        .B      CMP      r0,r4
        0x00004a4a:    dcf4        ..      BGT      0x4a36 ; parse_g + 102
        0x00004a4c:    b007        ..      ADD      sp,sp,#0x1c
        0x00004a4e:    bdf0        ..      POP      {r4-r7,pc}
    $d
        0x00004a50:    000026ac    .&..    DCD    9900
    $t
    i.rt_alloc_box
    rt_alloc_box
        0x00004a54:    4601        .F      MOV      r1,r0
        0x00004a56:    f3ef8010    ....    MRS      r0,PRIMASK
        0x00004a5a:    07c2        ..      LSLS     r2,r0,#31
        0x00004a5c:    0fd2        ..      LSRS     r2,r2,#31
        0x00004a5e:    b672        r.      CPSID    i
        0x00004a60:    6808        .h      LDR      r0,[r1,#0]
        0x00004a62:    2800        .(      CMP      r0,#0
        0x00004a64:    d001        ..      BEQ      0x4a6a ; rt_alloc_box + 22
        0x00004a66:    6803        .h      LDR      r3,[r0,#0]
        0x00004a68:    600b        .`      STR      r3,[r1,#0]
        0x00004a6a:    2a00        .*      CMP      r2,#0
        0x00004a6c:    d100        ..      BNE      0x4a70 ; rt_alloc_box + 28
        0x00004a6e:    b662        b.      CPSIE    i
        0x00004a70:    4770        pG      BX       lr
    i.rt_alloc_mem
    rt_alloc_mem
        0x00004a72:    b510        ..      PUSH     {r4,lr}
        0x00004a74:    2800        .(      CMP      r0,#0
        0x00004a76:    d00e        ..      BEQ      0x4a96 ; rt_alloc_mem + 36
        0x00004a78:    2900        .)      CMP      r1,#0
        0x00004a7a:    d00c        ..      BEQ      0x4a96 ; rt_alloc_mem + 36
        0x00004a7c:    310b        .1      ADDS     r1,r1,#0xb
        0x00004a7e:    088a        ..      LSRS     r2,r1,#2
        0x00004a80:    0092        ..      LSLS     r2,r2,#2
        0x00004a82:    6801        .h      LDR      r1,[r0,#0]
        0x00004a84:    6844        Dh      LDR      r4,[r0,#4]
        0x00004a86:    1a0b        ..      SUBS     r3,r1,r0
        0x00004a88:    1b1b        ..      SUBS     r3,r3,r4
        0x00004a8a:    4293        .B      CMP      r3,r2
        0x00004a8c:    d205        ..      BCS      0x4a9a ; rt_alloc_mem + 40
        0x00004a8e:    4608        .F      MOV      r0,r1
        0x00004a90:    6809        .h      LDR      r1,[r1,#0]
        0x00004a92:    2900        .)      CMP      r1,#0
        0x00004a94:    d1f5        ..      BNE      0x4a82 ; rt_alloc_mem + 16
        0x00004a96:    2000        .       MOVS     r0,#0
        0x00004a98:    bd10        ..      POP      {r4,pc}
        0x00004a9a:    0021        !.      MOVS     r1,r4
        0x00004a9c:    d007        ..      BEQ      0x4aae ; rt_alloc_mem + 60
        0x00004a9e:    1821        !.      ADDS     r1,r4,r0
        0x00004aa0:    6803        .h      LDR      r3,[r0,#0]
        0x00004aa2:    600b        .`      STR      r3,[r1,#0]
        0x00004aa4:    604a        J`      STR      r2,[r1,#4]
        0x00004aa6:    6001        .`      STR      r1,[r0,#0]
        0x00004aa8:    4608        .F      MOV      r0,r1
        0x00004aaa:    3008        .0      ADDS     r0,r0,#8
        0x00004aac:    bd10        ..      POP      {r4,pc}
        0x00004aae:    6042        B`      STR      r2,[r0,#4]
        0x00004ab0:    3008        .0      ADDS     r0,r0,#8
        0x00004ab2:    bd10        ..      POP      {r4,pc}
    i.rt_block
    rt_block
        0x00004ab4:    b570        p.      PUSH     {r4-r6,lr}
        0x00004ab6:    460d        .F      MOV      r5,r1
        0x00004ab8:    2800        .(      CMP      r0,#0
        0x00004aba:    d00f        ..      BEQ      0x4adc ; rt_block + 40
        0x00004abc:    4908        .I      LDR      r1,[pc,#32] ; [0x4ae0] = 0xffff
        0x00004abe:    4c09        .L      LDR      r4,[pc,#36] ; [0x4ae4] = 0x200000c4
        0x00004ac0:    4288        .B      CMP      r0,r1
        0x00004ac2:    d204        ..      BCS      0x4ace ; rt_block + 26
        0x00004ac4:    6822        "h      LDR      r2,[r4,#0]
        0x00004ac6:    4601        .F      MOV      r1,r0
        0x00004ac8:    4610        .F      MOV      r0,r2
        0x00004aca:    f000fb8b    ....    BL       rt_put_dly ; 0x51e4
        0x00004ace:    6820         h      LDR      r0,[r4,#0]
        0x00004ad0:    7045        Ep      STRB     r5,[r0,#1]
        0x00004ad2:    4805        .H      LDR      r0,[pc,#20] ; [0x4ae8] = 0x20003718
        0x00004ad4:    f000f8df    ....    BL       rt_get_first ; 0x4c96
        0x00004ad8:    f000fc50    ..P.    BL       rt_switch_req ; 0x537c
        0x00004adc:    bd70        p.      POP      {r4-r6,pc}
    $d
        0x00004ade:    0000        ..      DCW    0
        0x00004ae0:    0000ffff    ....    DCD    65535
        0x00004ae4:    200000c4    ...     DCD    536871108
        0x00004ae8:    20003718    .7.     DCD    536885016
    $t
    i.rt_chk_robin
    rt_chk_robin
        0x00004aec:    b510        ..      PUSH     {r4,lr}
        0x00004aee:    480e        .H      LDR      r0,[pc,#56] ; [0x4b28] = 0x20003718
        0x00004af0:    490c        .I      LDR      r1,[pc,#48] ; [0x4b24] = 0x200000d8
        0x00004af2:    6842        Bh      LDR      r2,[r0,#4]
        0x00004af4:    480d        .H      LDR      r0,[pc,#52] ; [0x4b2c] = 0x200000d4
        0x00004af6:    680b        .h      LDR      r3,[r1,#0]
        0x00004af8:    6800        .h      LDR      r0,[r0,#0]
        0x00004afa:    4293        .B      CMP      r3,r2
        0x00004afc:    d004        ..      BEQ      0x4b08 ; rt_chk_robin + 28
        0x00004afe:    600a        .`      STR      r2,[r1,#0]
        0x00004b00:    88cb        ..      LDRH     r3,[r1,#6]
        0x00004b02:    1e42        B.      SUBS     r2,r0,#1
        0x00004b04:    189a        ..      ADDS     r2,r3,r2
        0x00004b06:    808a        ..      STRH     r2,[r1,#4]
        0x00004b08:    888a        ..      LDRH     r2,[r1,#4]
        0x00004b0a:    b280        ..      UXTH     r0,r0
        0x00004b0c:    4282        .B      CMP      r2,r0
        0x00004b0e:    d108        ..      BNE      0x4b22 ; rt_chk_robin + 54
        0x00004b10:    2000        .       MOVS     r0,#0
        0x00004b12:    6008        .`      STR      r0,[r1,#0]
        0x00004b14:    4804        .H      LDR      r0,[pc,#16] ; [0x4b28] = 0x20003718
        0x00004b16:    f000f8be    ....    BL       rt_get_first ; 0x4c96
        0x00004b1a:    4601        .F      MOV      r1,r0
        0x00004b1c:    4802        .H      LDR      r0,[pc,#8] ; [0x4b28] = 0x20003718
        0x00004b1e:    f000fb89    ....    BL       rt_put_prio ; 0x5234
        0x00004b22:    bd10        ..      POP      {r4,pc}
    $d
        0x00004b24:    200000d8    ...     DCD    536871128
        0x00004b28:    20003718    .7.     DCD    536885016
        0x00004b2c:    200000d4    ...     DCD    536871124
    $t
    i.rt_dec_dly
    rt_dec_dly
        0x00004b30:    b570        p.      PUSH     {r4-r6,lr}
        0x00004b32:    4d1a        .M      LDR      r5,[pc,#104] ; [0x4b9c] = 0x20003730
        0x00004b34:    68e8        .h      LDR      r0,[r5,#0xc]
        0x00004b36:    2800        .(      CMP      r0,#0
        0x00004b38:    d02f        /.      BEQ      0x4b9a ; rt_dec_dly + 106
        0x00004b3a:    8aa8        ..      LDRH     r0,[r5,#0x14]
        0x00004b3c:    1e40        @.      SUBS     r0,r0,#1
        0x00004b3e:    82a8        ..      STRH     r0,[r5,#0x14]
        0x00004b40:    2600        .&      MOVS     r6,#0
        0x00004b42:    e024        $.      B        0x4b8e ; rt_dec_dly + 94
        0x00004b44:    68a0        .h      LDR      r0,[r4,#8]
        0x00004b46:    2800        .(      CMP      r0,#0
        0x00004b48:    d008        ..      BEQ      0x4b5c ; rt_dec_dly + 44
        0x00004b4a:    6861        ah      LDR      r1,[r4,#4]
        0x00004b4c:    6041        A`      STR      r1,[r0,#4]
        0x00004b4e:    6860        `h      LDR      r0,[r4,#4]
        0x00004b50:    2800        .(      CMP      r0,#0
        0x00004b52:    d002        ..      BEQ      0x4b5a ; rt_dec_dly + 42
        0x00004b54:    68a1        .h      LDR      r1,[r4,#8]
        0x00004b56:    6081        .`      STR      r1,[r0,#8]
        0x00004b58:    6066        f`      STR      r6,[r4,#4]
        0x00004b5a:    60a6        .`      STR      r6,[r4,#8]
        0x00004b5c:    480f        .H      LDR      r0,[pc,#60] ; [0x4b9c] = 0x20003730
        0x00004b5e:    4621        !F      MOV      r1,r4
        0x00004b60:    3818        .8      SUBS     r0,r0,#0x18
        0x00004b62:    f000fb67    ..g.    BL       rt_put_prio ; 0x5234
        0x00004b66:    8aa0        ..      LDRH     r0,[r4,#0x14]
        0x00004b68:    82a8        ..      STRH     r0,[r5,#0x14]
        0x00004b6a:    7860        `x      LDRB     r0,[r4,#1]
        0x00004b6c:    2804        .(      CMP      r0,#4
        0x00004b6e:    d104        ..      BNE      0x4b7a ; rt_dec_dly + 74
        0x00004b70:    490b        .I      LDR      r1,[pc,#44] ; [0x4ba0] = 0x200000d4
        0x00004b72:    8ae0        ..      LDRH     r0,[r4,#0x16]
        0x00004b74:    8809        ..      LDRH     r1,[r1,#0]
        0x00004b76:    1840        @.      ADDS     r0,r0,r1
        0x00004b78:    82a0        ..      STRH     r0,[r4,#0x14]
        0x00004b7a:    2001        .       MOVS     r0,#1
        0x00004b7c:    7060        `p      STRB     r0,[r4,#1]
        0x00004b7e:    68e0        .h      LDR      r0,[r4,#0xc]
        0x00004b80:    60e8        .`      STR      r0,[r5,#0xc]
        0x00004b82:    68e0        .h      LDR      r0,[r4,#0xc]
        0x00004b84:    2800        .(      CMP      r0,#0
        0x00004b86:    d001        ..      BEQ      0x4b8c ; rt_dec_dly + 92
        0x00004b88:    6105        .a      STR      r5,[r0,#0x10]
        0x00004b8a:    60e6        .`      STR      r6,[r4,#0xc]
        0x00004b8c:    6126        &a      STR      r6,[r4,#0x10]
        0x00004b8e:    8aa8        ..      LDRH     r0,[r5,#0x14]
        0x00004b90:    2800        .(      CMP      r0,#0
        0x00004b92:    d102        ..      BNE      0x4b9a ; rt_dec_dly + 106
        0x00004b94:    68ec        .h      LDR      r4,[r5,#0xc]
        0x00004b96:    2c00        .,      CMP      r4,#0
        0x00004b98:    d1d4        ..      BNE      0x4b44 ; rt_dec_dly + 20
        0x00004b9a:    bd70        p.      POP      {r4-r6,pc}
    $d
        0x00004b9c:    20003730    07.     DCD    536885040
        0x00004ba0:    200000d4    ...     DCD    536871124
    $t
    i.rt_dispatch
    rt_dispatch
        0x00004ba4:    b570        p.      PUSH     {r4-r6,lr}
        0x00004ba6:    0004        ..      MOVS     r4,r0
        0x00004ba8:    d00e        ..      BEQ      0x4bc8 ; rt_dispatch + 36
        0x00004baa:    4d0c        .M      LDR      r5,[pc,#48] ; [0x4bdc] = 0x200000c4
        0x00004bac:    78a1        .x      LDRB     r1,[r4,#2]
        0x00004bae:    6828        (h      LDR      r0,[r5,#0]
        0x00004bb0:    2601        .&      MOVS     r6,#1
        0x00004bb2:    7882        .x      LDRB     r2,[r0,#2]
        0x00004bb4:    4291        .B      CMP      r1,r2
        0x00004bb6:    d90b        ..      BLS      0x4bd0 ; rt_dispatch + 44
        0x00004bb8:    f000fb5a    ..Z.    BL       rt_put_rdy_first ; 0x5270
        0x00004bbc:    6828        (h      LDR      r0,[r5,#0]
        0x00004bbe:    7046        Fp      STRB     r6,[r0,#1]
        0x00004bc0:    4620         F      MOV      r0,r4
        0x00004bc2:    f000fbdb    ....    BL       rt_switch_req ; 0x537c
        0x00004bc6:    bd70        p.      POP      {r4-r6,pc}
        0x00004bc8:    4805        .H      LDR      r0,[pc,#20] ; [0x4be0] = 0x20003718
        0x00004bca:    f000f864    ..d.    BL       rt_get_first ; 0x4c96
        0x00004bce:    e7f8        ..      B        0x4bc2 ; rt_dispatch + 30
        0x00004bd0:    7066        fp      STRB     r6,[r4,#1]
        0x00004bd2:    4621        !F      MOV      r1,r4
        0x00004bd4:    4802        .H      LDR      r0,[pc,#8] ; [0x4be0] = 0x20003718
        0x00004bd6:    f000fb2d    ..-.    BL       rt_put_prio ; 0x5234
        0x00004bda:    bd70        p.      POP      {r4-r6,pc}
    $d
        0x00004bdc:    200000c4    ...     DCD    536871108
        0x00004be0:    20003718    .7.     DCD    536885016
    $t
    i.rt_dly_wait
    rt_dly_wait
        0x00004be4:    b510        ..      PUSH     {r4,lr}
        0x00004be6:    2103        .!      MOVS     r1,#3
        0x00004be8:    f7ffff64    ..d.    BL       rt_block ; 0x4ab4
        0x00004bec:    bd10        ..      POP      {r4,pc}
        0x00004bee:    0000        ..      MOVS     r0,r0
    i.rt_evt_psh
    rt_evt_psh
        0x00004bf0:    b510        ..      PUSH     {r4,lr}
        0x00004bf2:    4604        .F      MOV      r4,r0
        0x00004bf4:    8b00        ..      LDRH     r0,[r0,#0x18]
        0x00004bf6:    4308        .C      ORRS     r0,r0,r1
        0x00004bf8:    8320         .      STRH     r0,[r4,#0x18]
        0x00004bfa:    7862        bx      LDRB     r2,[r4,#1]
        0x00004bfc:    8b61        a.      LDRH     r1,[r4,#0x1a]
        0x00004bfe:    2a06        .*      CMP      r2,#6
        0x00004c00:    d017        ..      BEQ      0x4c32 ; rt_evt_psh + 66
        0x00004c02:    2a05        .*      CMP      r2,#5
        0x00004c04:    d114        ..      BNE      0x4c30 ; rt_evt_psh + 64
        0x00004c06:    4208        .B      TST      r0,r1
        0x00004c08:    d012        ..      BEQ      0x4c30 ; rt_evt_psh + 64
        0x00004c0a:    460a        .F      MOV      r2,r1
        0x00004c0c:    4002        .@      ANDS     r2,r2,r0
        0x00004c0e:    8362        b.      STRH     r2,[r4,#0x1a]
        0x00004c10:    4388        .C      BICS     r0,r0,r1
        0x00004c12:    8320         .      STRH     r0,[r4,#0x18]
        0x00004c14:    4620         F      MOV      r0,r4
        0x00004c16:    f000fb54    ..T.    BL       rt_rmv_dly ; 0x52c2
        0x00004c1a:    2001        .       MOVS     r0,#1
        0x00004c1c:    7060        `p      STRB     r0,[r4,#1]
        0x00004c1e:    8b62        b.      LDRH     r2,[r4,#0x1a]
        0x00004c20:    2108        .!      MOVS     r1,#8
        0x00004c22:    4620         F      MOV      r0,r4
        0x00004c24:    f000fb49    ..I.    BL       rt_ret_val2 ; 0x52ba
        0x00004c28:    4621        !F      MOV      r1,r4
        0x00004c2a:    4804        .H      LDR      r0,[pc,#16] ; [0x4c3c] = 0x20003718
        0x00004c2c:    f000fb02    ....    BL       rt_put_prio ; 0x5234
        0x00004c30:    bd10        ..      POP      {r4,pc}
        0x00004c32:    460a        .F      MOV      r2,r1
        0x00004c34:    4382        .C      BICS     r2,r2,r0
        0x00004c36:    d0eb        ..      BEQ      0x4c10 ; rt_evt_psh + 32
        0x00004c38:    bd10        ..      POP      {r4,pc}
    $d
        0x00004c3a:    0000        ..      DCW    0
        0x00004c3c:    20003718    .7.     DCD    536885016
    $t
    i.rt_free_box
    rt_free_box
        0x00004c40:    4281        .B      CMP      r1,r0
        0x00004c42:    d302        ..      BCC      0x4c4a ; rt_free_box + 10
        0x00004c44:    6842        Bh      LDR      r2,[r0,#4]
        0x00004c46:    428a        .B      CMP      r2,r1
        0x00004c48:    d801        ..      BHI      0x4c4e ; rt_free_box + 14
        0x00004c4a:    2001        .       MOVS     r0,#1
        0x00004c4c:    4770        pG      BX       lr
        0x00004c4e:    f3ef8210    ....    MRS      r2,PRIMASK
        0x00004c52:    07d2        ..      LSLS     r2,r2,#31
        0x00004c54:    0fd2        ..      LSRS     r2,r2,#31
        0x00004c56:    b672        r.      CPSID    i
        0x00004c58:    6803        .h      LDR      r3,[r0,#0]
        0x00004c5a:    600b        .`      STR      r3,[r1,#0]
        0x00004c5c:    6001        .`      STR      r1,[r0,#0]
        0x00004c5e:    d100        ..      BNE      0x4c62 ; rt_free_box + 34
        0x00004c60:    b662        b.      CPSIE    i
        0x00004c62:    2000        .       MOVS     r0,#0
        0x00004c64:    4770        pG      BX       lr
    i.rt_free_mem
    rt_free_mem
        0x00004c66:    2800        .(      CMP      r0,#0
        0x00004c68:    d010        ..      BEQ      0x4c8c ; rt_free_mem + 38
        0x00004c6a:    2900        .)      CMP      r1,#0
        0x00004c6c:    d00e        ..      BEQ      0x4c8c ; rt_free_mem + 38
        0x00004c6e:    2200        ."      MOVS     r2,#0
        0x00004c70:    3908        .9      SUBS     r1,r1,#8
        0x00004c72:    e003        ..      B        0x4c7c ; rt_free_mem + 22
        0x00004c74:    4602        .F      MOV      r2,r0
        0x00004c76:    6800        .h      LDR      r0,[r0,#0]
        0x00004c78:    2800        .(      CMP      r0,#0
        0x00004c7a:    d007        ..      BEQ      0x4c8c ; rt_free_mem + 38
        0x00004c7c:    4288        .B      CMP      r0,r1
        0x00004c7e:    d1f9        ..      BNE      0x4c74 ; rt_free_mem + 14
        0x00004c80:    2a00        .*      CMP      r2,#0
        0x00004c82:    d005        ..      BEQ      0x4c90 ; rt_free_mem + 42
        0x00004c84:    6800        .h      LDR      r0,[r0,#0]
        0x00004c86:    6010        .`      STR      r0,[r2,#0]
        0x00004c88:    2000        .       MOVS     r0,#0
        0x00004c8a:    4770        pG      BX       lr
        0x00004c8c:    2001        .       MOVS     r0,#1
        0x00004c8e:    4770        pG      BX       lr
        0x00004c90:    2100        .!      MOVS     r1,#0
        0x00004c92:    6041        A`      STR      r1,[r0,#4]
        0x00004c94:    e7f8        ..      B        0x4c88 ; rt_free_mem + 34
    i.rt_get_first
    rt_get_first
        0x00004c96:    4601        .F      MOV      r1,r0
        0x00004c98:    6840        @h      LDR      r0,[r0,#4]
        0x00004c9a:    6842        Bh      LDR      r2,[r0,#4]
        0x00004c9c:    604a        J`      STR      r2,[r1,#4]
        0x00004c9e:    780b        .x      LDRB     r3,[r1,#0]
        0x00004ca0:    2200        ."      MOVS     r2,#0
        0x00004ca2:    2b02        .+      CMP      r3,#2
        0x00004ca4:    d005        ..      BEQ      0x4cb2 ; rt_get_first + 28
        0x00004ca6:    2b01        .+      CMP      r3,#1
        0x00004ca8:    d003        ..      BEQ      0x4cb2 ; rt_get_first + 28
        0x00004caa:    2b03        .+      CMP      r3,#3
        0x00004cac:    d001        ..      BEQ      0x4cb2 ; rt_get_first + 28
        0x00004cae:    6042        B`      STR      r2,[r0,#4]
        0x00004cb0:    4770        pG      BX       lr
        0x00004cb2:    6843        Ch      LDR      r3,[r0,#4]
        0x00004cb4:    2b00        .+      CMP      r3,#0
        0x00004cb6:    d001        ..      BEQ      0x4cbc ; rt_get_first + 38
        0x00004cb8:    6099        .`      STR      r1,[r3,#8]
        0x00004cba:    6042        B`      STR      r2,[r0,#4]
        0x00004cbc:    6082        .`      STR      r2,[r0,#8]
        0x00004cbe:    4770        pG      BX       lr
    i.rt_id2obj
    rt_id2obj
        0x00004cc0:    0781        ..      LSLS     r1,r0,#30
        0x00004cc2:    d000        ..      BEQ      0x4cc6 ; rt_id2obj + 6
        0x00004cc4:    2000        .       MOVS     r0,#0
        0x00004cc6:    4770        pG      BX       lr
    i.rt_init_context
    rt_init_context
        0x00004cc8:    b570        p.      PUSH     {r4-r6,lr}
        0x00004cca:    4604        .F      MOV      r4,r0
        0x00004ccc:    4615        .F      MOV      r5,r2
        0x00004cce:    2000        .       MOVS     r0,#0
        0x00004cd0:    7020         p      STRB     r0,[r4,#0]
        0x00004cd2:    2201        ."      MOVS     r2,#1
        0x00004cd4:    7062        bp      STRB     r2,[r4,#1]
        0x00004cd6:    4622        "F      MOV      r2,r4
        0x00004cd8:    70a1        .p      STRB     r1,[r4,#2]
        0x00004cda:    3220         2      ADDS     r2,r2,#0x20
        0x00004cdc:    7111        .q      STRB     r1,[r2,#4]
        0x00004cde:    6060        ``      STR      r0,[r4,#4]
        0x00004ce0:    60a0        .`      STR      r0,[r4,#8]
        0x00004ce2:    60e0        .`      STR      r0,[r4,#0xc]
        0x00004ce4:    6120         a      STR      r0,[r4,#0x10]
        0x00004ce6:    6220         b      STR      r0,[r4,#0x20]
        0x00004ce8:    82a0        ..      STRH     r0,[r4,#0x14]
        0x00004cea:    82e0        ..      STRH     r0,[r4,#0x16]
        0x00004cec:    8320         .      STRH     r0,[r4,#0x18]
        0x00004cee:    8360        `.      STRH     r0,[r4,#0x1a]
        0x00004cf0:    7150        Pq      STRB     r0,[r2,#5]
        0x00004cf2:    8ce0        ..      LDRH     r0,[r4,#0x26]
        0x00004cf4:    2800        .(      CMP      r0,#0
        0x00004cf6:    d103        ..      BNE      0x4d00 ; rt_init_context + 56
        0x00004cf8:    4804        .H      LDR      r0,[pc,#16] ; [0x4d0c] = 0x20001330
        0x00004cfa:    f7fffeab    ....    BL       rt_alloc_box ; 0x4a54
        0x00004cfe:    62e0        .b      STR      r0,[r4,#0x2c]
        0x00004d00:    4629        )F      MOV      r1,r5
        0x00004d02:    4620         F      MOV      r0,r4
        0x00004d04:    f000f81e    ....    BL       rt_init_stack ; 0x4d44
        0x00004d08:    bd70        p.      POP      {r4-r6,pc}
    $d
        0x00004d0a:    0000        ..      DCW    0
        0x00004d0c:    20001330    0..     DCD    536875824
    $t
    i.rt_init_mem
    rt_init_mem
        0x00004d10:    2800        .(      CMP      r0,#0
        0x00004d12:    d001        ..      BEQ      0x4d18 ; rt_init_mem + 8
        0x00004d14:    2908        .)      CMP      r1,#8
        0x00004d16:    d201        ..      BCS      0x4d1c ; rt_init_mem + 12
        0x00004d18:    2001        .       MOVS     r0,#1
        0x00004d1a:    4770        pG      BX       lr
        0x00004d1c:    1841        A.      ADDS     r1,r0,r1
        0x00004d1e:    1f09        ..      SUBS     r1,r1,#4
        0x00004d20:    2200        ."      MOVS     r2,#0
        0x00004d22:    6001        .`      STR      r1,[r0,#0]
        0x00004d24:    600a        .`      STR      r2,[r1,#0]
        0x00004d26:    6042        B`      STR      r2,[r0,#4]
        0x00004d28:    4610        .F      MOV      r0,r2
        0x00004d2a:    4770        pG      BX       lr
    i.rt_init_robin
    rt_init_robin
        0x00004d2c:    4803        .H      LDR      r0,[pc,#12] ; [0x4d3c] = 0x200000d8
        0x00004d2e:    2100        .!      MOVS     r1,#0
        0x00004d30:    6001        .`      STR      r1,[r0,#0]
        0x00004d32:    4903        .I      LDR      r1,[pc,#12] ; [0x4d40] = 0x5c14
        0x00004d34:    8809        ..      LDRH     r1,[r1,#0]
        0x00004d36:    80c1        ..      STRH     r1,[r0,#6]
        0x00004d38:    4770        pG      BX       lr
    $d
        0x00004d3a:    0000        ..      DCW    0
        0x00004d3c:    200000d8    ...     DCD    536871128
        0x00004d40:    00005c14    .\..    DCD    23572
    $t
    i.rt_init_stack
    rt_init_stack
        0x00004d44:    b5f0        ..      PUSH     {r4-r7,lr}
        0x00004d46:    8cc2        ..      LDRH     r2,[r0,#0x26]
        0x00004d48:    4d19        .M      LDR      r5,[pc,#100] ; [0x4db0] = 0x5c10
        0x00004d4a:    0893        ..      LSRS     r3,r2,#2
        0x00004d4c:    d102        ..      BNE      0x4d54 ; rt_init_stack + 16
        0x00004d4e:    882a        *.      LDRH     r2,[r5,#0]
        0x00004d50:    0412        ..      LSLS     r2,r2,#16
        0x00004d52:    0c93        ..      LSRS     r3,r2,#18
        0x00004d54:    6ac2        .j      LDR      r2,[r0,#0x2c]
        0x00004d56:    009c        ..      LSLS     r4,r3,#2
        0x00004d58:    1912        ..      ADDS     r2,r2,r4
        0x00004d5a:    0754        T.      LSLS     r4,r2,#29
        0x00004d5c:    d500        ..      BPL      0x4d60 ; rt_init_stack + 28
        0x00004d5e:    1f12        ..      SUBS     r2,r2,#4
        0x00004d60:    2401        .$      MOVS     r4,#1
        0x00004d62:    0624        $.      LSLS     r4,r4,#24
        0x00004d64:    3a40        @:      SUBS     r2,r2,#0x40
        0x00004d66:    63d4        .c      STR      r4,[r2,#0x3c]
        0x00004d68:    2400        .$      MOVS     r4,#0
        0x00004d6a:    6391        .c      STR      r1,[r2,#0x38]
        0x00004d6c:    4626        &F      MOV      r6,r4
        0x00004d6e:    00a7        ..      LSLS     r7,r4,#2
        0x00004d70:    1c64        d.      ADDS     r4,r4,#1
        0x00004d72:    51d6        .Q      STR      r6,[r2,r7]
        0x00004d74:    2c0e        .,      CMP      r4,#0xe
        0x00004d76:    d3fa        ..      BCC      0x4d6e ; rt_init_stack + 42
        0x00004d78:    69c4        .i      LDR      r4,[r0,#0x1c]
        0x00004d7a:    6214        .b      STR      r4,[r2,#0x20]
        0x00004d7c:    6282        .b      STR      r2,[r0,#0x28]
        0x00004d7e:    6301        .c      STR      r1,[r0,#0x30]
        0x00004d80:    6829        )h      LDR      r1,[r5,#0]
        0x00004d82:    00c9        ..      LSLS     r1,r1,#3
        0x00004d84:    d50f        ..      BPL      0x4da6 ; rt_init_stack + 98
        0x00004d86:    2b11        .+      CMP      r3,#0x11
        0x00004d88:    d90d        ..      BLS      0x4da6 ; rt_init_stack + 98
        0x00004d8a:    3b10        .;      SUBS     r3,r3,#0x10
        0x00004d8c:    0859        Y.      LSRS     r1,r3,#1
        0x00004d8e:    4b09        .K      LDR      r3,[pc,#36] ; [0x4db4] = 0xcccccccc
        0x00004d90:    e002        ..      B        0x4d98 ; rt_init_stack + 84
        0x00004d92:    3a08        .:      SUBS     r2,r2,#8
        0x00004d94:    6053        S`      STR      r3,[r2,#4]
        0x00004d96:    6013        .`      STR      r3,[r2,#0]
        0x00004d98:    1e49        I.      SUBS     r1,r1,#1
        0x00004d9a:    d1fa        ..      BNE      0x4d92 ; rt_init_stack + 78
        0x00004d9c:    6ac1        .j      LDR      r1,[r0,#0x2c]
        0x00004d9e:    1f12        ..      SUBS     r2,r2,#4
        0x00004da0:    428a        .B      CMP      r2,r1
        0x00004da2:    d900        ..      BLS      0x4da6 ; rt_init_stack + 98
        0x00004da4:    6013        .`      STR      r3,[r2,#0]
        0x00004da6:    6ac0        .j      LDR      r0,[r0,#0x2c]
        0x00004da8:    4903        .I      LDR      r1,[pc,#12] ; [0x4db8] = 0xe25a2ea5
        0x00004daa:    6001        .`      STR      r1,[r0,#0]
        0x00004dac:    bdf0        ..      POP      {r4-r7,pc}
    $d
        0x00004dae:    0000        ..      DCW    0
        0x00004db0:    00005c10    .\..    DCD    23568
        0x00004db4:    cccccccc    ....    DCD    3435973836
        0x00004db8:    e25a2ea5    ..Z.    DCD    3797560997
    $t
    i.rt_mbx_check
    rt_mbx_check
        0x00004dbc:    89c1        ..      LDRH     r1,[r0,#0xe]
        0x00004dbe:    8980        ..      LDRH     r0,[r0,#0xc]
        0x00004dc0:    1a08        ..      SUBS     r0,r1,r0
        0x00004dc2:    4770        pG      BX       lr
    i.rt_mbx_init
    rt_mbx_init
        0x00004dc4:    2201        ."      MOVS     r2,#1
        0x00004dc6:    7002        .p      STRB     r2,[r0,#0]
        0x00004dc8:    2200        ."      MOVS     r2,#0
        0x00004dca:    7042        Bp      STRB     r2,[r0,#1]
        0x00004dcc:    7082        .p      STRB     r2,[r0,#2]
        0x00004dce:    6042        B`      STR      r2,[r0,#4]
        0x00004dd0:    8102        ..      STRH     r2,[r0,#8]
        0x00004dd2:    8142        B.      STRH     r2,[r0,#0xa]
        0x00004dd4:    8182        ..      STRH     r2,[r0,#0xc]
        0x00004dd6:    4a03        .J      LDR      r2,[pc,#12] ; [0x4de4] = 0xfffc0000
        0x00004dd8:    0389        ..      LSLS     r1,r1,#14
        0x00004dda:    1889        ..      ADDS     r1,r1,r2
        0x00004ddc:    0c09        ..      LSRS     r1,r1,#16
        0x00004dde:    81c1        ..      STRH     r1,[r0,#0xe]
        0x00004de0:    4770        pG      BX       lr
    $d
        0x00004de2:    0000        ..      DCW    0
        0x00004de4:    fffc0000    ....    DCD    4294705152
    $t
    i.rt_mbx_psh
    rt_mbx_psh
        0x00004de8:    b5f8        ..      PUSH     {r3-r7,lr}
        0x00004dea:    4604        .F      MOV      r4,r0
        0x00004dec:    6840        @h      LDR      r0,[r0,#4]
        0x00004dee:    2700        .'      MOVS     r7,#0
        0x00004df0:    460d        .F      MOV      r5,r1
        0x00004df2:    2800        .(      CMP      r0,#0
        0x00004df4:    d044        D.      BEQ      0x4e80 ; rt_mbx_psh + 152
        0x00004df6:    7860        `x      LDRB     r0,[r4,#1]
        0x00004df8:    2601        .&      MOVS     r6,#1
        0x00004dfa:    2801        .(      CMP      r0,#1
        0x00004dfc:    d037        7.      BEQ      0x4e6e ; rt_mbx_psh + 134
        0x00004dfe:    2802        .(      CMP      r0,#2
        0x00004e00:    d013        ..      BEQ      0x4e2a ; rt_mbx_psh + 66
        0x00004e02:    2803        .(      CMP      r0,#3
        0x00004e04:    d132        2.      BNE      0x4e6c ; rt_mbx_psh + 132
        0x00004e06:    4608        .F      MOV      r0,r1
        0x00004e08:    f7fffe24    ..$.    BL       rt_alloc_box ; 0x4a54
        0x00004e0c:    0005        ..      MOVS     r5,r0
        0x00004e0e:    d02d        -.      BEQ      0x4e6c ; rt_mbx_psh + 132
        0x00004e10:    4620         F      MOV      r0,r4
        0x00004e12:    f7ffff40    ..@.    BL       rt_get_first ; 0x4c96
        0x00004e16:    4604        .F      MOV      r4,r0
        0x00004e18:    4629        )F      MOV      r1,r5
        0x00004e1a:    f000fa4b    ..K.    BL       rt_ret_val ; 0x52b4
        0x00004e1e:    7066        fp      STRB     r6,[r4,#1]
        0x00004e20:    4620         F      MOV      r0,r4
        0x00004e22:    f000fa4e    ..N.    BL       rt_rmv_dly ; 0x52c2
        0x00004e26:    4621        !F      MOV      r1,r4
        0x00004e28:    e01d        ..      B        0x4e66 ; rt_mbx_psh + 126
        0x00004e2a:    4620         F      MOV      r0,r4
        0x00004e2c:    f7ffff33    ..3.    BL       rt_get_first ; 0x4c96
        0x00004e30:    4605        .F      MOV      r5,r0
        0x00004e32:    2100        .!      MOVS     r1,#0
        0x00004e34:    f000fa3e    ..>.    BL       rt_ret_val ; 0x52b4
        0x00004e38:    8921        !.      LDRH     r1,[r4,#8]
        0x00004e3a:    69e8        .i      LDR      r0,[r5,#0x1c]
        0x00004e3c:    0089        ..      LSLS     r1,r1,#2
        0x00004e3e:    1909        ..      ADDS     r1,r1,r4
        0x00004e40:    6108        .a      STR      r0,[r1,#0x10]
        0x00004e42:    b672        r.      CPSID    i
        0x00004e44:    89a0        ..      LDRH     r0,[r4,#0xc]
        0x00004e46:    1c40        @.      ADDS     r0,r0,#1
        0x00004e48:    81a0        ..      STRH     r0,[r4,#0xc]
        0x00004e4a:    b662        b.      CPSIE    i
        0x00004e4c:    8920         .      LDRH     r0,[r4,#8]
        0x00004e4e:    1c40        @.      ADDS     r0,r0,#1
        0x00004e50:    b280        ..      UXTH     r0,r0
        0x00004e52:    8120         .      STRH     r0,[r4,#8]
        0x00004e54:    89e1        ..      LDRH     r1,[r4,#0xe]
        0x00004e56:    4288        .B      CMP      r0,r1
        0x00004e58:    d100        ..      BNE      0x4e5c ; rt_mbx_psh + 116
        0x00004e5a:    8127        '.      STRH     r7,[r4,#8]
        0x00004e5c:    706e        np      STRB     r6,[r5,#1]
        0x00004e5e:    4628        (F      MOV      r0,r5
        0x00004e60:    f000fa2f    ../.    BL       rt_rmv_dly ; 0x52c2
        0x00004e64:    4629        )F      MOV      r1,r5
        0x00004e66:    4813        .H      LDR      r0,[pc,#76] ; [0x4eb4] = 0x20003718
        0x00004e68:    f000f9e4    ....    BL       rt_put_prio ; 0x5234
        0x00004e6c:    bdf8        ..      POP      {r3-r7,pc}
        0x00004e6e:    4620         F      MOV      r0,r4
        0x00004e70:    f7ffff11    ....    BL       rt_get_first ; 0x4c96
        0x00004e74:    4604        .F      MOV      r4,r0
        0x00004e76:    462a        *F      MOV      r2,r5
        0x00004e78:    2110        .!      MOVS     r1,#0x10
        0x00004e7a:    f000fa1e    ....    BL       rt_ret_val2 ; 0x52ba
        0x00004e7e:    e7ce        ..      B        0x4e1e ; rt_mbx_psh + 54
        0x00004e80:    89a0        ..      LDRH     r0,[r4,#0xc]
        0x00004e82:    89e1        ..      LDRH     r1,[r4,#0xe]
        0x00004e84:    4288        .B      CMP      r0,r1
        0x00004e86:    d211        ..      BCS      0x4eac ; rt_mbx_psh + 196
        0x00004e88:    8920         .      LDRH     r0,[r4,#8]
        0x00004e8a:    0080        ..      LSLS     r0,r0,#2
        0x00004e8c:    1900        ..      ADDS     r0,r0,r4
        0x00004e8e:    6105        .a      STR      r5,[r0,#0x10]
        0x00004e90:    b672        r.      CPSID    i
        0x00004e92:    89a0        ..      LDRH     r0,[r4,#0xc]
        0x00004e94:    1c40        @.      ADDS     r0,r0,#1
        0x00004e96:    81a0        ..      STRH     r0,[r4,#0xc]
        0x00004e98:    b662        b.      CPSIE    i
        0x00004e9a:    8920         .      LDRH     r0,[r4,#8]
        0x00004e9c:    1c40        @.      ADDS     r0,r0,#1
        0x00004e9e:    b280        ..      UXTH     r0,r0
        0x00004ea0:    8120         .      STRH     r0,[r4,#8]
        0x00004ea2:    89e1        ..      LDRH     r1,[r4,#0xe]
        0x00004ea4:    4288        .B      CMP      r0,r1
        0x00004ea6:    d1e1        ..      BNE      0x4e6c ; rt_mbx_psh + 132
        0x00004ea8:    8127        '.      STRH     r7,[r4,#8]
        0x00004eaa:    bdf8        ..      POP      {r3-r7,pc}
        0x00004eac:    2003        .       MOVS     r0,#3
        0x00004eae:    f7fef929    ..).    BL       os_error ; 0x3104
        0x00004eb2:    bdf8        ..      POP      {r3-r7,pc}
    $d
        0x00004eb4:    20003718    .7.     DCD    536885016
    $t
    i.rt_mbx_wait
    rt_mbx_wait
        0x00004eb8:    b570        p.      PUSH     {r4-r6,lr}
        0x00004eba:    4604        .F      MOV      r4,r0
        0x00004ebc:    8980        ..      LDRH     r0,[r0,#0xc]
        0x00004ebe:    2600        .&      MOVS     r6,#0
        0x00004ec0:    4615        .F      MOV      r5,r2
        0x00004ec2:    2800        .(      CMP      r0,#0
        0x00004ec4:    d034        4.      BEQ      0x4f30 ; rt_mbx_wait + 120
        0x00004ec6:    8960        `.      LDRH     r0,[r4,#0xa]
        0x00004ec8:    0080        ..      LSLS     r0,r0,#2
        0x00004eca:    1900        ..      ADDS     r0,r0,r4
        0x00004ecc:    6900        .i      LDR      r0,[r0,#0x10]
        0x00004ece:    6008        .`      STR      r0,[r1,#0]
        0x00004ed0:    8960        `.      LDRH     r0,[r4,#0xa]
        0x00004ed2:    1c40        @.      ADDS     r0,r0,#1
        0x00004ed4:    b280        ..      UXTH     r0,r0
        0x00004ed6:    8160        `.      STRH     r0,[r4,#0xa]
        0x00004ed8:    89e1        ..      LDRH     r1,[r4,#0xe]
        0x00004eda:    4288        .B      CMP      r0,r1
        0x00004edc:    d100        ..      BNE      0x4ee0 ; rt_mbx_wait + 40
        0x00004ede:    8166        f.      STRH     r6,[r4,#0xa]
        0x00004ee0:    6860        `h      LDR      r0,[r4,#4]
        0x00004ee2:    2800        .(      CMP      r0,#0
        0x00004ee4:    d002        ..      BEQ      0x4eec ; rt_mbx_wait + 52
        0x00004ee6:    7860        `x      LDRB     r0,[r4,#1]
        0x00004ee8:    2802        .(      CMP      r0,#2
        0x00004eea:    d006        ..      BEQ      0x4efa ; rt_mbx_wait + 66
        0x00004eec:    b672        r.      CPSID    i
        0x00004eee:    89a0        ..      LDRH     r0,[r4,#0xc]
        0x00004ef0:    1e40        @.      SUBS     r0,r0,#1
        0x00004ef2:    81a0        ..      STRH     r0,[r4,#0xc]
        0x00004ef4:    b662        b.      CPSIE    i
        0x00004ef6:    2000        .       MOVS     r0,#0
        0x00004ef8:    bd70        p.      POP      {r4-r6,pc}
        0x00004efa:    4620         F      MOV      r0,r4
        0x00004efc:    f7fffecb    ....    BL       rt_get_first ; 0x4c96
        0x00004f00:    4605        .F      MOV      r5,r0
        0x00004f02:    2100        .!      MOVS     r1,#0
        0x00004f04:    f000f9d6    ....    BL       rt_ret_val ; 0x52b4
        0x00004f08:    8921        !.      LDRH     r1,[r4,#8]
        0x00004f0a:    69e8        .i      LDR      r0,[r5,#0x1c]
        0x00004f0c:    0089        ..      LSLS     r1,r1,#2
        0x00004f0e:    1909        ..      ADDS     r1,r1,r4
        0x00004f10:    6108        .a      STR      r0,[r1,#0x10]
        0x00004f12:    8920         .      LDRH     r0,[r4,#8]
        0x00004f14:    1c40        @.      ADDS     r0,r0,#1
        0x00004f16:    b280        ..      UXTH     r0,r0
        0x00004f18:    8120         .      STRH     r0,[r4,#8]
        0x00004f1a:    89e1        ..      LDRH     r1,[r4,#0xe]
        0x00004f1c:    4288        .B      CMP      r0,r1
        0x00004f1e:    d100        ..      BNE      0x4f22 ; rt_mbx_wait + 106
        0x00004f20:    8126        &.      STRH     r6,[r4,#8]
        0x00004f22:    4628        (F      MOV      r0,r5
        0x00004f24:    f000f9cd    ....    BL       rt_rmv_dly ; 0x52c2
        0x00004f28:    4628        (F      MOV      r0,r5
        0x00004f2a:    f7fffe3b    ..;.    BL       rt_dispatch ; 0x4ba4
        0x00004f2e:    e7e2        ..      B        0x4ef6 ; rt_mbx_wait + 62
        0x00004f30:    2d00        .-      CMP      r5,#0
        0x00004f32:    d008        ..      BEQ      0x4f46 ; rt_mbx_wait + 142
        0x00004f34:    480b        .H      LDR      r0,[pc,#44] ; [0x4f64] = 0x200000c4
        0x00004f36:    6862        bh      LDR      r2,[r4,#4]
        0x00004f38:    6801        .h      LDR      r1,[r0,#0]
        0x00004f3a:    2a00        .*      CMP      r2,#0
        0x00004f3c:    d005        ..      BEQ      0x4f4a ; rt_mbx_wait + 146
        0x00004f3e:    4620         F      MOV      r0,r4
        0x00004f40:    f000f978    ..x.    BL       rt_put_prio ; 0x5234
        0x00004f44:    e008        ..      B        0x4f58 ; rt_mbx_wait + 160
        0x00004f46:    2001        .       MOVS     r0,#1
        0x00004f48:    bd70        p.      POP      {r4-r6,pc}
        0x00004f4a:    6061        a`      STR      r1,[r4,#4]
        0x00004f4c:    6801        .h      LDR      r1,[r0,#0]
        0x00004f4e:    604e        N`      STR      r6,[r1,#4]
        0x00004f50:    6800        .h      LDR      r0,[r0,#0]
        0x00004f52:    6084        .`      STR      r4,[r0,#8]
        0x00004f54:    2001        .       MOVS     r0,#1
        0x00004f56:    7060        `p      STRB     r0,[r4,#1]
        0x00004f58:    2108        .!      MOVS     r1,#8
        0x00004f5a:    4628        (F      MOV      r0,r5
        0x00004f5c:    f7fffdaa    ....    BL       rt_block ; 0x4ab4
        0x00004f60:    e7f1        ..      B        0x4f46 ; rt_mbx_wait + 142
    $d
        0x00004f62:    0000        ..      DCW    0
        0x00004f64:    200000c4    ...     DCD    536871108
    $t
    i.rt_ms2tick
    rt_ms2tick
        0x00004f68:    b510        ..      PUSH     {r4,lr}
        0x00004f6a:    2800        .(      CMP      r0,#0
        0x00004f6c:    d012        ..      BEQ      0x4f94 ; rt_ms2tick + 44
        0x00004f6e:    1c41        A.      ADDS     r1,r0,#1
        0x00004f70:    d011        ..      BEQ      0x4f96 ; rt_ms2tick + 46
        0x00004f72:    490b        .I      LDR      r1,[pc,#44] ; [0x4fa0] = 0x3d0900
        0x00004f74:    4c0b        .L      LDR      r4,[pc,#44] ; [0x4fa4] = 0xfffe
        0x00004f76:    4288        .B      CMP      r0,r1
        0x00004f78:    d80b        ..      BHI      0x4f92 ; rt_ms2tick + 42
        0x00004f7a:    217d        }!      MOVS     r1,#0x7d
        0x00004f7c:    00c9        ..      LSLS     r1,r1,#3
        0x00004f7e:    4348        HC      MULS     r0,r1,r0
        0x00004f80:    4909        .I      LDR      r1,[pc,#36] ; [0x4fa8] = 0x5c30
        0x00004f82:    680a        .h      LDR      r2,[r1,#0]
        0x00004f84:    1880        ..      ADDS     r0,r0,r2
        0x00004f86:    4611        .F      MOV      r1,r2
        0x00004f88:    1e40        @.      SUBS     r0,r0,#1
        0x00004f8a:    f7fef8cf    ....    BL       __aeabi_uidiv ; 0x312c
        0x00004f8e:    42a0        .B      CMP      r0,r4
        0x00004f90:    d904        ..      BLS      0x4f9c ; rt_ms2tick + 52
        0x00004f92:    4620         F      MOV      r0,r4
        0x00004f94:    bd10        ..      POP      {r4,pc}
        0x00004f96:    4803        .H      LDR      r0,[pc,#12] ; [0x4fa4] = 0xfffe
        0x00004f98:    1c40        @.      ADDS     r0,r0,#1
        0x00004f9a:    bd10        ..      POP      {r4,pc}
        0x00004f9c:    b280        ..      UXTH     r0,r0
        0x00004f9e:    bd10        ..      POP      {r4,pc}
    $d
        0x00004fa0:    003d0900    ..=.    DCD    4000000
        0x00004fa4:    0000fffe    ....    DCD    65534
        0x00004fa8:    00005c30    0\..    DCD    23600
    $t
    i.rt_mut_init
    rt_mut_init
        0x00004fac:    2103        .!      MOVS     r1,#3
        0x00004fae:    7001        .p      STRB     r1,[r0,#0]
        0x00004fb0:    2100        .!      MOVS     r1,#0
        0x00004fb2:    8041        A.      STRH     r1,[r0,#2]
        0x00004fb4:    6041        A`      STR      r1,[r0,#4]
        0x00004fb6:    6081        .`      STR      r1,[r0,#8]
        0x00004fb8:    60c1        .`      STR      r1,[r0,#0xc]
        0x00004fba:    4770        pG      BX       lr
    i.rt_mut_release
    rt_mut_release
        0x00004fbc:    b5f8        ..      PUSH     {r3-r7,lr}
        0x00004fbe:    4604        .F      MOV      r4,r0
        0x00004fc0:    8840        @.      LDRH     r0,[r0,#2]
        0x00004fc2:    2800        .(      CMP      r0,#0
        0x00004fc4:    d004        ..      BEQ      0x4fd0 ; rt_mut_release + 20
        0x00004fc6:    4d31        1M      LDR      r5,[pc,#196] ; [0x508c] = 0x200000c4
        0x00004fc8:    68a1        .h      LDR      r1,[r4,#8]
        0x00004fca:    682a        *h      LDR      r2,[r5,#0]
        0x00004fcc:    4291        .B      CMP      r1,r2
        0x00004fce:    d001        ..      BEQ      0x4fd4 ; rt_mut_release + 24
        0x00004fd0:    20ff        .       MOVS     r0,#0xff
        0x00004fd2:    bdf8        ..      POP      {r3-r7,pc}
        0x00004fd4:    1e40        @.      SUBS     r0,r0,#1
        0x00004fd6:    0400        ..      LSLS     r0,r0,#16
        0x00004fd8:    0c00        ..      LSRS     r0,r0,#16
        0x00004fda:    8060        `.      STRH     r0,[r4,#2]
        0x00004fdc:    d153        S.      BNE      0x5086 ; rt_mut_release + 202
        0x00004fde:    6829        )h      LDR      r1,[r5,#0]
        0x00004fe0:    6a08        .j      LDR      r0,[r1,#0x20]
        0x00004fe2:    42a0        .B      CMP      r0,r4
        0x00004fe4:    d109        ..      BNE      0x4ffa ; rt_mut_release + 62
        0x00004fe6:    68e0        .h      LDR      r0,[r4,#0xc]
        0x00004fe8:    6208        .b      STR      r0,[r1,#0x20]
        0x00004fea:    e008        ..      B        0x4ffe ; rt_mut_release + 66
        0x00004fec:    68c2        .h      LDR      r2,[r0,#0xc]
        0x00004fee:    42a2        .B      CMP      r2,r4
        0x00004ff0:    d102        ..      BNE      0x4ff8 ; rt_mut_release + 60
        0x00004ff2:    68e2        .h      LDR      r2,[r4,#0xc]
        0x00004ff4:    60c2        .`      STR      r2,[r0,#0xc]
        0x00004ff6:    e002        ..      B        0x4ffe ; rt_mut_release + 66
        0x00004ff8:    4610        .F      MOV      r0,r2
        0x00004ffa:    2800        .(      CMP      r0,#0
        0x00004ffc:    d1f6        ..      BNE      0x4fec ; rt_mut_release + 48
        0x00004ffe:    2024        $       MOVS     r0,#0x24
        0x00005000:    5c40        @\      LDRB     r0,[r0,r1]
        0x00005002:    6a0a        .j      LDR      r2,[r1,#0x20]
        0x00005004:    e007        ..      B        0x5016 ; rt_mut_release + 90
        0x00005006:    6853        Sh      LDR      r3,[r2,#4]
        0x00005008:    2b00        .+      CMP      r3,#0
        0x0000500a:    d003        ..      BEQ      0x5014 ; rt_mut_release + 88
        0x0000500c:    789b        .x      LDRB     r3,[r3,#2]
        0x0000500e:    4283        .B      CMP      r3,r0
        0x00005010:    d900        ..      BLS      0x5014 ; rt_mut_release + 88
        0x00005012:    4618        .F      MOV      r0,r3
        0x00005014:    68d2        .h      LDR      r2,[r2,#0xc]
        0x00005016:    2a00        .*      CMP      r2,#0
        0x00005018:    d1f5        ..      BNE      0x5006 ; rt_mut_release + 74
        0x0000501a:    7088        .p      STRB     r0,[r1,#2]
        0x0000501c:    6861        ah      LDR      r1,[r4,#4]
        0x0000501e:    2601        .&      MOVS     r6,#1
        0x00005020:    2900        .)      CMP      r1,#0
        0x00005022:    d022        ".      BEQ      0x506a ; rt_mut_release + 174
        0x00005024:    4620         F      MOV      r0,r4
        0x00005026:    f7fffe36    ..6.    BL       rt_get_first ; 0x4c96
        0x0000502a:    4607        .F      MOV      r7,r0
        0x0000502c:    2100        .!      MOVS     r1,#0
        0x0000502e:    f000f941    ..A.    BL       rt_ret_val ; 0x52b4
        0x00005032:    4638        8F      MOV      r0,r7
        0x00005034:    f000f945    ..E.    BL       rt_rmv_dly ; 0x52c2
        0x00005038:    8066        f.      STRH     r6,[r4,#2]
        0x0000503a:    60a7        .`      STR      r7,[r4,#8]
        0x0000503c:    6a38        8j      LDR      r0,[r7,#0x20]
        0x0000503e:    60e0        .`      STR      r0,[r4,#0xc]
        0x00005040:    623c        <b      STR      r4,[r7,#0x20]
        0x00005042:    4813        .H      LDR      r0,[pc,#76] ; [0x5090] = 0x20003718
        0x00005044:    6829        )h      LDR      r1,[r5,#0]
        0x00005046:    6840        @h      LDR      r0,[r0,#4]
        0x00005048:    788a        .x      LDRB     r2,[r1,#2]
        0x0000504a:    7880        .x      LDRB     r0,[r0,#2]
        0x0000504c:    4282        .B      CMP      r2,r0
        0x0000504e:    d301        ..      BCC      0x5054 ; rt_mut_release + 152
        0x00005050:    4638        8F      MOV      r0,r7
        0x00005052:    e016        ..      B        0x5082 ; rt_mut_release + 198
        0x00005054:    480e        .H      LDR      r0,[pc,#56] ; [0x5090] = 0x20003718
        0x00005056:    f000f8ed    ....    BL       rt_put_prio ; 0x5234
        0x0000505a:    4639        9F      MOV      r1,r7
        0x0000505c:    480c        .H      LDR      r0,[pc,#48] ; [0x5090] = 0x20003718
        0x0000505e:    f000f8e9    ....    BL       rt_put_prio ; 0x5234
        0x00005062:    6828        (h      LDR      r0,[r5,#0]
        0x00005064:    7046        Fp      STRB     r6,[r0,#1]
        0x00005066:    707e        ~p      STRB     r6,[r7,#1]
        0x00005068:    e00a        ..      B        0x5080 ; rt_mut_release + 196
        0x0000506a:    4909        .I      LDR      r1,[pc,#36] ; [0x5090] = 0x20003718
        0x0000506c:    6849        Ih      LDR      r1,[r1,#4]
        0x0000506e:    788a        .x      LDRB     r2,[r1,#2]
        0x00005070:    6829        )h      LDR      r1,[r5,#0]
        0x00005072:    4282        .B      CMP      r2,r0
        0x00005074:    d907        ..      BLS      0x5086 ; rt_mut_release + 202
        0x00005076:    4806        .H      LDR      r0,[pc,#24] ; [0x5090] = 0x20003718
        0x00005078:    f000f8dc    ....    BL       rt_put_prio ; 0x5234
        0x0000507c:    6828        (h      LDR      r0,[r5,#0]
        0x0000507e:    7046        Fp      STRB     r6,[r0,#1]
        0x00005080:    2000        .       MOVS     r0,#0
        0x00005082:    f7fffd8f    ....    BL       rt_dispatch ; 0x4ba4
        0x00005086:    2000        .       MOVS     r0,#0
        0x00005088:    bdf8        ..      POP      {r3-r7,pc}
    $d
        0x0000508a:    0000        ..      DCW    0
        0x0000508c:    200000c4    ...     DCD    536871108
        0x00005090:    20003718    .7.     DCD    536885016
    $t
    i.rt_mut_wait
    rt_mut_wait
        0x00005094:    b570        p.      PUSH     {r4-r6,lr}
        0x00005096:    460e        .F      MOV      r6,r1
        0x00005098:    4d1c        .M      LDR      r5,[pc,#112] ; [0x510c] = 0x200000c4
        0x0000509a:    4604        .F      MOV      r4,r0
        0x0000509c:    8841        A.      LDRH     r1,[r0,#2]
        0x0000509e:    6828        (h      LDR      r0,[r5,#0]
        0x000050a0:    2900        .)      CMP      r1,#0
        0x000050a2:    d007        ..      BEQ      0x50b4 ; rt_mut_wait + 32
        0x000050a4:    68a2        .h      LDR      r2,[r4,#8]
        0x000050a6:    4282        .B      CMP      r2,r0
        0x000050a8:    d10f        ..      BNE      0x50ca ; rt_mut_wait + 54
        0x000050aa:    4819        .H      LDR      r0,[pc,#100] ; [0x5110] = 0xffff
        0x000050ac:    4281        .B      CMP      r1,r0
        0x000050ae:    d108        ..      BNE      0x50c2 ; rt_mut_wait + 46
        0x000050b0:    20ff        .       MOVS     r0,#0xff
        0x000050b2:    bd70        p.      POP      {r4-r6,pc}
        0x000050b4:    60a0        .`      STR      r0,[r4,#8]
        0x000050b6:    6a01        .j      LDR      r1,[r0,#0x20]
        0x000050b8:    60e1        .`      STR      r1,[r4,#0xc]
        0x000050ba:    6204        .b      STR      r4,[r0,#0x20]
        0x000050bc:    2001        .       MOVS     r0,#1
        0x000050be:    8060        `.      STRH     r0,[r4,#2]
        0x000050c0:    e001        ..      B        0x50c6 ; rt_mut_wait + 50
        0x000050c2:    1c49        I.      ADDS     r1,r1,#1
        0x000050c4:    8061        a.      STRH     r1,[r4,#2]
        0x000050c6:    2000        .       MOVS     r0,#0
        0x000050c8:    bd70        p.      POP      {r4-r6,pc}
        0x000050ca:    2e00        ..      CMP      r6,#0
        0x000050cc:    d00f        ..      BEQ      0x50ee ; rt_mut_wait + 90
        0x000050ce:    7891        .x      LDRB     r1,[r2,#2]
        0x000050d0:    7880        .x      LDRB     r0,[r0,#2]
        0x000050d2:    4281        .B      CMP      r1,r0
        0x000050d4:    d203        ..      BCS      0x50de ; rt_mut_wait + 74
        0x000050d6:    7090        .p      STRB     r0,[r2,#2]
        0x000050d8:    68a0        .h      LDR      r0,[r4,#8]
        0x000050da:    f000f8d3    ....    BL       rt_resort_prio ; 0x5284
        0x000050de:    6860        `h      LDR      r0,[r4,#4]
        0x000050e0:    2800        .(      CMP      r0,#0
        0x000050e2:    d006        ..      BEQ      0x50f2 ; rt_mut_wait + 94
        0x000050e4:    4620         F      MOV      r0,r4
        0x000050e6:    6829        )h      LDR      r1,[r5,#0]
        0x000050e8:    f000f8a4    ....    BL       rt_put_prio ; 0x5234
        0x000050ec:    e008        ..      B        0x5100 ; rt_mut_wait + 108
        0x000050ee:    2001        .       MOVS     r0,#1
        0x000050f0:    bd70        p.      POP      {r4-r6,pc}
        0x000050f2:    6828        (h      LDR      r0,[r5,#0]
        0x000050f4:    6060        ``      STR      r0,[r4,#4]
        0x000050f6:    6829        )h      LDR      r1,[r5,#0]
        0x000050f8:    2000        .       MOVS     r0,#0
        0x000050fa:    6048        H`      STR      r0,[r1,#4]
        0x000050fc:    6828        (h      LDR      r0,[r5,#0]
        0x000050fe:    6084        .`      STR      r4,[r0,#8]
        0x00005100:    2109        .!      MOVS     r1,#9
        0x00005102:    4630        0F      MOV      r0,r6
        0x00005104:    f7fffcd6    ....    BL       rt_block ; 0x4ab4
        0x00005108:    e7f1        ..      B        0x50ee ; rt_mut_wait + 90
    $d
        0x0000510a:    0000        ..      DCW    0
        0x0000510c:    200000c4    ...     DCD    536871108
        0x00005110:    0000ffff    ....    DCD    65535
    $t
    i.rt_pop_req
    rt_pop_req
        0x00005114:    b570        p.      PUSH     {r4-r6,lr}
        0x00005116:    4818        .H      LDR      r0,[pc,#96] ; [0x5178] = 0x200000c4
        0x00005118:    2101        .!      MOVS     r1,#1
        0x0000511a:    6802        .h      LDR      r2,[r0,#0]
        0x0000511c:    7051        Qp      STRB     r1,[r2,#1]
        0x0000511e:    6800        .h      LDR      r0,[r0,#0]
        0x00005120:    f000f8a6    ....    BL       rt_put_rdy_first ; 0x5270
        0x00005124:    4c15        .L      LDR      r4,[pc,#84] ; [0x517c] = 0x20003630
        0x00005126:    7865        ex      LDRB     r5,[r4,#1]
        0x00005128:    e013        ..      B        0x5152 ; rt_pop_req + 62
        0x0000512a:    00e8        ..      LSLS     r0,r5,#3
        0x0000512c:    1901        ..      ADDS     r1,r0,r4
        0x0000512e:    6848        Hh      LDR      r0,[r1,#4]
        0x00005130:    7802        .x      LDRB     r2,[r0,#0]
        0x00005132:    2a00        .*      CMP      r2,#0
        0x00005134:    d017        ..      BEQ      0x5166 ; rt_pop_req + 82
        0x00005136:    2a01        .*      CMP      r2,#1
        0x00005138:    d01a        ..      BEQ      0x5170 ; rt_pop_req + 92
        0x0000513a:    f000f8f1    ....    BL       rt_sem_psh ; 0x5320
        0x0000513e:    78e0        .x      LDRB     r0,[r4,#3]
        0x00005140:    1c6d        m.      ADDS     r5,r5,#1
        0x00005142:    4285        .B      CMP      r5,r0
        0x00005144:    d100        ..      BNE      0x5148 ; rt_pop_req + 52
        0x00005146:    2500        .%      MOVS     r5,#0
        0x00005148:    b672        r.      CPSID    i
        0x0000514a:    78a0        .x      LDRB     r0,[r4,#2]
        0x0000514c:    1e40        @.      SUBS     r0,r0,#1
        0x0000514e:    70a0        .p      STRB     r0,[r4,#2]
        0x00005150:    b662        b.      CPSIE    i
        0x00005152:    78a0        .x      LDRB     r0,[r4,#2]
        0x00005154:    2800        .(      CMP      r0,#0
        0x00005156:    d1e8        ..      BNE      0x512a ; rt_pop_req + 22
        0x00005158:    7065        ep      STRB     r5,[r4,#1]
        0x0000515a:    4809        .H      LDR      r0,[pc,#36] ; [0x5180] = 0x20003718
        0x0000515c:    f7fffd9b    ....    BL       rt_get_first ; 0x4c96
        0x00005160:    f000f90c    ....    BL       rt_switch_req ; 0x537c
        0x00005164:    bd70        p.      POP      {r4-r6,pc}
        0x00005166:    8909        ..      LDRH     r1,[r1,#8]
        0x00005168:    b289        ..      UXTH     r1,r1
        0x0000516a:    f7fffd41    ..A.    BL       rt_evt_psh ; 0x4bf0
        0x0000516e:    e7e6        ..      B        0x513e ; rt_pop_req + 42
        0x00005170:    6889        .h      LDR      r1,[r1,#8]
        0x00005172:    f7fffe39    ..9.    BL       rt_mbx_psh ; 0x4de8
        0x00005176:    e7e2        ..      B        0x513e ; rt_pop_req + 42
    $d
        0x00005178:    200000c4    ...     DCD    536871108
        0x0000517c:    20003630    06.     DCD    536884784
        0x00005180:    20003718    .7.     DCD    536885016
    $t
    i.rt_psh_req
    rt_psh_req
        0x00005184:    4805        .H      LDR      r0,[pc,#20] ; [0x519c] = 0x200000cc
        0x00005186:    7801        .x      LDRB     r1,[r0,#0]
        0x00005188:    2900        .)      CMP      r1,#0
        0x0000518a:    d002        ..      BEQ      0x5192 ; rt_psh_req + 14
        0x0000518c:    2101        .!      MOVS     r1,#1
        0x0000518e:    7041        Ap      STRB     r1,[r0,#1]
        0x00005190:    4770        pG      BX       lr
        0x00005192:    2001        .       MOVS     r0,#1
        0x00005194:    4902        .I      LDR      r1,[pc,#8] ; [0x51a0] = 0xe000ed00
        0x00005196:    0700        ..      LSLS     r0,r0,#28
        0x00005198:    6048        H`      STR      r0,[r1,#4]
        0x0000519a:    4770        pG      BX       lr
    $d
        0x0000519c:    200000cc    ...     DCD    536871116
        0x000051a0:    e000ed00    ....    DCD    3758157056
    $t
    i.rt_psq_enq
    rt_psq_enq
        0x000051a4:    b570        p.      PUSH     {r4-r6,lr}
        0x000051a6:    4b0e        .K      LDR      r3,[pc,#56] ; [0x51e0] = 0x20003630
        0x000051a8:    78dd        .x      LDRB     r5,[r3,#3]
        0x000051aa:    1c9c        ..      ADDS     r4,r3,#2
        0x000051ac:    461e        .F      MOV      r6,r3
        0x000051ae:    b672        r.      CPSID    i
        0x000051b0:    789a        .x      LDRB     r2,[r3,#2]
        0x000051b2:    42aa        .B      CMP      r2,r5
        0x000051b4:    d207        ..      BCS      0x51c6 ; rt_psq_enq + 34
        0x000051b6:    1c52        R.      ADDS     r2,r2,#1
        0x000051b8:    7022        "p      STRB     r2,[r4,#0]
        0x000051ba:    7832        2x      LDRB     r2,[r6,#0]
        0x000051bc:    1c54        T.      ADDS     r4,r2,#1
        0x000051be:    42ac        .B      CMP      r4,r5
        0x000051c0:    d100        ..      BNE      0x51c4 ; rt_psq_enq + 32
        0x000051c2:    2400        .$      MOVS     r4,#0
        0x000051c4:    7034        4p      STRB     r4,[r6,#0]
        0x000051c6:    b662        b.      CPSIE    i
        0x000051c8:    78dc        .x      LDRB     r4,[r3,#3]
        0x000051ca:    4294        .B      CMP      r4,r2
        0x000051cc:    d904        ..      BLS      0x51d8 ; rt_psq_enq + 52
        0x000051ce:    00d2        ..      LSLS     r2,r2,#3
        0x000051d0:    18d2        ..      ADDS     r2,r2,r3
        0x000051d2:    6091        .`      STR      r1,[r2,#8]
        0x000051d4:    6050        P`      STR      r0,[r2,#4]
        0x000051d6:    bd70        p.      POP      {r4-r6,pc}
        0x000051d8:    2002        .       MOVS     r0,#2
        0x000051da:    f7fdff93    ....    BL       os_error ; 0x3104
        0x000051de:    bd70        p.      POP      {r4-r6,pc}
    $d
        0x000051e0:    20003630    06.     DCD    536884784
    $t
    i.rt_put_dly
    rt_put_dly
        0x000051e4:    b510        ..      PUSH     {r4,lr}
        0x000051e6:    4a12        .J      LDR      r2,[pc,#72] ; [0x5230] = 0x20003730
        0x000051e8:    68d3        .h      LDR      r3,[r2,#0xc]
        0x000051ea:    2b00        .+      CMP      r3,#0
        0x000051ec:    d017        ..      BEQ      0x521e ; rt_put_dly + 58
        0x000051ee:    4613        .F      MOV      r3,r2
        0x000051f0:    8a9b        ..      LDRH     r3,[r3,#0x14]
        0x000051f2:    e004        ..      B        0x51fe ; rt_put_dly + 26
        0x000051f4:    2c00        .,      CMP      r4,#0
        0x000051f6:    d012        ..      BEQ      0x521e ; rt_put_dly + 58
        0x000051f8:    4622        "F      MOV      r2,r4
        0x000051fa:    8aa4        ..      LDRH     r4,[r4,#0x14]
        0x000051fc:    18e3        ..      ADDS     r3,r4,r3
        0x000051fe:    68d4        .h      LDR      r4,[r2,#0xc]
        0x00005200:    428b        .B      CMP      r3,r1
        0x00005202:    d3f7        ..      BCC      0x51f4 ; rt_put_dly + 16
        0x00005204:    60c4        .`      STR      r4,[r0,#0xc]
        0x00005206:    60d0        .`      STR      r0,[r2,#0xc]
        0x00005208:    6102        .a      STR      r2,[r0,#0x10]
        0x0000520a:    68c4        .h      LDR      r4,[r0,#0xc]
        0x0000520c:    2c00        .,      CMP      r4,#0
        0x0000520e:    d000        ..      BEQ      0x5212 ; rt_put_dly + 46
        0x00005210:    6120         a      STR      r0,[r4,#0x10]
        0x00005212:    1a59        Y.      SUBS     r1,r3,r1
        0x00005214:    8281        ..      STRH     r1,[r0,#0x14]
        0x00005216:    8a90        ..      LDRH     r0,[r2,#0x14]
        0x00005218:    1a40        @.      SUBS     r0,r0,r1
        0x0000521a:    8290        ..      STRH     r0,[r2,#0x14]
        0x0000521c:    bd10        ..      POP      {r4,pc}
        0x0000521e:    2400        .$      MOVS     r4,#0
        0x00005220:    60c4        .`      STR      r4,[r0,#0xc]
        0x00005222:    60d0        .`      STR      r0,[r2,#0xc]
        0x00005224:    1ac9        ..      SUBS     r1,r1,r3
        0x00005226:    6102        .a      STR      r2,[r0,#0x10]
        0x00005228:    8291        ..      STRH     r1,[r2,#0x14]
        0x0000522a:    8284        ..      STRH     r4,[r0,#0x14]
        0x0000522c:    bd10        ..      POP      {r4,pc}
    $d
        0x0000522e:    0000        ..      DCW    0
        0x00005230:    20003730    07.     DCD    536885040
    $t
    i.rt_put_prio
    rt_put_prio
        0x00005234:    b530        0.      PUSH     {r4,r5,lr}
        0x00005236:    7802        .x      LDRB     r2,[r0,#0]
        0x00005238:    2300        .#      MOVS     r3,#0
        0x0000523a:    2a02        .*      CMP      r2,#2
        0x0000523c:    d003        ..      BEQ      0x5246 ; rt_put_prio + 18
        0x0000523e:    2a01        .*      CMP      r2,#1
        0x00005240:    d001        ..      BEQ      0x5246 ; rt_put_prio + 18
        0x00005242:    2a03        .*      CMP      r2,#3
        0x00005244:    d100        ..      BNE      0x5248 ; rt_put_prio + 20
        0x00005246:    2301        .#      MOVS     r3,#1
        0x00005248:    788c        .x      LDRB     r4,[r1,#2]
        0x0000524a:    e000        ..      B        0x524e ; rt_put_prio + 26
        0x0000524c:    4610        .F      MOV      r0,r2
        0x0000524e:    6842        Bh      LDR      r2,[r0,#4]
        0x00005250:    2a00        .*      CMP      r2,#0
        0x00005252:    d002        ..      BEQ      0x525a ; rt_put_prio + 38
        0x00005254:    7895        .x      LDRB     r5,[r2,#2]
        0x00005256:    42a5        .B      CMP      r5,r4
        0x00005258:    d2f8        ..      BCS      0x524c ; rt_put_prio + 24
        0x0000525a:    604a        J`      STR      r2,[r1,#4]
        0x0000525c:    6041        A`      STR      r1,[r0,#4]
        0x0000525e:    2b00        .+      CMP      r3,#0
        0x00005260:    d004        ..      BEQ      0x526c ; rt_put_prio + 56
        0x00005262:    2a00        .*      CMP      r2,#0
        0x00005264:    d000        ..      BEQ      0x5268 ; rt_put_prio + 52
        0x00005266:    6091        .`      STR      r1,[r2,#8]
        0x00005268:    6088        .`      STR      r0,[r1,#8]
        0x0000526a:    bd30        0.      POP      {r4,r5,pc}
        0x0000526c:    2000        .       MOVS     r0,#0
        0x0000526e:    e7fb        ..      B        0x5268 ; rt_put_prio + 52
    i.rt_put_rdy_first
    rt_put_rdy_first
        0x00005270:    4903        .I      LDR      r1,[pc,#12] ; [0x5280] = 0x20003718
        0x00005272:    684a        Jh      LDR      r2,[r1,#4]
        0x00005274:    6042        B`      STR      r2,[r0,#4]
        0x00005276:    2200        ."      MOVS     r2,#0
        0x00005278:    6082        .`      STR      r2,[r0,#8]
        0x0000527a:    6048        H`      STR      r0,[r1,#4]
        0x0000527c:    4770        pG      BX       lr
    $d
        0x0000527e:    0000        ..      DCW    0
        0x00005280:    20003718    .7.     DCD    536885016
    $t
    i.rt_resort_prio
    rt_resort_prio
        0x00005284:    b510        ..      PUSH     {r4,lr}
        0x00005286:    6883        .h      LDR      r3,[r0,#8]
        0x00005288:    4604        .F      MOV      r4,r0
        0x0000528a:    2b00        .+      CMP      r3,#0
        0x0000528c:    d105        ..      BNE      0x529a ; rt_resort_prio + 22
        0x0000528e:    7860        `x      LDRB     r0,[r4,#1]
        0x00005290:    2801        .(      CMP      r0,#1
        0x00005292:    d10c        ..      BNE      0x52ae ; rt_resort_prio + 42
        0x00005294:    4b06        .K      LDR      r3,[pc,#24] ; [0x52b0] = 0x20003718
        0x00005296:    e003        ..      B        0x52a0 ; rt_resort_prio + 28
        0x00005298:    689b        .h      LDR      r3,[r3,#8]
        0x0000529a:    7818        .x      LDRB     r0,[r3,#0]
        0x0000529c:    2800        .(      CMP      r0,#0
        0x0000529e:    d0fb        ..      BEQ      0x5298 ; rt_resort_prio + 20
        0x000052a0:    4620         F      MOV      r0,r4
        0x000052a2:    f000f823    ..#.    BL       rt_rmv_list ; 0x52ec
        0x000052a6:    4621        !F      MOV      r1,r4
        0x000052a8:    4618        .F      MOV      r0,r3
        0x000052aa:    f7ffffc3    ....    BL       rt_put_prio ; 0x5234
        0x000052ae:    bd10        ..      POP      {r4,pc}
    $d
        0x000052b0:    20003718    .7.     DCD    536885016
    $t
    i.rt_ret_val
    rt_ret_val
        0x000052b4:    6a80        .j      LDR      r0,[r0,#0x28]
        0x000052b6:    6201        .b      STR      r1,[r0,#0x20]
        0x000052b8:    4770        pG      BX       lr
    i.rt_ret_val2
    rt_ret_val2
        0x000052ba:    6a80        .j      LDR      r0,[r0,#0x28]
        0x000052bc:    6242        Bb      STR      r2,[r0,#0x24]
        0x000052be:    6201        .b      STR      r1,[r0,#0x20]
        0x000052c0:    4770        pG      BX       lr
    i.rt_rmv_dly
    rt_rmv_dly
        0x000052c2:    b510        ..      PUSH     {r4,lr}
        0x000052c4:    6901        .i      LDR      r1,[r0,#0x10]
        0x000052c6:    2900        .)      CMP      r1,#0
        0x000052c8:    d00f        ..      BEQ      0x52ea ; rt_rmv_dly + 40
        0x000052ca:    68c2        .h      LDR      r2,[r0,#0xc]
        0x000052cc:    60ca        .`      STR      r2,[r1,#0xc]
        0x000052ce:    68c3        .h      LDR      r3,[r0,#0xc]
        0x000052d0:    2200        ."      MOVS     r2,#0
        0x000052d2:    2b00        .+      CMP      r3,#0
        0x000052d4:    d007        ..      BEQ      0x52e6 ; rt_rmv_dly + 36
        0x000052d6:    8a8b        ..      LDRH     r3,[r1,#0x14]
        0x000052d8:    8a84        ..      LDRH     r4,[r0,#0x14]
        0x000052da:    191b        ..      ADDS     r3,r3,r4
        0x000052dc:    828b        ..      STRH     r3,[r1,#0x14]
        0x000052de:    68c3        .h      LDR      r3,[r0,#0xc]
        0x000052e0:    6119        .a      STR      r1,[r3,#0x10]
        0x000052e2:    60c2        .`      STR      r2,[r0,#0xc]
        0x000052e4:    e000        ..      B        0x52e8 ; rt_rmv_dly + 38
        0x000052e6:    828a        ..      STRH     r2,[r1,#0x14]
        0x000052e8:    6102        .a      STR      r2,[r0,#0x10]
        0x000052ea:    bd10        ..      POP      {r4,pc}
    i.rt_rmv_list
    rt_rmv_list
        0x000052ec:    6881        .h      LDR      r1,[r0,#8]
        0x000052ee:    2900        .)      CMP      r1,#0
        0x000052f0:    d007        ..      BEQ      0x5302 ; rt_rmv_list + 22
        0x000052f2:    6842        Bh      LDR      r2,[r0,#4]
        0x000052f4:    604a        J`      STR      r2,[r1,#4]
        0x000052f6:    6841        Ah      LDR      r1,[r0,#4]
        0x000052f8:    2900        .)      CMP      r1,#0
        0x000052fa:    d001        ..      BEQ      0x5300 ; rt_rmv_list + 20
        0x000052fc:    6880        .h      LDR      r0,[r0,#8]
        0x000052fe:    6088        .`      STR      r0,[r1,#8]
        0x00005300:    4770        pG      BX       lr
        0x00005302:    4906        .I      LDR      r1,[pc,#24] ; [0x531c] = 0x20003718
        0x00005304:    e006        ..      B        0x5314 ; rt_rmv_list + 40
        0x00005306:    684a        Jh      LDR      r2,[r1,#4]
        0x00005308:    4282        .B      CMP      r2,r0
        0x0000530a:    d102        ..      BNE      0x5312 ; rt_rmv_list + 38
        0x0000530c:    6840        @h      LDR      r0,[r0,#4]
        0x0000530e:    6048        H`      STR      r0,[r1,#4]
        0x00005310:    4770        pG      BX       lr
        0x00005312:    4611        .F      MOV      r1,r2
        0x00005314:    2900        .)      CMP      r1,#0
        0x00005316:    d1f6        ..      BNE      0x5306 ; rt_rmv_list + 26
        0x00005318:    4770        pG      BX       lr
    $d
        0x0000531a:    0000        ..      DCW    0
        0x0000531c:    20003718    .7.     DCD    536885016
    $t
    i.rt_sem_psh
    rt_sem_psh
        0x00005320:    b510        ..      PUSH     {r4,lr}
        0x00005322:    6841        Ah      LDR      r1,[r0,#4]
        0x00005324:    2900        .)      CMP      r1,#0
        0x00005326:    d00f        ..      BEQ      0x5348 ; rt_sem_psh + 40
        0x00005328:    f7fffcb5    ....    BL       rt_get_first ; 0x4c96
        0x0000532c:    4604        .F      MOV      r4,r0
        0x0000532e:    f7ffffc8    ....    BL       rt_rmv_dly ; 0x52c2
        0x00005332:    2001        .       MOVS     r0,#1
        0x00005334:    7060        `p      STRB     r0,[r4,#1]
        0x00005336:    4601        .F      MOV      r1,r0
        0x00005338:    4620         F      MOV      r0,r4
        0x0000533a:    f7ffffbb    ....    BL       rt_ret_val ; 0x52b4
        0x0000533e:    4621        !F      MOV      r1,r4
        0x00005340:    4803        .H      LDR      r0,[pc,#12] ; [0x5350] = 0x20003718
        0x00005342:    f7ffff77    ..w.    BL       rt_put_prio ; 0x5234
        0x00005346:    bd10        ..      POP      {r4,pc}
        0x00005348:    8841        A.      LDRH     r1,[r0,#2]
        0x0000534a:    1c49        I.      ADDS     r1,r1,#1
        0x0000534c:    8041        A.      STRH     r1,[r0,#2]
        0x0000534e:    bd10        ..      POP      {r4,pc}
    $d
        0x00005350:    20003718    .7.     DCD    536885016
    $t
    i.rt_stk_check
    rt_stk_check
        0x00005354:    b510        ..      PUSH     {r4,lr}
        0x00005356:    4807        .H      LDR      r0,[pc,#28] ; [0x5374] = 0x200000c4
        0x00005358:    6800        .h      LDR      r0,[r0,#0]
        0x0000535a:    6a81        .j      LDR      r1,[r0,#0x28]
        0x0000535c:    6ac0        .j      LDR      r0,[r0,#0x2c]
        0x0000535e:    4281        .B      CMP      r1,r0
        0x00005360:    d303        ..      BCC      0x536a ; rt_stk_check + 22
        0x00005362:    6800        .h      LDR      r0,[r0,#0]
        0x00005364:    4904        .I      LDR      r1,[pc,#16] ; [0x5378] = 0xe25a2ea5
        0x00005366:    4288        .B      CMP      r0,r1
        0x00005368:    d002        ..      BEQ      0x5370 ; rt_stk_check + 28
        0x0000536a:    2001        .       MOVS     r0,#1
        0x0000536c:    f7fdfeca    ....    BL       os_error ; 0x3104
        0x00005370:    bd10        ..      POP      {r4,pc}
    $d
        0x00005372:    0000        ..      DCW    0
        0x00005374:    200000c4    ...     DCD    536871108
        0x00005378:    e25a2ea5    ..Z.    DCD    3797560997
    $t
    i.rt_switch_req
    rt_switch_req
        0x0000537c:    4902        .I      LDR      r1,[pc,#8] ; [0x5388] = 0x200000c4
        0x0000537e:    6048        H`      STR      r0,[r1,#4]
        0x00005380:    2102        .!      MOVS     r1,#2
        0x00005382:    7041        Ap      STRB     r1,[r0,#1]
        0x00005384:    4770        pG      BX       lr
    $d
        0x00005386:    0000        ..      DCW    0
        0x00005388:    200000c4    ...     DCD    536871108
    $t
    i.rt_sys_init
    rt_sys_init
        0x0000538c:    b570        p.      PUSH     {r4-r6,lr}
        0x0000538e:    2000        .       MOVS     r0,#0
        0x00005390:    4604        .F      MOV      r4,r0
        0x00005392:    4920         I      LDR      r1,[pc,#128] ; [0x5414] = 0x200036b4
        0x00005394:    4a20         J      LDR      r2,[pc,#128] ; [0x5418] = 0x5c0c
        0x00005396:    e002        ..      B        0x539e ; rt_sys_init + 18
        0x00005398:    0083        ..      LSLS     r3,r0,#2
        0x0000539a:    50cc        .P      STR      r4,[r1,r3]
        0x0000539c:    1c40        @.      ADDS     r0,r0,#1
        0x0000539e:    8813        ..      LDRH     r3,[r2,#0]
        0x000053a0:    4298        .B      CMP      r0,r3
        0x000053a2:    d3f9        ..      BCC      0x5398 ; rt_sys_init + 12
        0x000053a4:    481d        .H      LDR      r0,[pc,#116] ; [0x541c] = 0x5c38
        0x000053a6:    2234        4"      MOVS     r2,#0x34
        0x000053a8:    8801        ..      LDRH     r1,[r0,#0]
        0x000053aa:    481d        .H      LDR      r0,[pc,#116] ; [0x5420] = 0x20001250
        0x000053ac:    f7fefcae    ....    BL       _init_box ; 0x3d0c
        0x000053b0:    481c        .H      LDR      r0,[pc,#112] ; [0x5424] = 0x5c10
        0x000053b2:    2101        .!      MOVS     r1,#1
        0x000053b4:    8800        ..      LDRH     r0,[r0,#0]
        0x000053b6:    07c9        ..      LSLS     r1,r1,#31
        0x000053b8:    b280        ..      UXTH     r0,r0
        0x000053ba:    1842        B.      ADDS     r2,r0,r1
        0x000053bc:    481a        .H      LDR      r0,[pc,#104] ; [0x5428] = 0x5c3c
        0x000053be:    6801        .h      LDR      r1,[r0,#0]
        0x000053c0:    481a        .H      LDR      r0,[pc,#104] ; [0x542c] = 0x20001330
        0x000053c2:    f7fefca3    ....    BL       _init_box ; 0x3d0c
        0x000053c6:    481a        .H      LDR      r0,[pc,#104] ; [0x5430] = 0x5c60
        0x000053c8:    2208        ."      MOVS     r2,#8
        0x000053ca:    8801        ..      LDRH     r1,[r0,#0]
        0x000053cc:    4819        .H      LDR      r0,[pc,#100] ; [0x5434] = 0x200000b8
        0x000053ce:    6800        .h      LDR      r0,[r0,#0]
        0x000053d0:    f7fefc9c    ....    BL       _init_box ; 0x3d0c
        0x000053d4:    4d18        .M      LDR      r5,[pc,#96] ; [0x5438] = 0x200036e4
        0x000053d6:    20ff        .       MOVS     r0,#0xff
        0x000053d8:    70e8        .p      STRB     r0,[r5,#3]
        0x000053da:    84ec        ..      STRH     r4,[r5,#0x26]
        0x000053dc:    4a17        .J      LDR      r2,[pc,#92] ; [0x543c] = 0x3101
        0x000053de:    2100        .!      MOVS     r1,#0
        0x000053e0:    4628        (F      MOV      r0,r5
        0x000053e2:    f7fffc71    ..q.    BL       rt_init_context ; 0x4cc8
        0x000053e6:    4816        .H      LDR      r0,[pc,#88] ; [0x5440] = 0x20003718
        0x000053e8:    2104        .!      MOVS     r1,#4
        0x000053ea:    7001        .p      STRB     r1,[r0,#0]
        0x000053ec:    6044        D`      STR      r4,[r0,#4]
        0x000053ee:    4815        .H      LDR      r0,[pc,#84] ; [0x5444] = 0x20003730
        0x000053f0:    7001        .p      STRB     r1,[r0,#0]
        0x000053f2:    60c4        .`      STR      r4,[r0,#0xc]
        0x000053f4:    6104        .a      STR      r4,[r0,#0x10]
        0x000053f6:    8284        ..      STRH     r4,[r0,#0x14]
        0x000053f8:    4813        .H      LDR      r0,[pc,#76] ; [0x5448] = 0x200000c4
        0x000053fa:    4915        .I      LDR      r1,[pc,#84] ; [0x5450] = 0x5c44
        0x000053fc:    6005        .`      STR      r5,[r0,#0]
        0x000053fe:    2002        .       MOVS     r0,#2
        0x00005400:    7068        hp      STRB     r0,[r5,#1]
        0x00005402:    4812        .H      LDR      r0,[pc,#72] ; [0x544c] = 0x20003630
        0x00005404:    7004        .p      STRB     r4,[r0,#0]
        0x00005406:    7044        Dp      STRB     r4,[r0,#1]
        0x00005408:    7809        .x      LDRB     r1,[r1,#0]
        0x0000540a:    70c1        .p      STRB     r1,[r0,#3]
        0x0000540c:    f7fffc8e    ....    BL       rt_init_robin ; 0x4d2c
        0x00005410:    bd70        p.      POP      {r4-r6,pc}
    $d
        0x00005412:    0000        ..      DCW    0
        0x00005414:    200036b4    .6.     DCD    536884916
        0x00005418:    00005c0c    .\..    DCD    23564
        0x0000541c:    00005c38    8\..    DCD    23608
        0x00005420:    20001250    P..     DCD    536875600
        0x00005424:    00005c10    .\..    DCD    23568
        0x00005428:    00005c3c    <\..    DCD    23612
        0x0000542c:    20001330    0..     DCD    536875824
        0x00005430:    00005c60    `\..    DCD    23648
        0x00005434:    200000b8    ...     DCD    536871096
        0x00005438:    200036e4    .6.     DCD    536884964
        0x0000543c:    00003101    .1..    DCD    12545
        0x00005440:    20003718    .7.     DCD    536885016
        0x00005444:    20003730    07.     DCD    536885040
        0x00005448:    200000c4    ...     DCD    536871108
        0x0000544c:    20003630    06.     DCD    536884784
        0x00005450:    00005c44    D\..    DCD    23620
    $t
    i.rt_sys_start
    rt_sys_start
        0x00005454:    b510        ..      PUSH     {r4,lr}
        0x00005456:    4814        .H      LDR      r0,[pc,#80] ; [0x54a8] = 0xe000ed00
        0x00005458:    6a01        .j      LDR      r1,[r0,#0x20]
        0x0000545a:    22ff        ."      MOVS     r2,#0xff
        0x0000545c:    0412        ..      LSLS     r2,r2,#16
        0x0000545e:    4311        .C      ORRS     r1,r1,r2
        0x00005460:    6201        .b      STR      r1,[r0,#0x20]
        0x00005462:    69c1        .i      LDR      r1,[r0,#0x1c]
        0x00005464:    6a02        .j      LDR      r2,[r0,#0x20]
        0x00005466:    0252        R.      LSLS     r2,r2,#9
        0x00005468:    0e92        ..      LSRS     r2,r2,#26
        0x0000546a:    0692        ..      LSLS     r2,r2,#26
        0x0000546c:    4311        .C      ORRS     r1,r1,r2
        0x0000546e:    61c1        .a      STR      r1,[r0,#0x1c]
        0x00005470:    f7fffa96    ....    BL       os_tick_init ; 0x49a0
        0x00005474:    490d        .I      LDR      r1,[pc,#52] ; [0x54ac] = 0x200000d0
        0x00005476:    2800        .(      CMP      r0,#0
        0x00005478:    6008        .`      STR      r0,[r1,#0]
        0x0000547a:    db13        ..      BLT      0x54a4 ; rt_sys_start + 80
        0x0000547c:    0882        ..      LSRS     r2,r0,#2
        0x0000547e:    490c        .I      LDR      r1,[pc,#48] ; [0x54b0] = 0xe000e400
        0x00005480:    0092        ..      LSLS     r2,r2,#2
        0x00005482:    1851        Q.      ADDS     r1,r2,r1
        0x00005484:    680a        .h      LDR      r2,[r1,#0]
        0x00005486:    0783        ..      LSLS     r3,r0,#30
        0x00005488:    0edc        ..      LSRS     r4,r3,#27
        0x0000548a:    23ff        .#      MOVS     r3,#0xff
        0x0000548c:    40a3        .@      LSLS     r3,r3,r4
        0x0000548e:    431a        .C      ORRS     r2,r2,r3
        0x00005490:    600a        .`      STR      r2,[r1,#0]
        0x00005492:    06c2        ..      LSLS     r2,r0,#27
        0x00005494:    0ed2        ..      LSRS     r2,r2,#27
        0x00005496:    2101        .!      MOVS     r1,#1
        0x00005498:    4091        .@      LSLS     r1,r1,r2
        0x0000549a:    0940        @.      LSRS     r0,r0,#5
        0x0000549c:    4a05        .J      LDR      r2,[pc,#20] ; [0x54b4] = 0xe000e100
        0x0000549e:    0080        ..      LSLS     r0,r0,#2
        0x000054a0:    1880        ..      ADDS     r0,r0,r2
        0x000054a2:    6001        .`      STR      r1,[r0,#0]
        0x000054a4:    bd10        ..      POP      {r4,pc}
    $d
        0x000054a6:    0000        ..      DCW    0
        0x000054a8:    e000ed00    ....    DCD    3758157056
        0x000054ac:    200000d0    ...     DCD    536871120
        0x000054b0:    e000e400    ....    DCD    3758154752
        0x000054b4:    e000e100    ....    DCD    3758153984
    $t
    i.rt_systick
    rt_systick
        0x000054b8:    b510        ..      PUSH     {r4,lr}
        0x000054ba:    480b        .H      LDR      r0,[pc,#44] ; [0x54e8] = 0x200000c4
        0x000054bc:    2101        .!      MOVS     r1,#1
        0x000054be:    6802        .h      LDR      r2,[r0,#0]
        0x000054c0:    7051        Qp      STRB     r1,[r2,#1]
        0x000054c2:    6800        .h      LDR      r0,[r0,#0]
        0x000054c4:    f7fffed4    ....    BL       rt_put_rdy_first ; 0x5270
        0x000054c8:    f7fffb10    ....    BL       rt_chk_robin ; 0x4aec
        0x000054cc:    4807        .H      LDR      r0,[pc,#28] ; [0x54ec] = 0x200000d4
        0x000054ce:    6801        .h      LDR      r1,[r0,#0]
        0x000054d0:    1c49        I.      ADDS     r1,r1,#1
        0x000054d2:    6001        .`      STR      r1,[r0,#0]
        0x000054d4:    f7fffb2c    ..,.    BL       rt_dec_dly ; 0x4b30
        0x000054d8:    f000fb2e    ....    BL       sysTimerTick ; 0x5b38
        0x000054dc:    4804        .H      LDR      r0,[pc,#16] ; [0x54f0] = 0x20003718
        0x000054de:    f7fffbda    ....    BL       rt_get_first ; 0x4c96
        0x000054e2:    f7ffff4b    ..K.    BL       rt_switch_req ; 0x537c
        0x000054e6:    bd10        ..      POP      {r4,pc}
    $d
        0x000054e8:    200000c4    ...     DCD    536871108
        0x000054ec:    200000d4    ...     DCD    536871124
        0x000054f0:    20003718    .7.     DCD    536885016
    $t
    i.rt_tid2ptcb
    rt_tid2ptcb
        0x000054f4:    2800        .(      CMP      r0,#0
        0x000054f6:    d005        ..      BEQ      0x5504 ; rt_tid2ptcb + 16
        0x000054f8:    0781        ..      LSLS     r1,r0,#30
        0x000054fa:    d102        ..      BNE      0x5502 ; rt_tid2ptcb + 14
        0x000054fc:    7801        .x      LDRB     r1,[r0,#0]
        0x000054fe:    2900        .)      CMP      r1,#0
        0x00005500:    d000        ..      BEQ      0x5504 ; rt_tid2ptcb + 16
        0x00005502:    2000        .       MOVS     r0,#0
        0x00005504:    4770        pG      BX       lr
        0x00005506:    0000        ..      MOVS     r0,r0
    i.rt_timer_insert
    rt_timer_insert
        0x00005508:    b530        0.      PUSH     {r4,r5,lr}
        0x0000550a:    4c0c        .L      LDR      r4,[pc,#48] ; [0x553c] = 0x200000bc
        0x0000550c:    2300        .#      MOVS     r3,#0
        0x0000550e:    6862        bh      LDR      r2,[r4,#4]
        0x00005510:    e005        ..      B        0x551e ; rt_timer_insert + 22
        0x00005512:    6895        .h      LDR      r5,[r2,#8]
        0x00005514:    428d        .B      CMP      r5,r1
        0x00005516:    d804        ..      BHI      0x5522 ; rt_timer_insert + 26
        0x00005518:    4613        .F      MOV      r3,r2
        0x0000551a:    6812        .h      LDR      r2,[r2,#0]
        0x0000551c:    1b49        I.      SUBS     r1,r1,r5
        0x0000551e:    2a00        .*      CMP      r2,#0
        0x00005520:    d1f7        ..      BNE      0x5512 ; rt_timer_insert + 10
        0x00005522:    6002        .`      STR      r2,[r0,#0]
        0x00005524:    6081        .`      STR      r1,[r0,#8]
        0x00005526:    2a00        .*      CMP      r2,#0
        0x00005528:    d002        ..      BEQ      0x5530 ; rt_timer_insert + 40
        0x0000552a:    6895        .h      LDR      r5,[r2,#8]
        0x0000552c:    1a69        i.      SUBS     r1,r5,r1
        0x0000552e:    6091        .`      STR      r1,[r2,#8]
        0x00005530:    2b00        .+      CMP      r3,#0
        0x00005532:    d001        ..      BEQ      0x5538 ; rt_timer_insert + 48
        0x00005534:    6018        .`      STR      r0,[r3,#0]
        0x00005536:    bd30        0.      POP      {r4,r5,pc}
        0x00005538:    6060        ``      STR      r0,[r4,#4]
        0x0000553a:    bd30        0.      POP      {r4,r5,pc}
    $d
        0x0000553c:    200000bc    ...     DCD    536871100
    $t
    i.rt_timer_remove
    rt_timer_remove
        0x00005540:    4b0f        .K      LDR      r3,[pc,#60] ; [0x5580] = 0x200000bc
        0x00005542:    2200        ."      MOVS     r2,#0
        0x00005544:    6859        Yh      LDR      r1,[r3,#4]
        0x00005546:    e003        ..      B        0x5550 ; rt_timer_remove + 16
        0x00005548:    4281        .B      CMP      r1,r0
        0x0000554a:    d004        ..      BEQ      0x5556 ; rt_timer_remove + 22
        0x0000554c:    460a        .F      MOV      r2,r1
        0x0000554e:    6809        .h      LDR      r1,[r1,#0]
        0x00005550:    2900        .)      CMP      r1,#0
        0x00005552:    d1f9        ..      BNE      0x5548 ; rt_timer_remove + 8
        0x00005554:    e006        ..      B        0x5564 ; rt_timer_remove + 36
        0x00005556:    2900        .)      CMP      r1,#0
        0x00005558:    d004        ..      BEQ      0x5564 ; rt_timer_remove + 36
        0x0000555a:    6801        .h      LDR      r1,[r0,#0]
        0x0000555c:    2a00        .*      CMP      r2,#0
        0x0000555e:    d004        ..      BEQ      0x556a ; rt_timer_remove + 42
        0x00005560:    6011        .`      STR      r1,[r2,#0]
        0x00005562:    e003        ..      B        0x556c ; rt_timer_remove + 44
        0x00005564:    2000        .       MOVS     r0,#0
        0x00005566:    43c0        .C      MVNS     r0,r0
        0x00005568:    4770        pG      BX       lr
        0x0000556a:    6059        Y`      STR      r1,[r3,#4]
        0x0000556c:    6801        .h      LDR      r1,[r0,#0]
        0x0000556e:    2900        .)      CMP      r1,#0
        0x00005570:    d003        ..      BEQ      0x557a ; rt_timer_remove + 58
        0x00005572:    688a        .h      LDR      r2,[r1,#8]
        0x00005574:    6880        .h      LDR      r0,[r0,#8]
        0x00005576:    1810        ..      ADDS     r0,r2,r0
        0x00005578:    6088        .`      STR      r0,[r1,#8]
        0x0000557a:    2000        .       MOVS     r0,#0
        0x0000557c:    4770        pG      BX       lr
    $d
        0x0000557e:    0000        ..      DCW    0
        0x00005580:    200000bc    ...     DCD    536871100
    $t
    i.rt_tsk_create
    rt_tsk_create
        0x00005584:    b5ff        ..      PUSH     {r0-r7,lr}
        0x00005586:    0608        ..      LSLS     r0,r1,#24
        0x00005588:    b081        ..      SUB      sp,sp,#4
        0x0000558a:    461e        .F      MOV      r6,r3
        0x0000558c:    4617        .F      MOV      r7,r2
        0x0000558e:    460d        .F      MOV      r5,r1
        0x00005590:    0e00        ..      LSRS     r0,r0,#24
        0x00005592:    d100        ..      BNE      0x5596 ; rt_tsk_create + 18
        0x00005594:    1c4d        M.      ADDS     r5,r1,#1
        0x00005596:    4816        .H      LDR      r0,[pc,#88] ; [0x55f0] = 0x20001250
        0x00005598:    f7fffa5c    ..\.    BL       rt_alloc_box ; 0x4a54
        0x0000559c:    1e04        ..      SUBS     r4,r0,#0
        0x0000559e:    d018        ..      BEQ      0x55d2 ; rt_tsk_create + 78
        0x000055a0:    0228        (.      LSLS     r0,r5,#8
        0x000055a2:    0c00        ..      LSRS     r0,r0,#16
        0x000055a4:    62e7        .b      STR      r7,[r4,#0x2c]
        0x000055a6:    84e0        ..      STRH     r0,[r4,#0x26]
        0x000055a8:    61e6        .a      STR      r6,[r4,#0x1c]
        0x000055aa:    b2e9        ..      UXTB     r1,r5
        0x000055ac:    4620         F      MOV      r0,r4
        0x000055ae:    9a01        ..      LDR      r2,[sp,#4]
        0x000055b0:    f7fffb8a    ....    BL       rt_init_context ; 0x4cc8
        0x000055b4:    2501        .%      MOVS     r5,#1
        0x000055b6:    480f        .H      LDR      r0,[pc,#60] ; [0x55f4] = 0x200036b4
        0x000055b8:    490f        .I      LDR      r1,[pc,#60] ; [0x55f8] = 0x5c0c
        0x000055ba:    e006        ..      B        0x55ca ; rt_tsk_create + 70
        0x000055bc:    00aa        ..      LSLS     r2,r5,#2
        0x000055be:    1812        ..      ADDS     r2,r2,r0
        0x000055c0:    3a80        .:      SUBS     r2,r2,#0x80
        0x000055c2:    6fd2        .o      LDR      r2,[r2,#0x7c]
        0x000055c4:    2a00        .*      CMP      r2,#0
        0x000055c6:    d006        ..      BEQ      0x55d6 ; rt_tsk_create + 82
        0x000055c8:    1c6d        m.      ADDS     r5,r5,#1
        0x000055ca:    880a        ..      LDRH     r2,[r1,#0]
        0x000055cc:    4295        .B      CMP      r5,r2
        0x000055ce:    d9f5        ..      BLS      0x55bc ; rt_tsk_create + 56
        0x000055d0:    2000        .       MOVS     r0,#0
        0x000055d2:    b005        ..      ADD      sp,sp,#0x14
        0x000055d4:    bdf0        ..      POP      {r4-r7,pc}
        0x000055d6:    2d00        .-      CMP      r5,#0
        0x000055d8:    d0fa        ..      BEQ      0x55d0 ; rt_tsk_create + 76
        0x000055da:    00a9        ..      LSLS     r1,r5,#2
        0x000055dc:    1808        ..      ADDS     r0,r1,r0
        0x000055de:    3880        .8      SUBS     r0,r0,#0x80
        0x000055e0:    67c4        .g      STR      r4,[r0,#0x7c]
        0x000055e2:    70e5        .p      STRB     r5,[r4,#3]
        0x000055e4:    4620         F      MOV      r0,r4
        0x000055e6:    f7fffadd    ....    BL       rt_dispatch ; 0x4ba4
        0x000055ea:    4628        (F      MOV      r0,r5
        0x000055ec:    e7f1        ..      B        0x55d2 ; rt_tsk_create + 78
    $d
        0x000055ee:    0000        ..      DCW    0
        0x000055f0:    20001250    P..     DCD    536875600
        0x000055f4:    200036b4    .6.     DCD    536884916
        0x000055f8:    00005c0c    .\..    DCD    23564
    $t
    i.rt_tsk_delete
    rt_tsk_delete
        0x000055fc:    b5f8        ..      PUSH     {r3-r7,lr}
        0x000055fe:    4d4f        OM      LDR      r5,[pc,#316] ; [0x573c] = 0x200000c4
        0x00005600:    2600        .&      MOVS     r6,#0
        0x00005602:    6829        )h      LDR      r1,[r5,#0]
        0x00005604:    2800        .(      CMP      r0,#0
        0x00005606:    d002        ..      BEQ      0x560e ; rt_tsk_delete + 18
        0x00005608:    78ca        .x      LDRB     r2,[r1,#3]
        0x0000560a:    4282        .B      CMP      r2,r0
        0x0000560c:    d13e        >.      BNE      0x568c ; rt_tsk_delete + 144
        0x0000560e:    704e        Np      STRB     r6,[r1,#1]
        0x00005610:    f7fafd79    ..y.    BL       rt_get_PSP ; 0x106
        0x00005614:    6829        )h      LDR      r1,[r5,#0]
        0x00005616:    6288        .b      STR      r0,[r1,#0x28]
        0x00005618:    f7fffe9c    ....    BL       rt_stk_check ; 0x5354
        0x0000561c:    6828        (h      LDR      r0,[r5,#0]
        0x0000561e:    6a04        .j      LDR      r4,[r0,#0x20]
        0x00005620:    e020         .      B        0x5664 ; rt_tsk_delete + 104
        0x00005622:    6860        `h      LDR      r0,[r4,#4]
        0x00005624:    2800        .(      CMP      r0,#0
        0x00005626:    d018        ..      BEQ      0x565a ; rt_tsk_delete + 94
        0x00005628:    4620         F      MOV      r0,r4
        0x0000562a:    f7fffb34    ..4.    BL       rt_get_first ; 0x4c96
        0x0000562e:    4607        .F      MOV      r7,r0
        0x00005630:    2100        .!      MOVS     r1,#0
        0x00005632:    f7fffe3f    ..?.    BL       rt_ret_val ; 0x52b4
        0x00005636:    4638        8F      MOV      r0,r7
        0x00005638:    f7fffe43    ..C.    BL       rt_rmv_dly ; 0x52c2
        0x0000563c:    2001        .       MOVS     r0,#1
        0x0000563e:    7078        xp      STRB     r0,[r7,#1]
        0x00005640:    4639        9F      MOV      r1,r7
        0x00005642:    483f        ?H      LDR      r0,[pc,#252] ; [0x5740] = 0x20003718
        0x00005644:    f7fffdf6    ....    BL       rt_put_prio ; 0x5234
        0x00005648:    2001        .       MOVS     r0,#1
        0x0000564a:    68e1        .h      LDR      r1,[r4,#0xc]
        0x0000564c:    8060        `.      STRH     r0,[r4,#2]
        0x0000564e:    60a7        .`      STR      r7,[r4,#8]
        0x00005650:    6a38        8j      LDR      r0,[r7,#0x20]
        0x00005652:    60e0        .`      STR      r0,[r4,#0xc]
        0x00005654:    623c        <b      STR      r4,[r7,#0x20]
        0x00005656:    460c        .F      MOV      r4,r1
        0x00005658:    e004        ..      B        0x5664 ; rt_tsk_delete + 104
        0x0000565a:    68e0        .h      LDR      r0,[r4,#0xc]
        0x0000565c:    8066        f.      STRH     r6,[r4,#2]
        0x0000565e:    60a6        .`      STR      r6,[r4,#8]
        0x00005660:    60e6        .`      STR      r6,[r4,#0xc]
        0x00005662:    4604        .F      MOV      r4,r0
        0x00005664:    2c00        .,      CMP      r4,#0
        0x00005666:    d1dc        ..      BNE      0x5622 ; rt_tsk_delete + 38
        0x00005668:    6828        (h      LDR      r0,[r5,#0]
        0x0000566a:    78c1        .x      LDRB     r1,[r0,#3]
        0x0000566c:    008a        ..      LSLS     r2,r1,#2
        0x0000566e:    4935        5I      LDR      r1,[pc,#212] ; [0x5744] = 0x200036b4
        0x00005670:    1851        Q.      ADDS     r1,r2,r1
        0x00005672:    3980        .9      SUBS     r1,r1,#0x80
        0x00005674:    67ce        .g      STR      r6,[r1,#0x7c]
        0x00005676:    6ac1        .j      LDR      r1,[r0,#0x2c]
        0x00005678:    4833        3H      LDR      r0,[pc,#204] ; [0x5748] = 0x20001330
        0x0000567a:    f7fffae1    ....    BL       rt_free_box ; 0x4c40
        0x0000567e:    6829        )h      LDR      r1,[r5,#0]
        0x00005680:    4832        2H      LDR      r0,[pc,#200] ; [0x574c] = 0x20001250
        0x00005682:    62ce        .b      STR      r6,[r1,#0x2c]
        0x00005684:    f7fffadc    ....    BL       rt_free_box ; 0x4c40
        0x00005688:    602e        .`      STR      r6,[r5,#0]
        0x0000568a:    e051        Q.      B        0x5730 ; rt_tsk_delete + 308
        0x0000568c:    4930        0I      LDR      r1,[pc,#192] ; [0x5750] = 0x5c0c
        0x0000568e:    8809        ..      LDRH     r1,[r1,#0]
        0x00005690:    4288        .B      CMP      r0,r1
        0x00005692:    d80f        ..      BHI      0x56b4 ; rt_tsk_delete + 184
        0x00005694:    0081        ..      LSLS     r1,r0,#2
        0x00005696:    482b        +H      LDR      r0,[pc,#172] ; [0x5744] = 0x200036b4
        0x00005698:    1808        ..      ADDS     r0,r1,r0
        0x0000569a:    3880        .8      SUBS     r0,r0,#0x80
        0x0000569c:    9000        ..      STR      r0,[sp,#0]
        0x0000569e:    6fc5        .o      LDR      r5,[r0,#0x7c]
        0x000056a0:    2d00        .-      CMP      r5,#0
        0x000056a2:    d007        ..      BEQ      0x56b4 ; rt_tsk_delete + 184
        0x000056a4:    4628        (F      MOV      r0,r5
        0x000056a6:    f7fffe21    ..!.    BL       rt_rmv_list ; 0x52ec
        0x000056aa:    4628        (F      MOV      r0,r5
        0x000056ac:    f7fffe09    ....    BL       rt_rmv_dly ; 0x52c2
        0x000056b0:    6a2c        ,j      LDR      r4,[r5,#0x20]
        0x000056b2:    e022        ".      B        0x56fa ; rt_tsk_delete + 254
        0x000056b4:    20ff        .       MOVS     r0,#0xff
        0x000056b6:    bdf8        ..      POP      {r3-r7,pc}
        0x000056b8:    6860        `h      LDR      r0,[r4,#4]
        0x000056ba:    2800        .(      CMP      r0,#0
        0x000056bc:    d018        ..      BEQ      0x56f0 ; rt_tsk_delete + 244
        0x000056be:    4620         F      MOV      r0,r4
        0x000056c0:    f7fffae9    ....    BL       rt_get_first ; 0x4c96
        0x000056c4:    4607        .F      MOV      r7,r0
        0x000056c6:    2100        .!      MOVS     r1,#0
        0x000056c8:    f7fffdf4    ....    BL       rt_ret_val ; 0x52b4
        0x000056cc:    4638        8F      MOV      r0,r7
        0x000056ce:    f7fffdf8    ....    BL       rt_rmv_dly ; 0x52c2
        0x000056d2:    2001        .       MOVS     r0,#1
        0x000056d4:    7078        xp      STRB     r0,[r7,#1]
        0x000056d6:    4639        9F      MOV      r1,r7
        0x000056d8:    4819        .H      LDR      r0,[pc,#100] ; [0x5740] = 0x20003718
        0x000056da:    f7fffdab    ....    BL       rt_put_prio ; 0x5234
        0x000056de:    2001        .       MOVS     r0,#1
        0x000056e0:    68e1        .h      LDR      r1,[r4,#0xc]
        0x000056e2:    8060        `.      STRH     r0,[r4,#2]
        0x000056e4:    60a7        .`      STR      r7,[r4,#8]
        0x000056e6:    6a38        8j      LDR      r0,[r7,#0x20]
        0x000056e8:    60e0        .`      STR      r0,[r4,#0xc]
        0x000056ea:    623c        <b      STR      r4,[r7,#0x20]
        0x000056ec:    460c        .F      MOV      r4,r1
        0x000056ee:    e004        ..      B        0x56fa ; rt_tsk_delete + 254
        0x000056f0:    68e0        .h      LDR      r0,[r4,#0xc]
        0x000056f2:    8066        f.      STRH     r6,[r4,#2]
        0x000056f4:    60a6        .`      STR      r6,[r4,#8]
        0x000056f6:    60e6        .`      STR      r6,[r4,#0xc]
        0x000056f8:    4604        .F      MOV      r4,r0
        0x000056fa:    2c00        .,      CMP      r4,#0
        0x000056fc:    d1dc        ..      BNE      0x56b8 ; rt_tsk_delete + 188
        0x000056fe:    9800        ..      LDR      r0,[sp,#0]
        0x00005700:    67c6        .g      STR      r6,[r0,#0x7c]
        0x00005702:    4811        .H      LDR      r0,[pc,#68] ; [0x5748] = 0x20001330
        0x00005704:    6ae9        .j      LDR      r1,[r5,#0x2c]
        0x00005706:    f7fffa9b    ....    BL       rt_free_box ; 0x4c40
        0x0000570a:    4629        )F      MOV      r1,r5
        0x0000570c:    480f        .H      LDR      r0,[pc,#60] ; [0x574c] = 0x20001250
        0x0000570e:    62ee        .b      STR      r6,[r5,#0x2c]
        0x00005710:    f7fffa96    ....    BL       rt_free_box ; 0x4c40
        0x00005714:    480a        .H      LDR      r0,[pc,#40] ; [0x5740] = 0x20003718
        0x00005716:    6840        @h      LDR      r0,[r0,#4]
        0x00005718:    7881        .x      LDRB     r1,[r0,#2]
        0x0000571a:    4808        .H      LDR      r0,[pc,#32] ; [0x573c] = 0x200000c4
        0x0000571c:    6802        .h      LDR      r2,[r0,#0]
        0x0000571e:    7893        .x      LDRB     r3,[r2,#2]
        0x00005720:    4299        .B      CMP      r1,r3
        0x00005722:    d908        ..      BLS      0x5736 ; rt_tsk_delete + 314
        0x00005724:    2101        .!      MOVS     r1,#1
        0x00005726:    7051        Qp      STRB     r1,[r2,#1]
        0x00005728:    6801        .h      LDR      r1,[r0,#0]
        0x0000572a:    4805        .H      LDR      r0,[pc,#20] ; [0x5740] = 0x20003718
        0x0000572c:    f7fffd82    ....    BL       rt_put_prio ; 0x5234
        0x00005730:    2000        .       MOVS     r0,#0
        0x00005732:    f7fffa37    ..7.    BL       rt_dispatch ; 0x4ba4
        0x00005736:    2000        .       MOVS     r0,#0
        0x00005738:    bdf8        ..      POP      {r3-r7,pc}
    $d
        0x0000573a:    0000        ..      DCW    0
        0x0000573c:    200000c4    ...     DCD    536871108
        0x00005740:    20003718    .7.     DCD    536885016
        0x00005744:    200036b4    .6.     DCD    536884916
        0x00005748:    20001330    0..     DCD    536875824
        0x0000574c:    20001250    P..     DCD    536875600
        0x00005750:    00005c0c    .\..    DCD    23564
    $t
    i.rt_tsk_prio
    rt_tsk_prio
        0x00005754:    b570        p.      PUSH     {r4-r6,lr}
        0x00005756:    4d1b        .M      LDR      r5,[pc,#108] ; [0x57c4] = 0x200000c4
        0x00005758:    2800        .(      CMP      r0,#0
        0x0000575a:    d011        ..      BEQ      0x5780 ; rt_tsk_prio + 44
        0x0000575c:    4a1a        .J      LDR      r2,[pc,#104] ; [0x57c8] = 0x5c0c
        0x0000575e:    8812        ..      LDRH     r2,[r2,#0]
        0x00005760:    4290        .B      CMP      r0,r2
        0x00005762:    d820         .      BHI      0x57a6 ; rt_tsk_prio + 82
        0x00005764:    0082        ..      LSLS     r2,r0,#2
        0x00005766:    4819        .H      LDR      r0,[pc,#100] ; [0x57cc] = 0x200036b4
        0x00005768:    1810        ..      ADDS     r0,r2,r0
        0x0000576a:    3880        .8      SUBS     r0,r0,#0x80
        0x0000576c:    6fc4        .o      LDR      r4,[r0,#0x7c]
        0x0000576e:    2c00        .,      CMP      r4,#0
        0x00005770:    d019        ..      BEQ      0x57a6 ; rt_tsk_prio + 82
        0x00005772:    70a1        .p      STRB     r1,[r4,#2]
        0x00005774:    2024        $       MOVS     r0,#0x24
        0x00005776:    5501        .U      STRB     r1,[r0,r4]
        0x00005778:    6828        (h      LDR      r0,[r5,#0]
        0x0000577a:    42a0        .B      CMP      r0,r4
        0x0000577c:    d005        ..      BEQ      0x578a ; rt_tsk_prio + 54
        0x0000577e:    e014        ..      B        0x57aa ; rt_tsk_prio + 86
        0x00005780:    6828        (h      LDR      r0,[r5,#0]
        0x00005782:    7081        .p      STRB     r1,[r0,#2]
        0x00005784:    6828        (h      LDR      r0,[r5,#0]
        0x00005786:    3020         0      ADDS     r0,r0,#0x20
        0x00005788:    7101        .q      STRB     r1,[r0,#4]
        0x0000578a:    4811        .H      LDR      r0,[pc,#68] ; [0x57d0] = 0x20003718
        0x0000578c:    6840        @h      LDR      r0,[r0,#4]
        0x0000578e:    7880        .x      LDRB     r0,[r0,#2]
        0x00005790:    4288        .B      CMP      r0,r1
        0x00005792:    d915        ..      BLS      0x57c0 ; rt_tsk_prio + 108
        0x00005794:    480e        .H      LDR      r0,[pc,#56] ; [0x57d0] = 0x20003718
        0x00005796:    6829        )h      LDR      r1,[r5,#0]
        0x00005798:    f7fffd4c    ..L.    BL       rt_put_prio ; 0x5234
        0x0000579c:    6829        )h      LDR      r1,[r5,#0]
        0x0000579e:    2001        .       MOVS     r0,#1
        0x000057a0:    7048        Hp      STRB     r0,[r1,#1]
        0x000057a2:    2000        .       MOVS     r0,#0
        0x000057a4:    e00a        ..      B        0x57bc ; rt_tsk_prio + 104
        0x000057a6:    20ff        .       MOVS     r0,#0xff
        0x000057a8:    bd70        p.      POP      {r4-r6,pc}
        0x000057aa:    4620         F      MOV      r0,r4
        0x000057ac:    f7fffd6a    ..j.    BL       rt_resort_prio ; 0x5284
        0x000057b0:    7860        `x      LDRB     r0,[r4,#1]
        0x000057b2:    2801        .(      CMP      r0,#1
        0x000057b4:    d104        ..      BNE      0x57c0 ; rt_tsk_prio + 108
        0x000057b6:    4806        .H      LDR      r0,[pc,#24] ; [0x57d0] = 0x20003718
        0x000057b8:    f7fffa6d    ..m.    BL       rt_get_first ; 0x4c96
        0x000057bc:    f7fff9f2    ....    BL       rt_dispatch ; 0x4ba4
        0x000057c0:    2000        .       MOVS     r0,#0
        0x000057c2:    bd70        p.      POP      {r4-r6,pc}
    $d
        0x000057c4:    200000c4    ...     DCD    536871108
        0x000057c8:    00005c0c    .\..    DCD    23564
        0x000057cc:    200036b4    .6.     DCD    536884916
        0x000057d0:    20003718    .7.     DCD    536885016
    $t
    i.rt_tsk_self
    rt_tsk_self
        0x000057d4:    4802        .H      LDR      r0,[pc,#8] ; [0x57e0] = 0x200000c4
        0x000057d6:    6800        .h      LDR      r0,[r0,#0]
        0x000057d8:    2800        .(      CMP      r0,#0
        0x000057da:    d000        ..      BEQ      0x57de ; rt_tsk_self + 10
        0x000057dc:    78c0        .x      LDRB     r0,[r0,#3]
        0x000057de:    4770        pG      BX       lr
    $d
        0x000057e0:    200000c4    ...     DCD    536871108
    $t
    i.svcDelay
    svcDelay
        0x000057e4:    b510        ..      PUSH     {r4,lr}
        0x000057e6:    2800        .(      CMP      r0,#0
        0x000057e8:    d004        ..      BEQ      0x57f4 ; svcDelay + 16
        0x000057ea:    f7fffbbd    ....    BL       rt_ms2tick ; 0x4f68
        0x000057ee:    f7fff9f9    ....    BL       rt_dly_wait ; 0x4be4
        0x000057f2:    2040        @       MOVS     r0,#0x40
        0x000057f4:    bd10        ..      POP      {r4,pc}
        0x000057f6:    0000        ..      MOVS     r0,r0
    i.svcKernelInitialize
    svcKernelInitialize
        0x000057f8:    b510        ..      PUSH     {r4,lr}
        0x000057fa:    4c15        .L      LDR      r4,[pc,#84] ; [0x5850] = 0x200000bc
        0x000057fc:    7820         x      LDRB     r0,[r4,#0]
        0x000057fe:    2800        .(      CMP      r0,#0
        0x00005800:    d10d        ..      BNE      0x581e ; svcKernelInitialize + 38
        0x00005802:    4814        .H      LDR      r0,[pc,#80] ; [0x5854] = 0x200014d0
        0x00005804:    0740        @.      LSLS     r0,r0,#29
        0x00005806:    d106        ..      BNE      0x5816 ; svcKernelInitialize + 30
        0x00005808:    4813        .H      LDR      r0,[pc,#76] ; [0x5858] = 0x5c40
        0x0000580a:    6801        .h      LDR      r1,[r0,#0]
        0x0000580c:    4811        .H      LDR      r0,[pc,#68] ; [0x5854] = 0x200014d0
        0x0000580e:    f7fffa7f    ....    BL       rt_init_mem ; 0x4d10
        0x00005812:    2800        .(      CMP      r0,#0
        0x00005814:    d001        ..      BEQ      0x581a ; svcKernelInitialize + 34
        0x00005816:    2085        .       MOVS     r0,#0x85
        0x00005818:    bd10        ..      POP      {r4,pc}
        0x0000581a:    f7fffdb7    ....    BL       rt_sys_init ; 0x538c
        0x0000581e:    490f        .I      LDR      r1,[pc,#60] ; [0x585c] = 0x200000c4
        0x00005820:    20ff        .       MOVS     r0,#0xff
        0x00005822:    6809        .h      LDR      r1,[r1,#0]
        0x00005824:    7088        .p      STRB     r0,[r1,#2]
        0x00005826:    7820         x      LDRB     r0,[r4,#0]
        0x00005828:    2800        .(      CMP      r0,#0
        0x0000582a:    d10b        ..      BNE      0x5844 ; svcKernelInitialize + 76
        0x0000582c:    2100        .!      MOVS     r1,#0
        0x0000582e:    480c        .H      LDR      r0,[pc,#48] ; [0x5860] = 0x5c58
        0x00005830:    f000f844    ..D.    BL       svcMessageCreate ; 0x58bc
        0x00005834:    490b        .I      LDR      r1,[pc,#44] ; [0x5864] = 0x200000b0
        0x00005836:    6008        .`      STR      r0,[r1,#0]
        0x00005838:    2100        .!      MOVS     r1,#0
        0x0000583a:    480b        .H      LDR      r0,[pc,#44] ; [0x5868] = 0x5c48
        0x0000583c:    f000f8b2    ....    BL       svcThreadCreate ; 0x59a4
        0x00005840:    490a        .I      LDR      r1,[pc,#40] ; [0x586c] = 0x200000ac
        0x00005842:    6008        .`      STR      r0,[r1,#0]
        0x00005844:    2001        .       MOVS     r0,#1
        0x00005846:    7020         p      STRB     r0,[r4,#0]
        0x00005848:    2000        .       MOVS     r0,#0
        0x0000584a:    7060        `p      STRB     r0,[r4,#1]
        0x0000584c:    bd10        ..      POP      {r4,pc}
    $d
        0x0000584e:    0000        ..      DCW    0
        0x00005850:    200000bc    ...     DCD    536871100
        0x00005854:    200014d0    ...     DCD    536876240
        0x00005858:    00005c40    @\..    DCD    23616
        0x0000585c:    200000c4    ...     DCD    536871108
        0x00005860:    00005c58    X\..    DCD    23640
        0x00005864:    200000b0    ...     DCD    536871088
        0x00005868:    00005c48    H\..    DCD    23624
        0x0000586c:    200000ac    ...     DCD    536871084
    $t
    i.svcKernelStart
    svcKernelStart
        0x00005870:    b570        p.      PUSH     {r4-r6,lr}
        0x00005872:    4d10        .M      LDR      r5,[pc,#64] ; [0x58b4] = 0x200000bc
        0x00005874:    7868        hx      LDRB     r0,[r5,#1]
        0x00005876:    2800        .(      CMP      r0,#0
        0x00005878:    d001        ..      BEQ      0x587e ; svcKernelStart + 14
        0x0000587a:    2000        .       MOVS     r0,#0
        0x0000587c:    bd70        p.      POP      {r4-r6,pc}
        0x0000587e:    4c0e        .L      LDR      r4,[pc,#56] ; [0x58b8] = 0x200000c4
        0x00005880:    6820         h      LDR      r0,[r4,#0]
        0x00005882:    3020         0      ADDS     r0,r0,#0x20
        0x00005884:    7901        .y      LDRB     r1,[r0,#4]
        0x00005886:    2000        .       MOVS     r0,#0
        0x00005888:    f7ffff64    ..d.    BL       rt_tsk_prio ; 0x5754
        0x0000588c:    6820         h      LDR      r0,[r4,#0]
        0x0000588e:    78c1        .x      LDRB     r1,[r0,#3]
        0x00005890:    29ff        .)      CMP      r1,#0xff
        0x00005892:    d103        ..      BNE      0x589c ; svcKernelStart + 44
        0x00005894:    6a81        .j      LDR      r1,[r0,#0x28]
        0x00005896:    3120         1      ADDS     r1,r1,#0x20
        0x00005898:    f3818809    ....    MSR      PSP,r1
        0x0000589c:    6861        ah      LDR      r1,[r4,#4]
        0x0000589e:    2900        .)      CMP      r1,#0
        0x000058a0:    d102        ..      BNE      0x58a8 ; svcKernelStart + 56
        0x000058a2:    6060        ``      STR      r0,[r4,#4]
        0x000058a4:    2000        .       MOVS     r0,#0
        0x000058a6:    6020         `      STR      r0,[r4,#0]
        0x000058a8:    f7fffdd4    ....    BL       rt_sys_start ; 0x5454
        0x000058ac:    2001        .       MOVS     r0,#1
        0x000058ae:    7068        hp      STRB     r0,[r5,#1]
        0x000058b0:    e7e3        ..      B        0x587a ; svcKernelStart + 10
    $d
        0x000058b2:    0000        ..      DCW    0
        0x000058b4:    200000bc    ...     DCD    536871100
        0x000058b8:    200000c4    ...     DCD    536871108
    $t
    i.svcMessageCreate
    svcMessageCreate
        0x000058bc:    b510        ..      PUSH     {r4,lr}
        0x000058be:    0004        ..      MOVS     r4,r0
        0x000058c0:    d008        ..      BEQ      0x58d4 ; svcMessageCreate + 24
        0x000058c2:    6821        !h      LDR      r1,[r4,#0]
        0x000058c4:    2900        .)      CMP      r1,#0
        0x000058c6:    d005        ..      BEQ      0x58d4 ; svcMessageCreate + 24
        0x000058c8:    6860        `h      LDR      r0,[r4,#4]
        0x000058ca:    2800        .(      CMP      r0,#0
        0x000058cc:    d002        ..      BEQ      0x58d4 ; svcMessageCreate + 24
        0x000058ce:    7802        .x      LDRB     r2,[r0,#0]
        0x000058d0:    2a00        .*      CMP      r2,#0
        0x000058d2:    d001        ..      BEQ      0x58d8 ; svcMessageCreate + 28
        0x000058d4:    2000        .       MOVS     r0,#0
        0x000058d6:    bd10        ..      POP      {r4,pc}
        0x000058d8:    0089        ..      LSLS     r1,r1,#2
        0x000058da:    3110        .1      ADDS     r1,r1,#0x10
        0x000058dc:    b289        ..      UXTH     r1,r1
        0x000058de:    f7fffa71    ..q.    BL       rt_mbx_init ; 0x4dc4
        0x000058e2:    6860        `h      LDR      r0,[r4,#4]
        0x000058e4:    bd10        ..      POP      {r4,pc}
    i.svcMessageGet
    svcMessageGet
        0x000058e6:    b53e        >.      PUSH     {r1-r5,lr}
        0x000058e8:    4604        .F      MOV      r4,r0
        0x000058ea:    2080        .       MOVS     r0,#0x80
        0x000058ec:    460d        .F      MOV      r5,r1
        0x000058ee:    2c00        .,      CMP      r4,#0
        0x000058f0:    d013        ..      BEQ      0x591a ; svcMessageGet + 52
        0x000058f2:    7821        !x      LDRB     r1,[r4,#0]
        0x000058f4:    2901        .)      CMP      r1,#1
        0x000058f6:    d110        ..      BNE      0x591a ; svcMessageGet + 52
        0x000058f8:    4628        (F      MOV      r0,r5
        0x000058fa:    f7fffb35    ..5.    BL       rt_ms2tick ; 0x4f68
        0x000058fe:    4602        .F      MOV      r2,r0
        0x00005900:    4620         F      MOV      r0,r4
        0x00005902:    a901        ..      ADD      r1,sp,#4
        0x00005904:    f7fffad8    ....    BL       rt_mbx_wait ; 0x4eb8
        0x00005908:    2801        .(      CMP      r0,#1
        0x0000590a:    d001        ..      BEQ      0x5910 ; svcMessageGet + 42
        0x0000590c:    2010        .       MOVS     r0,#0x10
        0x0000590e:    e004        ..      B        0x591a ; svcMessageGet + 52
        0x00005910:    2d00        .-      CMP      r5,#0
        0x00005912:    d001        ..      BEQ      0x5918 ; svcMessageGet + 50
        0x00005914:    2040        @       MOVS     r0,#0x40
        0x00005916:    e000        ..      B        0x591a ; svcMessageGet + 52
        0x00005918:    2000        .       MOVS     r0,#0
        0x0000591a:    9a02        ..      LDR      r2,[sp,#8]
        0x0000591c:    9901        ..      LDR      r1,[sp,#4]
        0x0000591e:    b003        ..      ADD      sp,sp,#0xc
        0x00005920:    bd30        0.      POP      {r4,r5,pc}
    i.svcMutexCreate
    svcMutexCreate
        0x00005922:    b510        ..      PUSH     {r4,lr}
        0x00005924:    2800        .(      CMP      r0,#0
        0x00005926:    d006        ..      BEQ      0x5936 ; svcMutexCreate + 20
        0x00005928:    6804        .h      LDR      r4,[r0,#0]
        0x0000592a:    2c00        .,      CMP      r4,#0
        0x0000592c:    d002        ..      BEQ      0x5934 ; svcMutexCreate + 18
        0x0000592e:    7820         x      LDRB     r0,[r4,#0]
        0x00005930:    2800        .(      CMP      r0,#0
        0x00005932:    d001        ..      BEQ      0x5938 ; svcMutexCreate + 22
        0x00005934:    2000        .       MOVS     r0,#0
        0x00005936:    bd10        ..      POP      {r4,pc}
        0x00005938:    4620         F      MOV      r0,r4
        0x0000593a:    f7fffb37    ..7.    BL       rt_mut_init ; 0x4fac
        0x0000593e:    4620         F      MOV      r0,r4
        0x00005940:    bd10        ..      POP      {r4,pc}
    i.svcMutexRelease
    svcMutexRelease
        0x00005942:    b510        ..      PUSH     {r4,lr}
        0x00005944:    f7fff9bc    ....    BL       rt_id2obj ; 0x4cc0
        0x00005948:    2800        .(      CMP      r0,#0
        0x0000594a:    d002        ..      BEQ      0x5952 ; svcMutexRelease + 16
        0x0000594c:    7801        .x      LDRB     r1,[r0,#0]
        0x0000594e:    2903        .)      CMP      r1,#3
        0x00005950:    d001        ..      BEQ      0x5956 ; svcMutexRelease + 20
        0x00005952:    2080        .       MOVS     r0,#0x80
        0x00005954:    bd10        ..      POP      {r4,pc}
        0x00005956:    f7fffb31    ..1.    BL       rt_mut_release ; 0x4fbc
        0x0000595a:    28ff        .(      CMP      r0,#0xff
        0x0000595c:    d001        ..      BEQ      0x5962 ; svcMutexRelease + 32
        0x0000595e:    2000        .       MOVS     r0,#0
        0x00005960:    bd10        ..      POP      {r4,pc}
        0x00005962:    2081        .       MOVS     r0,#0x81
        0x00005964:    bd10        ..      POP      {r4,pc}
    i.svcMutexWait
    svcMutexWait
        0x00005966:    b570        p.      PUSH     {r4-r6,lr}
        0x00005968:    460d        .F      MOV      r5,r1
        0x0000596a:    f7fff9a9    ....    BL       rt_id2obj ; 0x4cc0
        0x0000596e:    0004        ..      MOVS     r4,r0
        0x00005970:    d002        ..      BEQ      0x5978 ; svcMutexWait + 18
        0x00005972:    7820         x      LDRB     r0,[r4,#0]
        0x00005974:    2803        .(      CMP      r0,#3
        0x00005976:    d001        ..      BEQ      0x597c ; svcMutexWait + 22
        0x00005978:    2080        .       MOVS     r0,#0x80
        0x0000597a:    bd70        p.      POP      {r4-r6,pc}
        0x0000597c:    4628        (F      MOV      r0,r5
        0x0000597e:    f7fffaf3    ....    BL       rt_ms2tick ; 0x4f68
        0x00005982:    4601        .F      MOV      r1,r0
        0x00005984:    4620         F      MOV      r0,r4
        0x00005986:    f7fffb85    ....    BL       rt_mut_wait ; 0x5094
        0x0000598a:    2801        .(      CMP      r0,#1
        0x0000598c:    d003        ..      BEQ      0x5996 ; svcMutexWait + 48
        0x0000598e:    28ff        .(      CMP      r0,#0xff
        0x00005990:    d005        ..      BEQ      0x599e ; svcMutexWait + 56
        0x00005992:    2000        .       MOVS     r0,#0
        0x00005994:    bd70        p.      POP      {r4-r6,pc}
        0x00005996:    2d00        .-      CMP      r5,#0
        0x00005998:    d001        ..      BEQ      0x599e ; svcMutexWait + 56
        0x0000599a:    20c1        .       MOVS     r0,#0xc1
        0x0000599c:    bd70        p.      POP      {r4-r6,pc}
        0x0000599e:    2081        .       MOVS     r0,#0x81
        0x000059a0:    bd70        p.      POP      {r4-r6,pc}
        0x000059a2:    0000        ..      MOVS     r0,r0
    i.svcThreadCreate
    svcThreadCreate
        0x000059a4:    b570        p.      PUSH     {r4-r6,lr}
        0x000059a6:    460e        .F      MOV      r6,r1
        0x000059a8:    0004        ..      MOVS     r4,r0
        0x000059aa:    d02c        ,.      BEQ      0x5a06 ; svcThreadCreate + 98
        0x000059ac:    6820         h      LDR      r0,[r4,#0]
        0x000059ae:    2800        .(      CMP      r0,#0
        0x000059b0:    d029        ).      BEQ      0x5a06 ; svcThreadCreate + 98
        0x000059b2:    6860        `h      LDR      r0,[r4,#4]
        0x000059b4:    1cc1        ..      ADDS     r1,r0,#3
        0x000059b6:    db26        &.      BLT      0x5a06 ; svcThreadCreate + 98
        0x000059b8:    2803        .(      CMP      r0,#3
        0x000059ba:    dc24        $.      BGT      0x5a06 ; svcThreadCreate + 98
        0x000059bc:    68e1        .h      LDR      r1,[r4,#0xc]
        0x000059be:    2900        .)      CMP      r1,#0
        0x000059c0:    d005        ..      BEQ      0x59ce ; svcThreadCreate + 42
        0x000059c2:    4812        .H      LDR      r0,[pc,#72] ; [0x5a0c] = 0x200014d0
        0x000059c4:    f7fff855    ..U.    BL       rt_alloc_mem ; 0x4a72
        0x000059c8:    1e05        ..      SUBS     r5,r0,#0
        0x000059ca:    d015        ..      BEQ      0x59f8 ; svcThreadCreate + 84
        0x000059cc:    e000        ..      B        0x59d0 ; svcThreadCreate + 44
        0x000059ce:    2500        .%      MOVS     r5,#0
        0x000059d0:    68e0        .h      LDR      r0,[r4,#0xc]
        0x000059d2:    6861        ah      LDR      r1,[r4,#4]
        0x000059d4:    0200        ..      LSLS     r0,r0,#8
        0x000059d6:    1d09        ..      ADDS     r1,r1,#4
        0x000059d8:    4301        .C      ORRS     r1,r1,r0
        0x000059da:    4633        3F      MOV      r3,r6
        0x000059dc:    462a        *F      MOV      r2,r5
        0x000059de:    6820         h      LDR      r0,[r4,#0]
        0x000059e0:    f7fffdd0    ....    BL       rt_tsk_create ; 0x5584
        0x000059e4:    2800        .(      CMP      r0,#0
        0x000059e6:    d008        ..      BEQ      0x59fa ; svcThreadCreate + 86
        0x000059e8:    4909        .I      LDR      r1,[pc,#36] ; [0x5a10] = 0x200036b4
        0x000059ea:    0080        ..      LSLS     r0,r0,#2
        0x000059ec:    1840        @.      ADDS     r0,r0,r1
        0x000059ee:    3880        .8      SUBS     r0,r0,#0x80
        0x000059f0:    6fc0        .o      LDR      r0,[r0,#0x7c]
        0x000059f2:    4908        .I      LDR      r1,[pc,#32] ; [0x5a14] = 0x48fd
        0x000059f4:    6a82        .j      LDR      r2,[r0,#0x28]
        0x000059f6:    6351        Qc      STR      r1,[r2,#0x34]
        0x000059f8:    bd70        p.      POP      {r4-r6,pc}
        0x000059fa:    2d00        .-      CMP      r5,#0
        0x000059fc:    d003        ..      BEQ      0x5a06 ; svcThreadCreate + 98
        0x000059fe:    4629        )F      MOV      r1,r5
        0x00005a00:    4802        .H      LDR      r0,[pc,#8] ; [0x5a0c] = 0x200014d0
        0x00005a02:    f7fff930    ..0.    BL       rt_free_mem ; 0x4c66
        0x00005a06:    2000        .       MOVS     r0,#0
        0x00005a08:    bd70        p.      POP      {r4-r6,pc}
    $d
        0x00005a0a:    0000        ..      DCW    0
        0x00005a0c:    200014d0    ...     DCD    536876240
        0x00005a10:    200036b4    .6.     DCD    536884916
        0x00005a14:    000048fd    .H..    DCD    18685
    $t
    i.svcThreadGetId
    svcThreadGetId
        0x00005a18:    b510        ..      PUSH     {r4,lr}
        0x00005a1a:    f7fffedb    ....    BL       rt_tsk_self ; 0x57d4
        0x00005a1e:    2800        .(      CMP      r0,#0
        0x00005a20:    d004        ..      BEQ      0x5a2c ; svcThreadGetId + 20
        0x00005a22:    4903        .I      LDR      r1,[pc,#12] ; [0x5a30] = 0x200036b4
        0x00005a24:    0080        ..      LSLS     r0,r0,#2
        0x00005a26:    1840        @.      ADDS     r0,r0,r1
        0x00005a28:    3880        .8      SUBS     r0,r0,#0x80
        0x00005a2a:    6fc0        .o      LDR      r0,[r0,#0x7c]
        0x00005a2c:    bd10        ..      POP      {r4,pc}
    $d
        0x00005a2e:    0000        ..      DCW    0
        0x00005a30:    200036b4    .6.     DCD    536884916
    $t
    i.svcThreadTerminate
    svcThreadTerminate
        0x00005a34:    b510        ..      PUSH     {r4,lr}
        0x00005a36:    f7fffd5d    ..].    BL       rt_tid2ptcb ; 0x54f4
        0x00005a3a:    2800        .(      CMP      r0,#0
        0x00005a3c:    d004        ..      BEQ      0x5a48 ; svcThreadTerminate + 20
        0x00005a3e:    8cc1        ..      LDRH     r1,[r0,#0x26]
        0x00005a40:    2900        .)      CMP      r1,#0
        0x00005a42:    d003        ..      BEQ      0x5a4c ; svcThreadTerminate + 24
        0x00005a44:    6ac4        .j      LDR      r4,[r0,#0x2c]
        0x00005a46:    e002        ..      B        0x5a4e ; svcThreadTerminate + 26
        0x00005a48:    2080        .       MOVS     r0,#0x80
        0x00005a4a:    bd10        ..      POP      {r4,pc}
        0x00005a4c:    2400        .$      MOVS     r4,#0
        0x00005a4e:    78c0        .x      LDRB     r0,[r0,#3]
        0x00005a50:    f7fffdd4    ....    BL       rt_tsk_delete ; 0x55fc
        0x00005a54:    28ff        .(      CMP      r0,#0xff
        0x00005a56:    d007        ..      BEQ      0x5a68 ; svcThreadTerminate + 52
        0x00005a58:    2c00        .,      CMP      r4,#0
        0x00005a5a:    d003        ..      BEQ      0x5a64 ; svcThreadTerminate + 48
        0x00005a5c:    4621        !F      MOV      r1,r4
        0x00005a5e:    4803        .H      LDR      r0,[pc,#12] ; [0x5a6c] = 0x200014d0
        0x00005a60:    f7fff901    ....    BL       rt_free_mem ; 0x4c66
        0x00005a64:    2000        .       MOVS     r0,#0
        0x00005a66:    bd10        ..      POP      {r4,pc}
        0x00005a68:    2081        .       MOVS     r0,#0x81
        0x00005a6a:    bd10        ..      POP      {r4,pc}
    $d
        0x00005a6c:    200014d0    ...     DCD    536876240
    $t
    i.svcTimerCall
    svcTimerCall
        0x00005a70:    b510        ..      PUSH     {r4,lr}
        0x00005a72:    f7fff925    ..%.    BL       rt_id2obj ; 0x4cc0
        0x00005a76:    2800        .(      CMP      r0,#0
        0x00005a78:    d005        ..      BEQ      0x5a86 ; svcTimerCall + 22
        0x00005a7a:    6941        Ai      LDR      r1,[r0,#0x14]
        0x00005a7c:    6902        .i      LDR      r2,[r0,#0x10]
        0x00005a7e:    6809        .h      LDR      r1,[r1,#0]
        0x00005a80:    4608        .F      MOV      r0,r1
        0x00005a82:    4611        .F      MOV      r1,r2
        0x00005a84:    bd10        ..      POP      {r4,pc}
        0x00005a86:    2000        .       MOVS     r0,#0
        0x00005a88:    4601        .F      MOV      r1,r0
        0x00005a8a:    bd10        ..      POP      {r4,pc}
    i.svcTimerCreate
    svcTimerCreate
        0x00005a8c:    b510        ..      PUSH     {r4,lr}
        0x00005a8e:    0003        ..      MOVS     r3,r0
        0x00005a90:    d010        ..      BEQ      0x5ab4 ; svcTimerCreate + 40
        0x00005a92:    6818        .h      LDR      r0,[r3,#0]
        0x00005a94:    2800        .(      CMP      r0,#0
        0x00005a96:    d00d        ..      BEQ      0x5ab4 ; svcTimerCreate + 40
        0x00005a98:    6858        Xh      LDR      r0,[r3,#4]
        0x00005a9a:    2800        .(      CMP      r0,#0
        0x00005a9c:    d00b        ..      BEQ      0x5ab6 ; svcTimerCreate + 42
        0x00005a9e:    2900        .)      CMP      r1,#0
        0x00005aa0:    d001        ..      BEQ      0x5aa6 ; svcTimerCreate + 26
        0x00005aa2:    2901        .)      CMP      r1,#1
        0x00005aa4:    d106        ..      BNE      0x5ab4 ; svcTimerCreate + 40
        0x00005aa6:    4c08        .L      LDR      r4,[pc,#32] ; [0x5ac8] = 0x200000ac
        0x00005aa8:    6824        $h      LDR      r4,[r4,#0]
        0x00005aaa:    2c00        .,      CMP      r4,#0
        0x00005aac:    d002        ..      BEQ      0x5ab4 ; svcTimerCreate + 40
        0x00005aae:    7904        .y      LDRB     r4,[r0,#4]
        0x00005ab0:    2c00        .,      CMP      r4,#0
        0x00005ab2:    d001        ..      BEQ      0x5ab8 ; svcTimerCreate + 44
        0x00005ab4:    2000        .       MOVS     r0,#0
        0x00005ab6:    bd10        ..      POP      {r4,pc}
        0x00005ab8:    2400        .$      MOVS     r4,#0
        0x00005aba:    6004        .`      STR      r4,[r0,#0]
        0x00005abc:    2401        .$      MOVS     r4,#1
        0x00005abe:    7104        .q      STRB     r4,[r0,#4]
        0x00005ac0:    7141        Aq      STRB     r1,[r0,#5]
        0x00005ac2:    6143        Ca      STR      r3,[r0,#0x14]
        0x00005ac4:    6102        .a      STR      r2,[r0,#0x10]
        0x00005ac6:    bd10        ..      POP      {r4,pc}
    $d
        0x00005ac8:    200000ac    ...     DCD    536871084
    $t
    i.svcTimerStart
    svcTimerStart
        0x00005acc:    b570        p.      PUSH     {r4-r6,lr}
        0x00005ace:    460d        .F      MOV      r5,r1
        0x00005ad0:    f7fff8f6    ....    BL       rt_id2obj ; 0x4cc0
        0x00005ad4:    0004        ..      MOVS     r4,r0
        0x00005ad6:    d019        ..      BEQ      0x5b0c ; svcTimerStart + 64
        0x00005ad8:    2d00        .-      CMP      r5,#0
        0x00005ada:    d019        ..      BEQ      0x5b10 ; svcTimerStart + 68
        0x00005adc:    217d        }!      MOVS     r1,#0x7d
        0x00005ade:    4628        (F      MOV      r0,r5
        0x00005ae0:    00c9        ..      LSLS     r1,r1,#3
        0x00005ae2:    f7fef83a    ..:.    BL       __ARM_common_ll_muluu ; 0x3b5a
        0x00005ae6:    4b13        .K      LDR      r3,[pc,#76] ; [0x5b34] = 0x5c30
        0x00005ae8:    2200        ."      MOVS     r2,#0
        0x00005aea:    681d        .h      LDR      r5,[r3,#0]
        0x00005aec:    1e56        V.      SUBS     r6,r2,#1
        0x00005aee:    1e6d        m.      SUBS     r5,r5,#1
        0x00005af0:    4172        rA      ADCS     r2,r2,r6
        0x00005af2:    1940        @.      ADDS     r0,r0,r5
        0x00005af4:    4151        QA      ADCS     r1,r1,r2
        0x00005af6:    681a        .h      LDR      r2,[r3,#0]
        0x00005af8:    2300        .#      MOVS     r3,#0
        0x00005afa:    f7fdfb41    ..A.    BL       __aeabi_uldivmod ; 0x3180
        0x00005afe:    4605        .F      MOV      r5,r0
        0x00005b00:    7920         y      LDRB     r0,[r4,#4]
        0x00005b02:    2801        .(      CMP      r0,#1
        0x00005b04:    d00d        ..      BEQ      0x5b22 ; svcTimerStart + 86
        0x00005b06:    2802        .(      CMP      r0,#2
        0x00005b08:    d109        ..      BNE      0x5b1e ; svcTimerStart + 82
        0x00005b0a:    e003        ..      B        0x5b14 ; svcTimerStart + 72
        0x00005b0c:    2080        .       MOVS     r0,#0x80
        0x00005b0e:    bd70        p.      POP      {r4-r6,pc}
        0x00005b10:    2086        .       MOVS     r0,#0x86
        0x00005b12:    bd70        p.      POP      {r4-r6,pc}
        0x00005b14:    4620         F      MOV      r0,r4
        0x00005b16:    f7fffd13    ....    BL       rt_timer_remove ; 0x5540
        0x00005b1a:    2800        .(      CMP      r0,#0
        0x00005b1c:    d004        ..      BEQ      0x5b28 ; svcTimerStart + 92
        0x00005b1e:    2081        .       MOVS     r0,#0x81
        0x00005b20:    bd70        p.      POP      {r4-r6,pc}
        0x00005b22:    2002        .       MOVS     r0,#2
        0x00005b24:    7120         q      STRB     r0,[r4,#4]
        0x00005b26:    60e5        .`      STR      r5,[r4,#0xc]
        0x00005b28:    4629        )F      MOV      r1,r5
        0x00005b2a:    4620         F      MOV      r0,r4
        0x00005b2c:    f7fffcec    ....    BL       rt_timer_insert ; 0x5508
        0x00005b30:    2000        .       MOVS     r0,#0
        0x00005b32:    bd70        p.      POP      {r4-r6,pc}
    $d
        0x00005b34:    00005c30    0\..    DCD    23600
    $t
    i.sysTimerTick
    sysTimerTick
        0x00005b38:    b5f8        ..      PUSH     {r3-r7,lr}
        0x00005b3a:    4e13        .N      LDR      r6,[pc,#76] ; [0x5b88] = 0x200000bc
        0x00005b3c:    6874        th      LDR      r4,[r6,#4]
        0x00005b3e:    2c00        .,      CMP      r4,#0
        0x00005b40:    d01b        ..      BEQ      0x5b7a ; sysTimerTick + 66
        0x00005b42:    68a0        .h      LDR      r0,[r4,#8]
        0x00005b44:    4f11        .O      LDR      r7,[pc,#68] ; [0x5b8c] = 0x200000b0
        0x00005b46:    1e40        @.      SUBS     r0,r0,#1
        0x00005b48:    60a0        .`      STR      r0,[r4,#8]
        0x00005b4a:    e013        ..      B        0x5b74 ; sysTimerTick + 60
        0x00005b4c:    4625        %F      MOV      r5,r4
        0x00005b4e:    6824        $h      LDR      r4,[r4,#0]
        0x00005b50:    6074        t`      STR      r4,[r6,#4]
        0x00005b52:    2200        ."      MOVS     r2,#0
        0x00005b54:    4629        )F      MOV      r1,r5
        0x00005b56:    6838        8h      LDR      r0,[r7,#0]
        0x00005b58:    f7fefdc7    ....    BL       isrMessagePut ; 0x46ea
        0x00005b5c:    2800        .(      CMP      r0,#0
        0x00005b5e:    d002        ..      BEQ      0x5b66 ; sysTimerTick + 46
        0x00005b60:    2004        .       MOVS     r0,#4
        0x00005b62:    f7fdfacf    ....    BL       os_error ; 0x3104
        0x00005b66:    7968        hy      LDRB     r0,[r5,#5]
        0x00005b68:    2801        .(      CMP      r0,#1
        0x00005b6a:    d007        ..      BEQ      0x5b7c ; sysTimerTick + 68
        0x00005b6c:    2001        .       MOVS     r0,#1
        0x00005b6e:    7128        (q      STRB     r0,[r5,#4]
        0x00005b70:    2c00        .,      CMP      r4,#0
        0x00005b72:    d002        ..      BEQ      0x5b7a ; sysTimerTick + 66
        0x00005b74:    68a0        .h      LDR      r0,[r4,#8]
        0x00005b76:    2800        .(      CMP      r0,#0
        0x00005b78:    d0e8        ..      BEQ      0x5b4c ; sysTimerTick + 20
        0x00005b7a:    bdf8        ..      POP      {r3-r7,pc}
        0x00005b7c:    4628        (F      MOV      r0,r5
        0x00005b7e:    68e9        .h      LDR      r1,[r5,#0xc]
        0x00005b80:    f7fffcc2    ....    BL       rt_timer_insert ; 0x5508
        0x00005b84:    e7f4        ..      B        0x5b70 ; sysTimerTick + 56
    $d
        0x00005b86:    0000        ..      DCW    0
        0x00005b88:    200000bc    ...     DCD    536871100
        0x00005b8c:    200000b0    ...     DCD    536871088
    $d.realdata
    .constdata
    os_thread_def_Thread
        0x00005b90:    0000051b    ....    DCD    1307
        0x00005b94:    00000000    ....    DCD    0
        0x00005b98:    00000001    ....    DCD    1
        0x00005b9c:    000007e8    ....    DCD    2024
    os_thread_def_Thread1
        0x00005ba0:    00000559    Y...    DCD    1369
        0x00005ba4:    00000000    ....    DCD    0
        0x00005ba8:    00000001    ....    DCD    1
        0x00005bac:    00000fd0    ....    DCD    4048
    .constdata
    os_timer_def_Timer1
        0x00005bb0:    00000949    I...    DCD    2377
        0x00005bb4:    2000015c    \..     DCD    536871260
    os_timer_def_Timer2
        0x00005bb8:    0000094b    K...    DCD    2379
        0x00005bbc:    20000174    t..     DCD    536871284
    .constdata
    os_mutex_def_uart_mutex
        0x00005bc0:    2000018c    ...     DCD    536871308
    os_mutex_def_tcp_mutex
        0x00005bc4:    2000019c    ...     DCD    536871324
    os_mutex_def_fs_mutex
        0x00005bc8:    200001ac    ...     DCD    536871340
    .constdata
        0x00005bcc:    00000002    ....    DCD    2
        0x00005bd0:    00000004    ....    DCD    4
        0x00005bd4:    00000008    ....    DCD    8
        0x00005bd8:    00000010    ....    DCD    16
    .constdata
        0x00005bdc:    00b71b00    ....    DCD    12000000
        0x00005be0:    00008000    ....    DCD    32768
        0x00005be4:    00000000    ....    DCD    0
        0x00005be8:    00b71b00    ....    DCD    12000000
        0x00005bec:    00b71b00    ....    DCD    12000000
        0x00005bf0:    00008000    ....    DCD    32768
        0x00005bf4:    00000000    ....    DCD    0
        0x00005bf8:    00b71b00    ....    DCD    12000000
        0x00005bfc:    00b71b00    ....    DCD    12000000
        0x00005c00:    00008000    ....    DCD    32768
        0x00005c04:    00000000    ....    DCD    0
        0x00005c08:    00b71b00    ....    DCD    12000000
    .constdata
    os_maxtaskrun
        0x00005c0c:    00000004    ....    DCD    4
    os_stackinfo
        0x00005c10:    01040190    ....    DCD    17039760
    os_rrobin
        0x00005c14:    00010005    ....    DCD    65541
    os_tickfreq
        0x00005c18:    00b71b00    ....    DCD    12000000
    os_tickus_i
        0x00005c1c:    000c        ..      DCW    12
    os_tickus_f
        0x00005c1e:    0000        ..      DCW    0
    os_trv
        0x00005c20:    00002edf    ....    DCD    11999
    os_flags
        0x00005c24:    00000001    ....    DCD    1
    __tagsym$$used
    CMSIS_RTOS_API_Version
        0x00005c28:    00010002    ....    DCD    65538
    __tagsym$$used
    CMSIS_RTOS_RTX_Version
        0x00005c2c:    00040052    R...    DCD    262226
    __tagsym$$used
    os_clockrate
        0x00005c30:    000003e8    ....    DCD    1000
    __tagsym$$used
    os_timernum
        0x00005c34:    00000000    ....    DCD    0
    mp_tcb_size
        0x00005c38:    000000dc    ....    DCD    220
    mp_stk_size
        0x00005c3c:    000001a0    ....    DCD    416
    os_stack_sz
        0x00005c40:    00002160    `!..    DCD    8544
    os_fifo_size
        0x00005c44:    00000010    ....    DCD    16
    os_thread_def_osTimerThread
        0x00005c48:    00004975    uI..    DCD    18805
        0x00005c4c:    00000002    ....    DCD    2
        0x00005c50:    00000001    ....    DCD    1
        0x00005c54:    000001f0    ....    DCD    496
    os_messageQ_def_osTimerMessageQ
        0x00005c58:    00000004    ....    DCD    4
        0x00005c5c:    200036c4    .6.     DCD    536884932
    mp_tmr_size
        0x00005c60:    00000000    ....    DCD    0
    os_thread_def_main
        0x00005c64:    00000ae3    ....    DCD    2787
        0x00005c68:    00000000    ....    DCD    0
        0x00005c6c:    00000001    ....    DCD    1
        0x00005c70:    000003e8    ....    DCD    1000
    .constdata
    __ctype_table
        0x00005c74:    40404000    .@@@    DCD    1077952512
        0x00005c78:    40404040    @@@@    DCD    1077952576
        0x00005c7c:    41414040    @@AA    DCD    1094795328
        0x00005c80:    40414141    AAA@    DCD    1078018369
        0x00005c84:    40404040    @@@@    DCD    1077952576
        0x00005c88:    40404040    @@@@    DCD    1077952576
        0x00005c8c:    40404040    @@@@    DCD    1077952576
        0x00005c90:    40404040    @@@@    DCD    1077952576
        0x00005c94:    02020540    @...    DCD    33686848
        0x00005c98:    02020202    ....    DCD    33686018
        0x00005c9c:    02020202    ....    DCD    33686018
        0x00005ca0:    02020202    ....    DCD    33686018
        0x00005ca4:    20202002    .       DCD    538976258
        0x00005ca8:    20202020            DCD    538976288
        0x00005cac:    02202020       .    DCD    35659808
        0x00005cb0:    02020202    ....    DCD    33686018
        0x00005cb4:    90900202    ....    DCD    2425356802
        0x00005cb8:    90909090    ....    DCD    2425393296
        0x00005cbc:    10101010    ....    DCD    269488144
        0x00005cc0:    10101010    ....    DCD    269488144
        0x00005cc4:    10101010    ....    DCD    269488144
        0x00005cc8:    10101010    ....    DCD    269488144
        0x00005ccc:    10101010    ....    DCD    269488144
        0x00005cd0:    02020202    ....    DCD    33686018
        0x00005cd4:    88880202    ....    DCD    2290614786
        0x00005cd8:    88888888    ....    DCD    2290649224
        0x00005cdc:    08080808    ....    DCD    134744072
        0x00005ce0:    08080808    ....    DCD    134744072
        0x00005ce4:    08080808    ....    DCD    134744072
        0x00005ce8:    08080808    ....    DCD    134744072
        0x00005cec:    08080808    ....    DCD    134744072
        0x00005cf0:    02020202    ....    DCD    33686018
        0x00005cf4:    00000040    @...    DCD    64
    .constdata
    table
        0x00005cf8:    00005c75    u\..    DCD    23669
    .conststring
        0x00005cfc:    54410a0d    ..AT    DCD    1413548557
        0x00005d00:    4f46512b    +QFO    DCD    1330008363
        0x00005d04:    3d4e4550    PEN=    DCD    1028539728
        0x00005d08:    474f4c22    "LOG    DCD    1196379170
        0x00005d0c:    5458542e    .TXT    DCD    1415074862
        0x00005d10:    0d302c22    ",0.    DCD    221260834
        0x00005d14:    0000000a    ....    DCD    10
        0x00005d18:    54410a0d    ..AT    DCD    1413548557
        0x00005d1c:    5546432b    +CFU    DCD    1430668075
        0x00005d20:    2c313d4e    N=1,    DCD    741424462
        0x00005d24:    000a0d31    1...    DCD    658737
        0x00005d28:    54410a0d    ..AT    DCD    1413548557
        0x00005d2c:    4e47512b    +QGN    DCD    1313296683
        0x00005d30:    3d435353    SSC=    DCD    1027822419
        0x00005d34:    000a0d31    1...    DCD    658737
        0x00005d38:    33303137    7103    DCD    858796343
        0x00005d3c:    00000000    ....    DCD    0
        0x00005d40:    00004b4f    OK..    DCD    19279
        0x00005d44:    20454d43    CME     DCD    541412675
        0x00005d48:    4f525245    ERRO    DCD    1330795077
        0x00005d4c:    00000052    R...    DCD    82
        0x00005d50:    64616552    Read    DCD    1684104530
        0x00005d54:    00000079    y...    DCD    121
    .conststring
        0x00005d58:    54410a0d    ..AT    DCD    1413548557
        0x00005d5c:    5349512b    +QIS    DCD    1397313835
        0x00005d60:    0d444e45    END.    DCD    222580293
        0x00005d64:    0000000a    ....    DCD    10
        0x00005d68:    0000003e    >...    DCD    62
        0x00005d6c:    444e4553    SEND    DCD    1145980243
        0x00005d70:    004b4f20     OK.    DCD    4935456
    Region$$Table$$Base
        0x00005d74:    00005d94    .]..    DCD    23956
        0x00005d78:    20000000    ...     DCD    536870912
        0x00005d7c:    000000e4    ....    DCD    228
        0x00005d80:    00003b94    .;..    DCD    15252
        0x00005d84:    00005e78    x^..    DCD    24184
        0x00005d88:    200000e4    ...     DCD    536871140
        0x00005d8c:    00003b64    d;..    DCD    15204
        0x00005d90:    00003ba4    .;..    DCD    15268
    Region$$Table$$Limit

** Section #2 'ER_RW' (SHT_PROGBITS) [SHF_ALLOC + SHF_WRITE]
    Size   : 228 bytes (alignment 4)
    Address: 0x20000000


** Section #3 'ER_ZI' (SHT_NOBITS) [SHF_ALLOC + SHF_WRITE]
    Size   : 15204 bytes (alignment 8)
    Address: 0x200000e4


** Section #4 '.debug_abbrev' (SHT_PROGBITS)
    Size   : 1476 bytes


** Section #5 '.debug_frame' (SHT_PROGBITS)
    Size   : 6900 bytes


** Section #6 '.debug_info' (SHT_PROGBITS)
    Size   : 81228 bytes


** Section #7 '.debug_line' (SHT_PROGBITS)
    Size   : 26156 bytes


** Section #8 '.debug_loc' (SHT_PROGBITS)
    Size   : 16988 bytes


** Section #9 '.debug_macinfo' (SHT_PROGBITS)
    Size   : 397924 bytes


** Section #10 '.debug_pubnames' (SHT_PROGBITS)
    Size   : 8407 bytes


** Section #11 '.symtab' (SHT_SYMTAB)
    Size   : 16112 bytes (alignment 4)
    String table #12 '.strtab'
    Last local symbol no. 539


** Section #12 '.strtab' (SHT_STRTAB)
    Size   : 10556 bytes


** Section #13 '.note' (SHT_NOTE)
    Size   : 28 bytes (alignment 4)


** Section #14 '.comment' (SHT_PROGBITS)
    Size   : 26820 bytes


** Section #15 '.shstrtab' (SHT_STRTAB)
    Size   : 156 bytes


