
========================================================================

** ELF Header Information

    File Name: .\obj\UART.axf

    Machine class: ELFCLASS32 (32-bit)
    Data encoding: ELFDATA2LSB (Little endian)
    Header version: EV_CURRENT (Current version)
    Operating System ABI: none
    ABI Version: 0
    File Type: ET_EXEC (Executable) (2)
    Machine: EM_ARM (ARM)

    Image Entry point: 0x00000359
    Flags: EF_ARM_HASENTRY + EF_ARM_ABI_FLOAT_SOFT (0x05000202)

    ARM ELF revision: 5 (ABI version 2)

    Conforms to Soft float procedure-call standard

    Built with
    Component: ARM Compiler 5.06 update 4 (build 422) Tool: armasm [4d35cf]
    Component: ARM Compiler 5.06 update 1 (build 61) Tool: armasm [4d35a5]
    Component: ARM Compiler 5.06 update 4 (build 422) Tool: armlink [4d35d2]
    Component: ARM Compiler 5.06 update 1 (build 61) Tool: armlink [4d35a8]

    Header size: 52 bytes (0x34)
    Program header entry size: 32 bytes (0x20)
    Section header entry size: 40 bytes (0x28)

    Program header entries: 1
    Section header entries: 16

    Program header offset: 449424 (0x0006db90)
    Section header offset: 449456 (0x0006dbb0)

    Section header string table index: 15

========================================================================

** Program header #0 (PT_LOAD) [PF_X + PF_W + PF_R + PF_ARM_ENTRY]
    Size : 27284 bytes (11376 bytes in file)
    Virtual address: 0x00000000 (Alignment 8)


========================================================================

** Section #1 'ER_RO' (SHT_PROGBITS) [SHF_ALLOC + SHF_EXECINSTR]
    Size   : 11204 bytes (alignment 4)
    Address: 0x00000000

    $d.realdata
    RESET
    __Vectors
        0x00000000:    20003ed0    .>.     DCD    536886992
        0x00000004:    00000359    Y...    DCD    857
        0x00000008:    00000375    u...    DCD    885
        0x0000000c:    000000e5    ....    DCD    229
        0x00000010:    00000000    ....    DCD    0
        0x00000014:    00000000    ....    DCD    0
        0x00000018:    00000000    ....    DCD    0
        0x0000001c:    00000000    ....    DCD    0
        0x00000020:    00000000    ....    DCD    0
        0x00000024:    00000000    ....    DCD    0
        0x00000028:    00000000    ....    DCD    0
        0x0000002c:    00000171    q...    DCD    369
        0x00000030:    00000000    ....    DCD    0
        0x00000034:    00000000    ....    DCD    0
        0x00000038:    00000205    ....    DCD    517
        0x0000003c:    00000251    Q...    DCD    593
        0x00000040:    0000037f    ....    DCD    895
        0x00000044:    0000037f    ....    DCD    895
        0x00000048:    0000037f    ....    DCD    895
        0x0000004c:    0000037f    ....    DCD    895
        0x00000050:    0000037f    ....    DCD    895
        0x00000054:    0000037f    ....    DCD    895
        0x00000058:    0000037f    ....    DCD    895
        0x0000005c:    0000037f    ....    DCD    895
        0x00000060:    0000037f    ....    DCD    895
        0x00000064:    0000037f    ....    DCD    895
        0x00000068:    0000037f    ....    DCD    895
        0x0000006c:    0000037f    ....    DCD    895
        0x00000070:    000008bf    ....    DCD    2239
        0x00000074:    000008bd    ....    DCD    2237
        0x00000078:    0000037f    ....    DCD    895
        0x0000007c:    0000037f    ....    DCD    895
        0x00000080:    0000037f    ....    DCD    895
        0x00000084:    0000037f    ....    DCD    895
        0x00000088:    0000037f    ....    DCD    895
        0x0000008c:    0000037f    ....    DCD    895
        0x00000090:    0000037f    ....    DCD    895
        0x00000094:    0000037f    ....    DCD    895
        0x00000098:    0000037f    ....    DCD    895
        0x0000009c:    0000037f    ....    DCD    895
        0x000000a0:    00000000    ....    DCD    0
        0x000000a4:    0000037f    ....    DCD    895
        0x000000a8:    0000037f    ....    DCD    895
        0x000000ac:    0000037f    ....    DCD    895
        0x000000b0:    0000037f    ....    DCD    895
        0x000000b4:    0000037f    ....    DCD    895
        0x000000b8:    0000037f    ....    DCD    895
        0x000000bc:    0000037f    ....    DCD    895
    $t
    .ARM.Collect$$$$00000000
    .ARM.Collect$$$$00000001
    __main
    _main_stk
        0x000000c0:    4807        .H      LDR      r0,__lit__00000000 ; [0xe0] = 0x20003ed0
        0x000000c2:    4685        .F      MOV      sp,r0
    .ARM.Collect$$$$00000004
    _main_scatterload
        0x000000c4:    f001f8ca    ....    BL       __scatterload ; 0x125c
    .ARM.Collect$$$$000000FF
    .ARM.Collect$$$$00000008
    .ARM.Collect$$$$0000000A
    .ARM.Collect$$$$0000000D
    .ARM.Collect$$$$0000000F
    __main_after_scatterload
    __rt_final_cpp
    __rt_final_exit
    _main_clock
    _main_cpp_init
    _main_init
        0x000000c8:    f001fb10    ....    BL       osKernelInitialize ; 0x16ec
        0x000000cc:    2100        .!      MOVS     r1,#0
        0x000000ce:    4803        .H      LDR      r0,[pc,#12] ; [0xdc] = 0x2b94
        0x000000d0:    f001fb9a    ....    BL       osThreadCreate ; 0x1808
        0x000000d4:    f001fb1e    ....    BL       osKernelStart ; 0x1714
        0x000000d8:    e7fe        ..      B        0xd8 ; __main_after_scatterload + 16
    $d
        0x000000da:    0000        ..      DCW    0
        0x000000dc:    00002b94    .+..    DCD    11156
    .ARM.Collect$$$$00002712
    __lit__00000000
        0x000000e0:    20003ed0    .>.     DCD    536886992
    $t
    .emb_text
    HardFault_Handler
        0x000000e4:    2004        .       MOVS     r0,#4
        0x000000e6:    4671        qF      MOV      r1,lr
        0x000000e8:    4208        .B      TST      r0,r1
        0x000000ea:    d002        ..      BEQ      0xf2 ; HardFault_Handler + 14
        0x000000ec:    f3ef8009    ....    MRS      r0,PSP
        0x000000f0:    e001        ..      B        0xf6 ; HardFault_Handler + 18
        0x000000f2:    f3ef8008    ....    MRS      r0,MSP
        0x000000f6:    4671        qF      MOV      r1,lr
        0x000000f8:    4a00        .J      LDR      r2,[pc,#0] ; [0xfc] = 0xf93
        0x000000fa:    4710        .G      BX       r2
    $d
        0x000000fc:    00000f93    ....    DCD    3987
    $t
    .emb_text
    rt_set_PSP
        0x00000100:    f3808809    ....    MSR      PSP,r0
        0x00000104:    4770        pG      BX       lr
    rt_get_PSP
        0x00000106:    f3ef8009    ....    MRS      r0,PSP
        0x0000010a:    4770        pG      BX       lr
    os_set_env
        0x0000010c:    4668        hF      MOV      r0,sp
        0x0000010e:    f3808809    ....    MSR      PSP,r0
        0x00000112:    4806        .H      LDR      r0,[pc,#24] ; [0x12c] = 0x2b54
        0x00000114:    7800        .x      LDRB     r0,[r0,#0]
        0x00000116:    07c0        ..      LSLS     r0,r0,#31
        0x00000118:    d103        ..      BNE      0x122 ; os_set_env + 22
        0x0000011a:    2003        .       MOVS     r0,#3
        0x0000011c:    f3808814    ....    MSR      CONTROL,r0
        0x00000120:    4770        pG      BX       lr
        0x00000122:    2002        .       MOVS     r0,#2
        0x00000124:    f3808814    ....    MSR      CONTROL,r0
        0x00000128:    4770        pG      BX       lr
    $d
        0x0000012a:    0000        ..      DCW    0
        0x0000012c:    00002b54    T+..    DCD    11092
    $t
    _alloc_box
        0x00000130:    4b06        .K      LDR      r3,[pc,#24] ; [0x14c] = 0x1995
        0x00000132:    469c        .F      MOV      r12,r3
        0x00000134:    f3ef8305    ....    MRS      r3,IPSR
        0x00000138:    061b        ..      LSLS     r3,r3,#24
        0x0000013a:    d105        ..      BNE      0x148 ; _alloc_box + 24
        0x0000013c:    f3ef8314    ....    MRS      r3,CONTROL
        0x00000140:    07db        ..      LSLS     r3,r3,#31
        0x00000142:    d001        ..      BEQ      0x148 ; _alloc_box + 24
        0x00000144:    df00        ..      SVC      #0x0 ; formerly SWI
        0x00000146:    4770        pG      BX       lr
        0x00000148:    4760        `G      BX       r12
    $d
        0x0000014a:    0000        ..      DCW    0
        0x0000014c:    00001995    ....    DCD    6549
    $t
    _free_box
        0x00000150:    4b06        .K      LDR      r3,[pc,#24] ; [0x16c] = 0x1b81
        0x00000152:    469c        .F      MOV      r12,r3
        0x00000154:    f3ef8305    ....    MRS      r3,IPSR
        0x00000158:    061b        ..      LSLS     r3,r3,#24
        0x0000015a:    d105        ..      BNE      0x168 ; _free_box + 24
        0x0000015c:    f3ef8314    ....    MRS      r3,CONTROL
        0x00000160:    07db        ..      LSLS     r3,r3,#31
        0x00000162:    d001        ..      BEQ      0x168 ; _free_box + 24
        0x00000164:    df00        ..      SVC      #0x0 ; formerly SWI
        0x00000166:    4770        pG      BX       lr
        0x00000168:    4760        `G      BX       r12
    $d
        0x0000016a:    0000        ..      DCW    0
        0x0000016c:    00001b81    ....    DCD    7041
    $t
    SVC_Handler
        0x00000170:    f3ef8009    ....    MRS      r0,PSP
        0x00000174:    6981        .i      LDR      r1,[r0,#0x18]
        0x00000176:    1e89        ..      SUBS     r1,r1,#2
        0x00000178:    7809        .x      LDRB     r1,[r1,#0]
        0x0000017a:    2900        .)      CMP      r1,#0
        0x0000017c:    d12b        +.      BNE      0x1d6 ; SVC_Handler + 102
        0x0000017e:    46a6        .F      MOV      lr,r4
        0x00000180:    c81f        ..      LDM      r0,{r0-r4}
        0x00000182:    46a4        .F      MOV      r12,r4
        0x00000184:    4674        tF      MOV      r4,lr
        0x00000186:    47e0        .G      BLX      r12
        0x00000188:    f3ef8309    ....    MRS      r3,PSP
        0x0000018c:    c307        ..      STM      r3!,{r0-r2}
        0x0000018e:    4b1a        .K      LDR      r3,[pc,#104] ; [0x1f8] = 0x20000090
        0x00000190:    cb06        ..      LDM      r3!,{r1,r2}
        0x00000192:    4291        .B      CMP      r1,r2
        0x00000194:    d01c        ..      BEQ      0x1d0 ; SVC_Handler + 96
        0x00000196:    3b08        .;      SUBS     r3,r3,#8
        0x00000198:    2900        .)      CMP      r1,#0
        0x0000019a:    d00d        ..      BEQ      0x1b8 ; SVC_Handler + 72
        0x0000019c:    f3ef8009    ....    MRS      r0,PSP
        0x000001a0:    3820         8      SUBS     r0,r0,#0x20
        0x000001a2:    6288        .b      STR      r0,[r1,#0x28]
        0x000001a4:    c0f0        ..      STM      r0!,{r4-r7}
        0x000001a6:    4644        DF      MOV      r4,r8
        0x000001a8:    464d        MF      MOV      r5,r9
        0x000001aa:    4656        VF      MOV      r6,r10
        0x000001ac:    465f        _F      MOV      r7,r11
        0x000001ae:    c0f0        ..      STM      r0!,{r4-r7}
        0x000001b0:    b40c        ..      PUSH     {r2,r3}
        0x000001b2:    f002f86f    ..o.    BL       rt_stk_check ; 0x2294
        0x000001b6:    bc0c        ..      POP      {r2,r3}
        0x000001b8:    601a        .`      STR      r2,[r3,#0]
        0x000001ba:    6a90        .j      LDR      r0,[r2,#0x28]
        0x000001bc:    3010        .0      ADDS     r0,r0,#0x10
        0x000001be:    c8f0        ..      LDM      r0!,{r4-r7}
        0x000001c0:    46a0        .F      MOV      r8,r4
        0x000001c2:    46a9        .F      MOV      r9,r5
        0x000001c4:    46b2        .F      MOV      r10,r6
        0x000001c6:    46bb        .F      MOV      r11,r7
        0x000001c8:    f3808809    ....    MSR      PSP,r0
        0x000001cc:    3820         8      SUBS     r0,r0,#0x20
        0x000001ce:    c8f0        ..      LDM      r0!,{r4-r7}
        0x000001d0:    2002        .       MOVS     r0,#2
        0x000001d2:    43c0        .C      MVNS     r0,r0
        0x000001d4:    4700        .G      BX       r0
        0x000001d6:    b510        ..      PUSH     {r4,lr}
        0x000001d8:    4a08        .J      LDR      r2,[pc,#32] ; [0x1fc] = 0x1280
        0x000001da:    6812        .h      LDR      r2,[r2,#0]
        0x000001dc:    4291        .B      CMP      r1,r2
        0x000001de:    d809        ..      BHI      0x1f4 ; SVC_Handler + 132
        0x000001e0:    4c07        .L      LDR      r4,[pc,#28] ; [0x200] = 0x1280
        0x000001e2:    0089        ..      LSLS     r1,r1,#2
        0x000001e4:    5864        dX      LDR      r4,[r4,r1]
        0x000001e6:    46a6        .F      MOV      lr,r4
        0x000001e8:    c81f        ..      LDM      r0,{r0-r4}
        0x000001ea:    46a4        .F      MOV      r12,r4
        0x000001ec:    47f0        .G      BLX      lr
        0x000001ee:    f3ef8409    ....    MRS      r4,PSP
        0x000001f2:    c40f        ..      STM      r4!,{r0-r3}
        0x000001f4:    bd10        ..      POP      {r4,pc}
    $d
        0x000001f6:    0000        ..      DCW    0
        0x000001f8:    20000090    ...     DCD    536871056
        0x000001fc:    00001280    ....    DCD    4736
        0x00000200:    00001280    ....    DCD    4736
    $t
    PendSV_Handler
        0x00000204:    f001ff26    ..&.    BL       rt_pop_req ; 0x2054
        0x00000208:    4b10        .K      LDR      r3,[pc,#64] ; [0x24c] = 0x20000090
        0x0000020a:    cb06        ..      LDM      r3!,{r1,r2}
        0x0000020c:    4291        .B      CMP      r1,r2
        0x0000020e:    d01a        ..      BEQ      0x246 ; PendSV_Handler + 66
        0x00000210:    3b08        .;      SUBS     r3,r3,#8
        0x00000212:    f3ef8009    ....    MRS      r0,PSP
        0x00000216:    3820         8      SUBS     r0,r0,#0x20
        0x00000218:    6288        .b      STR      r0,[r1,#0x28]
        0x0000021a:    c0f0        ..      STM      r0!,{r4-r7}
        0x0000021c:    4644        DF      MOV      r4,r8
        0x0000021e:    464d        MF      MOV      r5,r9
        0x00000220:    4656        VF      MOV      r6,r10
        0x00000222:    465f        _F      MOV      r7,r11
        0x00000224:    c0f0        ..      STM      r0!,{r4-r7}
        0x00000226:    b40c        ..      PUSH     {r2,r3}
        0x00000228:    f002f834    ..4.    BL       rt_stk_check ; 0x2294
        0x0000022c:    bc0c        ..      POP      {r2,r3}
        0x0000022e:    601a        .`      STR      r2,[r3,#0]
        0x00000230:    6a90        .j      LDR      r0,[r2,#0x28]
        0x00000232:    3010        .0      ADDS     r0,r0,#0x10
        0x00000234:    c8f0        ..      LDM      r0!,{r4-r7}
        0x00000236:    46a0        .F      MOV      r8,r4
        0x00000238:    46a9        .F      MOV      r9,r5
        0x0000023a:    46b2        .F      MOV      r10,r6
        0x0000023c:    46bb        .F      MOV      r11,r7
        0x0000023e:    f3808809    ....    MSR      PSP,r0
        0x00000242:    3820         8      SUBS     r0,r0,#0x20
        0x00000244:    c8f0        ..      LDM      r0!,{r4-r7}
        0x00000246:    2002        .       MOVS     r0,#2
        0x00000248:    43c0        .C      MVNS     r0,r0
        0x0000024a:    4700        .G      BX       r0
    $d
        0x0000024c:    20000090    ...     DCD    536871056
    $t
    SysTick_Handler
        0x00000250:    f002f8d2    ....    BL       rt_systick ; 0x23f8
        0x00000254:    e7d8        ..      B        0x208 ; PendSV_Handler + 4
    $d
        0x00000256:    0000        ..      DCW    0
    $t
    OS_Tick_Handler
        0x00000258:    f001fb58    ..X.    BL       os_tick_irqack ; 0x190c
        0x0000025c:    f002f8cc    ....    BL       rt_systick ; 0x23f8
        0x00000260:    e7d2        ..      B        0x208 ; PendSV_Handler + 4
    $d
        0x00000262:    0000        ..      DCW    0
    $t
    .text
    SysGet_PLLClockFreq
        0x00000264:    b5fe        ..      PUSH     {r1-r7,lr}
        0x00000266:    2000        .       MOVS     r0,#0
        0x00000268:    9002        ..      STR      r0,[sp,#8]
        0x0000026a:    4835        5H      LDR      r0,[pc,#212] ; [0x340] = 0x50000200
        0x0000026c:    6a45        Ej      LDR      r5,[r0,#0x24]
        0x0000026e:    01c0        ..      LSLS     r0,r0,#7
        0x00000270:    4028        (@      ANDS     r0,r0,r5
        0x00000272:    2800        .(      CMP      r0,#0
        0x00000274:    d001        ..      BEQ      0x27a ; SysGet_PLLClockFreq + 22
        0x00000276:    2000        .       MOVS     r0,#0
        0x00000278:    bdfe        ..      POP      {r1-r7,pc}
        0x0000027a:    2001        .       MOVS     r0,#1
        0x0000027c:    0440        @.      LSLS     r0,r0,#17
        0x0000027e:    4028        (@      ANDS     r0,r0,r5
        0x00000280:    2800        .(      CMP      r0,#0
        0x00000282:    d001        ..      BEQ      0x288 ; SysGet_PLLClockFreq + 36
        0x00000284:    4f2f        /O      LDR      r7,[pc,#188] ; [0x344] = 0xb71b00
        0x00000286:    e000        ..      B        0x28a ; SysGet_PLLClockFreq + 38
        0x00000288:    4f2e        .O      LDR      r7,[pc,#184] ; [0x344] = 0xb71b00
        0x0000028a:    2001        .       MOVS     r0,#1
        0x0000028c:    0300        ..      LSLS     r0,r0,#12
        0x0000028e:    4028        (@      ANDS     r0,r0,r5
        0x00000290:    2800        .(      CMP      r0,#0
        0x00000292:    d001        ..      BEQ      0x298 ; SysGet_PLLClockFreq + 52
        0x00000294:    2002        .       MOVS     r0,#2
        0x00000296:    e000        ..      B        0x29a ; SysGet_PLLClockFreq + 54
        0x00000298:    2001        .       MOVS     r0,#1
        0x0000029a:    9001        ..      STR      r0,[sp,#4]
        0x0000029c:    2003        .       MOVS     r0,#3
        0x0000029e:    0200        ..      LSLS     r0,r0,#8
        0x000002a0:    4028        (@      ANDS     r0,r0,r5
        0x000002a2:    0a06        ..      LSRS     r6,r0,#8
        0x000002a4:    2e00        ..      CMP      r6,#0
        0x000002a6:    d101        ..      BNE      0x2ac ; SysGet_PLLClockFreq + 72
        0x000002a8:    2402        .$      MOVS     r4,#2
        0x000002aa:    e008        ..      B        0x2be ; SysGet_PLLClockFreq + 90
        0x000002ac:    2e01        ..      CMP      r6,#1
        0x000002ae:    d101        ..      BNE      0x2b4 ; SysGet_PLLClockFreq + 80
        0x000002b0:    2404        .$      MOVS     r4,#4
        0x000002b2:    e004        ..      B        0x2be ; SysGet_PLLClockFreq + 90
        0x000002b4:    2e02        ..      CMP      r6,#2
        0x000002b6:    d101        ..      BNE      0x2bc ; SysGet_PLLClockFreq + 88
        0x000002b8:    2408        .$      MOVS     r4,#8
        0x000002ba:    e000        ..      B        0x2be ; SysGet_PLLClockFreq + 90
        0x000002bc:    2410        .$      MOVS     r4,#0x10
        0x000002be:    06a9        ..      LSLS     r1,r5,#26
        0x000002c0:    0e89        ..      LSRS     r1,r1,#26
        0x000002c2:    3120         1      ADDS     r1,r1,#0x20
        0x000002c4:    4379        yC      MULS     r1,r7,r1
        0x000002c6:    4608        .F      MOV      r0,r1
        0x000002c8:    4621        !F      MOV      r1,r4
        0x000002ca:    f000ff13    ....    BL       __aeabi_uidiv ; 0x10f4
        0x000002ce:    9000        ..      STR      r0,[sp,#0]
        0x000002d0:    9901        ..      LDR      r1,[sp,#4]
        0x000002d2:    f000ff0f    ....    BL       __aeabi_uidiv ; 0x10f4
        0x000002d6:    9002        ..      STR      r0,[sp,#8]
        0x000002d8:    9802        ..      LDR      r0,[sp,#8]
        0x000002da:    e7cd        ..      B        0x278 ; SysGet_PLLClockFreq + 20
    SysGet_HCLKFreq
        0x000002dc:    b570        p.      PUSH     {r4-r6,lr}
        0x000002de:    4818        .H      LDR      r0,[pc,#96] ; [0x340] = 0x50000200
        0x000002e0:    6900        .i      LDR      r0,[r0,#0x10]
        0x000002e2:    0745        E.      LSLS     r5,r0,#29
        0x000002e4:    0f6d        m.      LSRS     r5,r5,#29
        0x000002e6:    2d00        .-      CMP      r5,#0
        0x000002e8:    d101        ..      BNE      0x2ee ; SysGet_HCLKFreq + 18
        0x000002ea:    4c16        .L      LDR      r4,[pc,#88] ; [0x344] = 0xb71b00
        0x000002ec:    e00e        ..      B        0x30c ; SysGet_HCLKFreq + 48
        0x000002ee:    2d01        .-      CMP      r5,#1
        0x000002f0:    d101        ..      BNE      0x2f6 ; SysGet_HCLKFreq + 26
        0x000002f2:    03ec        ..      LSLS     r4,r5,#15
        0x000002f4:    e00a        ..      B        0x30c ; SysGet_HCLKFreq + 48
        0x000002f6:    2d02        .-      CMP      r5,#2
        0x000002f8:    d103        ..      BNE      0x302 ; SysGet_HCLKFreq + 38
        0x000002fa:    f7ffffb3    ....    BL       SysGet_PLLClockFreq ; 0x264
        0x000002fe:    4604        .F      MOV      r4,r0
        0x00000300:    e004        ..      B        0x30c ; SysGet_HCLKFreq + 48
        0x00000302:    2d03        .-      CMP      r5,#3
        0x00000304:    d101        ..      BNE      0x30a ; SysGet_HCLKFreq + 46
        0x00000306:    4c10        .L      LDR      r4,[pc,#64] ; [0x348] = 0x2710
        0x00000308:    e000        ..      B        0x30c ; SysGet_HCLKFreq + 48
        0x0000030a:    4c0e        .L      LDR      r4,[pc,#56] ; [0x344] = 0xb71b00
        0x0000030c:    480c        .H      LDR      r0,[pc,#48] ; [0x340] = 0x50000200
        0x0000030e:    69c0        .i      LDR      r0,[r0,#0x1c]
        0x00000310:    0700        ..      LSLS     r0,r0,#28
        0x00000312:    0f00        ..      LSRS     r0,r0,#28
        0x00000314:    1c46        F.      ADDS     r6,r0,#1
        0x00000316:    4631        1F      MOV      r1,r6
        0x00000318:    4620         F      MOV      r0,r4
        0x0000031a:    f000feeb    ....    BL       __aeabi_uidiv ; 0x10f4
        0x0000031e:    bd70        p.      POP      {r4-r6,pc}
    SystemCoreClockUpdate
        0x00000320:    b510        ..      PUSH     {r4,lr}
        0x00000322:    f7ffffdb    ....    BL       SysGet_HCLKFreq ; 0x2dc
        0x00000326:    4909        .I      LDR      r1,[pc,#36] ; [0x34c] = 0x20000000
        0x00000328:    6008        .`      STR      r0,[r1,#0]
        0x0000032a:    4909        .I      LDR      r1,[pc,#36] ; [0x350] = 0xf4240
        0x0000032c:    4807        .H      LDR      r0,[pc,#28] ; [0x34c] = 0x20000000
        0x0000032e:    6800        .h      LDR      r0,[r0,#0]
        0x00000330:    104a        J.      ASRS     r2,r1,#1
        0x00000332:    1880        ..      ADDS     r0,r0,r2
        0x00000334:    f000fede    ....    BL       __aeabi_uidiv ; 0x10f4
        0x00000338:    4906        .I      LDR      r1,[pc,#24] ; [0x354] = 0x20000004
        0x0000033a:    6008        .`      STR      r0,[r1,#0]
        0x0000033c:    bd10        ..      POP      {r4,pc}
    $d
        0x0000033e:    0000        ..      DCW    0
        0x00000340:    50000200    ...P    DCD    1342177792
        0x00000344:    00b71b00    ....    DCD    12000000
        0x00000348:    00002710    .'..    DCD    10000
        0x0000034c:    20000000    ...     DCD    536870912
        0x00000350:    000f4240    @B..    DCD    1000000
        0x00000354:    20000004    ...     DCD    536870916
    $t
    .text
    Reset_Handler
        0x00000358:    4809        .H      LDR      r0,[pc,#36] ; [0x380] = 0x50000100
        0x0000035a:    490a        .I      LDR      r1,[pc,#40] ; [0x384] = 0x59
        0x0000035c:    6001        .`      STR      r1,[r0,#0]
        0x0000035e:    490a        .I      LDR      r1,[pc,#40] ; [0x388] = 0x16
        0x00000360:    6001        .`      STR      r1,[r0,#0]
        0x00000362:    490a        .I      LDR      r1,[pc,#40] ; [0x38c] = 0x88
        0x00000364:    6001        .`      STR      r1,[r0,#0]
        0x00000366:    4a0a        .J      LDR      r2,[pc,#40] ; [0x390] = 0x50000060
        0x00000368:    490a        .I      LDR      r1,[pc,#40] ; [0x394] = 0x5aa5
        0x0000036a:    6011        .`      STR      r1,[r2,#0]
        0x0000036c:    2100        .!      MOVS     r1,#0
        0x0000036e:    6001        .`      STR      r1,[r0,#0]
        0x00000370:    4809        .H      LDR      r0,[pc,#36] ; [0x398] = 0xc1
        0x00000372:    4700        .G      BX       r0
    NMI_Handler
        0x00000374:    e7fe        ..      B        NMI_Handler ; 0x374
        0x00000376:    e7fe        ..      B        0x376 ; NMI_Handler + 2
        0x00000378:    e7fe        ..      B        0x378 ; NMI_Handler + 4
        0x0000037a:    e7fe        ..      B        0x37a ; NMI_Handler + 6
        0x0000037c:    e7fe        ..      B        0x37c ; NMI_Handler + 8
    ADC_IRQHandler
    BOD_IRQHandler
    DAC_IRQHandler
    EINT0_IRQHandler
    EINT1_IRQHandler
    GPABC_IRQHandler
    GPDEF_IRQHandler
    HIRC_IRQHandler
    I2C0_IRQHandler
    I2C1_IRQHandler
    I2S_IRQHandler
    LCD_IRQHandler
    PDMA_IRQHandler
    PDWU_IRQHandler
    PWM0_IRQHandler
    PWM1_IRQHandler
    RTC_IRQHandler
    SC0_IRQHandler
    SC1_IRQHandler
    SC2_IRQHandler
    SPI0_IRQHandler
    SPI1_IRQHandler
    SPI2_IRQHandler
    TMR0_IRQHandler
    TMR1_IRQHandler
    TMR2_IRQHandler
    TMR3_IRQHandler
    USBD_IRQHandler
    WDT_IRQHandler
        0x0000037e:    e7fe        ..      B        ADC_IRQHandler ; 0x37e
    $d
        0x00000380:    50000100    ...P    DCD    1342177536
        0x00000384:    00000059    Y...    DCD    89
        0x00000388:    00000016    ....    DCD    22
        0x0000038c:    00000088    ....    DCD    136
        0x00000390:    50000060    `..P    DCD    1342177376
        0x00000394:    00005aa5    .Z..    DCD    23205
        0x00000398:    000000c1    ....    DCD    193
    $t
    .text
    remove_all_chars
        0x0000039c:    b530        0.      PUSH     {r4,r5,lr}
        0x0000039e:    4603        .F      MOV      r3,r0
        0x000003a0:    460c        .F      MOV      r4,r1
        0x000003a2:    4619        .F      MOV      r1,r3
        0x000003a4:    4618        .F      MOV      r0,r3
        0x000003a6:    e015        ..      B        0x3d4 ; remove_all_chars + 56
        0x000003a8:    780d        .x      LDRB     r5,[r1,#0]
        0x000003aa:    7005        .p      STRB     r5,[r0,#0]
        0x000003ac:    1c49        I.      ADDS     r1,r1,#1
        0x000003ae:    7805        .x      LDRB     r5,[r0,#0]
        0x000003b0:    42a5        .B      CMP      r5,r4
        0x000003b2:    d00d        ..      BEQ      0x3d0 ; remove_all_chars + 52
        0x000003b4:    7805        .x      LDRB     r5,[r0,#0]
        0x000003b6:    4295        .B      CMP      r5,r2
        0x000003b8:    d00a        ..      BEQ      0x3d0 ; remove_all_chars + 52
        0x000003ba:    7805        .x      LDRB     r5,[r0,#0]
        0x000003bc:    2d20         -      CMP      r5,#0x20
        0x000003be:    d007        ..      BEQ      0x3d0 ; remove_all_chars + 52
        0x000003c0:    7805        .x      LDRB     r5,[r0,#0]
        0x000003c2:    2d2f        /-      CMP      r5,#0x2f
        0x000003c4:    d004        ..      BEQ      0x3d0 ; remove_all_chars + 52
        0x000003c6:    7805        .x      LDRB     r5,[r0,#0]
        0x000003c8:    2d3a        :-      CMP      r5,#0x3a
        0x000003ca:    d001        ..      BEQ      0x3d0 ; remove_all_chars + 52
        0x000003cc:    2501        .%      MOVS     r5,#1
        0x000003ce:    e000        ..      B        0x3d2 ; remove_all_chars + 54
        0x000003d0:    2500        .%      MOVS     r5,#0
        0x000003d2:    1828        (.      ADDS     r0,r5,r0
        0x000003d4:    780d        .x      LDRB     r5,[r1,#0]
        0x000003d6:    2d00        .-      CMP      r5,#0
        0x000003d8:    d1e6        ..      BNE      0x3a8 ; remove_all_chars + 12
        0x000003da:    7005        .p      STRB     r5,[r0,#0]
        0x000003dc:    bd30        0.      POP      {r4,r5,pc}
    Init_Thread
        0x000003de:    b510        ..      PUSH     {r4,lr}
        0x000003e0:    2100        .!      MOVS     r1,#0
        0x000003e2:    4860        `H      LDR      r0,[pc,#384] ; [0x564] = 0x2ad0
        0x000003e4:    f001fa10    ....    BL       osThreadCreate ; 0x1808
        0x000003e8:    495f        _I      LDR      r1,[pc,#380] ; [0x568] = 0x20000008
        0x000003ea:    6008        .`      STR      r0,[r1,#0]
        0x000003ec:    4608        .F      MOV      r0,r1
        0x000003ee:    6800        .h      LDR      r0,[r0,#0]
        0x000003f0:    2800        .(      CMP      r0,#0
        0x000003f2:    d101        ..      BNE      0x3f8 ; Init_Thread + 26
        0x000003f4:    1e40        @.      SUBS     r0,r0,#1
        0x000003f6:    bd10        ..      POP      {r4,pc}
        0x000003f8:    2100        .!      MOVS     r1,#0
        0x000003fa:    485c        \H      LDR      r0,[pc,#368] ; [0x56c] = 0x2ae0
        0x000003fc:    f001fa04    ....    BL       osThreadCreate ; 0x1808
        0x00000400:    495b        [I      LDR      r1,[pc,#364] ; [0x570] = 0x2000000c
        0x00000402:    6008        .`      STR      r0,[r1,#0]
        0x00000404:    4858        XH      LDR      r0,[pc,#352] ; [0x568] = 0x20000008
        0x00000406:    6800        .h      LDR      r0,[r0,#0]
        0x00000408:    2800        .(      CMP      r0,#0
        0x0000040a:    d101        ..      BNE      0x410 ; Init_Thread + 50
        0x0000040c:    1e40        @.      SUBS     r0,r0,#1
        0x0000040e:    e7f2        ..      B        0x3f6 ; Init_Thread + 24
        0x00000410:    2000        .       MOVS     r0,#0
        0x00000412:    e7f0        ..      B        0x3f6 ; Init_Thread + 24
    Thread
        0x00000414:    b508        ..      PUSH     {r3,lr}
        0x00000416:    e00a        ..      B        0x42e ; Thread + 26
        0x00000418:    200a        .       MOVS     r0,#0xa
        0x0000041a:    a356        V.      ADR      r3,{pc}+0x15a ; 0x574
        0x0000041c:    a257        W.      ADR      r2,{pc}+0x160 ; 0x57c
        0x0000041e:    a158        X.      ADR      r1,{pc}+0x162 ; 0x580
        0x00000420:    9000        ..      STR      r0,[sp,#0]
        0x00000422:    a05a        Z.      ADR      r0,{pc}+0x16a ; 0x58c
        0x00000424:    f000fbe6    ....    BL       SendAT_GPS ; 0xbf4
        0x00000428:    485f        _H      LDR      r0,[pc,#380] ; [0x5a8] = 0x1388
        0x0000042a:    f001f951    ..Q.    BL       osDelay ; 0x16d0
        0x0000042e:    e7f3        ..      B        0x418 ; Thread + 4
    Thread1
        0x00000430:    b51c        ..      PUSH     {r2-r4,lr}
        0x00000432:    e096        ..      B        0x562 ; Thread1 + 306
        0x00000434:    2001        .       MOVS     r0,#1
        0x00000436:    a34f        O.      ADR      r3,{pc}+0x13e ; 0x574
        0x00000438:    a250        P.      ADR      r2,{pc}+0x144 ; 0x57c
        0x0000043a:    a15c        \.      ADR      r1,{pc}+0x172 ; 0x5ac
        0x0000043c:    9000        ..      STR      r0,[sp,#0]
        0x0000043e:    a05d        ].      ADR      r0,{pc}+0x176 ; 0x5b4
        0x00000440:    f000fa62    ..b.    BL       SendAT ; 0x908
        0x00000444:    2005        .       MOVS     r0,#5
        0x00000446:    a35f        _.      ADR      r3,{pc}+0x17e ; 0x5c4
        0x00000448:    a24a        J.      ADR      r2,{pc}+0x12c ; 0x574
        0x0000044a:    a14c        L.      ADR      r1,{pc}+0x132 ; 0x57c
        0x0000044c:    9000        ..      STR      r0,[sp,#0]
        0x0000044e:    a05f        _.      ADR      r0,{pc}+0x17e ; 0x5cc
        0x00000450:    f000fa5a    ..Z.    BL       SendAT ; 0x908
        0x00000454:    2005        .       MOVS     r0,#5
        0x00000456:    a347        G.      ADR      r3,{pc}+0x11e ; 0x574
        0x00000458:    a248        H.      ADR      r2,{pc}+0x124 ; 0x57c
        0x0000045a:    a154        T.      ADR      r1,{pc}+0x152 ; 0x5ac
        0x0000045c:    9000        ..      STR      r0,[sp,#0]
        0x0000045e:    a05f        _.      ADR      r0,{pc}+0x17e ; 0x5dc
        0x00000460:    f000fa52    ..R.    BL       SendAT ; 0x908
        0x00000464:    2005        .       MOVS     r0,#5
        0x00000466:    a343        C.      ADR      r3,{pc}+0x10e ; 0x574
        0x00000468:    a244        D.      ADR      r2,{pc}+0x114 ; 0x57c
        0x0000046a:    a150        P.      ADR      r1,{pc}+0x142 ; 0x5ac
        0x0000046c:    9000        ..      STR      r0,[sp,#0]
        0x0000046e:    a061        a.      ADR      r0,{pc}+0x186 ; 0x5f4
        0x00000470:    f000fa4a    ..J.    BL       SendAT ; 0x908
        0x00000474:    207d        }       MOVS     r0,#0x7d
        0x00000476:    0100        ..      LSLS     r0,r0,#4
        0x00000478:    f001f92a    ..*.    BL       osDelay ; 0x16d0
        0x0000047c:    2002        .       MOVS     r0,#2
        0x0000047e:    a33d        =.      ADR      r3,{pc}+0xf6 ; 0x574
        0x00000480:    a23e        >.      ADR      r2,{pc}+0xfc ; 0x57c
        0x00000482:    a14a        J.      ADR      r1,{pc}+0x12a ; 0x5ac
        0x00000484:    9000        ..      STR      r0,[sp,#0]
        0x00000486:    a05f        _.      ADR      r0,{pc}+0x17e ; 0x604
        0x00000488:    f000fa3e    ..>.    BL       SendAT ; 0x908
        0x0000048c:    200a        .       MOVS     r0,#0xa
        0x0000048e:    a339        9.      ADR      r3,{pc}+0xe6 ; 0x574
        0x00000490:    a23a        :.      ADR      r2,{pc}+0xec ; 0x57c
        0x00000492:    a146        F.      ADR      r1,{pc}+0x11a ; 0x5ac
        0x00000494:    9000        ..      STR      r0,[sp,#0]
        0x00000496:    a05f        _.      ADR      r0,{pc}+0x17e ; 0x614
        0x00000498:    f000fa36    ..6.    BL       SendAT ; 0x908
        0x0000049c:    2002        .       MOVS     r0,#2
        0x0000049e:    a335        5.      ADR      r3,{pc}+0xd6 ; 0x574
        0x000004a0:    a236        6.      ADR      r2,{pc}+0xdc ; 0x57c
        0x000004a2:    a142        B.      ADR      r1,{pc}+0x10a ; 0x5ac
        0x000004a4:    9000        ..      STR      r0,[sp,#0]
        0x000004a6:    a05f        _.      ADR      r0,{pc}+0x17e ; 0x624
        0x000004a8:    f000fa2e    ....    BL       SendAT ; 0x908
        0x000004ac:    200a        .       MOVS     r0,#0xa
        0x000004ae:    a331        1.      ADR      r3,{pc}+0xc6 ; 0x574
        0x000004b0:    a232        2.      ADR      r2,{pc}+0xcc ; 0x57c
        0x000004b2:    a13e        >.      ADR      r1,{pc}+0xfa ; 0x5ac
        0x000004b4:    9000        ..      STR      r0,[sp,#0]
        0x000004b6:    a057        W.      ADR      r0,{pc}+0x15e ; 0x614
        0x000004b8:    f000fa26    ..&.    BL       SendAT ; 0x908
        0x000004bc:    200a        .       MOVS     r0,#0xa
        0x000004be:    a32d        -.      ADR      r3,{pc}+0xb6 ; 0x574
        0x000004c0:    a22e        ..      ADR      r2,{pc}+0xbc ; 0x57c
        0x000004c2:    a13a        :.      ADR      r1,{pc}+0xea ; 0x5ac
        0x000004c4:    9000        ..      STR      r0,[sp,#0]
        0x000004c6:    a05b        [.      ADR      r0,{pc}+0x16e ; 0x634
        0x000004c8:    f000fa1e    ....    BL       SendAT ; 0x908
        0x000004cc:    200a        .       MOVS     r0,#0xa
        0x000004ce:    a35c        \.      ADR      r3,{pc}+0x172 ; 0x640
        0x000004d0:    a228        (.      ADR      r2,{pc}+0xa4 ; 0x574
        0x000004d2:    a15d        ].      ADR      r1,{pc}+0x176 ; 0x648
        0x000004d4:    9000        ..      STR      r0,[sp,#0]
        0x000004d6:    a060        `.      ADR      r0,{pc}+0x182 ; 0x658
        0x000004d8:    f000fa16    ....    BL       SendAT ; 0x908
        0x000004dc:    2000        .       MOVS     r0,#0
        0x000004de:    4969        iI      LDR      r1,[pc,#420] ; [0x684] = 0x20000064
        0x000004e0:    6008        .`      STR      r0,[r1,#0]
        0x000004e2:    200a        .       MOVS     r0,#0xa
        0x000004e4:    a168        h.      ADR      r1,{pc}+0x1a4 ; 0x688
        0x000004e6:    a323        #.      ADR      r3,{pc}+0x8e ; 0x574
        0x000004e8:    a269        i.      ADR      r2,{pc}+0x1a8 ; 0x690
        0x000004ea:    9100        ..      STR      r1,[sp,#0]
        0x000004ec:    9001        ..      STR      r0,[sp,#4]
        0x000004ee:    4969        iI      LDR      r1,[pc,#420] ; [0x694] = 0x2000010c
        0x000004f0:    a069        i.      ADR      r0,{pc}+0x1a8 ; 0x698
        0x000004f2:    f000fa5f    .._.    BL       TCP_Send ; 0x9b4
        0x000004f6:    4863        cH      LDR      r0,[pc,#396] ; [0x684] = 0x20000064
        0x000004f8:    6800        .h      LDR      r0,[r0,#0]
        0x000004fa:    2801        .(      CMP      r0,#1
        0x000004fc:    d12d        -.      BNE      0x55a ; Thread1 + 298
        0x000004fe:    200a        .       MOVS     r0,#0xa
        0x00000500:    a34f        O.      ADR      r3,{pc}+0x140 ; 0x640
        0x00000502:    a21c        ..      ADR      r2,{pc}+0x72 ; 0x574
        0x00000504:    a168        h.      ADR      r1,{pc}+0x1a4 ; 0x6a8
        0x00000506:    9000        ..      STR      r0,[sp,#0]
        0x00000508:    a06a        j.      ADR      r0,{pc}+0x1ac ; 0x6b4
        0x0000050a:    f000f9fd    ....    BL       SendAT ; 0x908
        0x0000050e:    2005        .       MOVS     r0,#5
        0x00000510:    a318        ..      ADR      r3,{pc}+0x64 ; 0x574
        0x00000512:    a26c        l.      ADR      r2,{pc}+0x1b2 ; 0x6c4
        0x00000514:    a119        ..      ADR      r1,{pc}+0x68 ; 0x57c
        0x00000516:    9000        ..      STR      r0,[sp,#0]
        0x00000518:    a06e        n.      ADR      r0,{pc}+0x1bc ; 0x6d4
        0x0000051a:    f000f9f5    ....    BL       SendAT ; 0x908
        0x0000051e:    2005        .       MOVS     r0,#5
        0x00000520:    a314        ..      ADR      r3,{pc}+0x54 ; 0x574
        0x00000522:    a268        h.      ADR      r2,{pc}+0x1a2 ; 0x6c4
        0x00000524:    a16f        o.      ADR      r1,{pc}+0x1c0 ; 0x6e4
        0x00000526:    9000        ..      STR      r0,[sp,#0]
        0x00000528:    a071        q.      ADR      r0,{pc}+0x1c8 ; 0x6f0
        0x0000052a:    f000f9ed    ....    BL       SendAT ; 0x908
        0x0000052e:    2064        d       MOVS     r0,#0x64
        0x00000530:    2100        .!      MOVS     r1,#0
        0x00000532:    e006        ..      B        0x542 ; Thread1 + 274
        0x00000534:    2200        ."      MOVS     r2,#0
        0x00000536:    e000        ..      B        0x53a ; Thread1 + 266
        0x00000538:    1c52        R.      ADDS     r2,r2,#1
        0x0000053a:    4b71        qK      LDR      r3,[pc,#452] ; [0x700] = 0xffff
        0x0000053c:    429a        .B      CMP      r2,r3
        0x0000053e:    dbfb        ..      BLT      0x538 ; Thread1 + 264
        0x00000540:    1c49        I.      ADDS     r1,r1,#1
        0x00000542:    4281        .B      CMP      r1,r0
        0x00000544:    dbf6        ..      BLT      0x534 ; Thread1 + 260
        0x00000546:    bf00        ..      NOP      
        0x00000548:    200a        .       MOVS     r0,#0xa
        0x0000054a:    a30a        ..      ADR      r3,{pc}+0x2a ; 0x574
        0x0000054c:    a20b        ..      ADR      r2,{pc}+0x30 ; 0x57c
        0x0000054e:    a117        ..      ADR      r1,{pc}+0x5e ; 0x5ac
        0x00000550:    9000        ..      STR      r0,[sp,#0]
        0x00000552:    a018        ..      ADR      r0,{pc}+0x62 ; 0x5b4
        0x00000554:    f000f9d8    ....    BL       SendAT ; 0x908
        0x00000558:    e003        ..      B        0x562 ; Thread1 + 306
        0x0000055a:    207d        }       MOVS     r0,#0x7d
        0x0000055c:    0200        ..      LSLS     r0,r0,#8
        0x0000055e:    f001f8b7    ....    BL       osDelay ; 0x16d0
        0x00000562:    e767        g.      B        0x434 ; Thread1 + 4
    $d
        0x00000564:    00002ad0    .*..    DCD    10960
        0x00000568:    20000008    ...     DCD    536870920
        0x0000056c:    00002ae0    .*..    DCD    10976
        0x00000570:    2000000c    ...     DCD    536870924
        0x00000574:    4f525245    ERRO    DCD    1330795077
        0x00000578:    00000052    R...    DCD    82
        0x0000057c:    00004b4f    OK..    DCD    19279
        0x00000580:    50474d2b    +MGP    DCD    1346850091
        0x00000584:    41545353    SSTA    DCD    1096045395
        0x00000588:    00535554    TUS.    DCD    5461332
        0x0000058c:    54410a0d    ..AT    DCD    1413548557
        0x00000590:    4e47512b    +QGN    DCD    1313296683
        0x00000594:    44525353    SSRD    DCD    1146245971
        0x00000598:    4d4e223d    ="NM    DCD    1296966205
        0x0000059c:    522f4145    EA/R    DCD    1378828613
        0x000005a0:    0d22434d    MC".    DCD    220349261
        0x000005a4:    0000000a    ....    DCD    10
        0x000005a8:    00001388    ....    DCD    5000
        0x000005ac:    64616552    Read    DCD    1684104530
        0x000005b0:    00000079    y...    DCD    121
        0x000005b4:    54410a0d    ..AT    DCD    1413548557
        0x000005b8:    4149512b    +QIA    DCD    1095323947
        0x000005bc:    0a0d5443    CT..    DCD    168645699
        0x000005c0:    00000000    ....    DCD    0
        0x000005c4:    33303137    7103    DCD    858796343
        0x000005c8:    00000000    ....    DCD    0
        0x000005cc:    54410a0d    ..AT    DCD    1413548557
        0x000005d0:    4e47512b    +QGN    DCD    1313296683
        0x000005d4:    3d435353    SSC=    DCD    1027822419
        0x000005d8:    000a0d31    1...    DCD    658737
        0x000005dc:    54410a0d    ..AT    DCD    1413548557
        0x000005e0:    5249512b    +QIR    DCD    1380536619
        0x000005e4:    50414745    EGAP    DCD    1346455365
        0x000005e8:    69223d50    P="i    DCD    1763851600
        0x000005ec:    65666173    safe    DCD    1701208435
        0x000005f0:    000a0d22    "...    DCD    658722
        0x000005f4:    54410a0d    ..AT    DCD    1413548557
        0x000005f8:    4353512b    +QSC    DCD    1129533739
        0x000005fc:    313d4b4c    LK=1    DCD    826100556
        0x00000600:    00000a0d    ....    DCD    2573
        0x00000604:    54410a0d    ..AT    DCD    1413548557
        0x00000608:    5249512b    +QIR    DCD    1380536619
        0x0000060c:    50414745    EGAP    DCD    1346455365
        0x00000610:    000a0d50    P...    DCD    658768
        0x00000614:    54410a0d    ..AT    DCD    1413548557
        0x00000618:    5349512b    +QIS    DCD    1397313835
        0x0000061c:    0d544154    TAT.    DCD    223625556
        0x00000620:    0000000a    ....    DCD    10
        0x00000624:    54410a0d    ..AT    DCD    1413548557
        0x00000628:    4c49512b    +QIL    DCD    1279873323
        0x0000062c:    5049434f    OCIP    DCD    1346978639
        0x00000630:    00000a0d    ....    DCD    2573
        0x00000634:    54410a0d    ..AT    DCD    1413548557
        0x00000638:    5153432b    +CSQ    DCD    1364411179
        0x0000063c:    00000a0d    ....    DCD    2573
        0x00000640:    4c494146    FAIL    DCD    1279869254
        0x00000644:    00000000    ....    DCD    0
        0x00000648:    4e4e4f43    CONN    DCD    1313754947
        0x0000064c:    20544345    ECT     DCD    542393157
        0x00000650:    0a0d4b4f    OK..    DCD    168643407
        0x00000654:    00000000    ....    DCD    0
        0x00000658:    54410a0d    ..AT    DCD    1413548557
        0x0000065c:    4f49512b    +QIO    DCD    1330204971
        0x00000660:    3d4e4550    PEN=    DCD    1028539728
        0x00000664:    50435422    "TCP    DCD    1346589730
        0x00000668:    31222c22    ","1    DCD    824323106
        0x0000066c:    322e3430    04.2    DCD    841888816
        0x00000670:    322e3633    36.2    DCD    841889331
        0x00000674:    342e3330    03.4    DCD    875442992
        0x00000678:    35222c22    ","5    DCD    891431970
        0x0000067c:    22363535    556"    DCD    573977909
        0x00000680:    00000a0d    ....    DCD    2573
        0x00000684:    20000064    d..     DCD    536871012
        0x00000688:    444e4553    SEND    DCD    1145980243
        0x0000068c:    004b4f20     OK.    DCD    4935456
        0x00000690:    0000003e    >...    DCD    62
        0x00000694:    2000010c    ...     DCD    536871180
        0x00000698:    54410a0d    ..AT    DCD    1413548557
        0x0000069c:    5349512b    +QIS    DCD    1397313835
        0x000006a0:    0d444e45    END.    DCD    222580293
        0x000006a4:    0000000a    ....    DCD    10
        0x000006a8:    534f4c43    CLOS    DCD    1397705795
        0x000006ac:    4b4f2045    E OK    DCD    1263476805
        0x000006b0:    00000a0d    ....    DCD    2573
        0x000006b4:    54410a0d    ..AT    DCD    1413548557
        0x000006b8:    4349512b    +QIC    DCD    1128878379
        0x000006bc:    45534f4c    LOSE    DCD    1163087692
        0x000006c0:    00000a0d    ....    DCD    2573
        0x000006c4:    20544f4e    NOT     DCD    542396238
        0x000006c8:    45534e49    INSE    DCD    1163087433
        0x000006cc:    44455452    RTED    DCD    1145394258
        0x000006d0:    00000000    ....    DCD    0
        0x000006d4:    54410a0d    ..AT    DCD    1413548557
        0x000006d8:    5546432b    +CFU    DCD    1430668075
        0x000006dc:    0d303d4e    N=0.    DCD    221265230
        0x000006e0:    0000000a    ....    DCD    10
        0x000006e4:    20534d53    SMS     DCD    542330195
        0x000006e8:    64616552    Read    DCD    1684104530
        0x000006ec:    00000079    y...    DCD    121
        0x000006f0:    54410a0d    ..AT    DCD    1413548557
        0x000006f4:    5546432b    +CFU    DCD    1430668075
        0x000006f8:    0d313d4e    N=1.    DCD    221330766
        0x000006fc:    0000000a    ....    DCD    10
        0x00000700:    0000ffff    ....    DCD    65535
    $t
    .text
    Timer1_Callback
        0x00000704:    4770        pG      BX       lr
    Timer2_Callback
        0x00000706:    4919        .I      LDR      r1,[pc,#100] ; [0x76c] = 0x2000003c
        0x00000708:    6809        .h      LDR      r1,[r1,#0]
        0x0000070a:    1c49        I.      ADDS     r1,r1,#1
        0x0000070c:    4a17        .J      LDR      r2,[pc,#92] ; [0x76c] = 0x2000003c
        0x0000070e:    6011        .`      STR      r1,[r2,#0]
        0x00000710:    4770        pG      BX       lr
    Init_Timers
        0x00000712:    b510        ..      PUSH     {r4,lr}
        0x00000714:    2001        .       MOVS     r0,#1
        0x00000716:    4916        .I      LDR      r1,[pc,#88] ; [0x770] = 0x20000014
        0x00000718:    6008        .`      STR      r0,[r1,#0]
        0x0000071a:    460a        .F      MOV      r2,r1
        0x0000071c:    2100        .!      MOVS     r1,#0
        0x0000071e:    4815        .H      LDR      r0,[pc,#84] ; [0x774] = 0x2af0
        0x00000720:    f001f8a0    ....    BL       osTimerCreate ; 0x1864
        0x00000724:    4914        .I      LDR      r1,[pc,#80] ; [0x778] = 0x20000010
        0x00000726:    6008        .`      STR      r0,[r1,#0]
        0x00000728:    4608        .F      MOV      r0,r1
        0x0000072a:    6800        .h      LDR      r0,[r0,#0]
        0x0000072c:    2800        .(      CMP      r0,#0
        0x0000072e:    d006        ..      BEQ      0x73e ; Init_Timers + 44
        0x00000730:    2164        d!      MOVS     r1,#0x64
        0x00000732:    4811        .H      LDR      r0,[pc,#68] ; [0x778] = 0x20000010
        0x00000734:    6800        .h      LDR      r0,[r0,#0]
        0x00000736:    f001f8af    ....    BL       osTimerStart ; 0x1898
        0x0000073a:    4604        .F      MOV      r4,r0
        0x0000073c:    bf00        ..      NOP      
        0x0000073e:    2002        .       MOVS     r0,#2
        0x00000740:    490e        .I      LDR      r1,[pc,#56] ; [0x77c] = 0x2000001c
        0x00000742:    6008        .`      STR      r0,[r1,#0]
        0x00000744:    460a        .F      MOV      r2,r1
        0x00000746:    2101        .!      MOVS     r1,#1
        0x00000748:    480d        .H      LDR      r0,[pc,#52] ; [0x780] = 0x2af8
        0x0000074a:    f001f88b    ....    BL       osTimerCreate ; 0x1864
        0x0000074e:    490d        .I      LDR      r1,[pc,#52] ; [0x784] = 0x20000018
        0x00000750:    6008        .`      STR      r0,[r1,#0]
        0x00000752:    4608        .F      MOV      r0,r1
        0x00000754:    6800        .h      LDR      r0,[r0,#0]
        0x00000756:    2800        .(      CMP      r0,#0
        0x00000758:    d007        ..      BEQ      0x76a ; Init_Timers + 88
        0x0000075a:    217d        }!      MOVS     r1,#0x7d
        0x0000075c:    00c9        ..      LSLS     r1,r1,#3
        0x0000075e:    4809        .H      LDR      r0,[pc,#36] ; [0x784] = 0x20000018
        0x00000760:    6800        .h      LDR      r0,[r0,#0]
        0x00000762:    f001f899    ....    BL       osTimerStart ; 0x1898
        0x00000766:    4604        .F      MOV      r4,r0
        0x00000768:    bf00        ..      NOP      
        0x0000076a:    bd10        ..      POP      {r4,pc}
    $d
        0x0000076c:    2000003c    <..     DCD    536870972
        0x00000770:    20000014    ...     DCD    536870932
        0x00000774:    00002af0    .*..    DCD    10992
        0x00000778:    20000010    ...     DCD    536870928
        0x0000077c:    2000001c    ...     DCD    536870940
        0x00000780:    00002af8    .*..    DCD    11000
        0x00000784:    20000018    ...     DCD    536870936
    $t
    .text
    SYS_Init
        0x00000788:    b510        ..      PUSH     {r4,lr}
        0x0000078a:    bf00        ..      NOP      
        0x0000078c:    e006        ..      B        0x79c ; SYS_Init + 20
        0x0000078e:    2059        Y       MOVS     r0,#0x59
        0x00000790:    49f7        .I      LDR      r1,[pc,#988] ; [0xb70] = 0x50000100
        0x00000792:    6008        .`      STR      r0,[r1,#0]
        0x00000794:    2016        .       MOVS     r0,#0x16
        0x00000796:    6008        .`      STR      r0,[r1,#0]
        0x00000798:    2088        .       MOVS     r0,#0x88
        0x0000079a:    6008        .`      STR      r0,[r1,#0]
        0x0000079c:    48f4        .H      LDR      r0,[pc,#976] ; [0xb70] = 0x50000100
        0x0000079e:    6800        .h      LDR      r0,[r0,#0]
        0x000007a0:    2801        .(      CMP      r0,#1
        0x000007a2:    d1f4        ..      BNE      0x78e ; SYS_Init + 6
        0x000007a4:    bf00        ..      NOP      
        0x000007a6:    48f3        .H      LDR      r0,[pc,#972] ; [0xb74] = 0x50000200
        0x000007a8:    6800        .h      LDR      r0,[r0,#0]
        0x000007aa:    2101        .!      MOVS     r1,#1
        0x000007ac:    4308        .C      ORRS     r0,r0,r1
        0x000007ae:    49f1        .I      LDR      r1,[pc,#964] ; [0xb74] = 0x50000200
        0x000007b0:    6008        .`      STR      r0,[r1,#0]
        0x000007b2:    2001        .       MOVS     r0,#1
        0x000007b4:    f000fb4e    ..N.    BL       CLK_WaitClockReady ; 0xe54
        0x000007b8:    48ee        .H      LDR      r0,[pc,#952] ; [0xb74] = 0x50000200
        0x000007ba:    6900        .i      LDR      r0,[r0,#0x10]
        0x000007bc:    08c0        ..      LSRS     r0,r0,#3
        0x000007be:    00c0        ..      LSLS     r0,r0,#3
        0x000007c0:    49ec        .I      LDR      r1,[pc,#944] ; [0xb74] = 0x50000200
        0x000007c2:    6108        .a      STR      r0,[r1,#0x10]
        0x000007c4:    4608        .F      MOV      r0,r1
        0x000007c6:    6900        .i      LDR      r0,[r0,#0x10]
        0x000007c8:    6108        .a      STR      r0,[r1,#0x10]
        0x000007ca:    4608        .F      MOV      r0,r1
        0x000007cc:    6880        .h      LDR      r0,[r0,#8]
        0x000007ce:    01c9        ..      LSLS     r1,r1,#7
        0x000007d0:    4308        .C      ORRS     r0,r0,r1
        0x000007d2:    49e8        .I      LDR      r1,[pc,#928] ; [0xb74] = 0x50000200
        0x000007d4:    6088        .`      STR      r0,[r1,#8]
        0x000007d6:    4608        .F      MOV      r0,r1
        0x000007d8:    6880        .h      LDR      r0,[r0,#8]
        0x000007da:    0209        ..      LSLS     r1,r1,#8
        0x000007dc:    4308        .C      ORRS     r0,r0,r1
        0x000007de:    49e5        .I      LDR      r1,[pc,#916] ; [0xb74] = 0x50000200
        0x000007e0:    6088        .`      STR      r0,[r1,#8]
        0x000007e2:    4608        .F      MOV      r0,r1
        0x000007e4:    6940        @i      LDR      r0,[r0,#0x14]
        0x000007e6:    0880        ..      LSRS     r0,r0,#2
        0x000007e8:    0080        ..      LSLS     r0,r0,#2
        0x000007ea:    6148        Ha      STR      r0,[r1,#0x14]
        0x000007ec:    4608        .F      MOV      r0,r1
        0x000007ee:    6940        @i      LDR      r0,[r0,#0x14]
        0x000007f0:    6148        Ha      STR      r0,[r1,#0x14]
        0x000007f2:    f7fffd95    ....    BL       SystemCoreClockUpdate ; 0x320
        0x000007f6:    2005        .       MOVS     r0,#5
        0x000007f8:    0700        ..      LSLS     r0,r0,#28
        0x000007fa:    6b80        .k      LDR      r0,[r0,#0x38]
        0x000007fc:    2177        w!      MOVS     r1,#0x77
        0x000007fe:    4388        .C      BICS     r0,r0,r1
        0x00000800:    2105        .!      MOVS     r1,#5
        0x00000802:    0709        ..      LSLS     r1,r1,#28
        0x00000804:    6388        .c      STR      r0,[r1,#0x38]
        0x00000806:    4608        .F      MOV      r0,r1
        0x00000808:    6b80        .k      LDR      r0,[r0,#0x38]
        0x0000080a:    2111        .!      MOVS     r1,#0x11
        0x0000080c:    4308        .C      ORRS     r0,r0,r1
        0x0000080e:    2105        .!      MOVS     r1,#5
        0x00000810:    0709        ..      LSLS     r1,r1,#28
        0x00000812:    6388        .c      STR      r0,[r1,#0x38]
        0x00000814:    4608        .F      MOV      r0,r1
        0x00000816:    6b80        .k      LDR      r0,[r0,#0x38]
        0x00000818:    2177        w!      MOVS     r1,#0x77
        0x0000081a:    0409        ..      LSLS     r1,r1,#16
        0x0000081c:    4388        .C      BICS     r0,r0,r1
        0x0000081e:    2105        .!      MOVS     r1,#5
        0x00000820:    0709        ..      LSLS     r1,r1,#28
        0x00000822:    6388        .c      STR      r0,[r1,#0x38]
        0x00000824:    4608        .F      MOV      r0,r1
        0x00000826:    6b80        .k      LDR      r0,[r0,#0x38]
        0x00000828:    2111        .!      MOVS     r1,#0x11
        0x0000082a:    0409        ..      LSLS     r1,r1,#16
        0x0000082c:    4308        .C      ORRS     r0,r0,r1
        0x0000082e:    2105        .!      MOVS     r1,#5
        0x00000830:    0709        ..      LSLS     r1,r1,#28
        0x00000832:    6388        .c      STR      r0,[r1,#0x38]
        0x00000834:    bf00        ..      NOP      
        0x00000836:    2000        .       MOVS     r0,#0
        0x00000838:    49cd        .I      LDR      r1,[pc,#820] ; [0xb70] = 0x50000100
        0x0000083a:    6008        .`      STR      r0,[r1,#0]
        0x0000083c:    bf00        ..      NOP      
        0x0000083e:    bd10        ..      POP      {r4,pc}
    UART0_Init
        0x00000840:    b510        ..      PUSH     {r4,lr}
        0x00000842:    21e1        .!      MOVS     r1,#0xe1
        0x00000844:    0249        I.      LSLS     r1,r1,#9
        0x00000846:    48cc        .H      LDR      r0,[pc,#816] ; [0xb78] = 0x40050000
        0x00000848:    f000fb30    ..0.    BL       UART_Open ; 0xeac
        0x0000084c:    48ca        .H      LDR      r0,[pc,#808] ; [0xb78] = 0x40050000
        0x0000084e:    68c0        .h      LDR      r0,[r0,#0xc]
        0x00000850:    2101        .!      MOVS     r1,#1
        0x00000852:    4308        .C      ORRS     r0,r0,r1
        0x00000854:    49c8        .I      LDR      r1,[pc,#800] ; [0xb78] = 0x40050000
        0x00000856:    60c8        .`      STR      r0,[r1,#0xc]
        0x00000858:    200c        .       MOVS     r0,#0xc
        0x0000085a:    2101        .!      MOVS     r1,#1
        0x0000085c:    4081        .@      LSLS     r1,r1,r0
        0x0000085e:    4ac7        .J      LDR      r2,[pc,#796] ; [0xb7c] = 0xe000e100
        0x00000860:    6011        .`      STR      r1,[r2,#0]
        0x00000862:    bf00        ..      NOP      
        0x00000864:    bd10        ..      POP      {r4,pc}
    UART1_Init
        0x00000866:    b510        ..      PUSH     {r4,lr}
        0x00000868:    21e1        .!      MOVS     r1,#0xe1
        0x0000086a:    0249        I.      LSLS     r1,r1,#9
        0x0000086c:    48c4        .H      LDR      r0,[pc,#784] ; [0xb80] = 0x40150000
        0x0000086e:    f000fb1d    ....    BL       UART_Open ; 0xeac
        0x00000872:    bd10        ..      POP      {r4,pc}
    main
        0x00000874:    f7ffff88    ....    BL       SYS_Init ; 0x788
        0x00000878:    2201        ."      MOVS     r2,#1
        0x0000087a:    2104        .!      MOVS     r1,#4
        0x0000087c:    48c1        .H      LDR      r0,[pc,#772] ; [0xb84] = 0x50004040
        0x0000087e:    f000fafd    ....    BL       GPIO_SetMode ; 0xe7c
        0x00000882:    f7ffffdd    ....    BL       UART0_Init ; 0x840
        0x00000886:    f7ffffee    ....    BL       UART1_Init ; 0x866
        0x0000088a:    f7ffff42    ..B.    BL       Init_Timers ; 0x712
        0x0000088e:    f000ff2d    ..-.    BL       osKernelInitialize ; 0x16ec
        0x00000892:    48bd        .H      LDR      r0,[pc,#756] ; [0xb88] = 0x2b00
        0x00000894:    f000ff82    ....    BL       osMutexCreate ; 0x179c
        0x00000898:    49bc        .I      LDR      r1,[pc,#752] ; [0xb8c] = 0x20000020
        0x0000089a:    6008        .`      STR      r0,[r1,#0]
        0x0000089c:    48bc        .H      LDR      r0,[pc,#752] ; [0xb90] = 0x2b04
        0x0000089e:    f000ff7d    ..}.    BL       osMutexCreate ; 0x179c
        0x000008a2:    49bc        .I      LDR      r1,[pc,#752] ; [0xb94] = 0x20000024
        0x000008a4:    6008        .`      STR      r0,[r1,#0]
        0x000008a6:    48bc        .H      LDR      r0,[pc,#752] ; [0xb98] = 0x2b08
        0x000008a8:    f000ff78    ..x.    BL       osMutexCreate ; 0x179c
        0x000008ac:    49bb        .I      LDR      r1,[pc,#748] ; [0xb9c] = 0x20000028
        0x000008ae:    6008        .`      STR      r0,[r1,#0]
        0x000008b0:    f7fffd95    ....    BL       Init_Thread ; 0x3de
        0x000008b4:    f000ff2e    ....    BL       osKernelStart ; 0x1714
        0x000008b8:    bf00        ..      NOP      
        0x000008ba:    e7fe        ..      B        0x8ba ; main + 70
    UART1_IRQHandler
        0x000008bc:    4770        pG      BX       lr
    UART0_IRQHandler
        0x000008be:    e00a        ..      B        0x8d6 ; UART0_IRQHandler + 24
        0x000008c0:    48ad        .H      LDR      r0,[pc,#692] ; [0xb78] = 0x40050000
        0x000008c2:    6800        .h      LDR      r0,[r0,#0]
        0x000008c4:    49b6        .I      LDR      r1,[pc,#728] ; [0xba0] = 0x20000df0
        0x000008c6:    4ab7        .J      LDR      r2,[pc,#732] ; [0xba4] = 0x20000034
        0x000008c8:    6812        .h      LDR      r2,[r2,#0]
        0x000008ca:    5488        .T      STRB     r0,[r1,r2]
        0x000008cc:    48b5        .H      LDR      r0,[pc,#724] ; [0xba4] = 0x20000034
        0x000008ce:    6800        .h      LDR      r0,[r0,#0]
        0x000008d0:    1c40        @.      ADDS     r0,r0,#1
        0x000008d2:    49b4        .I      LDR      r1,[pc,#720] ; [0xba4] = 0x20000034
        0x000008d4:    6008        .`      STR      r0,[r1,#0]
        0x000008d6:    48a8        .H      LDR      r0,[pc,#672] ; [0xb78] = 0x40050000
        0x000008d8:    6980        .i      LDR      r0,[r0,#0x18]
        0x000008da:    2102        .!      MOVS     r1,#2
        0x000008dc:    4008        .@      ANDS     r0,r0,r1
        0x000008de:    2800        .(      CMP      r0,#0
        0x000008e0:    d0ee        ..      BEQ      0x8c0 ; UART0_IRQHandler + 2
        0x000008e2:    4770        pG      BX       lr
    clear
        0x000008e4:    48a4        .H      LDR      r0,[pc,#656] ; [0xb78] = 0x40050000
        0x000008e6:    6980        .i      LDR      r0,[r0,#0x18]
        0x000008e8:    2102        .!      MOVS     r1,#2
        0x000008ea:    4008        .@      ANDS     r0,r0,r1
        0x000008ec:    2800        .(      CMP      r0,#0
        0x000008ee:    d10a        ..      BNE      0x906 ; clear + 34
        0x000008f0:    48a1        .H      LDR      r0,[pc,#644] ; [0xb78] = 0x40050000
        0x000008f2:    6800        .h      LDR      r0,[r0,#0]
        0x000008f4:    49aa        .I      LDR      r1,[pc,#680] ; [0xba0] = 0x20000df0
        0x000008f6:    4aab        .J      LDR      r2,[pc,#684] ; [0xba4] = 0x20000034
        0x000008f8:    6812        .h      LDR      r2,[r2,#0]
        0x000008fa:    5488        .T      STRB     r0,[r1,r2]
        0x000008fc:    48a9        .H      LDR      r0,[pc,#676] ; [0xba4] = 0x20000034
        0x000008fe:    6800        .h      LDR      r0,[r0,#0]
        0x00000900:    1c40        @.      ADDS     r0,r0,#1
        0x00000902:    49a8        .I      LDR      r1,[pc,#672] ; [0xba4] = 0x20000034
        0x00000904:    6008        .`      STR      r0,[r1,#0]
        0x00000906:    4770        pG      BX       lr
    SendAT
        0x00000908:    b5ff        ..      PUSH     {r0-r7,lr}
        0x0000090a:    b081        ..      SUB      sp,sp,#4
        0x0000090c:    4606        .F      MOV      r6,r0
        0x0000090e:    4614        .F      MOV      r4,r2
        0x00000910:    461d        .F      MOV      r5,r3
        0x00000912:    9f0a        ..      LDR      r7,[sp,#0x28]
        0x00000914:    2100        .!      MOVS     r1,#0
        0x00000916:    43c9        .C      MVNS     r1,r1
        0x00000918:    489c        .H      LDR      r0,[pc,#624] ; [0xb8c] = 0x20000020
        0x0000091a:    6800        .h      LDR      r0,[r0,#0]
        0x0000091c:    f000ff66    ..f.    BL       osMutexWait ; 0x17ec
        0x00000920:    2000        .       MOVS     r0,#0
        0x00000922:    49a1        .I      LDR      r1,[pc,#644] ; [0xba8] = 0x2000003c
        0x00000924:    6008        .`      STR      r0,[r1,#0]
        0x00000926:    49a1        .I      LDR      r1,[pc,#644] ; [0xbac] = 0x50004240
        0x00000928:    6088        .`      STR      r0,[r1,#8]
        0x0000092a:    49a1        .I      LDR      r1,[pc,#644] ; [0xbb0] = 0x20000044
        0x0000092c:    6008        .`      STR      r0,[r1,#0]
        0x0000092e:    49a1        .I      LDR      r1,[pc,#644] ; [0xbb4] = 0x20000048
        0x00000930:    6008        .`      STR      r0,[r1,#0]
        0x00000932:    49a1        .I      LDR      r1,[pc,#644] ; [0xbb8] = 0x2000004c
        0x00000934:    6008        .`      STR      r0,[r1,#0]
        0x00000936:    499b        .I      LDR      r1,[pc,#620] ; [0xba4] = 0x20000034
        0x00000938:    6008        .`      STR      r0,[r1,#0]
        0x0000093a:    2119        .!      MOVS     r1,#0x19
        0x0000093c:    0149        I.      LSLS     r1,r1,#5
        0x0000093e:    4898        .H      LDR      r0,[pc,#608] ; [0xba0] = 0x20000df0
        0x00000940:    f000fc39    ..9.    BL       __aeabi_memclr ; 0x11b6
        0x00000944:    211a        .!      MOVS     r1,#0x1a
        0x00000946:    a09d        ..      ADR      r0,{pc}+0x276 ; 0xbbc
        0x00000948:    f000fc9c    ....    BL       __0printf$5 ; 0x1284
        0x0000094c:    f7ffffca    ....    BL       clear ; 0x8e4
        0x00000950:    4630        0F      MOV      r0,r6
        0x00000952:    f000fc97    ....    BL       __0printf$5 ; 0x1284
        0x00000956:    bf00        ..      NOP      
        0x00000958:    4891        .H      LDR      r0,[pc,#580] ; [0xba0] = 0x20000df0
        0x0000095a:    9902        ..      LDR      r1,[sp,#8]
        0x0000095c:    f000fc42    ..B.    BL       strstr ; 0x11e4
        0x00000960:    4993        .I      LDR      r1,[pc,#588] ; [0xbb0] = 0x20000044
        0x00000962:    6008        .`      STR      r0,[r1,#0]
        0x00000964:    4621        !F      MOV      r1,r4
        0x00000966:    488e        .H      LDR      r0,[pc,#568] ; [0xba0] = 0x20000df0
        0x00000968:    f000fc3c    ..<.    BL       strstr ; 0x11e4
        0x0000096c:    4991        .I      LDR      r1,[pc,#580] ; [0xbb4] = 0x20000048
        0x0000096e:    6008        .`      STR      r0,[r1,#0]
        0x00000970:    4629        )F      MOV      r1,r5
        0x00000972:    488b        .H      LDR      r0,[pc,#556] ; [0xba0] = 0x20000df0
        0x00000974:    f000fc36    ..6.    BL       strstr ; 0x11e4
        0x00000978:    498f        .I      LDR      r1,[pc,#572] ; [0xbb8] = 0x2000004c
        0x0000097a:    6008        .`      STR      r0,[r1,#0]
        0x0000097c:    488c        .H      LDR      r0,[pc,#560] ; [0xbb0] = 0x20000044
        0x0000097e:    6800        .h      LDR      r0,[r0,#0]
        0x00000980:    2800        .(      CMP      r0,#0
        0x00000982:    d10b        ..      BNE      0x99c ; SendAT + 148
        0x00000984:    488b        .H      LDR      r0,[pc,#556] ; [0xbb4] = 0x20000048
        0x00000986:    6800        .h      LDR      r0,[r0,#0]
        0x00000988:    2800        .(      CMP      r0,#0
        0x0000098a:    d107        ..      BNE      0x99c ; SendAT + 148
        0x0000098c:    4608        .F      MOV      r0,r1
        0x0000098e:    6800        .h      LDR      r0,[r0,#0]
        0x00000990:    2800        .(      CMP      r0,#0
        0x00000992:    d103        ..      BNE      0x99c ; SendAT + 148
        0x00000994:    4884        .H      LDR      r0,[pc,#528] ; [0xba8] = 0x2000003c
        0x00000996:    6800        .h      LDR      r0,[r0,#0]
        0x00000998:    42b8        .B      CMP      r0,r7
        0x0000099a:    dbdd        ..      BLT      0x958 ; SendAT + 80
        0x0000099c:    2001        .       MOVS     r0,#1
        0x0000099e:    4983        .I      LDR      r1,[pc,#524] ; [0xbac] = 0x50004240
        0x000009a0:    6088        .`      STR      r0,[r1,#8]
        0x000009a2:    487a        zH      LDR      r0,[pc,#488] ; [0xb8c] = 0x20000020
        0x000009a4:    6800        .h      LDR      r0,[r0,#0]
        0x000009a6:    f000ff13    ....    BL       osMutexRelease ; 0x17d0
        0x000009aa:    2005        .       MOVS     r0,#5
        0x000009ac:    f000fe90    ....    BL       osDelay ; 0x16d0
        0x000009b0:    b005        ..      ADD      sp,sp,#0x14
        0x000009b2:    bdf0        ..      POP      {r4-r7,pc}
    TCP_Send
        0x000009b4:    b5ff        ..      PUSH     {r0-r7,lr}
        0x000009b6:    b085        ..      SUB      sp,sp,#0x14
        0x000009b8:    460d        .F      MOV      r5,r1
        0x000009ba:    9f0f        ..      LDR      r7,[sp,#0x3c]
        0x000009bc:    2000        .       MOVS     r0,#0
        0x000009be:    9004        ..      STR      r0,[sp,#0x10]
        0x000009c0:    9003        ..      STR      r0,[sp,#0xc]
        0x000009c2:    2600        .&      MOVS     r6,#0
        0x000009c4:    2400        .$      MOVS     r4,#0
        0x000009c6:    9002        ..      STR      r0,[sp,#8]
        0x000009c8:    20c8        .       MOVS     r0,#0xc8
        0x000009ca:    9001        ..      STR      r0,[sp,#4]
        0x000009cc:    1e61        a.      SUBS     r1,r4,#1
        0x000009ce:    486f        oH      LDR      r0,[pc,#444] ; [0xb8c] = 0x20000020
        0x000009d0:    6800        .h      LDR      r0,[r0,#0]
        0x000009d2:    f000ff0b    ....    BL       osMutexWait ; 0x17ec
        0x000009d6:    1e61        a.      SUBS     r1,r4,#1
        0x000009d8:    486e        nH      LDR      r0,[pc,#440] ; [0xb94] = 0x20000024
        0x000009da:    6800        .h      LDR      r0,[r0,#0]
        0x000009dc:    f000ff06    ....    BL       osMutexWait ; 0x17ec
        0x000009e0:    2000        .       MOVS     r0,#0
        0x000009e2:    4972        rI      LDR      r1,[pc,#456] ; [0xbac] = 0x50004240
        0x000009e4:    6088        .`      STR      r0,[r1,#8]
        0x000009e6:    4970        pI      LDR      r1,[pc,#448] ; [0xba8] = 0x2000003c
        0x000009e8:    6008        .`      STR      r0,[r1,#0]
        0x000009ea:    2705        .'      MOVS     r7,#5
        0x000009ec:    4970        pI      LDR      r1,[pc,#448] ; [0xbb0] = 0x20000044
        0x000009ee:    6008        .`      STR      r0,[r1,#0]
        0x000009f0:    4970        pI      LDR      r1,[pc,#448] ; [0xbb4] = 0x20000048
        0x000009f2:    6008        .`      STR      r0,[r1,#0]
        0x000009f4:    4970        pI      LDR      r1,[pc,#448] ; [0xbb8] = 0x2000004c
        0x000009f6:    6008        .`      STR      r0,[r1,#0]
        0x000009f8:    496a        jI      LDR      r1,[pc,#424] ; [0xba4] = 0x20000034
        0x000009fa:    6008        .`      STR      r0,[r1,#0]
        0x000009fc:    211a        .!      MOVS     r1,#0x1a
        0x000009fe:    a06f        o.      ADR      r0,{pc}+0x1be ; 0xbbc
        0x00000a00:    f000fc40    ..@.    BL       __0printf$5 ; 0x1284
        0x00000a04:    4628        (F      MOV      r0,r5
        0x00000a06:    f000fc01    ....    BL       strlen ; 0x120c
        0x00000a0a:    9004        ..      STR      r0,[sp,#0x10]
        0x00000a0c:    21c8        .!      MOVS     r1,#0xc8
        0x00000a0e:    9804        ..      LDR      r0,[sp,#0x10]
        0x00000a10:    f000fb86    ....    BL       __aeabi_idiv ; 0x1120
        0x00000a14:    2900        .)      CMP      r1,#0
        0x00000a16:    d105        ..      BNE      0xa24 ; TCP_Send + 112
        0x00000a18:    21c8        .!      MOVS     r1,#0xc8
        0x00000a1a:    9804        ..      LDR      r0,[sp,#0x10]
        0x00000a1c:    f000fb80    ....    BL       __aeabi_idiv ; 0x1120
        0x00000a20:    4606        .F      MOV      r6,r0
        0x00000a22:    e004        ..      B        0xa2e ; TCP_Send + 122
        0x00000a24:    21c8        .!      MOVS     r1,#0xc8
        0x00000a26:    9804        ..      LDR      r0,[sp,#0x10]
        0x00000a28:    f000fb7a    ..z.    BL       __aeabi_idiv ; 0x1120
        0x00000a2c:    1c46        F.      ADDS     r6,r0,#1
        0x00000a2e:    9804        ..      LDR      r0,[sp,#0x10]
        0x00000a30:    2819        .(      CMP      r0,#0x19
        0x00000a32:    dd7d        }.      BLE      0xb30 ; TCP_Send + 380
        0x00000a34:    f7ffff56    ..V.    BL       clear ; 0x8e4
        0x00000a38:    2400        .$      MOVS     r4,#0
        0x00000a3a:    e096        ..      B        0xb6a ; TCP_Send + 438
        0x00000a3c:    2000        .       MOVS     r0,#0
        0x00000a3e:    4959        YI      LDR      r1,[pc,#356] ; [0xba4] = 0x20000034
        0x00000a40:    6008        .`      STR      r0,[r1,#0]
        0x00000a42:    4959        YI      LDR      r1,[pc,#356] ; [0xba8] = 0x2000003c
        0x00000a44:    6008        .`      STR      r0,[r1,#0]
        0x00000a46:    2119        .!      MOVS     r1,#0x19
        0x00000a48:    0149        I.      LSLS     r1,r1,#5
        0x00000a4a:    4855        UH      LDR      r0,[pc,#340] ; [0xba0] = 0x20000df0
        0x00000a4c:    f000fbb3    ....    BL       __aeabi_memclr ; 0x11b6
        0x00000a50:    9805        ..      LDR      r0,[sp,#0x14]
        0x00000a52:    f000fc17    ....    BL       __0printf$5 ; 0x1284
        0x00000a56:    bf00        ..      NOP      
        0x00000a58:    4851        QH      LDR      r0,[pc,#324] ; [0xba0] = 0x20000df0
        0x00000a5a:    9907        ..      LDR      r1,[sp,#0x1c]
        0x00000a5c:    f000fbc2    ....    BL       strstr ; 0x11e4
        0x00000a60:    4953        SI      LDR      r1,[pc,#332] ; [0xbb0] = 0x20000044
        0x00000a62:    6008        .`      STR      r0,[r1,#0]
        0x00000a64:    484e        NH      LDR      r0,[pc,#312] ; [0xba0] = 0x20000df0
        0x00000a66:    9908        ..      LDR      r1,[sp,#0x20]
        0x00000a68:    f000fbbc    ....    BL       strstr ; 0x11e4
        0x00000a6c:    4951        QI      LDR      r1,[pc,#324] ; [0xbb4] = 0x20000048
        0x00000a6e:    6008        .`      STR      r0,[r1,#0]
        0x00000a70:    484b        KH      LDR      r0,[pc,#300] ; [0xba0] = 0x20000df0
        0x00000a72:    990e        ..      LDR      r1,[sp,#0x38]
        0x00000a74:    f000fbb6    ....    BL       strstr ; 0x11e4
        0x00000a78:    494f        OI      LDR      r1,[pc,#316] ; [0xbb8] = 0x2000004c
        0x00000a7a:    6008        .`      STR      r0,[r1,#0]
        0x00000a7c:    484c        LH      LDR      r0,[pc,#304] ; [0xbb0] = 0x20000044
        0x00000a7e:    6800        .h      LDR      r0,[r0,#0]
        0x00000a80:    2800        .(      CMP      r0,#0
        0x00000a82:    d10b        ..      BNE      0xa9c ; TCP_Send + 232
        0x00000a84:    484b        KH      LDR      r0,[pc,#300] ; [0xbb4] = 0x20000048
        0x00000a86:    6800        .h      LDR      r0,[r0,#0]
        0x00000a88:    2800        .(      CMP      r0,#0
        0x00000a8a:    d107        ..      BNE      0xa9c ; TCP_Send + 232
        0x00000a8c:    4608        .F      MOV      r0,r1
        0x00000a8e:    6800        .h      LDR      r0,[r0,#0]
        0x00000a90:    2800        .(      CMP      r0,#0
        0x00000a92:    d103        ..      BNE      0xa9c ; TCP_Send + 232
        0x00000a94:    4844        DH      LDR      r0,[pc,#272] ; [0xba8] = 0x2000003c
        0x00000a96:    6800        .h      LDR      r0,[r0,#0]
        0x00000a98:    42b8        .B      CMP      r0,r7
        0x00000a9a:    dbdd        ..      BLT      0xa58 ; TCP_Send + 164
        0x00000a9c:    2000        .       MOVS     r0,#0
        0x00000a9e:    4942        BI      LDR      r1,[pc,#264] ; [0xba8] = 0x2000003c
        0x00000aa0:    6008        .`      STR      r0,[r1,#0]
        0x00000aa2:    4843        CH      LDR      r0,[pc,#268] ; [0xbb0] = 0x20000044
        0x00000aa4:    6800        .h      LDR      r0,[r0,#0]
        0x00000aa6:    2800        .(      CMP      r0,#0
        0x00000aa8:    d053        S.      BEQ      0xb52 ; TCP_Send + 414
        0x00000aaa:    2000        .       MOVS     r0,#0
        0x00000aac:    6008        .`      STR      r0,[r1,#0]
        0x00000aae:    2705        .'      MOVS     r7,#5
        0x00000ab0:    493f        ?I      LDR      r1,[pc,#252] ; [0xbb0] = 0x20000044
        0x00000ab2:    6008        .`      STR      r0,[r1,#0]
        0x00000ab4:    493f        ?I      LDR      r1,[pc,#252] ; [0xbb4] = 0x20000048
        0x00000ab6:    6008        .`      STR      r0,[r1,#0]
        0x00000ab8:    493f        ?I      LDR      r1,[pc,#252] ; [0xbb8] = 0x2000004c
        0x00000aba:    6008        .`      STR      r0,[r1,#0]
        0x00000abc:    4939        9I      LDR      r1,[pc,#228] ; [0xba4] = 0x20000034
        0x00000abe:    6008        .`      STR      r0,[r1,#0]
        0x00000ac0:    2119        .!      MOVS     r1,#0x19
        0x00000ac2:    0149        I.      LSLS     r1,r1,#5
        0x00000ac4:    4836        6H      LDR      r0,[pc,#216] ; [0xba0] = 0x20000df0
        0x00000ac6:    f000fb76    ..v.    BL       __aeabi_memclr ; 0x11b6
        0x00000aca:    f7ffff0b    ....    BL       clear ; 0x8e4
        0x00000ace:    1e70        p.      SUBS     r0,r6,#1
        0x00000ad0:    42a0        .B      CMP      r0,r4
        0x00000ad2:    d104        ..      BNE      0xade ; TCP_Send + 298
        0x00000ad4:    21c8        .!      MOVS     r1,#0xc8
        0x00000ad6:    9804        ..      LDR      r0,[sp,#0x10]
        0x00000ad8:    f000fb22    ..".    BL       __aeabi_idiv ; 0x1120
        0x00000adc:    9101        ..      STR      r1,[sp,#4]
        0x00000ade:    2000        .       MOVS     r0,#0
        0x00000ae0:    9002        ..      STR      r0,[sp,#8]
        0x00000ae2:    e009        ..      B        0xaf8 ; TCP_Send + 324
        0x00000ae4:    9903        ..      LDR      r1,[sp,#0xc]
        0x00000ae6:    5c68        h\      LDRB     r0,[r5,r1]
        0x00000ae8:    f000fa8a    ....    BL       SendChar ; 0x1000
        0x00000aec:    9803        ..      LDR      r0,[sp,#0xc]
        0x00000aee:    1c40        @.      ADDS     r0,r0,#1
        0x00000af0:    9003        ..      STR      r0,[sp,#0xc]
        0x00000af2:    9802        ..      LDR      r0,[sp,#8]
        0x00000af4:    1c40        @.      ADDS     r0,r0,#1
        0x00000af6:    9002        ..      STR      r0,[sp,#8]
        0x00000af8:    9901        ..      LDR      r1,[sp,#4]
        0x00000afa:    9802        ..      LDR      r0,[sp,#8]
        0x00000afc:    4288        .B      CMP      r0,r1
        0x00000afe:    dbf1        ..      BLT      0xae4 ; TCP_Send + 304
        0x00000b00:    211a        .!      MOVS     r1,#0x1a
        0x00000b02:    a02e        ..      ADR      r0,{pc}+0xba ; 0xbbc
        0x00000b04:    f000fbbe    ....    BL       __0printf$5 ; 0x1284
        0x00000b08:    bf00        ..      NOP      
        0x00000b0a:    4825        %H      LDR      r0,[pc,#148] ; [0xba0] = 0x20000df0
        0x00000b0c:    9907        ..      LDR      r1,[sp,#0x1c]
        0x00000b0e:    f000fb69    ..i.    BL       strstr ; 0x11e4
        0x00000b12:    4927        'I      LDR      r1,[pc,#156] ; [0xbb0] = 0x20000044
        0x00000b14:    6008        .`      STR      r0,[r1,#0]
        0x00000b16:    4822        "H      LDR      r0,[pc,#136] ; [0xba0] = 0x20000df0
        0x00000b18:    9908        ..      LDR      r1,[sp,#0x20]
        0x00000b1a:    f000fb63    ..c.    BL       strstr ; 0x11e4
        0x00000b1e:    4925        %I      LDR      r1,[pc,#148] ; [0xbb4] = 0x20000048
        0x00000b20:    6008        .`      STR      r0,[r1,#0]
        0x00000b22:    481f        .H      LDR      r0,[pc,#124] ; [0xba0] = 0x20000df0
        0x00000b24:    990e        ..      LDR      r1,[sp,#0x38]
        0x00000b26:    f000fb5d    ..].    BL       strstr ; 0x11e4
        0x00000b2a:    4923        #I      LDR      r1,[pc,#140] ; [0xbb8] = 0x2000004c
        0x00000b2c:    6008        .`      STR      r0,[r1,#0]
        0x00000b2e:    e000        ..      B        0xb32 ; TCP_Send + 382
        0x00000b30:    e053        S.      B        0xbda ; TCP_Send + 550
        0x00000b32:    481f        .H      LDR      r0,[pc,#124] ; [0xbb0] = 0x20000044
        0x00000b34:    6800        .h      LDR      r0,[r0,#0]
        0x00000b36:    2800        .(      CMP      r0,#0
        0x00000b38:    d10b        ..      BNE      0xb52 ; TCP_Send + 414
        0x00000b3a:    481e        .H      LDR      r0,[pc,#120] ; [0xbb4] = 0x20000048
        0x00000b3c:    6800        .h      LDR      r0,[r0,#0]
        0x00000b3e:    2800        .(      CMP      r0,#0
        0x00000b40:    d107        ..      BNE      0xb52 ; TCP_Send + 414
        0x00000b42:    4608        .F      MOV      r0,r1
        0x00000b44:    6800        .h      LDR      r0,[r0,#0]
        0x00000b46:    2800        .(      CMP      r0,#0
        0x00000b48:    d103        ..      BNE      0xb52 ; TCP_Send + 414
        0x00000b4a:    4817        .H      LDR      r0,[pc,#92] ; [0xba8] = 0x2000003c
        0x00000b4c:    6800        .h      LDR      r0,[r0,#0]
        0x00000b4e:    42b8        .B      CMP      r0,r7
        0x00000b50:    dbdb        ..      BLT      0xb0a ; TCP_Send + 342
        0x00000b52:    4819        .H      LDR      r0,[pc,#100] ; [0xbb8] = 0x2000004c
        0x00000b54:    6800        .h      LDR      r0,[r0,#0]
        0x00000b56:    2800        .(      CMP      r0,#0
        0x00000b58:    d103        ..      BNE      0xb62 ; TCP_Send + 430
        0x00000b5a:    2001        .       MOVS     r0,#1
        0x00000b5c:    4918        .I      LDR      r1,[pc,#96] ; [0xbc0] = 0x20000064
        0x00000b5e:    6008        .`      STR      r0,[r1,#0]
        0x00000b60:    e030        0.      B        0xbc4 ; TCP_Send + 528
        0x00000b62:    2000        .       MOVS     r0,#0
        0x00000b64:    4916        .I      LDR      r1,[pc,#88] ; [0xbc0] = 0x20000064
        0x00000b66:    6008        .`      STR      r0,[r1,#0]
        0x00000b68:    1c64        d.      ADDS     r4,r4,#1
        0x00000b6a:    42b4        .B      CMP      r4,r6
        0x00000b6c:    da2a        *.      BGE      0xbc4 ; TCP_Send + 528
        0x00000b6e:    e765        e.      B        0xa3c ; TCP_Send + 136
    $d
        0x00000b70:    50000100    ...P    DCD    1342177536
        0x00000b74:    50000200    ...P    DCD    1342177792
        0x00000b78:    40050000    ...@    DCD    1074069504
        0x00000b7c:    e000e100    ....    DCD    3758153984
        0x00000b80:    40150000    ...@    DCD    1075118080
        0x00000b84:    50004040    @@.P    DCD    1342193728
        0x00000b88:    00002b00    .+..    DCD    11008
        0x00000b8c:    20000020     ..     DCD    536870944
        0x00000b90:    00002b04    .+..    DCD    11012
        0x00000b94:    20000024    $..     DCD    536870948
        0x00000b98:    00002b08    .+..    DCD    11016
        0x00000b9c:    20000028    (..     DCD    536870952
        0x00000ba0:    20000df0    ...     DCD    536874480
        0x00000ba4:    20000034    4..     DCD    536870964
        0x00000ba8:    2000003c    <..     DCD    536870972
        0x00000bac:    50004240    @B.P    DCD    1342194240
        0x00000bb0:    20000044    D..     DCD    536870980
        0x00000bb4:    20000048    H..     DCD    536870984
        0x00000bb8:    2000004c    L..     DCD    536870988
        0x00000bbc:    00006325    %c..    DCD    25381
        0x00000bc0:    20000064    d..     DCD    536871012
    $t
        0x00000bc4:    bf00        ..      NOP      
        0x00000bc6:    488a        .H      LDR      r0,[pc,#552] ; [0xdf0] = 0x20000064
        0x00000bc8:    6800        .h      LDR      r0,[r0,#0]
        0x00000bca:    2800        .(      CMP      r0,#0
        0x00000bcc:    d105        ..      BNE      0xbda ; TCP_Send + 550
        0x00000bce:    42b4        .B      CMP      r4,r6
        0x00000bd0:    db03        ..      BLT      0xbda ; TCP_Send + 550
        0x00000bd2:    4988        .I      LDR      r1,[pc,#544] ; [0xdf4] = 0xce4
        0x00000bd4:    4888        .H      LDR      r0,[pc,#544] ; [0xdf8] = 0x2000010c
        0x00000bd6:    f000faee    ....    BL       __aeabi_memclr ; 0x11b6
        0x00000bda:    2001        .       MOVS     r0,#1
        0x00000bdc:    4987        .I      LDR      r1,[pc,#540] ; [0xdfc] = 0x50004240
        0x00000bde:    6088        .`      STR      r0,[r1,#8]
        0x00000be0:    4887        .H      LDR      r0,[pc,#540] ; [0xe00] = 0x20000024
        0x00000be2:    6800        .h      LDR      r0,[r0,#0]
        0x00000be4:    f000fdf4    ....    BL       osMutexRelease ; 0x17d0
        0x00000be8:    4886        .H      LDR      r0,[pc,#536] ; [0xe04] = 0x20000020
        0x00000bea:    6800        .h      LDR      r0,[r0,#0]
        0x00000bec:    f000fdf0    ....    BL       osMutexRelease ; 0x17d0
        0x00000bf0:    b009        ..      ADD      sp,sp,#0x24
        0x00000bf2:    bdf0        ..      POP      {r4-r7,pc}
    SendAT_GPS
        0x00000bf4:    b5ff        ..      PUSH     {r0-r7,lr}
        0x00000bf6:    b083        ..      SUB      sp,sp,#0xc
        0x00000bf8:    4607        .F      MOV      r7,r0
        0x00000bfa:    4614        .F      MOV      r4,r2
        0x00000bfc:    461d        .F      MOV      r5,r3
        0x00000bfe:    9e0c        ..      LDR      r6,[sp,#0x30]
        0x00000c00:    2100        .!      MOVS     r1,#0
        0x00000c02:    43c9        .C      MVNS     r1,r1
        0x00000c04:    487f        .H      LDR      r0,[pc,#508] ; [0xe04] = 0x20000020
        0x00000c06:    6800        .h      LDR      r0,[r0,#0]
        0x00000c08:    f000fdf0    ....    BL       osMutexWait ; 0x17ec
        0x00000c0c:    2000        .       MOVS     r0,#0
        0x00000c0e:    497b        {I      LDR      r1,[pc,#492] ; [0xdfc] = 0x50004240
        0x00000c10:    6088        .`      STR      r0,[r1,#8]
        0x00000c12:    207d        }       MOVS     r0,#0x7d
        0x00000c14:    00c0        ..      LSLS     r0,r0,#3
        0x00000c16:    f000fd5b    ..[.    BL       osDelay ; 0x16d0
        0x00000c1a:    2000        .       MOVS     r0,#0
        0x00000c1c:    497a        zI      LDR      r1,[pc,#488] ; [0xe08] = 0x2000003c
        0x00000c1e:    6008        .`      STR      r0,[r1,#0]
        0x00000c20:    497a        zI      LDR      r1,[pc,#488] ; [0xe0c] = 0x20000044
        0x00000c22:    6008        .`      STR      r0,[r1,#0]
        0x00000c24:    497a        zI      LDR      r1,[pc,#488] ; [0xe10] = 0x20000048
        0x00000c26:    6008        .`      STR      r0,[r1,#0]
        0x00000c28:    497a        zI      LDR      r1,[pc,#488] ; [0xe14] = 0x2000004c
        0x00000c2a:    6008        .`      STR      r0,[r1,#0]
        0x00000c2c:    497a        zI      LDR      r1,[pc,#488] ; [0xe18] = 0x20000034
        0x00000c2e:    6008        .`      STR      r0,[r1,#0]
        0x00000c30:    2119        .!      MOVS     r1,#0x19
        0x00000c32:    0149        I.      LSLS     r1,r1,#5
        0x00000c34:    4879        yH      LDR      r0,[pc,#484] ; [0xe1c] = 0x20000df0
        0x00000c36:    f000fabe    ....    BL       __aeabi_memclr ; 0x11b6
        0x00000c3a:    211a        .!      MOVS     r1,#0x1a
        0x00000c3c:    a078        x.      ADR      r0,{pc}+0x1e4 ; 0xe20
        0x00000c3e:    f000fb21    ..!.    BL       __0printf$5 ; 0x1284
        0x00000c42:    f7fffe4f    ..O.    BL       clear ; 0x8e4
        0x00000c46:    4877        wH      LDR      r0,[pc,#476] ; [0xe24] = 0x200011b8
        0x00000c48:    f000fae0    ....    BL       strlen ; 0x120c
        0x00000c4c:    2805        .(      CMP      r0,#5
        0x00000c4e:    d259        Y.      BCS      0xd04 ; SendAT_GPS + 272
        0x00000c50:    a075        u.      ADR      r0,{pc}+0x1d8 ; 0xe28
        0x00000c52:    f000fb17    ....    BL       __0printf$5 ; 0x1284
        0x00000c56:    bf00        ..      NOP      
        0x00000c58:    4870        pH      LDR      r0,[pc,#448] ; [0xe1c] = 0x20000df0
        0x00000c5a:    9904        ..      LDR      r1,[sp,#0x10]
        0x00000c5c:    f000fac2    ....    BL       strstr ; 0x11e4
        0x00000c60:    496a        jI      LDR      r1,[pc,#424] ; [0xe0c] = 0x20000044
        0x00000c62:    6008        .`      STR      r0,[r1,#0]
        0x00000c64:    4621        !F      MOV      r1,r4
        0x00000c66:    486d        mH      LDR      r0,[pc,#436] ; [0xe1c] = 0x20000df0
        0x00000c68:    f000fabc    ....    BL       strstr ; 0x11e4
        0x00000c6c:    4968        hI      LDR      r1,[pc,#416] ; [0xe10] = 0x20000048
        0x00000c6e:    6008        .`      STR      r0,[r1,#0]
        0x00000c70:    4629        )F      MOV      r1,r5
        0x00000c72:    486a        jH      LDR      r0,[pc,#424] ; [0xe1c] = 0x20000df0
        0x00000c74:    f000fab6    ....    BL       strstr ; 0x11e4
        0x00000c78:    4966        fI      LDR      r1,[pc,#408] ; [0xe14] = 0x2000004c
        0x00000c7a:    6008        .`      STR      r0,[r1,#0]
        0x00000c7c:    4863        cH      LDR      r0,[pc,#396] ; [0xe0c] = 0x20000044
        0x00000c7e:    6800        .h      LDR      r0,[r0,#0]
        0x00000c80:    2800        .(      CMP      r0,#0
        0x00000c82:    d10b        ..      BNE      0xc9c ; SendAT_GPS + 168
        0x00000c84:    4862        bH      LDR      r0,[pc,#392] ; [0xe10] = 0x20000048
        0x00000c86:    6800        .h      LDR      r0,[r0,#0]
        0x00000c88:    2800        .(      CMP      r0,#0
        0x00000c8a:    d107        ..      BNE      0xc9c ; SendAT_GPS + 168
        0x00000c8c:    4608        .F      MOV      r0,r1
        0x00000c8e:    6800        .h      LDR      r0,[r0,#0]
        0x00000c90:    2800        .(      CMP      r0,#0
        0x00000c92:    d103        ..      BNE      0xc9c ; SendAT_GPS + 168
        0x00000c94:    485c        \H      LDR      r0,[pc,#368] ; [0xe08] = 0x2000003c
        0x00000c96:    6800        .h      LDR      r0,[r0,#0]
        0x00000c98:    42b0        .B      CMP      r0,r6
        0x00000c9a:    dbdd        ..      BLT      0xc58 ; SendAT_GPS + 100
        0x00000c9c:    2119        .!      MOVS     r1,#0x19
        0x00000c9e:    4861        aH      LDR      r0,[pc,#388] ; [0xe24] = 0x200011b8
        0x00000ca0:    f000fa89    ....    BL       __aeabi_memclr ; 0x11b6
        0x00000ca4:    2000        .       MOVS     r0,#0
        0x00000ca6:    4963        cI      LDR      r1,[pc,#396] ; [0xe34] = 0x20000068
        0x00000ca8:    6008        .`      STR      r0,[r1,#0]
        0x00000caa:    4963        cI      LDR      r1,[pc,#396] ; [0xe38] = 0x2000006c
        0x00000cac:    6008        .`      STR      r0,[r1,#0]
        0x00000cae:    e01d        ..      B        0xcec ; SendAT_GPS + 248
        0x00000cb0:    485a        ZH      LDR      r0,[pc,#360] ; [0xe1c] = 0x20000df0
        0x00000cb2:    4961        aI      LDR      r1,[pc,#388] ; [0xe38] = 0x2000006c
        0x00000cb4:    6809        .h      LDR      r1,[r1,#0]
        0x00000cb6:    5c40        @\      LDRB     r0,[r0,r1]
        0x00000cb8:    282f        /(      CMP      r0,#0x2f
        0x00000cba:    dd12        ..      BLE      0xce2 ; SendAT_GPS + 238
        0x00000cbc:    4857        WH      LDR      r0,[pc,#348] ; [0xe1c] = 0x20000df0
        0x00000cbe:    495e        ^I      LDR      r1,[pc,#376] ; [0xe38] = 0x2000006c
        0x00000cc0:    6809        .h      LDR      r1,[r1,#0]
        0x00000cc2:    5c40        @\      LDRB     r0,[r0,r1]
        0x00000cc4:    283a        :(      CMP      r0,#0x3a
        0x00000cc6:    da0c        ..      BGE      0xce2 ; SendAT_GPS + 238
        0x00000cc8:    4854        TH      LDR      r0,[pc,#336] ; [0xe1c] = 0x20000df0
        0x00000cca:    495b        [I      LDR      r1,[pc,#364] ; [0xe38] = 0x2000006c
        0x00000ccc:    6809        .h      LDR      r1,[r1,#0]
        0x00000cce:    5c40        @\      LDRB     r0,[r0,r1]
        0x00000cd0:    4954        TI      LDR      r1,[pc,#336] ; [0xe24] = 0x200011b8
        0x00000cd2:    4a58        XJ      LDR      r2,[pc,#352] ; [0xe34] = 0x20000068
        0x00000cd4:    6812        .h      LDR      r2,[r2,#0]
        0x00000cd6:    5488        .T      STRB     r0,[r1,r2]
        0x00000cd8:    4856        VH      LDR      r0,[pc,#344] ; [0xe34] = 0x20000068
        0x00000cda:    6800        .h      LDR      r0,[r0,#0]
        0x00000cdc:    1c40        @.      ADDS     r0,r0,#1
        0x00000cde:    4955        UI      LDR      r1,[pc,#340] ; [0xe34] = 0x20000068
        0x00000ce0:    6008        .`      STR      r0,[r1,#0]
        0x00000ce2:    4855        UH      LDR      r0,[pc,#340] ; [0xe38] = 0x2000006c
        0x00000ce4:    6800        .h      LDR      r0,[r0,#0]
        0x00000ce6:    1c40        @.      ADDS     r0,r0,#1
        0x00000ce8:    4953        SI      LDR      r1,[pc,#332] ; [0xe38] = 0x2000006c
        0x00000cea:    6008        .`      STR      r0,[r1,#0]
        0x00000cec:    484b        KH      LDR      r0,[pc,#300] ; [0xe1c] = 0x20000df0
        0x00000cee:    f000fa8d    ....    BL       strlen ; 0x120c
        0x00000cf2:    4951        QI      LDR      r1,[pc,#324] ; [0xe38] = 0x2000006c
        0x00000cf4:    6809        .h      LDR      r1,[r1,#0]
        0x00000cf6:    4288        .B      CMP      r0,r1
        0x00000cf8:    d8da        ..      BHI      0xcb0 ; SendAT_GPS + 188
        0x00000cfa:    221a        ."      MOVS     r2,#0x1a
        0x00000cfc:    210d        .!      MOVS     r1,#0xd
        0x00000cfe:    4849        IH      LDR      r0,[pc,#292] ; [0xe24] = 0x200011b8
        0x00000d00:    f7fffb4c    ..L.    BL       remove_all_chars ; 0x39c
        0x00000d04:    2000        .       MOVS     r0,#0
        0x00000d06:    4940        @I      LDR      r1,[pc,#256] ; [0xe08] = 0x2000003c
        0x00000d08:    6008        .`      STR      r0,[r1,#0]
        0x00000d0a:    4940        @I      LDR      r1,[pc,#256] ; [0xe0c] = 0x20000044
        0x00000d0c:    6008        .`      STR      r0,[r1,#0]
        0x00000d0e:    4940        @I      LDR      r1,[pc,#256] ; [0xe10] = 0x20000048
        0x00000d10:    6008        .`      STR      r0,[r1,#0]
        0x00000d12:    4940        @I      LDR      r1,[pc,#256] ; [0xe14] = 0x2000004c
        0x00000d14:    6008        .`      STR      r0,[r1,#0]
        0x00000d16:    4940        @I      LDR      r1,[pc,#256] ; [0xe18] = 0x20000034
        0x00000d18:    6008        .`      STR      r0,[r1,#0]
        0x00000d1a:    2119        .!      MOVS     r1,#0x19
        0x00000d1c:    0149        I.      LSLS     r1,r1,#5
        0x00000d1e:    483f        ?H      LDR      r0,[pc,#252] ; [0xe1c] = 0x20000df0
        0x00000d20:    f000fa49    ..I.    BL       __aeabi_memclr ; 0x11b6
        0x00000d24:    f7fffdde    ....    BL       clear ; 0x8e4
        0x00000d28:    211a        .!      MOVS     r1,#0x1a
        0x00000d2a:    a03d        =.      ADR      r0,{pc}+0xf6 ; 0xe20
        0x00000d2c:    f000faaa    ....    BL       __0printf$5 ; 0x1284
        0x00000d30:    4638        8F      MOV      r0,r7
        0x00000d32:    f000faa7    ....    BL       __0printf$5 ; 0x1284
        0x00000d36:    bf00        ..      NOP      
        0x00000d38:    4838        8H      LDR      r0,[pc,#224] ; [0xe1c] = 0x20000df0
        0x00000d3a:    9904        ..      LDR      r1,[sp,#0x10]
        0x00000d3c:    f000fa52    ..R.    BL       strstr ; 0x11e4
        0x00000d40:    4932        2I      LDR      r1,[pc,#200] ; [0xe0c] = 0x20000044
        0x00000d42:    6008        .`      STR      r0,[r1,#0]
        0x00000d44:    4621        !F      MOV      r1,r4
        0x00000d46:    4835        5H      LDR      r0,[pc,#212] ; [0xe1c] = 0x20000df0
        0x00000d48:    f000fa4c    ..L.    BL       strstr ; 0x11e4
        0x00000d4c:    4930        0I      LDR      r1,[pc,#192] ; [0xe10] = 0x20000048
        0x00000d4e:    6008        .`      STR      r0,[r1,#0]
        0x00000d50:    4629        )F      MOV      r1,r5
        0x00000d52:    4832        2H      LDR      r0,[pc,#200] ; [0xe1c] = 0x20000df0
        0x00000d54:    f000fa46    ..F.    BL       strstr ; 0x11e4
        0x00000d58:    492e        .I      LDR      r1,[pc,#184] ; [0xe14] = 0x2000004c
        0x00000d5a:    6008        .`      STR      r0,[r1,#0]
        0x00000d5c:    482b        +H      LDR      r0,[pc,#172] ; [0xe0c] = 0x20000044
        0x00000d5e:    6800        .h      LDR      r0,[r0,#0]
        0x00000d60:    2800        .(      CMP      r0,#0
        0x00000d62:    d10b        ..      BNE      0xd7c ; SendAT_GPS + 392
        0x00000d64:    482a        *H      LDR      r0,[pc,#168] ; [0xe10] = 0x20000048
        0x00000d66:    6800        .h      LDR      r0,[r0,#0]
        0x00000d68:    2800        .(      CMP      r0,#0
        0x00000d6a:    d107        ..      BNE      0xd7c ; SendAT_GPS + 392
        0x00000d6c:    4608        .F      MOV      r0,r1
        0x00000d6e:    6800        .h      LDR      r0,[r0,#0]
        0x00000d70:    2800        .(      CMP      r0,#0
        0x00000d72:    d103        ..      BNE      0xd7c ; SendAT_GPS + 392
        0x00000d74:    4824        $H      LDR      r0,[pc,#144] ; [0xe08] = 0x2000003c
        0x00000d76:    6800        .h      LDR      r0,[r0,#0]
        0x00000d78:    42b0        .B      CMP      r0,r6
        0x00000d7a:    dbdd        ..      BLT      0xd38 ; SendAT_GPS + 324
        0x00000d7c:    a12f        /.      ADR      r1,{pc}+0xc0 ; 0xe3c
        0x00000d7e:    4827        'H      LDR      r0,[pc,#156] ; [0xe1c] = 0x20000df0
        0x00000d80:    f000fa30    ..0.    BL       strstr ; 0x11e4
        0x00000d84:    2800        .(      CMP      r0,#0
        0x00000d86:    d027        '.      BEQ      0xdd8 ; SendAT_GPS + 484
        0x00000d88:    2164        d!      MOVS     r1,#0x64
        0x00000d8a:    482e        .H      LDR      r0,[pc,#184] ; [0xe44] = 0x20001154
        0x00000d8c:    f000fa13    ....    BL       __aeabi_memclr ; 0x11b6
        0x00000d90:    482c        ,H      LDR      r0,[pc,#176] ; [0xe44] = 0x20001154
        0x00000d92:    212a        *!      MOVS     r1,#0x2a
        0x00000d94:    2320         #      MOVS     r3,#0x20
        0x00000d96:    2201        ."      MOVS     r2,#1
        0x00000d98:    9100        ..      STR      r1,[sp,#0]
        0x00000d9a:    9001        ..      STR      r0,[sp,#4]
        0x00000d9c:    4611        .F      MOV      r1,r2
        0x00000d9e:    481f        .H      LDR      r0,[pc,#124] ; [0xe1c] = 0x20000df0
        0x00000da0:    f000fdb6    ....    BL       parse_g ; 0x1910
        0x00000da4:    491f        .I      LDR      r1,[pc,#124] ; [0xe24] = 0x200011b8
        0x00000da6:    4814        .H      LDR      r0,[pc,#80] ; [0xdf8] = 0x2000010c
        0x00000da8:    f000fa10    ....    BL       strcat ; 0x11cc
        0x00000dac:    a126        &.      ADR      r1,{pc}+0x9c ; 0xe48
        0x00000dae:    4812        .H      LDR      r0,[pc,#72] ; [0xdf8] = 0x2000010c
        0x00000db0:    f000fa0c    ....    BL       strcat ; 0x11cc
        0x00000db4:    a125        %.      ADR      r1,{pc}+0x98 ; 0xe4c
        0x00000db6:    4823        #H      LDR      r0,[pc,#140] ; [0xe44] = 0x20001154
        0x00000db8:    f000fa08    ....    BL       strcat ; 0x11cc
        0x00000dbc:    4921        !I      LDR      r1,[pc,#132] ; [0xe44] = 0x20001154
        0x00000dbe:    480e        .H      LDR      r0,[pc,#56] ; [0xdf8] = 0x2000010c
        0x00000dc0:    f000fa04    ....    BL       strcat ; 0x11cc
        0x00000dc4:    480c        .H      LDR      r0,[pc,#48] ; [0xdf8] = 0x2000010c
        0x00000dc6:    f000fa21    ..!.    BL       strlen ; 0x120c
        0x00000dca:    4921        !I      LDR      r1,[pc,#132] ; [0xe50] = 0x9c4
        0x00000dcc:    4288        .B      CMP      r0,r1
        0x00000dce:    d903        ..      BLS      0xdd8 ; SendAT_GPS + 484
        0x00000dd0:    4908        .I      LDR      r1,[pc,#32] ; [0xdf4] = 0xce4
        0x00000dd2:    4809        .H      LDR      r0,[pc,#36] ; [0xdf8] = 0x2000010c
        0x00000dd4:    f000f9ef    ....    BL       __aeabi_memclr ; 0x11b6
        0x00000dd8:    2001        .       MOVS     r0,#1
        0x00000dda:    4908        .I      LDR      r1,[pc,#32] ; [0xdfc] = 0x50004240
        0x00000ddc:    6088        .`      STR      r0,[r1,#8]
        0x00000dde:    4809        .H      LDR      r0,[pc,#36] ; [0xe04] = 0x20000020
        0x00000de0:    6800        .h      LDR      r0,[r0,#0]
        0x00000de2:    f000fcf5    ....    BL       osMutexRelease ; 0x17d0
        0x00000de6:    2005        .       MOVS     r0,#5
        0x00000de8:    f000fc72    ..r.    BL       osDelay ; 0x16d0
        0x00000dec:    b007        ..      ADD      sp,sp,#0x1c
        0x00000dee:    bdf0        ..      POP      {r4-r7,pc}
    $d
        0x00000df0:    20000064    d..     DCD    536871012
        0x00000df4:    00000ce4    ....    DCD    3300
        0x00000df8:    2000010c    ...     DCD    536871180
        0x00000dfc:    50004240    @B.P    DCD    1342194240
        0x00000e00:    20000024    $..     DCD    536870948
        0x00000e04:    20000020     ..     DCD    536870944
        0x00000e08:    2000003c    <..     DCD    536870972
        0x00000e0c:    20000044    D..     DCD    536870980
        0x00000e10:    20000048    H..     DCD    536870984
        0x00000e14:    2000004c    L..     DCD    536870988
        0x00000e18:    20000034    4..     DCD    536870964
        0x00000e1c:    20000df0    ...     DCD    536874480
        0x00000e20:    00006325    %c..    DCD    25381
        0x00000e24:    200011b8    ...     DCD    536875448
        0x00000e28:    54410a0d    ..AT    DCD    1413548557
        0x00000e2c:    4e53472b    +GSN    DCD    1314080555
        0x00000e30:    00000a0d    ....    DCD    2573
        0x00000e34:    20000068    h..     DCD    536871016
        0x00000e38:    2000006c    l..     DCD    536871020
        0x00000e3c:    4d524e47    GNRM    DCD    1297239623
        0x00000e40:    00000043    C...    DCD    67
        0x00000e44:    20001154    T..     DCD    536875348
        0x00000e48:    0000002c    ,...    DCD    44
        0x00000e4c:    0000000a    ....    DCD    10
        0x00000e50:    000009c4    ....    DCD    2500
    $t
    .text
    CLK_WaitClockReady
        0x00000e54:    4601        .F      MOV      r1,r0
        0x00000e56:    4a07        .J      LDR      r2,[pc,#28] ; [0xe74] = 0xea60
        0x00000e58:    e005        ..      B        0xe66 ; CLK_WaitClockReady + 18
        0x00000e5a:    4610        .F      MOV      r0,r2
        0x00000e5c:    1e52        R.      SUBS     r2,r2,#1
        0x00000e5e:    2800        .(      CMP      r0,#0
        0x00000e60:    dc01        ..      BGT      0xe66 ; CLK_WaitClockReady + 18
        0x00000e62:    2000        .       MOVS     r0,#0
        0x00000e64:    4770        pG      BX       lr
        0x00000e66:    4804        .H      LDR      r0,[pc,#16] ; [0xe78] = 0x50000200
        0x00000e68:    68c0        .h      LDR      r0,[r0,#0xc]
        0x00000e6a:    4008        .@      ANDS     r0,r0,r1
        0x00000e6c:    4288        .B      CMP      r0,r1
        0x00000e6e:    d1f4        ..      BNE      0xe5a ; CLK_WaitClockReady + 6
        0x00000e70:    2001        .       MOVS     r0,#1
        0x00000e72:    e7f7        ..      B        0xe64 ; CLK_WaitClockReady + 16
    $d
        0x00000e74:    0000ea60    `...    DCD    60000
        0x00000e78:    50000200    ...P    DCD    1342177792
    $t
    .text
    GPIO_SetMode
        0x00000e7c:    b570        p.      PUSH     {r4-r6,lr}
        0x00000e7e:    4603        .F      MOV      r3,r0
        0x00000e80:    2000        .       MOVS     r0,#0
        0x00000e82:    e00f        ..      B        0xea4 ; GPIO_SetMode + 40
        0x00000e84:    2401        .$      MOVS     r4,#1
        0x00000e86:    4084        .@      LSLS     r4,r4,r0
        0x00000e88:    400c        .@      ANDS     r4,r4,r1
        0x00000e8a:    2c00        .,      CMP      r4,#0
        0x00000e8c:    d009        ..      BEQ      0xea2 ; GPIO_SetMode + 38
        0x00000e8e:    681c        .h      LDR      r4,[r3,#0]
        0x00000e90:    0046        F.      LSLS     r6,r0,#1
        0x00000e92:    2503        .%      MOVS     r5,#3
        0x00000e94:    40b5        .@      LSLS     r5,r5,r6
        0x00000e96:    43ac        .C      BICS     r4,r4,r5
        0x00000e98:    0046        F.      LSLS     r6,r0,#1
        0x00000e9a:    4615        .F      MOV      r5,r2
        0x00000e9c:    40b5        .@      LSLS     r5,r5,r6
        0x00000e9e:    432c        ,C      ORRS     r4,r4,r5
        0x00000ea0:    601c        .`      STR      r4,[r3,#0]
        0x00000ea2:    1c40        @.      ADDS     r0,r0,#1
        0x00000ea4:    2810        .(      CMP      r0,#0x10
        0x00000ea6:    d3ed        ..      BCC      0xe84 ; GPIO_SetMode + 8
        0x00000ea8:    bd70        p.      POP      {r4-r6,pc}
        0x00000eaa:    0000        ..      MOVS     r0,r0
    .text
    UART_Open
        0x00000eac:    b5f0        ..      PUSH     {r4-r7,lr}
        0x00000eae:    b087        ..      SUB      sp,sp,#0x1c
        0x00000eb0:    4604        .F      MOV      r4,r0
        0x00000eb2:    460d        .F      MOV      r5,r1
        0x00000eb4:    4822        "H      LDR      r0,[pc,#136] ; [0xf40] = 0x2b0c
        0x00000eb6:    4601        .F      MOV      r1,r0
        0x00000eb8:    c90e        ..      LDM      r1,{r1-r3}
        0x00000eba:    68c0        .h      LDR      r0,[r0,#0xc]
        0x00000ebc:    ae02        ..      ADD      r6,sp,#8
        0x00000ebe:    c60e        ..      STM      r6!,{r1-r3}
        0x00000ec0:    9005        ..      STR      r0,[sp,#0x14]
        0x00000ec2:    4820         H      LDR      r0,[pc,#128] ; [0xf44] = 0x50000200
        0x00000ec4:    6940        @i      LDR      r0,[r0,#0x14]
        0x00000ec6:    0780        ..      LSLS     r0,r0,#30
        0x00000ec8:    0f80        ..      LSRS     r0,r0,#30
        0x00000eca:    9006        ..      STR      r0,[sp,#0x18]
        0x00000ecc:    9806        ..      LDR      r0,[sp,#0x18]
        0x00000ece:    0080        ..      LSLS     r0,r0,#2
        0x00000ed0:    a902        ..      ADD      r1,sp,#8
        0x00000ed2:    580f        .X      LDR      r7,[r1,r0]
        0x00000ed4:    481b        .H      LDR      r0,[pc,#108] ; [0xf44] = 0x50000200
        0x00000ed6:    69c0        .i      LDR      r0,[r0,#0x1c]
        0x00000ed8:    210f        .!      MOVS     r1,#0xf
        0x00000eda:    0209        ..      LSLS     r1,r1,#8
        0x00000edc:    4008        .@      ANDS     r0,r0,r1
        0x00000ede:    0a00        ..      LSRS     r0,r0,#8
        0x00000ee0:    1c40        @.      ADDS     r0,r0,#1
        0x00000ee2:    9001        ..      STR      r0,[sp,#4]
        0x00000ee4:    2f00        ./      CMP      r7,#0
        0x00000ee6:    d107        ..      BNE      0xef8 ; UART_Open + 76
        0x00000ee8:    f7fff9bc    ....    BL       SysGet_PLLClockFreq ; 0x264
        0x00000eec:    9000        ..      STR      r0,[sp,#0]
        0x00000eee:    9901        ..      LDR      r1,[sp,#4]
        0x00000ef0:    f000f900    ....    BL       __aeabi_uidiv ; 0x10f4
        0x00000ef4:    4607        .F      MOV      r7,r0
        0x00000ef6:    e004        ..      B        0xf02 ; UART_Open + 86
        0x00000ef8:    4638        8F      MOV      r0,r7
        0x00000efa:    9901        ..      LDR      r1,[sp,#4]
        0x00000efc:    f000f8fa    ....    BL       __aeabi_uidiv ; 0x10f4
        0x00000f00:    4607        .F      MOV      r7,r0
        0x00000f02:    2000        .       MOVS     r0,#0
        0x00000f04:    63a0        .c      STR      r0,[r4,#0x38]
        0x00000f06:    2003        .       MOVS     r0,#3
        0x00000f08:    60a0        .`      STR      r0,[r4,#8]
        0x00000f0a:    2d00        .-      CMP      r5,#0
        0x00000f0c:    d015        ..      BEQ      0xf3a ; UART_Open + 142
        0x00000f0e:    0869        i.      LSRS     r1,r5,#1
        0x00000f10:    19c8        ..      ADDS     r0,r1,r7
        0x00000f12:    4629        )F      MOV      r1,r5
        0x00000f14:    f000f8ee    ....    BL       __aeabi_uidiv ; 0x10f4
        0x00000f18:    1e46        F.      SUBS     r6,r0,#1
        0x00000f1a:    480b        .H      LDR      r0,[pc,#44] ; [0xf48] = 0xffff
        0x00000f1c:    4286        .B      CMP      r6,r0
        0x00000f1e:    d90b        ..      BLS      0xf38 ; UART_Open + 140
        0x00000f20:    00e9        ..      LSLS     r1,r5,#3
        0x00000f22:    19c8        ..      ADDS     r0,r1,r7
        0x00000f24:    4629        )F      MOV      r1,r5
        0x00000f26:    f000f8e5    ....    BL       __aeabi_uidiv ; 0x10f4
        0x00000f2a:    0900        ..      LSRS     r0,r0,#4
        0x00000f2c:    1e40        @.      SUBS     r0,r0,#1
        0x00000f2e:    2101        .!      MOVS     r1,#1
        0x00000f30:    07c9        ..      LSLS     r1,r1,#31
        0x00000f32:    4308        .C      ORRS     r0,r0,r1
        0x00000f34:    6260        `b      STR      r0,[r4,#0x24]
        0x00000f36:    e000        ..      B        0xf3a ; UART_Open + 142
        0x00000f38:    6266        fb      STR      r6,[r4,#0x24]
        0x00000f3a:    b007        ..      ADD      sp,sp,#0x1c
        0x00000f3c:    bdf0        ..      POP      {r4-r7,pc}
    $d
        0x00000f3e:    0000        ..      DCW    0
        0x00000f40:    00002b0c    .+..    DCD    11020
        0x00000f44:    50000200    ...P    DCD    1342177792
        0x00000f48:    0000ffff    ....    DCD    65535
    $t
    .text
    stackDump
        0x00000f4c:    b510        ..      PUSH     {r4,lr}
        0x00000f4e:    4604        .F      MOV      r4,r0
        0x00000f50:    a032        2.      ADR      r0,{pc}+0xcc ; 0x101c
        0x00000f52:    6821        !h      LDR      r1,[r4,#0]
        0x00000f54:    f000f996    ....    BL       __0printf$5 ; 0x1284
        0x00000f58:    a033        3.      ADR      r0,{pc}+0xd0 ; 0x1028
        0x00000f5a:    6861        ah      LDR      r1,[r4,#4]
        0x00000f5c:    f000f992    ....    BL       __0printf$5 ; 0x1284
        0x00000f60:    a034        4.      ADR      r0,{pc}+0xd4 ; 0x1034
        0x00000f62:    68a1        .h      LDR      r1,[r4,#8]
        0x00000f64:    f000f98e    ....    BL       __0printf$5 ; 0x1284
        0x00000f68:    a035        5.      ADR      r0,{pc}+0xd8 ; 0x1040
        0x00000f6a:    68e1        .h      LDR      r1,[r4,#0xc]
        0x00000f6c:    f000f98a    ....    BL       __0printf$5 ; 0x1284
        0x00000f70:    a036        6.      ADR      r0,{pc}+0xdc ; 0x104c
        0x00000f72:    6921        !i      LDR      r1,[r4,#0x10]
        0x00000f74:    f000f986    ....    BL       __0printf$5 ; 0x1284
        0x00000f78:    a037        7.      ADR      r0,{pc}+0xe0 ; 0x1058
        0x00000f7a:    6961        ai      LDR      r1,[r4,#0x14]
        0x00000f7c:    f000f982    ....    BL       __0printf$5 ; 0x1284
        0x00000f80:    a038        8.      ADR      r0,{pc}+0xe4 ; 0x1064
        0x00000f82:    69a1        .i      LDR      r1,[r4,#0x18]
        0x00000f84:    f000f97e    ..~.    BL       __0printf$5 ; 0x1284
        0x00000f88:    a039        9.      ADR      r0,{pc}+0xe8 ; 0x1070
        0x00000f8a:    69e1        .i      LDR      r1,[r4,#0x1c]
        0x00000f8c:    f000f97a    ..z.    BL       __0printf$5 ; 0x1284
        0x00000f90:    bd10        ..      POP      {r4,pc}
    Hard_Fault_Handler
    __tagsym$$used
        0x00000f92:    4604        .F      MOV      r4,r0
        0x00000f94:    a039        9.      ADR      r0,{pc}+0xe8 ; 0x107c
        0x00000f96:    f000f975    ..u.    BL       __0printf$5 ; 0x1284
        0x00000f9a:    4620         F      MOV      r0,r4
        0x00000f9c:    f7ffffd6    ....    BL       stackDump ; 0xf4c
        0x00000fa0:    bf00        ..      NOP      
        0x00000fa2:    e006        ..      B        0xfb2 ; Hard_Fault_Handler + 32
        0x00000fa4:    2059        Y       MOVS     r0,#0x59
        0x00000fa6:    493b        ;I      LDR      r1,[pc,#236] ; [0x1094] = 0x50000100
        0x00000fa8:    6008        .`      STR      r0,[r1,#0]
        0x00000faa:    2016        .       MOVS     r0,#0x16
        0x00000fac:    6008        .`      STR      r0,[r1,#0]
        0x00000fae:    2088        .       MOVS     r0,#0x88
        0x00000fb0:    6008        .`      STR      r0,[r1,#0]
        0x00000fb2:    4838        8H      LDR      r0,[pc,#224] ; [0x1094] = 0x50000100
        0x00000fb4:    6800        .h      LDR      r0,[r0,#0]
        0x00000fb6:    2801        .(      CMP      r0,#1
        0x00000fb8:    d1f4        ..      BNE      0xfa4 ; Hard_Fault_Handler + 18
        0x00000fba:    bf00        ..      NOP      
        0x00000fbc:    2005        .       MOVS     r0,#5
        0x00000fbe:    0700        ..      LSLS     r0,r0,#28
        0x00000fc0:    6880        .h      LDR      r0,[r0,#8]
        0x00000fc2:    2101        .!      MOVS     r1,#1
        0x00000fc4:    4308        .C      ORRS     r0,r0,r1
        0x00000fc6:    2105        .!      MOVS     r1,#5
        0x00000fc8:    0709        ..      LSLS     r1,r1,#28
        0x00000fca:    6088        .`      STR      r0,[r1,#8]
        0x00000fcc:    bf00        ..      NOP      
        0x00000fce:    e7fe        ..      B        0xfce ; Hard_Fault_Handler + 60
    SendChar_ToUART
        0x00000fd0:    bf00        ..      NOP      
        0x00000fd2:    4931        1I      LDR      r1,[pc,#196] ; [0x1098] = 0x40050000
        0x00000fd4:    6989        .i      LDR      r1,[r1,#0x18]
        0x00000fd6:    2201        ."      MOVS     r2,#1
        0x00000fd8:    0292        ..      LSLS     r2,r2,#10
        0x00000fda:    4011        .@      ANDS     r1,r1,r2
        0x00000fdc:    2900        .)      CMP      r1,#0
        0x00000fde:    d1f8        ..      BNE      0xfd2 ; SendChar_ToUART + 2
        0x00000fe0:    492d        -I      LDR      r1,[pc,#180] ; [0x1098] = 0x40050000
        0x00000fe2:    6008        .`      STR      r0,[r1,#0]
        0x00000fe4:    280a        .(      CMP      r0,#0xa
        0x00000fe6:    d10a        ..      BNE      0xffe ; SendChar_ToUART + 46
        0x00000fe8:    bf00        ..      NOP      
        0x00000fea:    492b        +I      LDR      r1,[pc,#172] ; [0x1098] = 0x40050000
        0x00000fec:    6989        .i      LDR      r1,[r1,#0x18]
        0x00000fee:    2201        ."      MOVS     r2,#1
        0x00000ff0:    0292        ..      LSLS     r2,r2,#10
        0x00000ff2:    4011        .@      ANDS     r1,r1,r2
        0x00000ff4:    2900        .)      CMP      r1,#0
        0x00000ff6:    d1f8        ..      BNE      0xfea ; SendChar_ToUART + 26
        0x00000ff8:    210d        .!      MOVS     r1,#0xd
        0x00000ffa:    4a27        'J      LDR      r2,[pc,#156] ; [0x1098] = 0x40050000
        0x00000ffc:    6011        .`      STR      r1,[r2,#0]
        0x00000ffe:    4770        pG      BX       lr
    SendChar
        0x00001000:    b500        ..      PUSH     {lr}
        0x00001002:    4603        .F      MOV      r3,r0
        0x00001004:    4618        .F      MOV      r0,r3
        0x00001006:    f7ffffe3    ....    BL       SendChar_ToUART ; 0xfd0
        0x0000100a:    bd00        ..      POP      {pc}
    fputc
        0x0000100c:    b530        0.      PUSH     {r4,r5,lr}
        0x0000100e:    4604        .F      MOV      r4,r0
        0x00001010:    460d        .F      MOV      r5,r1
        0x00001012:    4620         F      MOV      r0,r4
        0x00001014:    f7fffff4    ....    BL       SendChar ; 0x1000
        0x00001018:    4620         F      MOV      r0,r4
        0x0000101a:    bd30        0.      POP      {r4,r5,pc}
    $d
        0x0000101c:    20203072    r0      DCD    538980466
        0x00001020:    7830203d    = 0x    DCD    2016419901
        0x00001024:    000a7825    %x..    DCD    686117
        0x00001028:    20203172    r1      DCD    538980722
        0x0000102c:    7830203d    = 0x    DCD    2016419901
        0x00001030:    000a7825    %x..    DCD    686117
        0x00001034:    20203272    r2      DCD    538980978
        0x00001038:    7830203d    = 0x    DCD    2016419901
        0x0000103c:    000a7825    %x..    DCD    686117
        0x00001040:    20203372    r3      DCD    538981234
        0x00001044:    7830203d    = 0x    DCD    2016419901
        0x00001048:    000a7825    %x..    DCD    686117
        0x0000104c:    20323172    r12     DCD    540160370
        0x00001050:    7830203d    = 0x    DCD    2016419901
        0x00001054:    000a7825    %x..    DCD    686117
        0x00001058:    2020726c    lr      DCD    538997356
        0x0000105c:    7830203d    = 0x    DCD    2016419901
        0x00001060:    000a7825    %x..    DCD    686117
        0x00001064:    20206370    pc      DCD    538993520
        0x00001068:    7830203d    = 0x    DCD    2016419901
        0x0000106c:    000a7825    %x..    DCD    686117
        0x00001070:    20727370    psr     DCD    544371568
        0x00001074:    7830203d    = 0x    DCD    2016419901
        0x00001078:    000a7825    %x..    DCD    686117
        0x0000107c:    48206e49    In H    DCD    1210084937
        0x00001080:    20647261    ard     DCD    543453793
        0x00001084:    6c756146    Faul    DCD    1819631942
        0x00001088:    61482074    t Ha    DCD    1632116852
        0x0000108c:    656c646e    ndle    DCD    1701602414
        0x00001090:    00000a72    r...    DCD    2674
        0x00001094:    50000100    ...P    DCD    1342177536
        0x00001098:    40050000    ...@    DCD    1074069504
    $t
    .text
    os_idle_demon
        0x0000109c:    bf00        ..      NOP      
        0x0000109e:    e7fe        ..      B        0x109e ; os_idle_demon + 2
    os_error
        0x000010a0:    2801        .(      CMP      r0,#1
        0x000010a2:    d006        ..      BEQ      0x10b2 ; os_error + 18
        0x000010a4:    2802        .(      CMP      r0,#2
        0x000010a6:    d005        ..      BEQ      0x10b4 ; os_error + 20
        0x000010a8:    2803        .(      CMP      r0,#3
        0x000010aa:    d004        ..      BEQ      0x10b6 ; os_error + 22
        0x000010ac:    2804        .(      CMP      r0,#4
        0x000010ae:    d104        ..      BNE      0x10ba ; os_error + 26
        0x000010b0:    e002        ..      B        0x10b8 ; os_error + 24
        0x000010b2:    e003        ..      B        0x10bc ; os_error + 28
        0x000010b4:    e002        ..      B        0x10bc ; os_error + 28
        0x000010b6:    e001        ..      B        0x10bc ; os_error + 28
        0x000010b8:    e000        ..      B        0x10bc ; os_error + 28
        0x000010ba:    bf00        ..      NOP      
        0x000010bc:    bf00        ..      NOP      
        0x000010be:    bf00        ..      NOP      
        0x000010c0:    e006        ..      B        0x10d0 ; os_error + 48
        0x000010c2:    4a0b        .J      LDR      r2,[pc,#44] ; [0x10f0] = 0x50000100
        0x000010c4:    2159        Y!      MOVS     r1,#0x59
        0x000010c6:    6011        .`      STR      r1,[r2,#0]
        0x000010c8:    2116        .!      MOVS     r1,#0x16
        0x000010ca:    6011        .`      STR      r1,[r2,#0]
        0x000010cc:    2188        .!      MOVS     r1,#0x88
        0x000010ce:    6011        .`      STR      r1,[r2,#0]
        0x000010d0:    4907        .I      LDR      r1,[pc,#28] ; [0x10f0] = 0x50000100
        0x000010d2:    6809        .h      LDR      r1,[r1,#0]
        0x000010d4:    2901        .)      CMP      r1,#1
        0x000010d6:    d1f4        ..      BNE      0x10c2 ; os_error + 34
        0x000010d8:    bf00        ..      NOP      
        0x000010da:    2105        .!      MOVS     r1,#5
        0x000010dc:    0709        ..      LSLS     r1,r1,#28
        0x000010de:    6889        .h      LDR      r1,[r1,#8]
        0x000010e0:    2201        ."      MOVS     r2,#1
        0x000010e2:    4311        .C      ORRS     r1,r1,r2
        0x000010e4:    2205        ."      MOVS     r2,#5
        0x000010e6:    0712        ..      LSLS     r2,r2,#28
        0x000010e8:    6091        .`      STR      r1,[r2,#8]
        0x000010ea:    bf00        ..      NOP      
        0x000010ec:    e7fe        ..      B        0x10ec ; os_error + 76
    $d
        0x000010ee:    0000        ..      DCW    0
        0x000010f0:    50000100    ...P    DCD    1342177536
    $t
    .text
    __aeabi_uidiv
    __aeabi_uidivmod
        0x000010f4:    b530        0.      PUSH     {r4,r5,lr}
        0x000010f6:    460b        .F      MOV      r3,r1
        0x000010f8:    4601        .F      MOV      r1,r0
        0x000010fa:    2000        .       MOVS     r0,#0
        0x000010fc:    2220         "      MOVS     r2,#0x20
        0x000010fe:    2401        .$      MOVS     r4,#1
        0x00001100:    e009        ..      B        0x1116 ; __aeabi_uidiv + 34
        0x00001102:    460d        .F      MOV      r5,r1
        0x00001104:    40d5        .@      LSRS     r5,r5,r2
        0x00001106:    429d        .B      CMP      r5,r3
        0x00001108:    d305        ..      BCC      0x1116 ; __aeabi_uidiv + 34
        0x0000110a:    461d        .F      MOV      r5,r3
        0x0000110c:    4095        .@      LSLS     r5,r5,r2
        0x0000110e:    1b49        I.      SUBS     r1,r1,r5
        0x00001110:    4625        %F      MOV      r5,r4
        0x00001112:    4095        .@      LSLS     r5,r5,r2
        0x00001114:    1940        @.      ADDS     r0,r0,r5
        0x00001116:    4615        .F      MOV      r5,r2
        0x00001118:    1e52        R.      SUBS     r2,r2,#1
        0x0000111a:    2d00        .-      CMP      r5,#0
        0x0000111c:    dcf1        ..      BGT      0x1102 ; __aeabi_uidiv + 14
        0x0000111e:    bd30        0.      POP      {r4,r5,pc}
    .text
    __aeabi_idiv
    __aeabi_idivmod
        0x00001120:    b570        p.      PUSH     {r4-r6,lr}
        0x00001122:    2400        .$      MOVS     r4,#0
        0x00001124:    4625        %F      MOV      r5,r4
        0x00001126:    2800        .(      CMP      r0,#0
        0x00001128:    da01        ..      BGE      0x112e ; __aeabi_idiv + 14
        0x0000112a:    2401        .$      MOVS     r4,#1
        0x0000112c:    4240        @B      RSBS     r0,r0,#0
        0x0000112e:    2900        .)      CMP      r1,#0
        0x00001130:    da01        ..      BGE      0x1136 ; __aeabi_idiv + 22
        0x00001132:    2501        .%      MOVS     r5,#1
        0x00001134:    4249        IB      RSBS     r1,r1,#0
        0x00001136:    f7ffffdd    ....    BL       __aeabi_uidiv ; 0x10f4
        0x0000113a:    42ac        .B      CMP      r4,r5
        0x0000113c:    d000        ..      BEQ      0x1140 ; __aeabi_idiv + 32
        0x0000113e:    4240        @B      RSBS     r0,r0,#0
        0x00001140:    2c00        .,      CMP      r4,#0
        0x00001142:    d000        ..      BEQ      0x1146 ; __aeabi_idiv + 38
        0x00001144:    4249        IB      RSBS     r1,r1,#0
        0x00001146:    bd70        p.      POP      {r4-r6,pc}
    .text
    __aeabi_uldivmod
        0x00001148:    b5f0        ..      PUSH     {r4-r7,lr}
        0x0000114a:    b41f        ..      PUSH     {r0-r4}
        0x0000114c:    4606        .F      MOV      r6,r0
        0x0000114e:    2000        .       MOVS     r0,#0
        0x00001150:    b082        ..      SUB      sp,sp,#8
        0x00001152:    4605        .F      MOV      r5,r0
        0x00001154:    2440        @$      MOVS     r4,#0x40
        0x00001156:    9101        ..      STR      r1,[sp,#4]
        0x00001158:    9000        ..      STR      r0,[sp,#0]
        0x0000115a:    e01b        ..      B        0x1194 ; __aeabi_uldivmod + 76
        0x0000115c:    9901        ..      LDR      r1,[sp,#4]
        0x0000115e:    4622        "F      MOV      r2,r4
        0x00001160:    460f        .F      MOV      r7,r1
        0x00001162:    4630        0F      MOV      r0,r6
        0x00001164:    f000f869    ..i.    BL       __aeabi_llsr ; 0x123a
        0x00001168:    9a04        ..      LDR      r2,[sp,#0x10]
        0x0000116a:    9b05        ..      LDR      r3,[sp,#0x14]
        0x0000116c:    1a80        ..      SUBS     r0,r0,r2
        0x0000116e:    4199        .A      SBCS     r1,r1,r3
        0x00001170:    d310        ..      BCC      0x1194 ; __aeabi_uldivmod + 76
        0x00001172:    4610        .F      MOV      r0,r2
        0x00001174:    4619        .F      MOV      r1,r3
        0x00001176:    4622        "F      MOV      r2,r4
        0x00001178:    f000f84f    ..O.    BL       __aeabi_llsl ; 0x121a
        0x0000117c:    1a36        6.      SUBS     r6,r6,r0
        0x0000117e:    418f        .A      SBCS     r7,r7,r1
        0x00001180:    9701        ..      STR      r7,[sp,#4]
        0x00001182:    4622        "F      MOV      r2,r4
        0x00001184:    2001        .       MOVS     r0,#1
        0x00001186:    2100        .!      MOVS     r1,#0
        0x00001188:    9f00        ..      LDR      r7,[sp,#0]
        0x0000118a:    f000f846    ..F.    BL       __aeabi_llsl ; 0x121a
        0x0000118e:    1838        8.      ADDS     r0,r7,r0
        0x00001190:    414d        MA      ADCS     r5,r5,r1
        0x00001192:    9000        ..      STR      r0,[sp,#0]
        0x00001194:    4620         F      MOV      r0,r4
        0x00001196:    1e64        d.      SUBS     r4,r4,#1
        0x00001198:    2800        .(      CMP      r0,#0
        0x0000119a:    dcdf        ..      BGT      0x115c ; __aeabi_uldivmod + 20
        0x0000119c:    9b01        ..      LDR      r3,[sp,#4]
        0x0000119e:    9800        ..      LDR      r0,[sp,#0]
        0x000011a0:    4629        )F      MOV      r1,r5
        0x000011a2:    4632        2F      MOV      r2,r6
        0x000011a4:    b007        ..      ADD      sp,sp,#0x1c
        0x000011a6:    bdf0        ..      POP      {r4-r7,pc}
    .text
    __aeabi_memset
    __aeabi_memset4
    __aeabi_memset8
        0x000011a8:    b2d2        ..      UXTB     r2,r2
        0x000011aa:    e001        ..      B        0x11b0 ; __aeabi_memset + 8
        0x000011ac:    7002        .p      STRB     r2,[r0,#0]
        0x000011ae:    1c40        @.      ADDS     r0,r0,#1
        0x000011b0:    1e49        I.      SUBS     r1,r1,#1
        0x000011b2:    d2fb        ..      BCS      0x11ac ; __aeabi_memset + 4
        0x000011b4:    4770        pG      BX       lr
    __aeabi_memclr
    __aeabi_memclr4
    __aeabi_memclr8
        0x000011b6:    2200        ."      MOVS     r2,#0
        0x000011b8:    e7f6        ..      B        __aeabi_memset ; 0x11a8
    _memset$wrapper
        0x000011ba:    b510        ..      PUSH     {r4,lr}
        0x000011bc:    4613        .F      MOV      r3,r2
        0x000011be:    460a        .F      MOV      r2,r1
        0x000011c0:    4604        .F      MOV      r4,r0
        0x000011c2:    4619        .F      MOV      r1,r3
        0x000011c4:    f7fffff0    ....    BL       __aeabi_memset ; 0x11a8
        0x000011c8:    4620         F      MOV      r0,r4
        0x000011ca:    bd10        ..      POP      {r4,pc}
    .text
    strcat
        0x000011cc:    1e42        B.      SUBS     r2,r0,#1
        0x000011ce:    7853        Sx      LDRB     r3,[r2,#1]
        0x000011d0:    1c52        R.      ADDS     r2,r2,#1
        0x000011d2:    2b00        .+      CMP      r3,#0
        0x000011d4:    d1fb        ..      BNE      0x11ce ; strcat + 2
        0x000011d6:    780b        .x      LDRB     r3,[r1,#0]
        0x000011d8:    7013        .p      STRB     r3,[r2,#0]
        0x000011da:    1c49        I.      ADDS     r1,r1,#1
        0x000011dc:    1c52        R.      ADDS     r2,r2,#1
        0x000011de:    2b00        .+      CMP      r3,#0
        0x000011e0:    d1f9        ..      BNE      0x11d6 ; strcat + 10
        0x000011e2:    4770        pG      BX       lr
    .text
    strstr
        0x000011e4:    b530        0.      PUSH     {r4,r5,lr}
        0x000011e6:    4605        .F      MOV      r5,r0
        0x000011e8:    462a        *F      MOV      r2,r5
        0x000011ea:    460b        .F      MOV      r3,r1
        0x000011ec:    7810        .x      LDRB     r0,[r2,#0]
        0x000011ee:    781c        .x      LDRB     r4,[r3,#0]
        0x000011f0:    1c52        R.      ADDS     r2,r2,#1
        0x000011f2:    1c5b        [.      ADDS     r3,r3,#1
        0x000011f4:    2800        .(      CMP      r0,#0
        0x000011f6:    d001        ..      BEQ      0x11fc ; strstr + 24
        0x000011f8:    42a0        .B      CMP      r0,r4
        0x000011fa:    d0f7        ..      BEQ      0x11ec ; strstr + 8
        0x000011fc:    2c00        .,      CMP      r4,#0
        0x000011fe:    d003        ..      BEQ      0x1208 ; strstr + 36
        0x00001200:    2800        .(      CMP      r0,#0
        0x00001202:    d002        ..      BEQ      0x120a ; strstr + 38
        0x00001204:    1c6d        m.      ADDS     r5,r5,#1
        0x00001206:    e7ef        ..      B        0x11e8 ; strstr + 4
        0x00001208:    4628        (F      MOV      r0,r5
        0x0000120a:    bd30        0.      POP      {r4,r5,pc}
    .text
    strlen
        0x0000120c:    1c42        B.      ADDS     r2,r0,#1
        0x0000120e:    7801        .x      LDRB     r1,[r0,#0]
        0x00001210:    1c40        @.      ADDS     r0,r0,#1
        0x00001212:    2900        .)      CMP      r1,#0
        0x00001214:    d1fb        ..      BNE      0x120e ; strlen + 2
        0x00001216:    1a80        ..      SUBS     r0,r0,r2
        0x00001218:    4770        pG      BX       lr
    .text
    __aeabi_llsl
    _ll_shift_l
        0x0000121a:    b510        ..      PUSH     {r4,lr}
        0x0000121c:    2a20         *      CMP      r2,#0x20
        0x0000121e:    db04        ..      BLT      0x122a ; __aeabi_llsl + 16
        0x00001220:    4601        .F      MOV      r1,r0
        0x00001222:    3a20         :      SUBS     r2,r2,#0x20
        0x00001224:    4091        .@      LSLS     r1,r1,r2
        0x00001226:    2000        .       MOVS     r0,#0
        0x00001228:    bd10        ..      POP      {r4,pc}
        0x0000122a:    4091        .@      LSLS     r1,r1,r2
        0x0000122c:    2320         #      MOVS     r3,#0x20
        0x0000122e:    1a9c        ..      SUBS     r4,r3,r2
        0x00001230:    4603        .F      MOV      r3,r0
        0x00001232:    40e3        .@      LSRS     r3,r3,r4
        0x00001234:    4319        .C      ORRS     r1,r1,r3
        0x00001236:    4090        .@      LSLS     r0,r0,r2
        0x00001238:    bd10        ..      POP      {r4,pc}
    .text
    __aeabi_llsr
    _ll_ushift_r
        0x0000123a:    b510        ..      PUSH     {r4,lr}
        0x0000123c:    2a20         *      CMP      r2,#0x20
        0x0000123e:    db04        ..      BLT      0x124a ; __aeabi_llsr + 16
        0x00001240:    4608        .F      MOV      r0,r1
        0x00001242:    3a20         :      SUBS     r2,r2,#0x20
        0x00001244:    40d0        .@      LSRS     r0,r0,r2
        0x00001246:    2100        .!      MOVS     r1,#0
        0x00001248:    bd10        ..      POP      {r4,pc}
        0x0000124a:    460b        .F      MOV      r3,r1
        0x0000124c:    40d3        .@      LSRS     r3,r3,r2
        0x0000124e:    40d0        .@      LSRS     r0,r0,r2
        0x00001250:    2420         $      MOVS     r4,#0x20
        0x00001252:    1aa2        ..      SUBS     r2,r4,r2
        0x00001254:    4091        .@      LSLS     r1,r1,r2
        0x00001256:    4308        .C      ORRS     r0,r0,r1
        0x00001258:    4619        .F      MOV      r1,r3
        0x0000125a:    bd10        ..      POP      {r4,pc}
    .text
    __scatterload
    __scatterload_rt2
        0x0000125c:    4c06        .L      LDR      r4,[pc,#24] ; [0x1278] = 0x2ba4
        0x0000125e:    2501        .%      MOVS     r5,#1
        0x00001260:    4e06        .N      LDR      r6,[pc,#24] ; [0x127c] = 0x2bc4
        0x00001262:    e005        ..      B        0x1270 ; __scatterload + 20
        0x00001264:    68e3        .h      LDR      r3,[r4,#0xc]
        0x00001266:    cc07        ..      LDM      r4!,{r0-r2}
        0x00001268:    432b        +C      ORRS     r3,r3,r5
        0x0000126a:    3c0c        .<      SUBS     r4,r4,#0xc
        0x0000126c:    4798        .G      BLX      r3
        0x0000126e:    3410        .4      ADDS     r4,r4,#0x10
        0x00001270:    42b4        .B      CMP      r4,r6
        0x00001272:    d3f7        ..      BCC      0x1264 ; __scatterload + 8
        0x00001274:    f7feff28    ..(.    BL       __main_after_scatterload ; 0xc8
    $d
        0x00001278:    00002ba4    .+..    DCD    11172
        0x0000127c:    00002bc4    .+..    DCD    11204
    SVC_TABLE
    SVC_Count
        0x00001280:    00000000    ....    DCD    0
    $t
    i.__0printf$5
    SVC_Table
    __0printf$5
    __1printf$5
    __2printf
        0x00001284:    b40f        ..      PUSH     {r0-r3}
        0x00001286:    b510        ..      PUSH     {r4,lr}
        0x00001288:    a903        ..      ADD      r1,sp,#0xc
        0x0000128a:    4b04        .K      LDR      r3,[pc,#16] ; [0x129c] = 0x100d
        0x0000128c:    4a04        .J      LDR      r2,[pc,#16] ; [0x12a0] = 0x20000070
        0x0000128e:    9802        ..      LDR      r0,[sp,#8]
        0x00001290:    f000f854    ..T.    BL       _printf_core ; 0x133c
        0x00001294:    bc10        ..      POP      {r4}
        0x00001296:    bc08        ..      POP      {r3}
        0x00001298:    b004        ..      ADD      sp,sp,#0x10
        0x0000129a:    4718        .G      BX       r3
    $d
        0x0000129c:    0000100d    ....    DCD    4109
        0x000012a0:    20000070    p..     DCD    536871024
    $t
    i.__ARM_common_ll_muluu
    __ARM_common_ll_muluu
        0x000012a4:    b5f8        ..      PUSH     {r3-r7,lr}
        0x000012a6:    0c04        ..      LSRS     r4,r0,#16
        0x000012a8:    b28b        ..      UXTH     r3,r1
        0x000012aa:    4626        &F      MOV      r6,r4
        0x000012ac:    b282        ..      UXTH     r2,r0
        0x000012ae:    435e        ^C      MULS     r6,r3,r6
        0x000012b0:    0c0d        ..      LSRS     r5,r1,#16
        0x000012b2:    4610        .F      MOV      r0,r2
        0x000012b4:    0c37        7.      LSRS     r7,r6,#16
        0x000012b6:    4358        XC      MULS     r0,r3,r0
        0x000012b8:    0436        6.      LSLS     r6,r6,#16
        0x000012ba:    1980        ..      ADDS     r0,r0,r6
        0x000012bc:    2100        .!      MOVS     r1,#0
        0x000012be:    4179        yA      ADCS     r1,r1,r7
        0x000012c0:    4616        .F      MOV      r6,r2
        0x000012c2:    436e        nC      MULS     r6,r5,r6
        0x000012c4:    0c37        7.      LSRS     r7,r6,#16
        0x000012c6:    0436        6.      LSLS     r6,r6,#16
        0x000012c8:    1980        ..      ADDS     r0,r0,r6
        0x000012ca:    4179        yA      ADCS     r1,r1,r7
        0x000012cc:    4626        &F      MOV      r6,r4
        0x000012ce:    436e        nC      MULS     r6,r5,r6
        0x000012d0:    1989        ..      ADDS     r1,r1,r6
        0x000012d2:    bdf8        ..      POP      {r3-r7,pc}
    i.__scatterload_copy
    __scatterload_copy
        0x000012d4:    e002        ..      B        0x12dc ; __scatterload_copy + 8
        0x000012d6:    c808        ..      LDM      r0!,{r3}
        0x000012d8:    1f12        ..      SUBS     r2,r2,#4
        0x000012da:    c108        ..      STM      r1!,{r3}
        0x000012dc:    2a00        .*      CMP      r2,#0
        0x000012de:    d1fa        ..      BNE      0x12d6 ; __scatterload_copy + 2
        0x000012e0:    4770        pG      BX       lr
    i.__scatterload_null
    __scatterload_null
        0x000012e2:    4770        pG      BX       lr
    i.__scatterload_zeroinit
    __scatterload_zeroinit
        0x000012e4:    2000        .       MOVS     r0,#0
        0x000012e6:    e001        ..      B        0x12ec ; __scatterload_zeroinit + 8
        0x000012e8:    c101        ..      STM      r1!,{r0}
        0x000012ea:    1f12        ..      SUBS     r2,r2,#4
        0x000012ec:    2a00        .*      CMP      r2,#0
        0x000012ee:    d1fb        ..      BNE      0x12e8 ; __scatterload_zeroinit + 4
        0x000012f0:    4770        pG      BX       lr
    i._init_box
    _init_box
        0x000012f2:    b510        ..      PUSH     {r4,lr}
        0x000012f4:    2a00        .*      CMP      r2,#0
        0x000012f6:    da06        ..      BGE      0x1306 ; _init_box + 20
        0x000012f8:    0052        R.      LSLS     r2,r2,#1
        0x000012fa:    0852        R.      LSRS     r2,r2,#1
        0x000012fc:    1dd2        ..      ADDS     r2,r2,#7
        0x000012fe:    08d3        ..      LSRS     r3,r2,#3
        0x00001300:    00db        ..      LSLS     r3,r3,#3
        0x00001302:    2210        ."      MOVS     r2,#0x10
        0x00001304:    e003        ..      B        0x130e ; _init_box + 28
        0x00001306:    1cd2        ..      ADDS     r2,r2,#3
        0x00001308:    0893        ..      LSRS     r3,r2,#2
        0x0000130a:    009b        ..      LSLS     r3,r3,#2
        0x0000130c:    220c        ."      MOVS     r2,#0xc
        0x0000130e:    2b00        .+      CMP      r3,#0
        0x00001310:    d002        ..      BEQ      0x1318 ; _init_box + 38
        0x00001312:    189c        ..      ADDS     r4,r3,r2
        0x00001314:    428c        .B      CMP      r4,r1
        0x00001316:    d901        ..      BLS      0x131c ; _init_box + 42
        0x00001318:    2001        .       MOVS     r0,#1
        0x0000131a:    bd10        ..      POP      {r4,pc}
        0x0000131c:    1882        ..      ADDS     r2,r0,r2
        0x0000131e:    6083        .`      STR      r3,[r0,#8]
        0x00001320:    1841        A.      ADDS     r1,r0,r1
        0x00001322:    6002        .`      STR      r2,[r0,#0]
        0x00001324:    6041        A`      STR      r1,[r0,#4]
        0x00001326:    1ac9        ..      SUBS     r1,r1,r3
        0x00001328:    18d0        ..      ADDS     r0,r2,r3
        0x0000132a:    4288        .B      CMP      r0,r1
        0x0000132c:    d802        ..      BHI      0x1334 ; _init_box + 66
        0x0000132e:    6010        .`      STR      r0,[r2,#0]
        0x00001330:    4602        .F      MOV      r2,r0
        0x00001332:    e7f9        ..      B        0x1328 ; _init_box + 54
        0x00001334:    2000        .       MOVS     r0,#0
        0x00001336:    6010        .`      STR      r0,[r2,#0]
        0x00001338:    bd10        ..      POP      {r4,pc}
        0x0000133a:    0000        ..      MOVS     r0,r0
    i._printf_core
    _printf_core
        0x0000133c:    b5ff        ..      PUSH     {r0-r7,lr}
        0x0000133e:    b08f        ..      SUB      sp,sp,#0x3c
        0x00001340:    460f        .F      MOV      r7,r1
        0x00001342:    4604        .F      MOV      r4,r0
        0x00001344:    2600        .&      MOVS     r6,#0
        0x00001346:    e006        ..      B        0x1356 ; _printf_core + 26
        0x00001348:    2825        %(      CMP      r0,#0x25
        0x0000134a:    d00a        ..      BEQ      0x1362 ; _printf_core + 38
        0x0000134c:    9a12        ..      LDR      r2,[sp,#0x48]
        0x0000134e:    9911        ..      LDR      r1,[sp,#0x44]
        0x00001350:    4790        .G      BLX      r2
        0x00001352:    1c64        d.      ADDS     r4,r4,#1
        0x00001354:    1c76        v.      ADDS     r6,r6,#1
        0x00001356:    7820         x      LDRB     r0,[r4,#0]
        0x00001358:    2800        .(      CMP      r0,#0
        0x0000135a:    d1f5        ..      BNE      0x1348 ; _printf_core + 12
        0x0000135c:    4630        0F      MOV      r0,r6
        0x0000135e:    b013        ..      ADD      sp,sp,#0x4c
        0x00001360:    bdf0        ..      POP      {r4-r7,pc}
        0x00001362:    2500        .%      MOVS     r5,#0
        0x00001364:    2101        .!      MOVS     r1,#1
        0x00001366:    4aa1        .J      LDR      r2,[pc,#644] ; [0x15ec] = 0x12809
        0x00001368:    9500        ..      STR      r5,[sp,#0]
        0x0000136a:    e000        ..      B        0x136e ; _printf_core + 50
        0x0000136c:    4305        .C      ORRS     r5,r5,r0
        0x0000136e:    1c64        d.      ADDS     r4,r4,#1
        0x00001370:    7823        #x      LDRB     r3,[r4,#0]
        0x00001372:    4608        .F      MOV      r0,r1
        0x00001374:    3b20         ;      SUBS     r3,r3,#0x20
        0x00001376:    4098        .@      LSLS     r0,r0,r3
        0x00001378:    4210        .B      TST      r0,r2
        0x0000137a:    d1f7        ..      BNE      0x136c ; _printf_core + 48
        0x0000137c:    7820         x      LDRB     r0,[r4,#0]
        0x0000137e:    282e        .(      CMP      r0,#0x2e
        0x00001380:    d115        ..      BNE      0x13ae ; _printf_core + 114
        0x00001382:    2004        .       MOVS     r0,#4
        0x00001384:    4305        .C      ORRS     r5,r5,r0
        0x00001386:    7860        `x      LDRB     r0,[r4,#1]
        0x00001388:    1c64        d.      ADDS     r4,r4,#1
        0x0000138a:    282a        *(      CMP      r0,#0x2a
        0x0000138c:    d10a        ..      BNE      0x13a4 ; _printf_core + 104
        0x0000138e:    cf01        ..      LDM      r7!,{r0}
        0x00001390:    1c64        d.      ADDS     r4,r4,#1
        0x00001392:    9000        ..      STR      r0,[sp,#0]
        0x00001394:    e00b        ..      B        0x13ae ; _printf_core + 114
        0x00001396:    9900        ..      LDR      r1,[sp,#0]
        0x00001398:    220a        ."      MOVS     r2,#0xa
        0x0000139a:    4351        QC      MULS     r1,r2,r1
        0x0000139c:    3930        09      SUBS     r1,r1,#0x30
        0x0000139e:    1840        @.      ADDS     r0,r0,r1
        0x000013a0:    1c64        d.      ADDS     r4,r4,#1
        0x000013a2:    9000        ..      STR      r0,[sp,#0]
        0x000013a4:    7820         x      LDRB     r0,[r4,#0]
        0x000013a6:    4601        .F      MOV      r1,r0
        0x000013a8:    3930        09      SUBS     r1,r1,#0x30
        0x000013aa:    2909        .)      CMP      r1,#9
        0x000013ac:    d9f3        ..      BLS      0x1396 ; _printf_core + 90
        0x000013ae:    7820         x      LDRB     r0,[r4,#0]
        0x000013b0:    286c        l(      CMP      r0,#0x6c
        0x000013b2:    d00e        ..      BEQ      0x13d2 ; _printf_core + 150
        0x000013b4:    dc04        ..      BGT      0x13c0 ; _printf_core + 132
        0x000013b6:    284c        L(      CMP      r0,#0x4c
        0x000013b8:    d013        ..      BEQ      0x13e2 ; _printf_core + 166
        0x000013ba:    286a        j(      CMP      r0,#0x6a
        0x000013bc:    d112        ..      BNE      0x13e4 ; _printf_core + 168
        0x000013be:    e004        ..      B        0x13ca ; _printf_core + 142
        0x000013c0:    2874        t(      CMP      r0,#0x74
        0x000013c2:    d00e        ..      BEQ      0x13e2 ; _printf_core + 166
        0x000013c4:    287a        z(      CMP      r0,#0x7a
        0x000013c6:    d10d        ..      BNE      0x13e4 ; _printf_core + 168
        0x000013c8:    e00b        ..      B        0x13e2 ; _printf_core + 166
        0x000013ca:    2001        .       MOVS     r0,#1
        0x000013cc:    0540        @.      LSLS     r0,r0,#21
        0x000013ce:    4305        .C      ORRS     r5,r5,r0
        0x000013d0:    e007        ..      B        0x13e2 ; _printf_core + 166
        0x000013d2:    2101        .!      MOVS     r1,#1
        0x000013d4:    0509        ..      LSLS     r1,r1,#20
        0x000013d6:    7862        bx      LDRB     r2,[r4,#1]
        0x000013d8:    430d        .C      ORRS     r5,r5,r1
        0x000013da:    4282        .B      CMP      r2,r0
        0x000013dc:    d101        ..      BNE      0x13e2 ; _printf_core + 166
        0x000013de:    186d        m.      ADDS     r5,r5,r1
        0x000013e0:    1c64        d.      ADDS     r4,r4,#1
        0x000013e2:    1c64        d.      ADDS     r4,r4,#1
        0x000013e4:    7820         x      LDRB     r0,[r4,#0]
        0x000013e6:    4686        .F      MOV      lr,r0
        0x000013e8:    2869        i(      CMP      r0,#0x69
        0x000013ea:    d04a        J.      BEQ      0x1482 ; _printf_core + 326
        0x000013ec:    dc08        ..      BGT      0x1400 ; _printf_core + 196
        0x000013ee:    2800        .(      CMP      r0,#0
        0x000013f0:    d0b4        ..      BEQ      0x135c ; _printf_core + 32
        0x000013f2:    2858        X(      CMP      r0,#0x58
        0x000013f4:    d06d        m.      BEQ      0x14d2 ; _printf_core + 406
        0x000013f6:    2863        c(      CMP      r0,#0x63
        0x000013f8:    d010        ..      BEQ      0x141c ; _printf_core + 224
        0x000013fa:    2864        d(      CMP      r0,#0x64
        0x000013fc:    d108        ..      BNE      0x1410 ; _printf_core + 212
        0x000013fe:    e040        @.      B        0x1482 ; _printf_core + 326
        0x00001400:    2870        p(      CMP      r0,#0x70
        0x00001402:    d06b        k.      BEQ      0x14dc ; _printf_core + 416
        0x00001404:    2873        s(      CMP      r0,#0x73
        0x00001406:    d012        ..      BEQ      0x142e ; _printf_core + 242
        0x00001408:    2875        u(      CMP      r0,#0x75
        0x0000140a:    d060        `.      BEQ      0x14ce ; _printf_core + 402
        0x0000140c:    2878        x(      CMP      r0,#0x78
        0x0000140e:    d060        `.      BEQ      0x14d2 ; _printf_core + 406
        0x00001410:    9a12        ..      LDR      r2,[sp,#0x48]
        0x00001412:    4670        pF      MOV      r0,lr
        0x00001414:    9911        ..      LDR      r1,[sp,#0x44]
        0x00001416:    4790        .G      BLX      r2
        0x00001418:    1c76        v.      ADDS     r6,r6,#1
        0x0000141a:    e0e5        ..      B        0x15e8 ; _printf_core + 684
        0x0000141c:    7838        8x      LDRB     r0,[r7,#0]
        0x0000141e:    4669        iF      MOV      r1,sp
        0x00001420:    7208        .r      STRB     r0,[r1,#8]
        0x00001422:    2000        .       MOVS     r0,#0
        0x00001424:    7248        Hr      STRB     r0,[r1,#9]
        0x00001426:    a802        ..      ADD      r0,sp,#8
        0x00001428:    9001        ..      STR      r0,[sp,#4]
        0x0000142a:    2001        .       MOVS     r0,#1
        0x0000142c:    e003        ..      B        0x1436 ; _printf_core + 250
        0x0000142e:    6838        8h      LDR      r0,[r7,#0]
        0x00001430:    9001        ..      STR      r0,[sp,#4]
        0x00001432:    2000        .       MOVS     r0,#0
        0x00001434:    43c0        .C      MVNS     r0,r0
        0x00001436:    1d3f        ?.      ADDS     r7,r7,#4
        0x00001438:    0769        i.      LSLS     r1,r5,#29
        0x0000143a:    d50c        ..      BPL      0x1456 ; _printf_core + 282
        0x0000143c:    2500        .%      MOVS     r5,#0
        0x0000143e:    e000        ..      B        0x1442 ; _printf_core + 262
        0x00001440:    1c6d        m.      ADDS     r5,r5,#1
        0x00001442:    9900        ..      LDR      r1,[sp,#0]
        0x00001444:    428d        .B      CMP      r5,r1
        0x00001446:    da0f        ..      BGE      0x1468 ; _printf_core + 300
        0x00001448:    4285        .B      CMP      r5,r0
        0x0000144a:    dbf9        ..      BLT      0x1440 ; _printf_core + 260
        0x0000144c:    9901        ..      LDR      r1,[sp,#4]
        0x0000144e:    5d49        I]      LDRB     r1,[r1,r5]
        0x00001450:    2900        .)      CMP      r1,#0
        0x00001452:    d1f5        ..      BNE      0x1440 ; _printf_core + 260
        0x00001454:    e008        ..      B        0x1468 ; _printf_core + 300
        0x00001456:    2500        .%      MOVS     r5,#0
        0x00001458:    e000        ..      B        0x145c ; _printf_core + 288
        0x0000145a:    1c6d        m.      ADDS     r5,r5,#1
        0x0000145c:    4285        .B      CMP      r5,r0
        0x0000145e:    dbfc        ..      BLT      0x145a ; _printf_core + 286
        0x00001460:    9901        ..      LDR      r1,[sp,#4]
        0x00001462:    5d49        I]      LDRB     r1,[r1,r5]
        0x00001464:    2900        .)      CMP      r1,#0
        0x00001466:    d1f8        ..      BNE      0x145a ; _printf_core + 286
        0x00001468:    1976        v.      ADDS     r6,r6,r5
        0x0000146a:    e007        ..      B        0x147c ; _printf_core + 320
        0x0000146c:    9801        ..      LDR      r0,[sp,#4]
        0x0000146e:    9901        ..      LDR      r1,[sp,#4]
        0x00001470:    7800        .x      LDRB     r0,[r0,#0]
        0x00001472:    1c49        I.      ADDS     r1,r1,#1
        0x00001474:    9101        ..      STR      r1,[sp,#4]
        0x00001476:    9a12        ..      LDR      r2,[sp,#0x48]
        0x00001478:    9911        ..      LDR      r1,[sp,#0x44]
        0x0000147a:    4790        .G      BLX      r2
        0x0000147c:    1e6d        m.      SUBS     r5,r5,#1
        0x0000147e:    d2f5        ..      BCS      0x146c ; _printf_core + 304
        0x00001480:    e0b2        ..      B        0x15e8 ; _printf_core + 684
        0x00001482:    200a        .       MOVS     r0,#0xa
        0x00001484:    9002        ..      STR      r0,[sp,#8]
        0x00001486:    2100        .!      MOVS     r1,#0
        0x00001488:    0268        h.      LSLS     r0,r5,#9
        0x0000148a:    0f40        @.      LSRS     r0,r0,#29
        0x0000148c:    9103        ..      STR      r1,[sp,#0xc]
        0x0000148e:    2802        .(      CMP      r0,#2
        0x00001490:    d00c        ..      BEQ      0x14ac ; _printf_core + 368
        0x00001492:    cf01        ..      LDM      r7!,{r0}
        0x00001494:    17c1        ..      ASRS     r1,r0,#31
        0x00001496:    4684        .F      MOV      r12,r0
        0x00001498:    2900        .)      CMP      r1,#0
        0x0000149a:    da0d        ..      BGE      0x14b8 ; _printf_core + 380
        0x0000149c:    4662        bF      MOV      r2,r12
        0x0000149e:    4608        .F      MOV      r0,r1
        0x000014a0:    4252        RB      RSBS     r2,r2,#0
        0x000014a2:    2100        .!      MOVS     r1,#0
        0x000014a4:    4181        .A      SBCS     r1,r1,r0
        0x000014a6:    4694        .F      MOV      r12,r2
        0x000014a8:    202d        -       MOVS     r0,#0x2d
        0x000014aa:    e008        ..      B        0x14be ; _printf_core + 386
        0x000014ac:    1dff        ..      ADDS     r7,r7,#7
        0x000014ae:    08ff        ..      LSRS     r7,r7,#3
        0x000014b0:    00ff        ..      LSLS     r7,r7,#3
        0x000014b2:    cf03        ..      LDM      r7!,{r0,r1}
        0x000014b4:    4684        .F      MOV      r12,r0
        0x000014b6:    e7ef        ..      B        0x1498 ; _printf_core + 348
        0x000014b8:    0528        (.      LSLS     r0,r5,#20
        0x000014ba:    d504        ..      BPL      0x14c6 ; _printf_core + 394
        0x000014bc:    202b        +       MOVS     r0,#0x2b
        0x000014be:    466a        jF      MOV      r2,sp
        0x000014c0:    7410        .t      STRB     r0,[r2,#0x10]
        0x000014c2:    2001        .       MOVS     r0,#1
        0x000014c4:    e03c        <.      B        0x1540 ; _printf_core + 516
        0x000014c6:    07e8        ..      LSLS     r0,r5,#31
        0x000014c8:    d03a        :.      BEQ      0x1540 ; _printf_core + 516
        0x000014ca:    2020                MOVS     r0,#0x20
        0x000014cc:    e7f7        ..      B        0x14be ; _printf_core + 386
        0x000014ce:    200a        .       MOVS     r0,#0xa
        0x000014d0:    e000        ..      B        0x14d4 ; _printf_core + 408
        0x000014d2:    2010        .       MOVS     r0,#0x10
        0x000014d4:    2100        .!      MOVS     r1,#0
        0x000014d6:    9103        ..      STR      r1,[sp,#0xc]
        0x000014d8:    9002        ..      STR      r0,[sp,#8]
        0x000014da:    e007        ..      B        0x14ec ; _printf_core + 432
        0x000014dc:    2010        .       MOVS     r0,#0x10
        0x000014de:    9002        ..      STR      r0,[sp,#8]
        0x000014e0:    2100        .!      MOVS     r1,#0
        0x000014e2:    2004        .       MOVS     r0,#4
        0x000014e4:    4305        .C      ORRS     r5,r5,r0
        0x000014e6:    2008        .       MOVS     r0,#8
        0x000014e8:    9103        ..      STR      r1,[sp,#0xc]
        0x000014ea:    9000        ..      STR      r0,[sp,#0]
        0x000014ec:    0268        h.      LSLS     r0,r5,#9
        0x000014ee:    0f40        @.      LSRS     r0,r0,#29
        0x000014f0:    2802        .(      CMP      r0,#2
        0x000014f2:    d010        ..      BEQ      0x1516 ; _printf_core + 474
        0x000014f4:    cf01        ..      LDM      r7!,{r0}
        0x000014f6:    2100        .!      MOVS     r1,#0
        0x000014f8:    4684        .F      MOV      r12,r0
        0x000014fa:    2000        .       MOVS     r0,#0
        0x000014fc:    900d        ..      STR      r0,[sp,#0x34]
        0x000014fe:    0728        (.      LSLS     r0,r5,#28
        0x00001500:    d51f        ..      BPL      0x1542 ; _printf_core + 518
        0x00001502:    4670        pF      MOV      r0,lr
        0x00001504:    2870        p(      CMP      r0,#0x70
        0x00001506:    d00c        ..      BEQ      0x1522 ; _printf_core + 486
        0x00001508:    9a02        ..      LDR      r2,[sp,#8]
        0x0000150a:    2010        .       MOVS     r0,#0x10
        0x0000150c:    9b03        ..      LDR      r3,[sp,#0xc]
        0x0000150e:    4042        B@      EORS     r2,r2,r0
        0x00001510:    431a        .C      ORRS     r2,r2,r3
        0x00001512:    d00c        ..      BEQ      0x152e ; _printf_core + 498
        0x00001514:    e015        ..      B        0x1542 ; _printf_core + 518
        0x00001516:    1dff        ..      ADDS     r7,r7,#7
        0x00001518:    08ff        ..      LSRS     r7,r7,#3
        0x0000151a:    00ff        ..      LSLS     r7,r7,#3
        0x0000151c:    cf03        ..      LDM      r7!,{r0,r1}
        0x0000151e:    4684        .F      MOV      r12,r0
        0x00001520:    e7eb        ..      B        0x14fa ; _printf_core + 446
        0x00001522:    2040        @       MOVS     r0,#0x40
        0x00001524:    466a        jF      MOV      r2,sp
        0x00001526:    7410        .t      STRB     r0,[r2,#0x10]
        0x00001528:    2001        .       MOVS     r0,#1
        0x0000152a:    900d        ..      STR      r0,[sp,#0x34]
        0x0000152c:    e00c        ..      B        0x1548 ; _printf_core + 524
        0x0000152e:    4660        `F      MOV      r0,r12
        0x00001530:    4308        .C      ORRS     r0,r0,r1
        0x00001532:    d006        ..      BEQ      0x1542 ; _printf_core + 518
        0x00001534:    2030        0       MOVS     r0,#0x30
        0x00001536:    466a        jF      MOV      r2,sp
        0x00001538:    7410        .t      STRB     r0,[r2,#0x10]
        0x0000153a:    4670        pF      MOV      r0,lr
        0x0000153c:    7450        Pt      STRB     r0,[r2,#0x11]
        0x0000153e:    2002        .       MOVS     r0,#2
        0x00001540:    900d        ..      STR      r0,[sp,#0x34]
        0x00001542:    4670        pF      MOV      r0,lr
        0x00001544:    2858        X(      CMP      r0,#0x58
        0x00001546:    d004        ..      BEQ      0x1552 ; _printf_core + 534
        0x00001548:    a029        ).      ADR      r0,{pc}+0xa8 ; 0x15f0
        0x0000154a:    9001        ..      STR      r0,[sp,#4]
        0x0000154c:    a80d        ..      ADD      r0,sp,#0x34
        0x0000154e:    900e        ..      STR      r0,[sp,#0x38]
        0x00001550:    e00d        ..      B        0x156e ; _printf_core + 562
        0x00001552:    a02c        ,.      ADR      r0,{pc}+0xb2 ; 0x1604
        0x00001554:    e7f9        ..      B        0x154a ; _printf_core + 526
        0x00001556:    4660        `F      MOV      r0,r12
        0x00001558:    9b03        ..      LDR      r3,[sp,#0xc]
        0x0000155a:    9a02        ..      LDR      r2,[sp,#8]
        0x0000155c:    f7fffdf4    ....    BL       __aeabi_uldivmod ; 0x1148
        0x00001560:    9b01        ..      LDR      r3,[sp,#4]
        0x00001562:    4684        .F      MOV      r12,r0
        0x00001564:    5c9b        .\      LDRB     r3,[r3,r2]
        0x00001566:    9a0e        ..      LDR      r2,[sp,#0x38]
        0x00001568:    1e52        R.      SUBS     r2,r2,#1
        0x0000156a:    920e        ..      STR      r2,[sp,#0x38]
        0x0000156c:    7013        .p      STRB     r3,[r2,#0]
        0x0000156e:    4660        `F      MOV      r0,r12
        0x00001570:    4308        .C      ORRS     r0,r0,r1
        0x00001572:    d1f0        ..      BNE      0x1556 ; _printf_core + 538
        0x00001574:    980e        ..      LDR      r0,[sp,#0x38]
        0x00001576:    a905        ..      ADD      r1,sp,#0x14
        0x00001578:    1a08        ..      SUBS     r0,r1,r0
        0x0000157a:    3020         0      ADDS     r0,r0,#0x20
        0x0000157c:    9001        ..      STR      r0,[sp,#4]
        0x0000157e:    0768        h.      LSLS     r0,r5,#29
        0x00001580:    d501        ..      BPL      0x1586 ; _printf_core + 586
        0x00001582:    9800        ..      LDR      r0,[sp,#0]
        0x00001584:    e001        ..      B        0x158a ; _printf_core + 590
        0x00001586:    2001        .       MOVS     r0,#1
        0x00001588:    9000        ..      STR      r0,[sp,#0]
        0x0000158a:    9901        ..      LDR      r1,[sp,#4]
        0x0000158c:    4288        .B      CMP      r0,r1
        0x0000158e:    dd03        ..      BLE      0x1598 ; _printf_core + 604
        0x00001590:    4601        .F      MOV      r1,r0
        0x00001592:    9801        ..      LDR      r0,[sp,#4]
        0x00001594:    1a08        ..      SUBS     r0,r1,r0
        0x00001596:    e000        ..      B        0x159a ; _printf_core + 606
        0x00001598:    2000        .       MOVS     r0,#0
        0x0000159a:    2500        .%      MOVS     r5,#0
        0x0000159c:    9000        ..      STR      r0,[sp,#0]
        0x0000159e:    e006        ..      B        0x15ae ; _printf_core + 626
        0x000015a0:    a804        ..      ADD      r0,sp,#0x10
        0x000015a2:    9a12        ..      LDR      r2,[sp,#0x48]
        0x000015a4:    5d40        @]      LDRB     r0,[r0,r5]
        0x000015a6:    9911        ..      LDR      r1,[sp,#0x44]
        0x000015a8:    4790        .G      BLX      r2
        0x000015aa:    1c6d        m.      ADDS     r5,r5,#1
        0x000015ac:    1c76        v.      ADDS     r6,r6,#1
        0x000015ae:    980d        ..      LDR      r0,[sp,#0x34]
        0x000015b0:    4285        .B      CMP      r5,r0
        0x000015b2:    dbf5        ..      BLT      0x15a0 ; _printf_core + 612
        0x000015b4:    e004        ..      B        0x15c0 ; _printf_core + 644
        0x000015b6:    9a12        ..      LDR      r2,[sp,#0x48]
        0x000015b8:    2030        0       MOVS     r0,#0x30
        0x000015ba:    9911        ..      LDR      r1,[sp,#0x44]
        0x000015bc:    4790        .G      BLX      r2
        0x000015be:    1c76        v.      ADDS     r6,r6,#1
        0x000015c0:    9900        ..      LDR      r1,[sp,#0]
        0x000015c2:    1e48        H.      SUBS     r0,r1,#1
        0x000015c4:    9000        ..      STR      r0,[sp,#0]
        0x000015c6:    2900        .)      CMP      r1,#0
        0x000015c8:    dcf5        ..      BGT      0x15b6 ; _printf_core + 634
        0x000015ca:    e008        ..      B        0x15de ; _printf_core + 674
        0x000015cc:    980e        ..      LDR      r0,[sp,#0x38]
        0x000015ce:    990e        ..      LDR      r1,[sp,#0x38]
        0x000015d0:    7800        .x      LDRB     r0,[r0,#0]
        0x000015d2:    1c49        I.      ADDS     r1,r1,#1
        0x000015d4:    910e        ..      STR      r1,[sp,#0x38]
        0x000015d6:    9a12        ..      LDR      r2,[sp,#0x48]
        0x000015d8:    9911        ..      LDR      r1,[sp,#0x44]
        0x000015da:    4790        .G      BLX      r2
        0x000015dc:    1c76        v.      ADDS     r6,r6,#1
        0x000015de:    9901        ..      LDR      r1,[sp,#4]
        0x000015e0:    1e48        H.      SUBS     r0,r1,#1
        0x000015e2:    9001        ..      STR      r0,[sp,#4]
        0x000015e4:    2900        .)      CMP      r1,#0
        0x000015e6:    dcf1        ..      BGT      0x15cc ; _printf_core + 656
        0x000015e8:    1c64        d.      ADDS     r4,r4,#1
        0x000015ea:    e6b4        ..      B        0x1356 ; _printf_core + 26
    $d
        0x000015ec:    00012809    .(..    DCD    75785
        0x000015f0:    33323130    0123    DCD    858927408
        0x000015f4:    37363534    4567    DCD    926299444
        0x000015f8:    62613938    89ab    DCD    1650538808
        0x000015fc:    66656463    cdef    DCD    1717920867
        0x00001600:    00000000    ....    DCD    0
        0x00001604:    33323130    0123    DCD    858927408
        0x00001608:    37363534    4567    DCD    926299444
        0x0000160c:    42413938    89AB    DCD    1111570744
        0x00001610:    46454443    CDEF    DCD    1178944579
        0x00001614:    00000000    ....    DCD    0
    $t
    i.isrMessageGet
    isrMessageGet
        0x00001618:    b50e        ..      PUSH     {r1-r3,lr}
        0x0000161a:    4602        .F      MOV      r2,r0
        0x0000161c:    2080        .       MOVS     r0,#0x80
        0x0000161e:    2a00        .*      CMP      r2,#0
        0x00001620:    d00d        ..      BEQ      0x163e ; isrMessageGet + 38
        0x00001622:    2900        .)      CMP      r1,#0
        0x00001624:    d10b        ..      BNE      0x163e ; isrMessageGet + 38
        0x00001626:    7811        .x      LDRB     r1,[r2,#0]
        0x00001628:    2901        .)      CMP      r1,#1
        0x0000162a:    d108        ..      BNE      0x163e ; isrMessageGet + 38
        0x0000162c:    4610        .F      MOV      r0,r2
        0x0000162e:    a901        ..      ADD      r1,sp,#4
        0x00001630:    f000f821    ..!.    BL       isr_mbx_receive ; 0x1676
        0x00001634:    2804        .(      CMP      r0,#4
        0x00001636:    d001        ..      BEQ      0x163c ; isrMessageGet + 36
        0x00001638:    2000        .       MOVS     r0,#0
        0x0000163a:    e000        ..      B        0x163e ; isrMessageGet + 38
        0x0000163c:    2010        .       MOVS     r0,#0x10
        0x0000163e:    9a02        ..      LDR      r2,[sp,#8]
        0x00001640:    9901        ..      LDR      r1,[sp,#4]
        0x00001642:    b003        ..      ADD      sp,sp,#0xc
        0x00001644:    bd00        ..      POP      {pc}
    i.isrMessagePut
    isrMessagePut
        0x00001646:    b570        p.      PUSH     {r4-r6,lr}
        0x00001648:    460d        .F      MOV      r5,r1
        0x0000164a:    0004        ..      MOVS     r4,r0
        0x0000164c:    d004        ..      BEQ      0x1658 ; isrMessagePut + 18
        0x0000164e:    2a00        .*      CMP      r2,#0
        0x00001650:    d102        ..      BNE      0x1658 ; isrMessagePut + 18
        0x00001652:    7820         x      LDRB     r0,[r4,#0]
        0x00001654:    2801        .(      CMP      r0,#1
        0x00001656:    d001        ..      BEQ      0x165c ; isrMessagePut + 22
        0x00001658:    2080        .       MOVS     r0,#0x80
        0x0000165a:    bd70        p.      POP      {r4-r6,pc}
        0x0000165c:    4620         F      MOV      r0,r4
        0x0000165e:    f000fb4d    ..M.    BL       rt_mbx_check ; 0x1cfc
        0x00001662:    2800        .(      CMP      r0,#0
        0x00001664:    d005        ..      BEQ      0x1672 ; isrMessagePut + 44
        0x00001666:    4629        )F      MOV      r1,r5
        0x00001668:    4620         F      MOV      r0,r4
        0x0000166a:    f000f82a    ..*.    BL       isr_mbx_send ; 0x16c2
        0x0000166e:    2000        .       MOVS     r0,#0
        0x00001670:    bd70        p.      POP      {r4-r6,pc}
        0x00001672:    2081        .       MOVS     r0,#0x81
        0x00001674:    bd70        p.      POP      {r4-r6,pc}
    i.isr_mbx_receive
    isr_mbx_receive
        0x00001676:    b510        ..      PUSH     {r4,lr}
        0x00001678:    4604        .F      MOV      r4,r0
        0x0000167a:    8980        ..      LDRH     r0,[r0,#0xc]
        0x0000167c:    2800        .(      CMP      r0,#0
        0x0000167e:    d01f        ..      BEQ      0x16c0 ; isr_mbx_receive + 74
        0x00001680:    8960        `.      LDRH     r0,[r4,#0xa]
        0x00001682:    0080        ..      LSLS     r0,r0,#2
        0x00001684:    1900        ..      ADDS     r0,r0,r4
        0x00001686:    6900        .i      LDR      r0,[r0,#0x10]
        0x00001688:    6008        .`      STR      r0,[r1,#0]
        0x0000168a:    6860        `h      LDR      r0,[r4,#4]
        0x0000168c:    2800        .(      CMP      r0,#0
        0x0000168e:    d008        ..      BEQ      0x16a2 ; isr_mbx_receive + 44
        0x00001690:    7860        `x      LDRB     r0,[r4,#1]
        0x00001692:    2802        .(      CMP      r0,#2
        0x00001694:    d105        ..      BNE      0x16a2 ; isr_mbx_receive + 44
        0x00001696:    2100        .!      MOVS     r1,#0
        0x00001698:    4620         F      MOV      r0,r4
        0x0000169a:    f000fd23    ..#.    BL       rt_psq_enq ; 0x20e4
        0x0000169e:    f000fd11    ....    BL       rt_psh_req ; 0x20c4
        0x000016a2:    b672        r.      CPSID    i
        0x000016a4:    89a0        ..      LDRH     r0,[r4,#0xc]
        0x000016a6:    1e40        @.      SUBS     r0,r0,#1
        0x000016a8:    81a0        ..      STRH     r0,[r4,#0xc]
        0x000016aa:    b662        b.      CPSIE    i
        0x000016ac:    8960        `.      LDRH     r0,[r4,#0xa]
        0x000016ae:    1c40        @.      ADDS     r0,r0,#1
        0x000016b0:    b280        ..      UXTH     r0,r0
        0x000016b2:    8160        `.      STRH     r0,[r4,#0xa]
        0x000016b4:    89e1        ..      LDRH     r1,[r4,#0xe]
        0x000016b6:    4288        .B      CMP      r0,r1
        0x000016b8:    d101        ..      BNE      0x16be ; isr_mbx_receive + 72
        0x000016ba:    2000        .       MOVS     r0,#0
        0x000016bc:    8160        `.      STRH     r0,[r4,#0xa]
        0x000016be:    2004        .       MOVS     r0,#4
        0x000016c0:    bd10        ..      POP      {r4,pc}
    i.isr_mbx_send
    isr_mbx_send
        0x000016c2:    b510        ..      PUSH     {r4,lr}
        0x000016c4:    f000fd0e    ....    BL       rt_psq_enq ; 0x20e4
        0x000016c8:    f000fcfc    ....    BL       rt_psh_req ; 0x20c4
        0x000016cc:    bd10        ..      POP      {r4,pc}
        0x000016ce:    0000        ..      MOVS     r0,r0
    i.osDelay
    osDelay
        0x000016d0:    b580        ..      PUSH     {r7,lr}
        0x000016d2:    f3ef8105    ....    MRS      r1,IPSR
        0x000016d6:    2900        .)      CMP      r1,#0
        0x000016d8:    d001        ..      BEQ      0x16de ; osDelay + 14
        0x000016da:    2082        .       MOVS     r0,#0x82
        0x000016dc:    bd80        ..      POP      {r7,pc}
        0x000016de:    4f02        .O      LDR      r7,[pc,#8] ; [0x16e8] = 0x2725
        0x000016e0:    46bc        .F      MOV      r12,r7
        0x000016e2:    df00        ..      SVC      #0x0 ; formerly SWI
        0x000016e4:    bd80        ..      POP      {r7,pc}
    $d
        0x000016e6:    0000        ..      DCW    0
        0x000016e8:    00002725    %'..    DCD    10021
    $t
    i.osKernelInitialize
    osKernelInitialize
        0x000016ec:    b580        ..      PUSH     {r7,lr}
        0x000016ee:    f3ef8005    ....    MRS      r0,IPSR
        0x000016f2:    2800        .(      CMP      r0,#0
        0x000016f4:    d001        ..      BEQ      0x16fa ; osKernelInitialize + 14
        0x000016f6:    2082        .       MOVS     r0,#0x82
        0x000016f8:    bd80        ..      POP      {r7,pc}
        0x000016fa:    f3ef8014    ....    MRS      r0,CONTROL
        0x000016fe:    07c0        ..      LSLS     r0,r0,#31
        0x00001700:    d003        ..      BEQ      0x170a ; osKernelInitialize + 30
        0x00001702:    4f03        .O      LDR      r7,[pc,#12] ; [0x1710] = 0x2739
        0x00001704:    46bc        .F      MOV      r12,r7
        0x00001706:    df00        ..      SVC      #0x0 ; formerly SWI
        0x00001708:    bd80        ..      POP      {r7,pc}
        0x0000170a:    f001f815    ....    BL       svcKernelInitialize ; 0x2738
        0x0000170e:    bd80        ..      POP      {r7,pc}
    $d
        0x00001710:    00002739    9'..    DCD    10041
    $t
    i.osKernelStart
    osKernelStart
        0x00001714:    b580        ..      PUSH     {r7,lr}
        0x00001716:    b088        ..      SUB      sp,sp,#0x20
        0x00001718:    f3ef8005    ....    MRS      r0,IPSR
        0x0000171c:    2800        .(      CMP      r0,#0
        0x0000171e:    d002        ..      BEQ      0x1726 ; osKernelStart + 18
        0x00001720:    2082        .       MOVS     r0,#0x82
        0x00001722:    b008        ..      ADD      sp,sp,#0x20
        0x00001724:    bd80        ..      POP      {r7,pc}
        0x00001726:    f3ef8014    ....    MRS      r0,CONTROL
        0x0000172a:    0781        ..      LSLS     r1,r0,#30
        0x0000172c:    4812        .H      LDR      r0,[pc,#72] ; [0x1778] = 0x2b54
        0x0000172e:    0f89        ..      LSRS     r1,r1,#30
        0x00001730:    d006        ..      BEQ      0x1740 ; osKernelStart + 44
        0x00001732:    2901        .)      CMP      r1,#1
        0x00001734:    d01a        ..      BEQ      0x176c ; osKernelStart + 88
        0x00001736:    2902        .)      CMP      r1,#2
        0x00001738:    d010        ..      BEQ      0x175c ; osKernelStart + 72
        0x0000173a:    2903        .)      CMP      r1,#3
        0x0000173c:    d118        ..      BNE      0x1770 ; osKernelStart + 92
        0x0000173e:    e012        ..      B        0x1766 ; osKernelStart + 82
        0x00001740:    a908        ..      ADD      r1,sp,#0x20
        0x00001742:    f3818809    ....    MSR      PSP,r1
        0x00001746:    7800        .x      LDRB     r0,[r0,#0]
        0x00001748:    07c0        ..      LSLS     r0,r0,#31
        0x0000174a:    d00a        ..      BEQ      0x1762 ; osKernelStart + 78
        0x0000174c:    2002        .       MOVS     r0,#2
        0x0000174e:    f3808814    ....    MSR      CONTROL,r0
        0x00001752:    f3bf8f4f    ..O.    DSB      
        0x00001756:    f3bf8f6f    ..o.    ISB      
        0x0000175a:    e009        ..      B        0x1770 ; osKernelStart + 92
        0x0000175c:    7800        .x      LDRB     r0,[r0,#0]
        0x0000175e:    07c0        ..      LSLS     r0,r0,#31
        0x00001760:    d106        ..      BNE      0x1770 ; osKernelStart + 92
        0x00001762:    2003        .       MOVS     r0,#3
        0x00001764:    e7f3        ..      B        0x174e ; osKernelStart + 58
        0x00001766:    7800        .x      LDRB     r0,[r0,#0]
        0x00001768:    07c0        ..      LSLS     r0,r0,#31
        0x0000176a:    d001        ..      BEQ      0x1770 ; osKernelStart + 92
        0x0000176c:    20ff        .       MOVS     r0,#0xff
        0x0000176e:    e7d8        ..      B        0x1722 ; osKernelStart + 14
        0x00001770:    4f02        .O      LDR      r7,[pc,#8] ; [0x177c] = 0x27b1
        0x00001772:    46bc        .F      MOV      r12,r7
        0x00001774:    df00        ..      SVC      #0x0 ; formerly SWI
        0x00001776:    e7d4        ..      B        0x1722 ; osKernelStart + 14
    $d
        0x00001778:    00002b54    T+..    DCD    11092
        0x0000177c:    000027b1    .'..    DCD    10161
    $t
    i.osMessageGet
    osMessageGet
        0x00001780:    b580        ..      PUSH     {r7,lr}
        0x00001782:    f3ef8205    ....    MRS      r2,IPSR
        0x00001786:    2a00        .*      CMP      r2,#0
        0x00001788:    d002        ..      BEQ      0x1790 ; osMessageGet + 16
        0x0000178a:    f7ffff45    ..E.    BL       isrMessageGet ; 0x1618
        0x0000178e:    bd80        ..      POP      {r7,pc}
        0x00001790:    4f01        .O      LDR      r7,[pc,#4] ; [0x1798] = 0x2827
        0x00001792:    46bc        .F      MOV      r12,r7
        0x00001794:    df00        ..      SVC      #0x0 ; formerly SWI
        0x00001796:    bd80        ..      POP      {r7,pc}
    $d
        0x00001798:    00002827    '(..    DCD    10279
    $t
    i.osMutexCreate
    osMutexCreate
        0x0000179c:    b580        ..      PUSH     {r7,lr}
        0x0000179e:    f3ef8105    ....    MRS      r1,IPSR
        0x000017a2:    2900        .)      CMP      r1,#0
        0x000017a4:    d001        ..      BEQ      0x17aa ; osMutexCreate + 14
        0x000017a6:    2000        .       MOVS     r0,#0
        0x000017a8:    bd80        ..      POP      {r7,pc}
        0x000017aa:    f3ef8114    ....    MRS      r1,CONTROL
        0x000017ae:    07c9        ..      LSLS     r1,r1,#31
        0x000017b0:    d103        ..      BNE      0x17ba ; osMutexCreate + 30
        0x000017b2:    4905        .I      LDR      r1,[pc,#20] ; [0x17c8] = 0x20000088
        0x000017b4:    7849        Ix      LDRB     r1,[r1,#1]
        0x000017b6:    2900        .)      CMP      r1,#0
        0x000017b8:    d003        ..      BEQ      0x17c2 ; osMutexCreate + 38
        0x000017ba:    4f04        .O      LDR      r7,[pc,#16] ; [0x17cc] = 0x2863
        0x000017bc:    46bc        .F      MOV      r12,r7
        0x000017be:    df00        ..      SVC      #0x0 ; formerly SWI
        0x000017c0:    bd80        ..      POP      {r7,pc}
        0x000017c2:    f001f84e    ..N.    BL       svcMutexCreate ; 0x2862
        0x000017c6:    bd80        ..      POP      {r7,pc}
    $d
        0x000017c8:    20000088    ...     DCD    536871048
        0x000017cc:    00002863    c(..    DCD    10339
    $t
    i.osMutexRelease
    osMutexRelease
        0x000017d0:    b580        ..      PUSH     {r7,lr}
        0x000017d2:    f3ef8105    ....    MRS      r1,IPSR
        0x000017d6:    2900        .)      CMP      r1,#0
        0x000017d8:    d001        ..      BEQ      0x17de ; osMutexRelease + 14
        0x000017da:    2082        .       MOVS     r0,#0x82
        0x000017dc:    bd80        ..      POP      {r7,pc}
        0x000017de:    4f02        .O      LDR      r7,[pc,#8] ; [0x17e8] = 0x2883
        0x000017e0:    46bc        .F      MOV      r12,r7
        0x000017e2:    df00        ..      SVC      #0x0 ; formerly SWI
        0x000017e4:    bd80        ..      POP      {r7,pc}
    $d
        0x000017e6:    0000        ..      DCW    0
        0x000017e8:    00002883    .(..    DCD    10371
    $t
    i.osMutexWait
    osMutexWait
        0x000017ec:    b580        ..      PUSH     {r7,lr}
        0x000017ee:    f3ef8205    ....    MRS      r2,IPSR
        0x000017f2:    2a00        .*      CMP      r2,#0
        0x000017f4:    d001        ..      BEQ      0x17fa ; osMutexWait + 14
        0x000017f6:    2082        .       MOVS     r0,#0x82
        0x000017f8:    bd80        ..      POP      {r7,pc}
        0x000017fa:    4f02        .O      LDR      r7,[pc,#8] ; [0x1804] = 0x28a7
        0x000017fc:    46bc        .F      MOV      r12,r7
        0x000017fe:    df00        ..      SVC      #0x0 ; formerly SWI
        0x00001800:    bd80        ..      POP      {r7,pc}
    $d
        0x00001802:    0000        ..      DCW    0
        0x00001804:    000028a7    .(..    DCD    10407
    $t
    i.osThreadCreate
    osThreadCreate
        0x00001808:    b580        ..      PUSH     {r7,lr}
        0x0000180a:    f3ef8205    ....    MRS      r2,IPSR
        0x0000180e:    2a00        .*      CMP      r2,#0
        0x00001810:    d001        ..      BEQ      0x1816 ; osThreadCreate + 14
        0x00001812:    2000        .       MOVS     r0,#0
        0x00001814:    bd80        ..      POP      {r7,pc}
        0x00001816:    f3ef8214    ....    MRS      r2,CONTROL
        0x0000181a:    07d2        ..      LSLS     r2,r2,#31
        0x0000181c:    d103        ..      BNE      0x1826 ; osThreadCreate + 30
        0x0000181e:    4a05        .J      LDR      r2,[pc,#20] ; [0x1834] = 0x20000088
        0x00001820:    7852        Rx      LDRB     r2,[r2,#1]
        0x00001822:    2a00        .*      CMP      r2,#0
        0x00001824:    d003        ..      BEQ      0x182e ; osThreadCreate + 38
        0x00001826:    4f04        .O      LDR      r7,[pc,#16] ; [0x1838] = 0x28e5
        0x00001828:    46bc        .F      MOV      r12,r7
        0x0000182a:    df00        ..      SVC      #0x0 ; formerly SWI
        0x0000182c:    bd80        ..      POP      {r7,pc}
        0x0000182e:    f001f859    ..Y.    BL       svcThreadCreate ; 0x28e4
        0x00001832:    bd80        ..      POP      {r7,pc}
    $d
        0x00001834:    20000088    ...     DCD    536871048
        0x00001838:    000028e5    .(..    DCD    10469
    $t
    i.osThreadExit
    osThreadExit
        0x0000183c:    4f03        .O      LDR      r7,[pc,#12] ; [0x184c] = 0x2959
        0x0000183e:    46bc        .F      MOV      r12,r7
        0x00001840:    df00        ..      SVC      #0x0 ; formerly SWI
        0x00001842:    4f03        .O      LDR      r7,[pc,#12] ; [0x1850] = 0x2975
        0x00001844:    46bc        .F      MOV      r12,r7
        0x00001846:    df00        ..      SVC      #0x0 ; formerly SWI
        0x00001848:    e7fe        ..      B        0x1848 ; osThreadExit + 12
    $d
        0x0000184a:    0000        ..      DCW    0
        0x0000184c:    00002959    Y)..    DCD    10585
        0x00001850:    00002975    u)..    DCD    10613
    $t
    i.osTimerCall
    osTimerCall
        0x00001854:    b580        ..      PUSH     {r7,lr}
        0x00001856:    4f02        .O      LDR      r7,[pc,#8] ; [0x1860] = 0x29b1
        0x00001858:    46bc        .F      MOV      r12,r7
        0x0000185a:    df00        ..      SVC      #0x0 ; formerly SWI
        0x0000185c:    bd80        ..      POP      {r7,pc}
    $d
        0x0000185e:    0000        ..      DCW    0
        0x00001860:    000029b1    .)..    DCD    10673
    $t
    i.osTimerCreate
    osTimerCreate
        0x00001864:    b580        ..      PUSH     {r7,lr}
        0x00001866:    f3ef8305    ....    MRS      r3,IPSR
        0x0000186a:    2b00        .+      CMP      r3,#0
        0x0000186c:    d001        ..      BEQ      0x1872 ; osTimerCreate + 14
        0x0000186e:    2000        .       MOVS     r0,#0
        0x00001870:    bd80        ..      POP      {r7,pc}
        0x00001872:    f3ef8314    ....    MRS      r3,CONTROL
        0x00001876:    07db        ..      LSLS     r3,r3,#31
        0x00001878:    d103        ..      BNE      0x1882 ; osTimerCreate + 30
        0x0000187a:    4b05        .K      LDR      r3,[pc,#20] ; [0x1890] = 0x20000088
        0x0000187c:    785b        [x      LDRB     r3,[r3,#1]
        0x0000187e:    2b00        .+      CMP      r3,#0
        0x00001880:    d003        ..      BEQ      0x188a ; osTimerCreate + 38
        0x00001882:    4f04        .O      LDR      r7,[pc,#16] ; [0x1894] = 0x29cd
        0x00001884:    46bc        .F      MOV      r12,r7
        0x00001886:    df00        ..      SVC      #0x0 ; formerly SWI
        0x00001888:    bd80        ..      POP      {r7,pc}
        0x0000188a:    f001f89f    ....    BL       svcTimerCreate ; 0x29cc
        0x0000188e:    bd80        ..      POP      {r7,pc}
    $d
        0x00001890:    20000088    ...     DCD    536871048
        0x00001894:    000029cd    .)..    DCD    10701
    $t
    i.osTimerStart
    osTimerStart
        0x00001898:    b580        ..      PUSH     {r7,lr}
        0x0000189a:    f3ef8205    ....    MRS      r2,IPSR
        0x0000189e:    2a00        .*      CMP      r2,#0
        0x000018a0:    d001        ..      BEQ      0x18a6 ; osTimerStart + 14
        0x000018a2:    2082        .       MOVS     r0,#0x82
        0x000018a4:    bd80        ..      POP      {r7,pc}
        0x000018a6:    4f02        .O      LDR      r7,[pc,#8] ; [0x18b0] = 0x2a0d
        0x000018a8:    46bc        .F      MOV      r12,r7
        0x000018aa:    df00        ..      SVC      #0x0 ; formerly SWI
        0x000018ac:    bd80        ..      POP      {r7,pc}
    $d
        0x000018ae:    0000        ..      DCW    0
        0x000018b0:    00002a0d    .*..    DCD    10765
    $t
    i.osTimerThread
    osTimerThread
        0x000018b4:    2500        .%      MOVS     r5,#0
        0x000018b6:    4c09        .L      LDR      r4,[pc,#36] ; [0x18dc] = 0x2000007c
        0x000018b8:    43ed        .C      MVNS     r5,r5
        0x000018ba:    4629        )F      MOV      r1,r5
        0x000018bc:    6820         h      LDR      r0,[r4,#0]
        0x000018be:    f7ffff5f    .._.    BL       osMessageGet ; 0x1780
        0x000018c2:    4602        .F      MOV      r2,r0
        0x000018c4:    4608        .F      MOV      r0,r1
        0x000018c6:    2a10        .*      CMP      r2,#0x10
        0x000018c8:    d1f7        ..      BNE      0x18ba ; osTimerThread + 6
        0x000018ca:    f7ffffc3    ....    BL       osTimerCall ; 0x1854
        0x000018ce:    2800        .(      CMP      r0,#0
        0x000018d0:    d0f3        ..      BEQ      0x18ba ; osTimerThread + 6
        0x000018d2:    4602        .F      MOV      r2,r0
        0x000018d4:    4608        .F      MOV      r0,r1
        0x000018d6:    4790        .G      BLX      r2
        0x000018d8:    e7ef        ..      B        0x18ba ; osTimerThread + 6
    $d
        0x000018da:    0000        ..      DCW    0
        0x000018dc:    2000007c    |..     DCD    536871036
    $t
    i.os_tick_init
    os_tick_init
        0x000018e0:    4807        .H      LDR      r0,[pc,#28] ; [0x1900] = 0x2b50
        0x000018e2:    6801        .h      LDR      r1,[r0,#0]
        0x000018e4:    4807        .H      LDR      r0,[pc,#28] ; [0x1904] = 0xe000e000
        0x000018e6:    6141        Aa      STR      r1,[r0,#0x14]
        0x000018e8:    2100        .!      MOVS     r1,#0
        0x000018ea:    6181        .a      STR      r1,[r0,#0x18]
        0x000018ec:    2107        .!      MOVS     r1,#7
        0x000018ee:    6101        .a      STR      r1,[r0,#0x10]
        0x000018f0:    4805        .H      LDR      r0,[pc,#20] ; [0x1908] = 0xe000ed00
        0x000018f2:    6a01        .j      LDR      r1,[r0,#0x20]
        0x000018f4:    22ff        ."      MOVS     r2,#0xff
        0x000018f6:    0612        ..      LSLS     r2,r2,#24
        0x000018f8:    4311        .C      ORRS     r1,r1,r2
        0x000018fa:    6201        .b      STR      r1,[r0,#0x20]
        0x000018fc:    1740        @.      ASRS     r0,r0,#29
        0x000018fe:    4770        pG      BX       lr
    $d
        0x00001900:    00002b50    P+..    DCD    11088
        0x00001904:    e000e000    ....    DCD    3758153728
        0x00001908:    e000ed00    ....    DCD    3758157056
    $t
    i.os_tick_irqack
    os_tick_irqack
        0x0000190c:    4770        pG      BX       lr
        0x0000190e:    0000        ..      MOVS     r0,r0
    i.parse_g
    parse_g
        0x00001910:    b5ff        ..      PUSH     {r0-r7,lr}
        0x00001912:    b083        ..      SUB      sp,sp,#0xc
        0x00001914:    4605        .F      MOV      r5,r0
        0x00001916:    4628        (F      MOV      r0,r5
        0x00001918:    f7fffc78    ..x.    BL       strlen ; 0x120c
        0x0000191c:    9002        ..      STR      r0,[sp,#8]
        0x0000191e:    980d        ..      LDR      r0,[sp,#0x34]
        0x00001920:    f7fffc74    ..t.    BL       strlen ; 0x120c
        0x00001924:    9001        ..      STR      r0,[sp,#4]
        0x00001926:    9901        ..      LDR      r1,[sp,#4]
        0x00001928:    980d        ..      LDR      r0,[sp,#0x34]
        0x0000192a:    f7fffc44    ..D.    BL       __aeabi_memclr ; 0x11b6
        0x0000192e:    2400        .$      MOVS     r4,#0
        0x00001930:    2600        .&      MOVS     r6,#0
        0x00001932:    e00a        ..      B        0x194a ; parse_g + 58
        0x00001934:    5d29        )]      LDRB     r1,[r5,r4]
        0x00001936:    980c        ..      LDR      r0,[sp,#0x30]
        0x00001938:    4281        .B      CMP      r1,r0
        0x0000193a:    d101        ..      BNE      0x1940 ; parse_g + 48
        0x0000193c:    1c76        v.      ADDS     r6,r6,#1
        0x0000193e:    9400        ..      STR      r4,[sp,#0]
        0x00001940:    9805        ..      LDR      r0,[sp,#0x14]
        0x00001942:    4286        .B      CMP      r6,r0
        0x00001944:    db00        ..      BLT      0x1948 ; parse_g + 56
        0x00001946:    4c12        .L      LDR      r4,[pc,#72] ; [0x1990] = 0x26ac
        0x00001948:    1c64        d.      ADDS     r4,r4,#1
        0x0000194a:    9802        ..      LDR      r0,[sp,#8]
        0x0000194c:    4284        .B      CMP      r4,r0
        0x0000194e:    dbf1        ..      BLT      0x1934 ; parse_g + 36
        0x00001950:    2400        .$      MOVS     r4,#0
        0x00001952:    2600        .&      MOVS     r6,#0
        0x00001954:    e00a        ..      B        0x196c ; parse_g + 92
        0x00001956:    5d29        )]      LDRB     r1,[r5,r4]
        0x00001958:    9806        ..      LDR      r0,[sp,#0x18]
        0x0000195a:    4281        .B      CMP      r1,r0
        0x0000195c:    d101        ..      BNE      0x1962 ; parse_g + 82
        0x0000195e:    1c76        v.      ADDS     r6,r6,#1
        0x00001960:    4627        'F      MOV      r7,r4
        0x00001962:    9804        ..      LDR      r0,[sp,#0x10]
        0x00001964:    4286        .B      CMP      r6,r0
        0x00001966:    db00        ..      BLT      0x196a ; parse_g + 90
        0x00001968:    4c09        .L      LDR      r4,[pc,#36] ; [0x1990] = 0x26ac
        0x0000196a:    1c64        d.      ADDS     r4,r4,#1
        0x0000196c:    9802        ..      LDR      r0,[sp,#8]
        0x0000196e:    4284        .B      CMP      r4,r0
        0x00001970:    dbf1        ..      BLT      0x1956 ; parse_g + 70
        0x00001972:    2400        .$      MOVS     r4,#0
        0x00001974:    e005        ..      B        0x1982 ; parse_g + 114
        0x00001976:    1938        8.      ADDS     r0,r7,r4
        0x00001978:    1c40        @.      ADDS     r0,r0,#1
        0x0000197a:    5c29        )\      LDRB     r1,[r5,r0]
        0x0000197c:    980d        ..      LDR      r0,[sp,#0x34]
        0x0000197e:    5501        .U      STRB     r1,[r0,r4]
        0x00001980:    1c64        d.      ADDS     r4,r4,#1
        0x00001982:    9800        ..      LDR      r0,[sp,#0]
        0x00001984:    1bc0        ..      SUBS     r0,r0,r7
        0x00001986:    1e40        @.      SUBS     r0,r0,#1
        0x00001988:    42a0        .B      CMP      r0,r4
        0x0000198a:    dcf4        ..      BGT      0x1976 ; parse_g + 102
        0x0000198c:    b007        ..      ADD      sp,sp,#0x1c
        0x0000198e:    bdf0        ..      POP      {r4-r7,pc}
    $d
        0x00001990:    000026ac    .&..    DCD    9900
    $t
    i.rt_alloc_box
    rt_alloc_box
        0x00001994:    4601        .F      MOV      r1,r0
        0x00001996:    f3ef8010    ....    MRS      r0,PRIMASK
        0x0000199a:    07c2        ..      LSLS     r2,r0,#31
        0x0000199c:    0fd2        ..      LSRS     r2,r2,#31
        0x0000199e:    b672        r.      CPSID    i
        0x000019a0:    6808        .h      LDR      r0,[r1,#0]
        0x000019a2:    2800        .(      CMP      r0,#0
        0x000019a4:    d001        ..      BEQ      0x19aa ; rt_alloc_box + 22
        0x000019a6:    6803        .h      LDR      r3,[r0,#0]
        0x000019a8:    600b        .`      STR      r3,[r1,#0]
        0x000019aa:    2a00        .*      CMP      r2,#0
        0x000019ac:    d100        ..      BNE      0x19b0 ; rt_alloc_box + 28
        0x000019ae:    b662        b.      CPSIE    i
        0x000019b0:    4770        pG      BX       lr
    i.rt_alloc_mem
    rt_alloc_mem
        0x000019b2:    b510        ..      PUSH     {r4,lr}
        0x000019b4:    2800        .(      CMP      r0,#0
        0x000019b6:    d00e        ..      BEQ      0x19d6 ; rt_alloc_mem + 36
        0x000019b8:    2900        .)      CMP      r1,#0
        0x000019ba:    d00c        ..      BEQ      0x19d6 ; rt_alloc_mem + 36
        0x000019bc:    310b        .1      ADDS     r1,r1,#0xb
        0x000019be:    088a        ..      LSRS     r2,r1,#2
        0x000019c0:    0092        ..      LSLS     r2,r2,#2
        0x000019c2:    6801        .h      LDR      r1,[r0,#0]
        0x000019c4:    6844        Dh      LDR      r4,[r0,#4]
        0x000019c6:    1a0b        ..      SUBS     r3,r1,r0
        0x000019c8:    1b1b        ..      SUBS     r3,r3,r4
        0x000019ca:    4293        .B      CMP      r3,r2
        0x000019cc:    d205        ..      BCS      0x19da ; rt_alloc_mem + 40
        0x000019ce:    4608        .F      MOV      r0,r1
        0x000019d0:    6809        .h      LDR      r1,[r1,#0]
        0x000019d2:    2900        .)      CMP      r1,#0
        0x000019d4:    d1f5        ..      BNE      0x19c2 ; rt_alloc_mem + 16
        0x000019d6:    2000        .       MOVS     r0,#0
        0x000019d8:    bd10        ..      POP      {r4,pc}
        0x000019da:    0021        !.      MOVS     r1,r4
        0x000019dc:    d007        ..      BEQ      0x19ee ; rt_alloc_mem + 60
        0x000019de:    1821        !.      ADDS     r1,r4,r0
        0x000019e0:    6803        .h      LDR      r3,[r0,#0]
        0x000019e2:    600b        .`      STR      r3,[r1,#0]
        0x000019e4:    604a        J`      STR      r2,[r1,#4]
        0x000019e6:    6001        .`      STR      r1,[r0,#0]
        0x000019e8:    4608        .F      MOV      r0,r1
        0x000019ea:    3008        .0      ADDS     r0,r0,#8
        0x000019ec:    bd10        ..      POP      {r4,pc}
        0x000019ee:    6042        B`      STR      r2,[r0,#4]
        0x000019f0:    3008        .0      ADDS     r0,r0,#8
        0x000019f2:    bd10        ..      POP      {r4,pc}
    i.rt_block
    rt_block
        0x000019f4:    b570        p.      PUSH     {r4-r6,lr}
        0x000019f6:    460d        .F      MOV      r5,r1
        0x000019f8:    2800        .(      CMP      r0,#0
        0x000019fa:    d00f        ..      BEQ      0x1a1c ; rt_block + 40
        0x000019fc:    4908        .I      LDR      r1,[pc,#32] ; [0x1a20] = 0xffff
        0x000019fe:    4c09        .L      LDR      r4,[pc,#36] ; [0x1a24] = 0x20000090
        0x00001a00:    4288        .B      CMP      r0,r1
        0x00001a02:    d204        ..      BCS      0x1a0e ; rt_block + 26
        0x00001a04:    6822        "h      LDR      r2,[r4,#0]
        0x00001a06:    4601        .F      MOV      r1,r0
        0x00001a08:    4610        .F      MOV      r0,r2
        0x00001a0a:    f000fb8b    ....    BL       rt_put_dly ; 0x2124
        0x00001a0e:    6820         h      LDR      r0,[r4,#0]
        0x00001a10:    7045        Ep      STRB     r5,[r0,#1]
        0x00001a12:    4805        .H      LDR      r0,[pc,#20] ; [0x1a28] = 0x2000399c
        0x00001a14:    f000f8df    ....    BL       rt_get_first ; 0x1bd6
        0x00001a18:    f000fc50    ..P.    BL       rt_switch_req ; 0x22bc
        0x00001a1c:    bd70        p.      POP      {r4-r6,pc}
    $d
        0x00001a1e:    0000        ..      DCW    0
        0x00001a20:    0000ffff    ....    DCD    65535
        0x00001a24:    20000090    ...     DCD    536871056
        0x00001a28:    2000399c    .9.     DCD    536885660
    $t
    i.rt_chk_robin
    rt_chk_robin
        0x00001a2c:    b510        ..      PUSH     {r4,lr}
        0x00001a2e:    480e        .H      LDR      r0,[pc,#56] ; [0x1a68] = 0x2000399c
        0x00001a30:    490c        .I      LDR      r1,[pc,#48] ; [0x1a64] = 0x200000a4
        0x00001a32:    6842        Bh      LDR      r2,[r0,#4]
        0x00001a34:    480d        .H      LDR      r0,[pc,#52] ; [0x1a6c] = 0x200000a0
        0x00001a36:    680b        .h      LDR      r3,[r1,#0]
        0x00001a38:    6800        .h      LDR      r0,[r0,#0]
        0x00001a3a:    4293        .B      CMP      r3,r2
        0x00001a3c:    d004        ..      BEQ      0x1a48 ; rt_chk_robin + 28
        0x00001a3e:    600a        .`      STR      r2,[r1,#0]
        0x00001a40:    88cb        ..      LDRH     r3,[r1,#6]
        0x00001a42:    1e42        B.      SUBS     r2,r0,#1
        0x00001a44:    189a        ..      ADDS     r2,r3,r2
        0x00001a46:    808a        ..      STRH     r2,[r1,#4]
        0x00001a48:    888a        ..      LDRH     r2,[r1,#4]
        0x00001a4a:    b280        ..      UXTH     r0,r0
        0x00001a4c:    4282        .B      CMP      r2,r0
        0x00001a4e:    d108        ..      BNE      0x1a62 ; rt_chk_robin + 54
        0x00001a50:    2000        .       MOVS     r0,#0
        0x00001a52:    6008        .`      STR      r0,[r1,#0]
        0x00001a54:    4804        .H      LDR      r0,[pc,#16] ; [0x1a68] = 0x2000399c
        0x00001a56:    f000f8be    ....    BL       rt_get_first ; 0x1bd6
        0x00001a5a:    4601        .F      MOV      r1,r0
        0x00001a5c:    4802        .H      LDR      r0,[pc,#8] ; [0x1a68] = 0x2000399c
        0x00001a5e:    f000fb89    ....    BL       rt_put_prio ; 0x2174
        0x00001a62:    bd10        ..      POP      {r4,pc}
    $d
        0x00001a64:    200000a4    ...     DCD    536871076
        0x00001a68:    2000399c    .9.     DCD    536885660
        0x00001a6c:    200000a0    ...     DCD    536871072
    $t
    i.rt_dec_dly
    rt_dec_dly
        0x00001a70:    b570        p.      PUSH     {r4-r6,lr}
        0x00001a72:    4d1a        .M      LDR      r5,[pc,#104] ; [0x1adc] = 0x200039b4
        0x00001a74:    68e8        .h      LDR      r0,[r5,#0xc]
        0x00001a76:    2800        .(      CMP      r0,#0
        0x00001a78:    d02f        /.      BEQ      0x1ada ; rt_dec_dly + 106
        0x00001a7a:    8aa8        ..      LDRH     r0,[r5,#0x14]
        0x00001a7c:    1e40        @.      SUBS     r0,r0,#1
        0x00001a7e:    82a8        ..      STRH     r0,[r5,#0x14]
        0x00001a80:    2600        .&      MOVS     r6,#0
        0x00001a82:    e024        $.      B        0x1ace ; rt_dec_dly + 94
        0x00001a84:    68a0        .h      LDR      r0,[r4,#8]
        0x00001a86:    2800        .(      CMP      r0,#0
        0x00001a88:    d008        ..      BEQ      0x1a9c ; rt_dec_dly + 44
        0x00001a8a:    6861        ah      LDR      r1,[r4,#4]
        0x00001a8c:    6041        A`      STR      r1,[r0,#4]
        0x00001a8e:    6860        `h      LDR      r0,[r4,#4]
        0x00001a90:    2800        .(      CMP      r0,#0
        0x00001a92:    d002        ..      BEQ      0x1a9a ; rt_dec_dly + 42
        0x00001a94:    68a1        .h      LDR      r1,[r4,#8]
        0x00001a96:    6081        .`      STR      r1,[r0,#8]
        0x00001a98:    6066        f`      STR      r6,[r4,#4]
        0x00001a9a:    60a6        .`      STR      r6,[r4,#8]
        0x00001a9c:    480f        .H      LDR      r0,[pc,#60] ; [0x1adc] = 0x200039b4
        0x00001a9e:    4621        !F      MOV      r1,r4
        0x00001aa0:    3818        .8      SUBS     r0,r0,#0x18
        0x00001aa2:    f000fb67    ..g.    BL       rt_put_prio ; 0x2174
        0x00001aa6:    8aa0        ..      LDRH     r0,[r4,#0x14]
        0x00001aa8:    82a8        ..      STRH     r0,[r5,#0x14]
        0x00001aaa:    7860        `x      LDRB     r0,[r4,#1]
        0x00001aac:    2804        .(      CMP      r0,#4
        0x00001aae:    d104        ..      BNE      0x1aba ; rt_dec_dly + 74
        0x00001ab0:    490b        .I      LDR      r1,[pc,#44] ; [0x1ae0] = 0x200000a0
        0x00001ab2:    8ae0        ..      LDRH     r0,[r4,#0x16]
        0x00001ab4:    8809        ..      LDRH     r1,[r1,#0]
        0x00001ab6:    1840        @.      ADDS     r0,r0,r1
        0x00001ab8:    82a0        ..      STRH     r0,[r4,#0x14]
        0x00001aba:    2001        .       MOVS     r0,#1
        0x00001abc:    7060        `p      STRB     r0,[r4,#1]
        0x00001abe:    68e0        .h      LDR      r0,[r4,#0xc]
        0x00001ac0:    60e8        .`      STR      r0,[r5,#0xc]
        0x00001ac2:    68e0        .h      LDR      r0,[r4,#0xc]
        0x00001ac4:    2800        .(      CMP      r0,#0
        0x00001ac6:    d001        ..      BEQ      0x1acc ; rt_dec_dly + 92
        0x00001ac8:    6105        .a      STR      r5,[r0,#0x10]
        0x00001aca:    60e6        .`      STR      r6,[r4,#0xc]
        0x00001acc:    6126        &a      STR      r6,[r4,#0x10]
        0x00001ace:    8aa8        ..      LDRH     r0,[r5,#0x14]
        0x00001ad0:    2800        .(      CMP      r0,#0
        0x00001ad2:    d102        ..      BNE      0x1ada ; rt_dec_dly + 106
        0x00001ad4:    68ec        .h      LDR      r4,[r5,#0xc]
        0x00001ad6:    2c00        .,      CMP      r4,#0
        0x00001ad8:    d1d4        ..      BNE      0x1a84 ; rt_dec_dly + 20
        0x00001ada:    bd70        p.      POP      {r4-r6,pc}
    $d
        0x00001adc:    200039b4    .9.     DCD    536885684
        0x00001ae0:    200000a0    ...     DCD    536871072
    $t
    i.rt_dispatch
    rt_dispatch
        0x00001ae4:    b570        p.      PUSH     {r4-r6,lr}
        0x00001ae6:    0004        ..      MOVS     r4,r0
        0x00001ae8:    d00e        ..      BEQ      0x1b08 ; rt_dispatch + 36
        0x00001aea:    4d0c        .M      LDR      r5,[pc,#48] ; [0x1b1c] = 0x20000090
        0x00001aec:    78a1        .x      LDRB     r1,[r4,#2]
        0x00001aee:    6828        (h      LDR      r0,[r5,#0]
        0x00001af0:    2601        .&      MOVS     r6,#1
        0x00001af2:    7882        .x      LDRB     r2,[r0,#2]
        0x00001af4:    4291        .B      CMP      r1,r2
        0x00001af6:    d90b        ..      BLS      0x1b10 ; rt_dispatch + 44
        0x00001af8:    f000fb5a    ..Z.    BL       rt_put_rdy_first ; 0x21b0
        0x00001afc:    6828        (h      LDR      r0,[r5,#0]
        0x00001afe:    7046        Fp      STRB     r6,[r0,#1]
        0x00001b00:    4620         F      MOV      r0,r4
        0x00001b02:    f000fbdb    ....    BL       rt_switch_req ; 0x22bc
        0x00001b06:    bd70        p.      POP      {r4-r6,pc}
        0x00001b08:    4805        .H      LDR      r0,[pc,#20] ; [0x1b20] = 0x2000399c
        0x00001b0a:    f000f864    ..d.    BL       rt_get_first ; 0x1bd6
        0x00001b0e:    e7f8        ..      B        0x1b02 ; rt_dispatch + 30
        0x00001b10:    7066        fp      STRB     r6,[r4,#1]
        0x00001b12:    4621        !F      MOV      r1,r4
        0x00001b14:    4802        .H      LDR      r0,[pc,#8] ; [0x1b20] = 0x2000399c
        0x00001b16:    f000fb2d    ..-.    BL       rt_put_prio ; 0x2174
        0x00001b1a:    bd70        p.      POP      {r4-r6,pc}
    $d
        0x00001b1c:    20000090    ...     DCD    536871056
        0x00001b20:    2000399c    .9.     DCD    536885660
    $t
    i.rt_dly_wait
    rt_dly_wait
        0x00001b24:    b510        ..      PUSH     {r4,lr}
        0x00001b26:    2103        .!      MOVS     r1,#3
        0x00001b28:    f7ffff64    ..d.    BL       rt_block ; 0x19f4
        0x00001b2c:    bd10        ..      POP      {r4,pc}
        0x00001b2e:    0000        ..      MOVS     r0,r0
    i.rt_evt_psh
    rt_evt_psh
        0x00001b30:    b510        ..      PUSH     {r4,lr}
        0x00001b32:    4604        .F      MOV      r4,r0
        0x00001b34:    8b00        ..      LDRH     r0,[r0,#0x18]
        0x00001b36:    4308        .C      ORRS     r0,r0,r1
        0x00001b38:    8320         .      STRH     r0,[r4,#0x18]
        0x00001b3a:    7862        bx      LDRB     r2,[r4,#1]
        0x00001b3c:    8b61        a.      LDRH     r1,[r4,#0x1a]
        0x00001b3e:    2a06        .*      CMP      r2,#6
        0x00001b40:    d017        ..      BEQ      0x1b72 ; rt_evt_psh + 66
        0x00001b42:    2a05        .*      CMP      r2,#5
        0x00001b44:    d114        ..      BNE      0x1b70 ; rt_evt_psh + 64
        0x00001b46:    4208        .B      TST      r0,r1
        0x00001b48:    d012        ..      BEQ      0x1b70 ; rt_evt_psh + 64
        0x00001b4a:    460a        .F      MOV      r2,r1
        0x00001b4c:    4002        .@      ANDS     r2,r2,r0
        0x00001b4e:    8362        b.      STRH     r2,[r4,#0x1a]
        0x00001b50:    4388        .C      BICS     r0,r0,r1
        0x00001b52:    8320         .      STRH     r0,[r4,#0x18]
        0x00001b54:    4620         F      MOV      r0,r4
        0x00001b56:    f000fb54    ..T.    BL       rt_rmv_dly ; 0x2202
        0x00001b5a:    2001        .       MOVS     r0,#1
        0x00001b5c:    7060        `p      STRB     r0,[r4,#1]
        0x00001b5e:    8b62        b.      LDRH     r2,[r4,#0x1a]
        0x00001b60:    2108        .!      MOVS     r1,#8
        0x00001b62:    4620         F      MOV      r0,r4
        0x00001b64:    f000fb49    ..I.    BL       rt_ret_val2 ; 0x21fa
        0x00001b68:    4621        !F      MOV      r1,r4
        0x00001b6a:    4804        .H      LDR      r0,[pc,#16] ; [0x1b7c] = 0x2000399c
        0x00001b6c:    f000fb02    ....    BL       rt_put_prio ; 0x2174
        0x00001b70:    bd10        ..      POP      {r4,pc}
        0x00001b72:    460a        .F      MOV      r2,r1
        0x00001b74:    4382        .C      BICS     r2,r2,r0
        0x00001b76:    d0eb        ..      BEQ      0x1b50 ; rt_evt_psh + 32
        0x00001b78:    bd10        ..      POP      {r4,pc}
    $d
        0x00001b7a:    0000        ..      DCW    0
        0x00001b7c:    2000399c    .9.     DCD    536885660
    $t
    i.rt_free_box
    rt_free_box
        0x00001b80:    4281        .B      CMP      r1,r0
        0x00001b82:    d302        ..      BCC      0x1b8a ; rt_free_box + 10
        0x00001b84:    6842        Bh      LDR      r2,[r0,#4]
        0x00001b86:    428a        .B      CMP      r2,r1
        0x00001b88:    d801        ..      BHI      0x1b8e ; rt_free_box + 14
        0x00001b8a:    2001        .       MOVS     r0,#1
        0x00001b8c:    4770        pG      BX       lr
        0x00001b8e:    f3ef8210    ....    MRS      r2,PRIMASK
        0x00001b92:    07d2        ..      LSLS     r2,r2,#31
        0x00001b94:    0fd2        ..      LSRS     r2,r2,#31
        0x00001b96:    b672        r.      CPSID    i
        0x00001b98:    6803        .h      LDR      r3,[r0,#0]
        0x00001b9a:    600b        .`      STR      r3,[r1,#0]
        0x00001b9c:    6001        .`      STR      r1,[r0,#0]
        0x00001b9e:    d100        ..      BNE      0x1ba2 ; rt_free_box + 34
        0x00001ba0:    b662        b.      CPSIE    i
        0x00001ba2:    2000        .       MOVS     r0,#0
        0x00001ba4:    4770        pG      BX       lr
    i.rt_free_mem
    rt_free_mem
        0x00001ba6:    2800        .(      CMP      r0,#0
        0x00001ba8:    d010        ..      BEQ      0x1bcc ; rt_free_mem + 38
        0x00001baa:    2900        .)      CMP      r1,#0
        0x00001bac:    d00e        ..      BEQ      0x1bcc ; rt_free_mem + 38
        0x00001bae:    2200        ."      MOVS     r2,#0
        0x00001bb0:    3908        .9      SUBS     r1,r1,#8
        0x00001bb2:    e003        ..      B        0x1bbc ; rt_free_mem + 22
        0x00001bb4:    4602        .F      MOV      r2,r0
        0x00001bb6:    6800        .h      LDR      r0,[r0,#0]
        0x00001bb8:    2800        .(      CMP      r0,#0
        0x00001bba:    d007        ..      BEQ      0x1bcc ; rt_free_mem + 38
        0x00001bbc:    4288        .B      CMP      r0,r1
        0x00001bbe:    d1f9        ..      BNE      0x1bb4 ; rt_free_mem + 14
        0x00001bc0:    2a00        .*      CMP      r2,#0
        0x00001bc2:    d005        ..      BEQ      0x1bd0 ; rt_free_mem + 42
        0x00001bc4:    6800        .h      LDR      r0,[r0,#0]
        0x00001bc6:    6010        .`      STR      r0,[r2,#0]
        0x00001bc8:    2000        .       MOVS     r0,#0
        0x00001bca:    4770        pG      BX       lr
        0x00001bcc:    2001        .       MOVS     r0,#1
        0x00001bce:    4770        pG      BX       lr
        0x00001bd0:    2100        .!      MOVS     r1,#0
        0x00001bd2:    6041        A`      STR      r1,[r0,#4]
        0x00001bd4:    e7f8        ..      B        0x1bc8 ; rt_free_mem + 34
    i.rt_get_first
    rt_get_first
        0x00001bd6:    4601        .F      MOV      r1,r0
        0x00001bd8:    6840        @h      LDR      r0,[r0,#4]
        0x00001bda:    6842        Bh      LDR      r2,[r0,#4]
        0x00001bdc:    604a        J`      STR      r2,[r1,#4]
        0x00001bde:    780b        .x      LDRB     r3,[r1,#0]
        0x00001be0:    2200        ."      MOVS     r2,#0
        0x00001be2:    2b02        .+      CMP      r3,#2
        0x00001be4:    d005        ..      BEQ      0x1bf2 ; rt_get_first + 28
        0x00001be6:    2b01        .+      CMP      r3,#1
        0x00001be8:    d003        ..      BEQ      0x1bf2 ; rt_get_first + 28
        0x00001bea:    2b03        .+      CMP      r3,#3
        0x00001bec:    d001        ..      BEQ      0x1bf2 ; rt_get_first + 28
        0x00001bee:    6042        B`      STR      r2,[r0,#4]
        0x00001bf0:    4770        pG      BX       lr
        0x00001bf2:    6843        Ch      LDR      r3,[r0,#4]
        0x00001bf4:    2b00        .+      CMP      r3,#0
        0x00001bf6:    d001        ..      BEQ      0x1bfc ; rt_get_first + 38
        0x00001bf8:    6099        .`      STR      r1,[r3,#8]
        0x00001bfa:    6042        B`      STR      r2,[r0,#4]
        0x00001bfc:    6082        .`      STR      r2,[r0,#8]
        0x00001bfe:    4770        pG      BX       lr
    i.rt_id2obj
    rt_id2obj
        0x00001c00:    0781        ..      LSLS     r1,r0,#30
        0x00001c02:    d000        ..      BEQ      0x1c06 ; rt_id2obj + 6
        0x00001c04:    2000        .       MOVS     r0,#0
        0x00001c06:    4770        pG      BX       lr
    i.rt_init_context
    rt_init_context
        0x00001c08:    b570        p.      PUSH     {r4-r6,lr}
        0x00001c0a:    4604        .F      MOV      r4,r0
        0x00001c0c:    4615        .F      MOV      r5,r2
        0x00001c0e:    2000        .       MOVS     r0,#0
        0x00001c10:    7020         p      STRB     r0,[r4,#0]
        0x00001c12:    2201        ."      MOVS     r2,#1
        0x00001c14:    7062        bp      STRB     r2,[r4,#1]
        0x00001c16:    4622        "F      MOV      r2,r4
        0x00001c18:    70a1        .p      STRB     r1,[r4,#2]
        0x00001c1a:    3220         2      ADDS     r2,r2,#0x20
        0x00001c1c:    7111        .q      STRB     r1,[r2,#4]
        0x00001c1e:    6060        ``      STR      r0,[r4,#4]
        0x00001c20:    60a0        .`      STR      r0,[r4,#8]
        0x00001c22:    60e0        .`      STR      r0,[r4,#0xc]
        0x00001c24:    6120         a      STR      r0,[r4,#0x10]
        0x00001c26:    6220         b      STR      r0,[r4,#0x20]
        0x00001c28:    82a0        ..      STRH     r0,[r4,#0x14]
        0x00001c2a:    82e0        ..      STRH     r0,[r4,#0x16]
        0x00001c2c:    8320         .      STRH     r0,[r4,#0x18]
        0x00001c2e:    8360        `.      STRH     r0,[r4,#0x1a]
        0x00001c30:    7150        Pq      STRB     r0,[r2,#5]
        0x00001c32:    8ce0        ..      LDRH     r0,[r4,#0x26]
        0x00001c34:    2800        .(      CMP      r0,#0
        0x00001c36:    d103        ..      BNE      0x1c40 ; rt_init_context + 56
        0x00001c38:    4804        .H      LDR      r0,[pc,#16] ; [0x1c4c] = 0x20001350
        0x00001c3a:    f7fffeab    ....    BL       rt_alloc_box ; 0x1994
        0x00001c3e:    62e0        .b      STR      r0,[r4,#0x2c]
        0x00001c40:    4629        )F      MOV      r1,r5
        0x00001c42:    4620         F      MOV      r0,r4
        0x00001c44:    f000f81e    ....    BL       rt_init_stack ; 0x1c84
        0x00001c48:    bd70        p.      POP      {r4-r6,pc}
    $d
        0x00001c4a:    0000        ..      DCW    0
        0x00001c4c:    20001350    P..     DCD    536875856
    $t
    i.rt_init_mem
    rt_init_mem
        0x00001c50:    2800        .(      CMP      r0,#0
        0x00001c52:    d001        ..      BEQ      0x1c58 ; rt_init_mem + 8
        0x00001c54:    2908        .)      CMP      r1,#8
        0x00001c56:    d201        ..      BCS      0x1c5c ; rt_init_mem + 12
        0x00001c58:    2001        .       MOVS     r0,#1
        0x00001c5a:    4770        pG      BX       lr
        0x00001c5c:    1841        A.      ADDS     r1,r0,r1
        0x00001c5e:    1f09        ..      SUBS     r1,r1,#4
        0x00001c60:    2200        ."      MOVS     r2,#0
        0x00001c62:    6001        .`      STR      r1,[r0,#0]
        0x00001c64:    600a        .`      STR      r2,[r1,#0]
        0x00001c66:    6042        B`      STR      r2,[r0,#4]
        0x00001c68:    4610        .F      MOV      r0,r2
        0x00001c6a:    4770        pG      BX       lr
    i.rt_init_robin
    rt_init_robin
        0x00001c6c:    4803        .H      LDR      r0,[pc,#12] ; [0x1c7c] = 0x200000a4
        0x00001c6e:    2100        .!      MOVS     r1,#0
        0x00001c70:    6001        .`      STR      r1,[r0,#0]
        0x00001c72:    4903        .I      LDR      r1,[pc,#12] ; [0x1c80] = 0x2b44
        0x00001c74:    8809        ..      LDRH     r1,[r1,#0]
        0x00001c76:    80c1        ..      STRH     r1,[r0,#6]
        0x00001c78:    4770        pG      BX       lr
    $d
        0x00001c7a:    0000        ..      DCW    0
        0x00001c7c:    200000a4    ...     DCD    536871076
        0x00001c80:    00002b44    D+..    DCD    11076
    $t
    i.rt_init_stack
    rt_init_stack
        0x00001c84:    b5f0        ..      PUSH     {r4-r7,lr}
        0x00001c86:    8cc2        ..      LDRH     r2,[r0,#0x26]
        0x00001c88:    4d19        .M      LDR      r5,[pc,#100] ; [0x1cf0] = 0x2b40
        0x00001c8a:    0893        ..      LSRS     r3,r2,#2
        0x00001c8c:    d102        ..      BNE      0x1c94 ; rt_init_stack + 16
        0x00001c8e:    882a        *.      LDRH     r2,[r5,#0]
        0x00001c90:    0412        ..      LSLS     r2,r2,#16
        0x00001c92:    0c93        ..      LSRS     r3,r2,#18
        0x00001c94:    6ac2        .j      LDR      r2,[r0,#0x2c]
        0x00001c96:    009c        ..      LSLS     r4,r3,#2
        0x00001c98:    1912        ..      ADDS     r2,r2,r4
        0x00001c9a:    0754        T.      LSLS     r4,r2,#29
        0x00001c9c:    d500        ..      BPL      0x1ca0 ; rt_init_stack + 28
        0x00001c9e:    1f12        ..      SUBS     r2,r2,#4
        0x00001ca0:    2401        .$      MOVS     r4,#1
        0x00001ca2:    0624        $.      LSLS     r4,r4,#24
        0x00001ca4:    3a40        @:      SUBS     r2,r2,#0x40
        0x00001ca6:    63d4        .c      STR      r4,[r2,#0x3c]
        0x00001ca8:    2400        .$      MOVS     r4,#0
        0x00001caa:    6391        .c      STR      r1,[r2,#0x38]
        0x00001cac:    4626        &F      MOV      r6,r4
        0x00001cae:    00a7        ..      LSLS     r7,r4,#2
        0x00001cb0:    1c64        d.      ADDS     r4,r4,#1
        0x00001cb2:    51d6        .Q      STR      r6,[r2,r7]
        0x00001cb4:    2c0e        .,      CMP      r4,#0xe
        0x00001cb6:    d3fa        ..      BCC      0x1cae ; rt_init_stack + 42
        0x00001cb8:    69c4        .i      LDR      r4,[r0,#0x1c]
        0x00001cba:    6214        .b      STR      r4,[r2,#0x20]
        0x00001cbc:    6282        .b      STR      r2,[r0,#0x28]
        0x00001cbe:    6301        .c      STR      r1,[r0,#0x30]
        0x00001cc0:    6829        )h      LDR      r1,[r5,#0]
        0x00001cc2:    00c9        ..      LSLS     r1,r1,#3
        0x00001cc4:    d50f        ..      BPL      0x1ce6 ; rt_init_stack + 98
        0x00001cc6:    2b11        .+      CMP      r3,#0x11
        0x00001cc8:    d90d        ..      BLS      0x1ce6 ; rt_init_stack + 98
        0x00001cca:    3b10        .;      SUBS     r3,r3,#0x10
        0x00001ccc:    0859        Y.      LSRS     r1,r3,#1
        0x00001cce:    4b09        .K      LDR      r3,[pc,#36] ; [0x1cf4] = 0xcccccccc
        0x00001cd0:    e002        ..      B        0x1cd8 ; rt_init_stack + 84
        0x00001cd2:    3a08        .:      SUBS     r2,r2,#8
        0x00001cd4:    6053        S`      STR      r3,[r2,#4]
        0x00001cd6:    6013        .`      STR      r3,[r2,#0]
        0x00001cd8:    1e49        I.      SUBS     r1,r1,#1
        0x00001cda:    d1fa        ..      BNE      0x1cd2 ; rt_init_stack + 78
        0x00001cdc:    6ac1        .j      LDR      r1,[r0,#0x2c]
        0x00001cde:    1f12        ..      SUBS     r2,r2,#4
        0x00001ce0:    428a        .B      CMP      r2,r1
        0x00001ce2:    d900        ..      BLS      0x1ce6 ; rt_init_stack + 98
        0x00001ce4:    6013        .`      STR      r3,[r2,#0]
        0x00001ce6:    6ac0        .j      LDR      r0,[r0,#0x2c]
        0x00001ce8:    4903        .I      LDR      r1,[pc,#12] ; [0x1cf8] = 0xe25a2ea5
        0x00001cea:    6001        .`      STR      r1,[r0,#0]
        0x00001cec:    bdf0        ..      POP      {r4-r7,pc}
    $d
        0x00001cee:    0000        ..      DCW    0
        0x00001cf0:    00002b40    @+..    DCD    11072
        0x00001cf4:    cccccccc    ....    DCD    3435973836
        0x00001cf8:    e25a2ea5    ..Z.    DCD    3797560997
    $t
    i.rt_mbx_check
    rt_mbx_check
        0x00001cfc:    89c1        ..      LDRH     r1,[r0,#0xe]
        0x00001cfe:    8980        ..      LDRH     r0,[r0,#0xc]
        0x00001d00:    1a08        ..      SUBS     r0,r1,r0
        0x00001d02:    4770        pG      BX       lr
    i.rt_mbx_init
    rt_mbx_init
        0x00001d04:    2201        ."      MOVS     r2,#1
        0x00001d06:    7002        .p      STRB     r2,[r0,#0]
        0x00001d08:    2200        ."      MOVS     r2,#0
        0x00001d0a:    7042        Bp      STRB     r2,[r0,#1]
        0x00001d0c:    7082        .p      STRB     r2,[r0,#2]
        0x00001d0e:    6042        B`      STR      r2,[r0,#4]
        0x00001d10:    8102        ..      STRH     r2,[r0,#8]
        0x00001d12:    8142        B.      STRH     r2,[r0,#0xa]
        0x00001d14:    8182        ..      STRH     r2,[r0,#0xc]
        0x00001d16:    4a03        .J      LDR      r2,[pc,#12] ; [0x1d24] = 0xfffc0000
        0x00001d18:    0389        ..      LSLS     r1,r1,#14
        0x00001d1a:    1889        ..      ADDS     r1,r1,r2
        0x00001d1c:    0c09        ..      LSRS     r1,r1,#16
        0x00001d1e:    81c1        ..      STRH     r1,[r0,#0xe]
        0x00001d20:    4770        pG      BX       lr
    $d
        0x00001d22:    0000        ..      DCW    0
        0x00001d24:    fffc0000    ....    DCD    4294705152
    $t
    i.rt_mbx_psh
    rt_mbx_psh
        0x00001d28:    b5f8        ..      PUSH     {r3-r7,lr}
        0x00001d2a:    4604        .F      MOV      r4,r0
        0x00001d2c:    6840        @h      LDR      r0,[r0,#4]
        0x00001d2e:    2700        .'      MOVS     r7,#0
        0x00001d30:    460d        .F      MOV      r5,r1
        0x00001d32:    2800        .(      CMP      r0,#0
        0x00001d34:    d044        D.      BEQ      0x1dc0 ; rt_mbx_psh + 152
        0x00001d36:    7860        `x      LDRB     r0,[r4,#1]
        0x00001d38:    2601        .&      MOVS     r6,#1
        0x00001d3a:    2801        .(      CMP      r0,#1
        0x00001d3c:    d037        7.      BEQ      0x1dae ; rt_mbx_psh + 134
        0x00001d3e:    2802        .(      CMP      r0,#2
        0x00001d40:    d013        ..      BEQ      0x1d6a ; rt_mbx_psh + 66
        0x00001d42:    2803        .(      CMP      r0,#3
        0x00001d44:    d132        2.      BNE      0x1dac ; rt_mbx_psh + 132
        0x00001d46:    4608        .F      MOV      r0,r1
        0x00001d48:    f7fffe24    ..$.    BL       rt_alloc_box ; 0x1994
        0x00001d4c:    0005        ..      MOVS     r5,r0
        0x00001d4e:    d02d        -.      BEQ      0x1dac ; rt_mbx_psh + 132
        0x00001d50:    4620         F      MOV      r0,r4
        0x00001d52:    f7ffff40    ..@.    BL       rt_get_first ; 0x1bd6
        0x00001d56:    4604        .F      MOV      r4,r0
        0x00001d58:    4629        )F      MOV      r1,r5
        0x00001d5a:    f000fa4b    ..K.    BL       rt_ret_val ; 0x21f4
        0x00001d5e:    7066        fp      STRB     r6,[r4,#1]
        0x00001d60:    4620         F      MOV      r0,r4
        0x00001d62:    f000fa4e    ..N.    BL       rt_rmv_dly ; 0x2202
        0x00001d66:    4621        !F      MOV      r1,r4
        0x00001d68:    e01d        ..      B        0x1da6 ; rt_mbx_psh + 126
        0x00001d6a:    4620         F      MOV      r0,r4
        0x00001d6c:    f7ffff33    ..3.    BL       rt_get_first ; 0x1bd6
        0x00001d70:    4605        .F      MOV      r5,r0
        0x00001d72:    2100        .!      MOVS     r1,#0
        0x00001d74:    f000fa3e    ..>.    BL       rt_ret_val ; 0x21f4
        0x00001d78:    8921        !.      LDRH     r1,[r4,#8]
        0x00001d7a:    69e8        .i      LDR      r0,[r5,#0x1c]
        0x00001d7c:    0089        ..      LSLS     r1,r1,#2
        0x00001d7e:    1909        ..      ADDS     r1,r1,r4
        0x00001d80:    6108        .a      STR      r0,[r1,#0x10]
        0x00001d82:    b672        r.      CPSID    i
        0x00001d84:    89a0        ..      LDRH     r0,[r4,#0xc]
        0x00001d86:    1c40        @.      ADDS     r0,r0,#1
        0x00001d88:    81a0        ..      STRH     r0,[r4,#0xc]
        0x00001d8a:    b662        b.      CPSIE    i
        0x00001d8c:    8920         .      LDRH     r0,[r4,#8]
        0x00001d8e:    1c40        @.      ADDS     r0,r0,#1
        0x00001d90:    b280        ..      UXTH     r0,r0
        0x00001d92:    8120         .      STRH     r0,[r4,#8]
        0x00001d94:    89e1        ..      LDRH     r1,[r4,#0xe]
        0x00001d96:    4288        .B      CMP      r0,r1
        0x00001d98:    d100        ..      BNE      0x1d9c ; rt_mbx_psh + 116
        0x00001d9a:    8127        '.      STRH     r7,[r4,#8]
        0x00001d9c:    706e        np      STRB     r6,[r5,#1]
        0x00001d9e:    4628        (F      MOV      r0,r5
        0x00001da0:    f000fa2f    ../.    BL       rt_rmv_dly ; 0x2202
        0x00001da4:    4629        )F      MOV      r1,r5
        0x00001da6:    4813        .H      LDR      r0,[pc,#76] ; [0x1df4] = 0x2000399c
        0x00001da8:    f000f9e4    ....    BL       rt_put_prio ; 0x2174
        0x00001dac:    bdf8        ..      POP      {r3-r7,pc}
        0x00001dae:    4620         F      MOV      r0,r4
        0x00001db0:    f7ffff11    ....    BL       rt_get_first ; 0x1bd6
        0x00001db4:    4604        .F      MOV      r4,r0
        0x00001db6:    462a        *F      MOV      r2,r5
        0x00001db8:    2110        .!      MOVS     r1,#0x10
        0x00001dba:    f000fa1e    ....    BL       rt_ret_val2 ; 0x21fa
        0x00001dbe:    e7ce        ..      B        0x1d5e ; rt_mbx_psh + 54
        0x00001dc0:    89a0        ..      LDRH     r0,[r4,#0xc]
        0x00001dc2:    89e1        ..      LDRH     r1,[r4,#0xe]
        0x00001dc4:    4288        .B      CMP      r0,r1
        0x00001dc6:    d211        ..      BCS      0x1dec ; rt_mbx_psh + 196
        0x00001dc8:    8920         .      LDRH     r0,[r4,#8]
        0x00001dca:    0080        ..      LSLS     r0,r0,#2
        0x00001dcc:    1900        ..      ADDS     r0,r0,r4
        0x00001dce:    6105        .a      STR      r5,[r0,#0x10]
        0x00001dd0:    b672        r.      CPSID    i
        0x00001dd2:    89a0        ..      LDRH     r0,[r4,#0xc]
        0x00001dd4:    1c40        @.      ADDS     r0,r0,#1
        0x00001dd6:    81a0        ..      STRH     r0,[r4,#0xc]
        0x00001dd8:    b662        b.      CPSIE    i
        0x00001dda:    8920         .      LDRH     r0,[r4,#8]
        0x00001ddc:    1c40        @.      ADDS     r0,r0,#1
        0x00001dde:    b280        ..      UXTH     r0,r0
        0x00001de0:    8120         .      STRH     r0,[r4,#8]
        0x00001de2:    89e1        ..      LDRH     r1,[r4,#0xe]
        0x00001de4:    4288        .B      CMP      r0,r1
        0x00001de6:    d1e1        ..      BNE      0x1dac ; rt_mbx_psh + 132
        0x00001de8:    8127        '.      STRH     r7,[r4,#8]
        0x00001dea:    bdf8        ..      POP      {r3-r7,pc}
        0x00001dec:    2003        .       MOVS     r0,#3
        0x00001dee:    f7fff957    ..W.    BL       os_error ; 0x10a0
        0x00001df2:    bdf8        ..      POP      {r3-r7,pc}
    $d
        0x00001df4:    2000399c    .9.     DCD    536885660
    $t
    i.rt_mbx_wait
    rt_mbx_wait
        0x00001df8:    b570        p.      PUSH     {r4-r6,lr}
        0x00001dfa:    4604        .F      MOV      r4,r0
        0x00001dfc:    8980        ..      LDRH     r0,[r0,#0xc]
        0x00001dfe:    2600        .&      MOVS     r6,#0
        0x00001e00:    4615        .F      MOV      r5,r2
        0x00001e02:    2800        .(      CMP      r0,#0
        0x00001e04:    d034        4.      BEQ      0x1e70 ; rt_mbx_wait + 120
        0x00001e06:    8960        `.      LDRH     r0,[r4,#0xa]
        0x00001e08:    0080        ..      LSLS     r0,r0,#2
        0x00001e0a:    1900        ..      ADDS     r0,r0,r4
        0x00001e0c:    6900        .i      LDR      r0,[r0,#0x10]
        0x00001e0e:    6008        .`      STR      r0,[r1,#0]
        0x00001e10:    8960        `.      LDRH     r0,[r4,#0xa]
        0x00001e12:    1c40        @.      ADDS     r0,r0,#1
        0x00001e14:    b280        ..      UXTH     r0,r0
        0x00001e16:    8160        `.      STRH     r0,[r4,#0xa]
        0x00001e18:    89e1        ..      LDRH     r1,[r4,#0xe]
        0x00001e1a:    4288        .B      CMP      r0,r1
        0x00001e1c:    d100        ..      BNE      0x1e20 ; rt_mbx_wait + 40
        0x00001e1e:    8166        f.      STRH     r6,[r4,#0xa]
        0x00001e20:    6860        `h      LDR      r0,[r4,#4]
        0x00001e22:    2800        .(      CMP      r0,#0
        0x00001e24:    d002        ..      BEQ      0x1e2c ; rt_mbx_wait + 52
        0x00001e26:    7860        `x      LDRB     r0,[r4,#1]
        0x00001e28:    2802        .(      CMP      r0,#2
        0x00001e2a:    d006        ..      BEQ      0x1e3a ; rt_mbx_wait + 66
        0x00001e2c:    b672        r.      CPSID    i
        0x00001e2e:    89a0        ..      LDRH     r0,[r4,#0xc]
        0x00001e30:    1e40        @.      SUBS     r0,r0,#1
        0x00001e32:    81a0        ..      STRH     r0,[r4,#0xc]
        0x00001e34:    b662        b.      CPSIE    i
        0x00001e36:    2000        .       MOVS     r0,#0
        0x00001e38:    bd70        p.      POP      {r4-r6,pc}
        0x00001e3a:    4620         F      MOV      r0,r4
        0x00001e3c:    f7fffecb    ....    BL       rt_get_first ; 0x1bd6
        0x00001e40:    4605        .F      MOV      r5,r0
        0x00001e42:    2100        .!      MOVS     r1,#0
        0x00001e44:    f000f9d6    ....    BL       rt_ret_val ; 0x21f4
        0x00001e48:    8921        !.      LDRH     r1,[r4,#8]
        0x00001e4a:    69e8        .i      LDR      r0,[r5,#0x1c]
        0x00001e4c:    0089        ..      LSLS     r1,r1,#2
        0x00001e4e:    1909        ..      ADDS     r1,r1,r4
        0x00001e50:    6108        .a      STR      r0,[r1,#0x10]
        0x00001e52:    8920         .      LDRH     r0,[r4,#8]
        0x00001e54:    1c40        @.      ADDS     r0,r0,#1
        0x00001e56:    b280        ..      UXTH     r0,r0
        0x00001e58:    8120         .      STRH     r0,[r4,#8]
        0x00001e5a:    89e1        ..      LDRH     r1,[r4,#0xe]
        0x00001e5c:    4288        .B      CMP      r0,r1
        0x00001e5e:    d100        ..      BNE      0x1e62 ; rt_mbx_wait + 106
        0x00001e60:    8126        &.      STRH     r6,[r4,#8]
        0x00001e62:    4628        (F      MOV      r0,r5
        0x00001e64:    f000f9cd    ....    BL       rt_rmv_dly ; 0x2202
        0x00001e68:    4628        (F      MOV      r0,r5
        0x00001e6a:    f7fffe3b    ..;.    BL       rt_dispatch ; 0x1ae4
        0x00001e6e:    e7e2        ..      B        0x1e36 ; rt_mbx_wait + 62
        0x00001e70:    2d00        .-      CMP      r5,#0
        0x00001e72:    d008        ..      BEQ      0x1e86 ; rt_mbx_wait + 142
        0x00001e74:    480b        .H      LDR      r0,[pc,#44] ; [0x1ea4] = 0x20000090
        0x00001e76:    6862        bh      LDR      r2,[r4,#4]
        0x00001e78:    6801        .h      LDR      r1,[r0,#0]
        0x00001e7a:    2a00        .*      CMP      r2,#0
        0x00001e7c:    d005        ..      BEQ      0x1e8a ; rt_mbx_wait + 146
        0x00001e7e:    4620         F      MOV      r0,r4
        0x00001e80:    f000f978    ..x.    BL       rt_put_prio ; 0x2174
        0x00001e84:    e008        ..      B        0x1e98 ; rt_mbx_wait + 160
        0x00001e86:    2001        .       MOVS     r0,#1
        0x00001e88:    bd70        p.      POP      {r4-r6,pc}
        0x00001e8a:    6061        a`      STR      r1,[r4,#4]
        0x00001e8c:    6801        .h      LDR      r1,[r0,#0]
        0x00001e8e:    604e        N`      STR      r6,[r1,#4]
        0x00001e90:    6800        .h      LDR      r0,[r0,#0]
        0x00001e92:    6084        .`      STR      r4,[r0,#8]
        0x00001e94:    2001        .       MOVS     r0,#1
        0x00001e96:    7060        `p      STRB     r0,[r4,#1]
        0x00001e98:    2108        .!      MOVS     r1,#8
        0x00001e9a:    4628        (F      MOV      r0,r5
        0x00001e9c:    f7fffdaa    ....    BL       rt_block ; 0x19f4
        0x00001ea0:    e7f1        ..      B        0x1e86 ; rt_mbx_wait + 142
    $d
        0x00001ea2:    0000        ..      DCW    0
        0x00001ea4:    20000090    ...     DCD    536871056
    $t
    i.rt_ms2tick
    rt_ms2tick
        0x00001ea8:    b510        ..      PUSH     {r4,lr}
        0x00001eaa:    2800        .(      CMP      r0,#0
        0x00001eac:    d012        ..      BEQ      0x1ed4 ; rt_ms2tick + 44
        0x00001eae:    1c41        A.      ADDS     r1,r0,#1
        0x00001eb0:    d011        ..      BEQ      0x1ed6 ; rt_ms2tick + 46
        0x00001eb2:    490b        .I      LDR      r1,[pc,#44] ; [0x1ee0] = 0x3d0900
        0x00001eb4:    4c0b        .L      LDR      r4,[pc,#44] ; [0x1ee4] = 0xfffe
        0x00001eb6:    4288        .B      CMP      r0,r1
        0x00001eb8:    d80b        ..      BHI      0x1ed2 ; rt_ms2tick + 42
        0x00001eba:    217d        }!      MOVS     r1,#0x7d
        0x00001ebc:    00c9        ..      LSLS     r1,r1,#3
        0x00001ebe:    4348        HC      MULS     r0,r1,r0
        0x00001ec0:    4909        .I      LDR      r1,[pc,#36] ; [0x1ee8] = 0x2b60
        0x00001ec2:    680a        .h      LDR      r2,[r1,#0]
        0x00001ec4:    1880        ..      ADDS     r0,r0,r2
        0x00001ec6:    4611        .F      MOV      r1,r2
        0x00001ec8:    1e40        @.      SUBS     r0,r0,#1
        0x00001eca:    f7fff913    ....    BL       __aeabi_uidiv ; 0x10f4
        0x00001ece:    42a0        .B      CMP      r0,r4
        0x00001ed0:    d904        ..      BLS      0x1edc ; rt_ms2tick + 52
        0x00001ed2:    4620         F      MOV      r0,r4
        0x00001ed4:    bd10        ..      POP      {r4,pc}
        0x00001ed6:    4803        .H      LDR      r0,[pc,#12] ; [0x1ee4] = 0xfffe
        0x00001ed8:    1c40        @.      ADDS     r0,r0,#1
        0x00001eda:    bd10        ..      POP      {r4,pc}
        0x00001edc:    b280        ..      UXTH     r0,r0
        0x00001ede:    bd10        ..      POP      {r4,pc}
    $d
        0x00001ee0:    003d0900    ..=.    DCD    4000000
        0x00001ee4:    0000fffe    ....    DCD    65534
        0x00001ee8:    00002b60    `+..    DCD    11104
    $t
    i.rt_mut_init
    rt_mut_init
        0x00001eec:    2103        .!      MOVS     r1,#3
        0x00001eee:    7001        .p      STRB     r1,[r0,#0]
        0x00001ef0:    2100        .!      MOVS     r1,#0
        0x00001ef2:    8041        A.      STRH     r1,[r0,#2]
        0x00001ef4:    6041        A`      STR      r1,[r0,#4]
        0x00001ef6:    6081        .`      STR      r1,[r0,#8]
        0x00001ef8:    60c1        .`      STR      r1,[r0,#0xc]
        0x00001efa:    4770        pG      BX       lr
    i.rt_mut_release
    rt_mut_release
        0x00001efc:    b5f8        ..      PUSH     {r3-r7,lr}
        0x00001efe:    4604        .F      MOV      r4,r0
        0x00001f00:    8840        @.      LDRH     r0,[r0,#2]
        0x00001f02:    2800        .(      CMP      r0,#0
        0x00001f04:    d004        ..      BEQ      0x1f10 ; rt_mut_release + 20
        0x00001f06:    4d31        1M      LDR      r5,[pc,#196] ; [0x1fcc] = 0x20000090
        0x00001f08:    68a1        .h      LDR      r1,[r4,#8]
        0x00001f0a:    682a        *h      LDR      r2,[r5,#0]
        0x00001f0c:    4291        .B      CMP      r1,r2
        0x00001f0e:    d001        ..      BEQ      0x1f14 ; rt_mut_release + 24
        0x00001f10:    20ff        .       MOVS     r0,#0xff
        0x00001f12:    bdf8        ..      POP      {r3-r7,pc}
        0x00001f14:    1e40        @.      SUBS     r0,r0,#1
        0x00001f16:    0400        ..      LSLS     r0,r0,#16
        0x00001f18:    0c00        ..      LSRS     r0,r0,#16
        0x00001f1a:    8060        `.      STRH     r0,[r4,#2]
        0x00001f1c:    d153        S.      BNE      0x1fc6 ; rt_mut_release + 202
        0x00001f1e:    6829        )h      LDR      r1,[r5,#0]
        0x00001f20:    6a08        .j      LDR      r0,[r1,#0x20]
        0x00001f22:    42a0        .B      CMP      r0,r4
        0x00001f24:    d109        ..      BNE      0x1f3a ; rt_mut_release + 62
        0x00001f26:    68e0        .h      LDR      r0,[r4,#0xc]
        0x00001f28:    6208        .b      STR      r0,[r1,#0x20]
        0x00001f2a:    e008        ..      B        0x1f3e ; rt_mut_release + 66
        0x00001f2c:    68c2        .h      LDR      r2,[r0,#0xc]
        0x00001f2e:    42a2        .B      CMP      r2,r4
        0x00001f30:    d102        ..      BNE      0x1f38 ; rt_mut_release + 60
        0x00001f32:    68e2        .h      LDR      r2,[r4,#0xc]
        0x00001f34:    60c2        .`      STR      r2,[r0,#0xc]
        0x00001f36:    e002        ..      B        0x1f3e ; rt_mut_release + 66
        0x00001f38:    4610        .F      MOV      r0,r2
        0x00001f3a:    2800        .(      CMP      r0,#0
        0x00001f3c:    d1f6        ..      BNE      0x1f2c ; rt_mut_release + 48
        0x00001f3e:    2024        $       MOVS     r0,#0x24
        0x00001f40:    5c40        @\      LDRB     r0,[r0,r1]
        0x00001f42:    6a0a        .j      LDR      r2,[r1,#0x20]
        0x00001f44:    e007        ..      B        0x1f56 ; rt_mut_release + 90
        0x00001f46:    6853        Sh      LDR      r3,[r2,#4]
        0x00001f48:    2b00        .+      CMP      r3,#0
        0x00001f4a:    d003        ..      BEQ      0x1f54 ; rt_mut_release + 88
        0x00001f4c:    789b        .x      LDRB     r3,[r3,#2]
        0x00001f4e:    4283        .B      CMP      r3,r0
        0x00001f50:    d900        ..      BLS      0x1f54 ; rt_mut_release + 88
        0x00001f52:    4618        .F      MOV      r0,r3
        0x00001f54:    68d2        .h      LDR      r2,[r2,#0xc]
        0x00001f56:    2a00        .*      CMP      r2,#0
        0x00001f58:    d1f5        ..      BNE      0x1f46 ; rt_mut_release + 74
        0x00001f5a:    7088        .p      STRB     r0,[r1,#2]
        0x00001f5c:    6861        ah      LDR      r1,[r4,#4]
        0x00001f5e:    2601        .&      MOVS     r6,#1
        0x00001f60:    2900        .)      CMP      r1,#0
        0x00001f62:    d022        ".      BEQ      0x1faa ; rt_mut_release + 174
        0x00001f64:    4620         F      MOV      r0,r4
        0x00001f66:    f7fffe36    ..6.    BL       rt_get_first ; 0x1bd6
        0x00001f6a:    4607        .F      MOV      r7,r0
        0x00001f6c:    2100        .!      MOVS     r1,#0
        0x00001f6e:    f000f941    ..A.    BL       rt_ret_val ; 0x21f4
        0x00001f72:    4638        8F      MOV      r0,r7
        0x00001f74:    f000f945    ..E.    BL       rt_rmv_dly ; 0x2202
        0x00001f78:    8066        f.      STRH     r6,[r4,#2]
        0x00001f7a:    60a7        .`      STR      r7,[r4,#8]
        0x00001f7c:    6a38        8j      LDR      r0,[r7,#0x20]
        0x00001f7e:    60e0        .`      STR      r0,[r4,#0xc]
        0x00001f80:    623c        <b      STR      r4,[r7,#0x20]
        0x00001f82:    4813        .H      LDR      r0,[pc,#76] ; [0x1fd0] = 0x2000399c
        0x00001f84:    6829        )h      LDR      r1,[r5,#0]
        0x00001f86:    6840        @h      LDR      r0,[r0,#4]
        0x00001f88:    788a        .x      LDRB     r2,[r1,#2]
        0x00001f8a:    7880        .x      LDRB     r0,[r0,#2]
        0x00001f8c:    4282        .B      CMP      r2,r0
        0x00001f8e:    d301        ..      BCC      0x1f94 ; rt_mut_release + 152
        0x00001f90:    4638        8F      MOV      r0,r7
        0x00001f92:    e016        ..      B        0x1fc2 ; rt_mut_release + 198
        0x00001f94:    480e        .H      LDR      r0,[pc,#56] ; [0x1fd0] = 0x2000399c
        0x00001f96:    f000f8ed    ....    BL       rt_put_prio ; 0x2174
        0x00001f9a:    4639        9F      MOV      r1,r7
        0x00001f9c:    480c        .H      LDR      r0,[pc,#48] ; [0x1fd0] = 0x2000399c
        0x00001f9e:    f000f8e9    ....    BL       rt_put_prio ; 0x2174
        0x00001fa2:    6828        (h      LDR      r0,[r5,#0]
        0x00001fa4:    7046        Fp      STRB     r6,[r0,#1]
        0x00001fa6:    707e        ~p      STRB     r6,[r7,#1]
        0x00001fa8:    e00a        ..      B        0x1fc0 ; rt_mut_release + 196
        0x00001faa:    4909        .I      LDR      r1,[pc,#36] ; [0x1fd0] = 0x2000399c
        0x00001fac:    6849        Ih      LDR      r1,[r1,#4]
        0x00001fae:    788a        .x      LDRB     r2,[r1,#2]
        0x00001fb0:    6829        )h      LDR      r1,[r5,#0]
        0x00001fb2:    4282        .B      CMP      r2,r0
        0x00001fb4:    d907        ..      BLS      0x1fc6 ; rt_mut_release + 202
        0x00001fb6:    4806        .H      LDR      r0,[pc,#24] ; [0x1fd0] = 0x2000399c
        0x00001fb8:    f000f8dc    ....    BL       rt_put_prio ; 0x2174
        0x00001fbc:    6828        (h      LDR      r0,[r5,#0]
        0x00001fbe:    7046        Fp      STRB     r6,[r0,#1]
        0x00001fc0:    2000        .       MOVS     r0,#0
        0x00001fc2:    f7fffd8f    ....    BL       rt_dispatch ; 0x1ae4
        0x00001fc6:    2000        .       MOVS     r0,#0
        0x00001fc8:    bdf8        ..      POP      {r3-r7,pc}
    $d
        0x00001fca:    0000        ..      DCW    0
        0x00001fcc:    20000090    ...     DCD    536871056
        0x00001fd0:    2000399c    .9.     DCD    536885660
    $t
    i.rt_mut_wait
    rt_mut_wait
        0x00001fd4:    b570        p.      PUSH     {r4-r6,lr}
        0x00001fd6:    460e        .F      MOV      r6,r1
        0x00001fd8:    4d1c        .M      LDR      r5,[pc,#112] ; [0x204c] = 0x20000090
        0x00001fda:    4604        .F      MOV      r4,r0
        0x00001fdc:    8841        A.      LDRH     r1,[r0,#2]
        0x00001fde:    6828        (h      LDR      r0,[r5,#0]
        0x00001fe0:    2900        .)      CMP      r1,#0
        0x00001fe2:    d007        ..      BEQ      0x1ff4 ; rt_mut_wait + 32
        0x00001fe4:    68a2        .h      LDR      r2,[r4,#8]
        0x00001fe6:    4282        .B      CMP      r2,r0
        0x00001fe8:    d10f        ..      BNE      0x200a ; rt_mut_wait + 54
        0x00001fea:    4819        .H      LDR      r0,[pc,#100] ; [0x2050] = 0xffff
        0x00001fec:    4281        .B      CMP      r1,r0
        0x00001fee:    d108        ..      BNE      0x2002 ; rt_mut_wait + 46
        0x00001ff0:    20ff        .       MOVS     r0,#0xff
        0x00001ff2:    bd70        p.      POP      {r4-r6,pc}
        0x00001ff4:    60a0        .`      STR      r0,[r4,#8]
        0x00001ff6:    6a01        .j      LDR      r1,[r0,#0x20]
        0x00001ff8:    60e1        .`      STR      r1,[r4,#0xc]
        0x00001ffa:    6204        .b      STR      r4,[r0,#0x20]
        0x00001ffc:    2001        .       MOVS     r0,#1
        0x00001ffe:    8060        `.      STRH     r0,[r4,#2]
        0x00002000:    e001        ..      B        0x2006 ; rt_mut_wait + 50
        0x00002002:    1c49        I.      ADDS     r1,r1,#1
        0x00002004:    8061        a.      STRH     r1,[r4,#2]
        0x00002006:    2000        .       MOVS     r0,#0
        0x00002008:    bd70        p.      POP      {r4-r6,pc}
        0x0000200a:    2e00        ..      CMP      r6,#0
        0x0000200c:    d00f        ..      BEQ      0x202e ; rt_mut_wait + 90
        0x0000200e:    7891        .x      LDRB     r1,[r2,#2]
        0x00002010:    7880        .x      LDRB     r0,[r0,#2]
        0x00002012:    4281        .B      CMP      r1,r0
        0x00002014:    d203        ..      BCS      0x201e ; rt_mut_wait + 74
        0x00002016:    7090        .p      STRB     r0,[r2,#2]
        0x00002018:    68a0        .h      LDR      r0,[r4,#8]
        0x0000201a:    f000f8d3    ....    BL       rt_resort_prio ; 0x21c4
        0x0000201e:    6860        `h      LDR      r0,[r4,#4]
        0x00002020:    2800        .(      CMP      r0,#0
        0x00002022:    d006        ..      BEQ      0x2032 ; rt_mut_wait + 94
        0x00002024:    4620         F      MOV      r0,r4
        0x00002026:    6829        )h      LDR      r1,[r5,#0]
        0x00002028:    f000f8a4    ....    BL       rt_put_prio ; 0x2174
        0x0000202c:    e008        ..      B        0x2040 ; rt_mut_wait + 108
        0x0000202e:    2001        .       MOVS     r0,#1
        0x00002030:    bd70        p.      POP      {r4-r6,pc}
        0x00002032:    6828        (h      LDR      r0,[r5,#0]
        0x00002034:    6060        ``      STR      r0,[r4,#4]
        0x00002036:    6829        )h      LDR      r1,[r5,#0]
        0x00002038:    2000        .       MOVS     r0,#0
        0x0000203a:    6048        H`      STR      r0,[r1,#4]
        0x0000203c:    6828        (h      LDR      r0,[r5,#0]
        0x0000203e:    6084        .`      STR      r4,[r0,#8]
        0x00002040:    2109        .!      MOVS     r1,#9
        0x00002042:    4630        0F      MOV      r0,r6
        0x00002044:    f7fffcd6    ....    BL       rt_block ; 0x19f4
        0x00002048:    e7f1        ..      B        0x202e ; rt_mut_wait + 90
    $d
        0x0000204a:    0000        ..      DCW    0
        0x0000204c:    20000090    ...     DCD    536871056
        0x00002050:    0000ffff    ....    DCD    65535
    $t
    i.rt_pop_req
    rt_pop_req
        0x00002054:    b570        p.      PUSH     {r4-r6,lr}
        0x00002056:    4818        .H      LDR      r0,[pc,#96] ; [0x20b8] = 0x20000090
        0x00002058:    2101        .!      MOVS     r1,#1
        0x0000205a:    6802        .h      LDR      r2,[r0,#0]
        0x0000205c:    7051        Qp      STRB     r1,[r2,#1]
        0x0000205e:    6800        .h      LDR      r0,[r0,#0]
        0x00002060:    f000f8a6    ....    BL       rt_put_rdy_first ; 0x21b0
        0x00002064:    4c15        .L      LDR      r4,[pc,#84] ; [0x20bc] = 0x200038a8
        0x00002066:    7865        ex      LDRB     r5,[r4,#1]
        0x00002068:    e013        ..      B        0x2092 ; rt_pop_req + 62
        0x0000206a:    00e8        ..      LSLS     r0,r5,#3
        0x0000206c:    1901        ..      ADDS     r1,r0,r4
        0x0000206e:    6848        Hh      LDR      r0,[r1,#4]
        0x00002070:    7802        .x      LDRB     r2,[r0,#0]
        0x00002072:    2a00        .*      CMP      r2,#0
        0x00002074:    d017        ..      BEQ      0x20a6 ; rt_pop_req + 82
        0x00002076:    2a01        .*      CMP      r2,#1
        0x00002078:    d01a        ..      BEQ      0x20b0 ; rt_pop_req + 92
        0x0000207a:    f000f8f1    ....    BL       rt_sem_psh ; 0x2260
        0x0000207e:    78e0        .x      LDRB     r0,[r4,#3]
        0x00002080:    1c6d        m.      ADDS     r5,r5,#1
        0x00002082:    4285        .B      CMP      r5,r0
        0x00002084:    d100        ..      BNE      0x2088 ; rt_pop_req + 52
        0x00002086:    2500        .%      MOVS     r5,#0
        0x00002088:    b672        r.      CPSID    i
        0x0000208a:    78a0        .x      LDRB     r0,[r4,#2]
        0x0000208c:    1e40        @.      SUBS     r0,r0,#1
        0x0000208e:    70a0        .p      STRB     r0,[r4,#2]
        0x00002090:    b662        b.      CPSIE    i
        0x00002092:    78a0        .x      LDRB     r0,[r4,#2]
        0x00002094:    2800        .(      CMP      r0,#0
        0x00002096:    d1e8        ..      BNE      0x206a ; rt_pop_req + 22
        0x00002098:    7065        ep      STRB     r5,[r4,#1]
        0x0000209a:    4809        .H      LDR      r0,[pc,#36] ; [0x20c0] = 0x2000399c
        0x0000209c:    f7fffd9b    ....    BL       rt_get_first ; 0x1bd6
        0x000020a0:    f000f90c    ....    BL       rt_switch_req ; 0x22bc
        0x000020a4:    bd70        p.      POP      {r4-r6,pc}
        0x000020a6:    8909        ..      LDRH     r1,[r1,#8]
        0x000020a8:    b289        ..      UXTH     r1,r1
        0x000020aa:    f7fffd41    ..A.    BL       rt_evt_psh ; 0x1b30
        0x000020ae:    e7e6        ..      B        0x207e ; rt_pop_req + 42
        0x000020b0:    6889        .h      LDR      r1,[r1,#8]
        0x000020b2:    f7fffe39    ..9.    BL       rt_mbx_psh ; 0x1d28
        0x000020b6:    e7e2        ..      B        0x207e ; rt_pop_req + 42
    $d
        0x000020b8:    20000090    ...     DCD    536871056
        0x000020bc:    200038a8    .8.     DCD    536885416
        0x000020c0:    2000399c    .9.     DCD    536885660
    $t
    i.rt_psh_req
    rt_psh_req
        0x000020c4:    4805        .H      LDR      r0,[pc,#20] ; [0x20dc] = 0x20000098
        0x000020c6:    7801        .x      LDRB     r1,[r0,#0]
        0x000020c8:    2900        .)      CMP      r1,#0
        0x000020ca:    d002        ..      BEQ      0x20d2 ; rt_psh_req + 14
        0x000020cc:    2101        .!      MOVS     r1,#1
        0x000020ce:    7041        Ap      STRB     r1,[r0,#1]
        0x000020d0:    4770        pG      BX       lr
        0x000020d2:    2001        .       MOVS     r0,#1
        0x000020d4:    4902        .I      LDR      r1,[pc,#8] ; [0x20e0] = 0xe000ed00
        0x000020d6:    0700        ..      LSLS     r0,r0,#28
        0x000020d8:    6048        H`      STR      r0,[r1,#4]
        0x000020da:    4770        pG      BX       lr
    $d
        0x000020dc:    20000098    ...     DCD    536871064
        0x000020e0:    e000ed00    ....    DCD    3758157056
    $t
    i.rt_psq_enq
    rt_psq_enq
        0x000020e4:    b570        p.      PUSH     {r4-r6,lr}
        0x000020e6:    4b0e        .K      LDR      r3,[pc,#56] ; [0x2120] = 0x200038a8
        0x000020e8:    78dd        .x      LDRB     r5,[r3,#3]
        0x000020ea:    1c9c        ..      ADDS     r4,r3,#2
        0x000020ec:    461e        .F      MOV      r6,r3
        0x000020ee:    b672        r.      CPSID    i
        0x000020f0:    789a        .x      LDRB     r2,[r3,#2]
        0x000020f2:    42aa        .B      CMP      r2,r5
        0x000020f4:    d207        ..      BCS      0x2106 ; rt_psq_enq + 34
        0x000020f6:    1c52        R.      ADDS     r2,r2,#1
        0x000020f8:    7022        "p      STRB     r2,[r4,#0]
        0x000020fa:    7832        2x      LDRB     r2,[r6,#0]
        0x000020fc:    1c54        T.      ADDS     r4,r2,#1
        0x000020fe:    42ac        .B      CMP      r4,r5
        0x00002100:    d100        ..      BNE      0x2104 ; rt_psq_enq + 32
        0x00002102:    2400        .$      MOVS     r4,#0
        0x00002104:    7034        4p      STRB     r4,[r6,#0]
        0x00002106:    b662        b.      CPSIE    i
        0x00002108:    78dc        .x      LDRB     r4,[r3,#3]
        0x0000210a:    4294        .B      CMP      r4,r2
        0x0000210c:    d904        ..      BLS      0x2118 ; rt_psq_enq + 52
        0x0000210e:    00d2        ..      LSLS     r2,r2,#3
        0x00002110:    18d2        ..      ADDS     r2,r2,r3
        0x00002112:    6091        .`      STR      r1,[r2,#8]
        0x00002114:    6050        P`      STR      r0,[r2,#4]
        0x00002116:    bd70        p.      POP      {r4-r6,pc}
        0x00002118:    2002        .       MOVS     r0,#2
        0x0000211a:    f7feffc1    ....    BL       os_error ; 0x10a0
        0x0000211e:    bd70        p.      POP      {r4-r6,pc}
    $d
        0x00002120:    200038a8    .8.     DCD    536885416
    $t
    i.rt_put_dly
    rt_put_dly
        0x00002124:    b510        ..      PUSH     {r4,lr}
        0x00002126:    4a12        .J      LDR      r2,[pc,#72] ; [0x2170] = 0x200039b4
        0x00002128:    68d3        .h      LDR      r3,[r2,#0xc]
        0x0000212a:    2b00        .+      CMP      r3,#0
        0x0000212c:    d017        ..      BEQ      0x215e ; rt_put_dly + 58
        0x0000212e:    4613        .F      MOV      r3,r2
        0x00002130:    8a9b        ..      LDRH     r3,[r3,#0x14]
        0x00002132:    e004        ..      B        0x213e ; rt_put_dly + 26
        0x00002134:    2c00        .,      CMP      r4,#0
        0x00002136:    d012        ..      BEQ      0x215e ; rt_put_dly + 58
        0x00002138:    4622        "F      MOV      r2,r4
        0x0000213a:    8aa4        ..      LDRH     r4,[r4,#0x14]
        0x0000213c:    18e3        ..      ADDS     r3,r4,r3
        0x0000213e:    68d4        .h      LDR      r4,[r2,#0xc]
        0x00002140:    428b        .B      CMP      r3,r1
        0x00002142:    d3f7        ..      BCC      0x2134 ; rt_put_dly + 16
        0x00002144:    60c4        .`      STR      r4,[r0,#0xc]
        0x00002146:    60d0        .`      STR      r0,[r2,#0xc]
        0x00002148:    6102        .a      STR      r2,[r0,#0x10]
        0x0000214a:    68c4        .h      LDR      r4,[r0,#0xc]
        0x0000214c:    2c00        .,      CMP      r4,#0
        0x0000214e:    d000        ..      BEQ      0x2152 ; rt_put_dly + 46
        0x00002150:    6120         a      STR      r0,[r4,#0x10]
        0x00002152:    1a59        Y.      SUBS     r1,r3,r1
        0x00002154:    8281        ..      STRH     r1,[r0,#0x14]
        0x00002156:    8a90        ..      LDRH     r0,[r2,#0x14]
        0x00002158:    1a40        @.      SUBS     r0,r0,r1
        0x0000215a:    8290        ..      STRH     r0,[r2,#0x14]
        0x0000215c:    bd10        ..      POP      {r4,pc}
        0x0000215e:    2400        .$      MOVS     r4,#0
        0x00002160:    60c4        .`      STR      r4,[r0,#0xc]
        0x00002162:    60d0        .`      STR      r0,[r2,#0xc]
        0x00002164:    1ac9        ..      SUBS     r1,r1,r3
        0x00002166:    6102        .a      STR      r2,[r0,#0x10]
        0x00002168:    8291        ..      STRH     r1,[r2,#0x14]
        0x0000216a:    8284        ..      STRH     r4,[r0,#0x14]
        0x0000216c:    bd10        ..      POP      {r4,pc}
    $d
        0x0000216e:    0000        ..      DCW    0
        0x00002170:    200039b4    .9.     DCD    536885684
    $t
    i.rt_put_prio
    rt_put_prio
        0x00002174:    b530        0.      PUSH     {r4,r5,lr}
        0x00002176:    7802        .x      LDRB     r2,[r0,#0]
        0x00002178:    2300        .#      MOVS     r3,#0
        0x0000217a:    2a02        .*      CMP      r2,#2
        0x0000217c:    d003        ..      BEQ      0x2186 ; rt_put_prio + 18
        0x0000217e:    2a01        .*      CMP      r2,#1
        0x00002180:    d001        ..      BEQ      0x2186 ; rt_put_prio + 18
        0x00002182:    2a03        .*      CMP      r2,#3
        0x00002184:    d100        ..      BNE      0x2188 ; rt_put_prio + 20
        0x00002186:    2301        .#      MOVS     r3,#1
        0x00002188:    788c        .x      LDRB     r4,[r1,#2]
        0x0000218a:    e000        ..      B        0x218e ; rt_put_prio + 26
        0x0000218c:    4610        .F      MOV      r0,r2
        0x0000218e:    6842        Bh      LDR      r2,[r0,#4]
        0x00002190:    2a00        .*      CMP      r2,#0
        0x00002192:    d002        ..      BEQ      0x219a ; rt_put_prio + 38
        0x00002194:    7895        .x      LDRB     r5,[r2,#2]
        0x00002196:    42a5        .B      CMP      r5,r4
        0x00002198:    d2f8        ..      BCS      0x218c ; rt_put_prio + 24
        0x0000219a:    604a        J`      STR      r2,[r1,#4]
        0x0000219c:    6041        A`      STR      r1,[r0,#4]
        0x0000219e:    2b00        .+      CMP      r3,#0
        0x000021a0:    d004        ..      BEQ      0x21ac ; rt_put_prio + 56
        0x000021a2:    2a00        .*      CMP      r2,#0
        0x000021a4:    d000        ..      BEQ      0x21a8 ; rt_put_prio + 52
        0x000021a6:    6091        .`      STR      r1,[r2,#8]
        0x000021a8:    6088        .`      STR      r0,[r1,#8]
        0x000021aa:    bd30        0.      POP      {r4,r5,pc}
        0x000021ac:    2000        .       MOVS     r0,#0
        0x000021ae:    e7fb        ..      B        0x21a8 ; rt_put_prio + 52
    i.rt_put_rdy_first
    rt_put_rdy_first
        0x000021b0:    4903        .I      LDR      r1,[pc,#12] ; [0x21c0] = 0x2000399c
        0x000021b2:    684a        Jh      LDR      r2,[r1,#4]
        0x000021b4:    6042        B`      STR      r2,[r0,#4]
        0x000021b6:    2200        ."      MOVS     r2,#0
        0x000021b8:    6082        .`      STR      r2,[r0,#8]
        0x000021ba:    6048        H`      STR      r0,[r1,#4]
        0x000021bc:    4770        pG      BX       lr
    $d
        0x000021be:    0000        ..      DCW    0
        0x000021c0:    2000399c    .9.     DCD    536885660
    $t
    i.rt_resort_prio
    rt_resort_prio
        0x000021c4:    b510        ..      PUSH     {r4,lr}
        0x000021c6:    6883        .h      LDR      r3,[r0,#8]
        0x000021c8:    4604        .F      MOV      r4,r0
        0x000021ca:    2b00        .+      CMP      r3,#0
        0x000021cc:    d105        ..      BNE      0x21da ; rt_resort_prio + 22
        0x000021ce:    7860        `x      LDRB     r0,[r4,#1]
        0x000021d0:    2801        .(      CMP      r0,#1
        0x000021d2:    d10c        ..      BNE      0x21ee ; rt_resort_prio + 42
        0x000021d4:    4b06        .K      LDR      r3,[pc,#24] ; [0x21f0] = 0x2000399c
        0x000021d6:    e003        ..      B        0x21e0 ; rt_resort_prio + 28
        0x000021d8:    689b        .h      LDR      r3,[r3,#8]
        0x000021da:    7818        .x      LDRB     r0,[r3,#0]
        0x000021dc:    2800        .(      CMP      r0,#0
        0x000021de:    d0fb        ..      BEQ      0x21d8 ; rt_resort_prio + 20
        0x000021e0:    4620         F      MOV      r0,r4
        0x000021e2:    f000f823    ..#.    BL       rt_rmv_list ; 0x222c
        0x000021e6:    4621        !F      MOV      r1,r4
        0x000021e8:    4618        .F      MOV      r0,r3
        0x000021ea:    f7ffffc3    ....    BL       rt_put_prio ; 0x2174
        0x000021ee:    bd10        ..      POP      {r4,pc}
    $d
        0x000021f0:    2000399c    .9.     DCD    536885660
    $t
    i.rt_ret_val
    rt_ret_val
        0x000021f4:    6a80        .j      LDR      r0,[r0,#0x28]
        0x000021f6:    6201        .b      STR      r1,[r0,#0x20]
        0x000021f8:    4770        pG      BX       lr
    i.rt_ret_val2
    rt_ret_val2
        0x000021fa:    6a80        .j      LDR      r0,[r0,#0x28]
        0x000021fc:    6242        Bb      STR      r2,[r0,#0x24]
        0x000021fe:    6201        .b      STR      r1,[r0,#0x20]
        0x00002200:    4770        pG      BX       lr
    i.rt_rmv_dly
    rt_rmv_dly
        0x00002202:    b510        ..      PUSH     {r4,lr}
        0x00002204:    6901        .i      LDR      r1,[r0,#0x10]
        0x00002206:    2900        .)      CMP      r1,#0
        0x00002208:    d00f        ..      BEQ      0x222a ; rt_rmv_dly + 40
        0x0000220a:    68c2        .h      LDR      r2,[r0,#0xc]
        0x0000220c:    60ca        .`      STR      r2,[r1,#0xc]
        0x0000220e:    68c3        .h      LDR      r3,[r0,#0xc]
        0x00002210:    2200        ."      MOVS     r2,#0
        0x00002212:    2b00        .+      CMP      r3,#0
        0x00002214:    d007        ..      BEQ      0x2226 ; rt_rmv_dly + 36
        0x00002216:    8a8b        ..      LDRH     r3,[r1,#0x14]
        0x00002218:    8a84        ..      LDRH     r4,[r0,#0x14]
        0x0000221a:    191b        ..      ADDS     r3,r3,r4
        0x0000221c:    828b        ..      STRH     r3,[r1,#0x14]
        0x0000221e:    68c3        .h      LDR      r3,[r0,#0xc]
        0x00002220:    6119        .a      STR      r1,[r3,#0x10]
        0x00002222:    60c2        .`      STR      r2,[r0,#0xc]
        0x00002224:    e000        ..      B        0x2228 ; rt_rmv_dly + 38
        0x00002226:    828a        ..      STRH     r2,[r1,#0x14]
        0x00002228:    6102        .a      STR      r2,[r0,#0x10]
        0x0000222a:    bd10        ..      POP      {r4,pc}
    i.rt_rmv_list
    rt_rmv_list
        0x0000222c:    6881        .h      LDR      r1,[r0,#8]
        0x0000222e:    2900        .)      CMP      r1,#0
        0x00002230:    d007        ..      BEQ      0x2242 ; rt_rmv_list + 22
        0x00002232:    6842        Bh      LDR      r2,[r0,#4]
        0x00002234:    604a        J`      STR      r2,[r1,#4]
        0x00002236:    6841        Ah      LDR      r1,[r0,#4]
        0x00002238:    2900        .)      CMP      r1,#0
        0x0000223a:    d001        ..      BEQ      0x2240 ; rt_rmv_list + 20
        0x0000223c:    6880        .h      LDR      r0,[r0,#8]
        0x0000223e:    6088        .`      STR      r0,[r1,#8]
        0x00002240:    4770        pG      BX       lr
        0x00002242:    4906        .I      LDR      r1,[pc,#24] ; [0x225c] = 0x2000399c
        0x00002244:    e006        ..      B        0x2254 ; rt_rmv_list + 40
        0x00002246:    684a        Jh      LDR      r2,[r1,#4]
        0x00002248:    4282        .B      CMP      r2,r0
        0x0000224a:    d102        ..      BNE      0x2252 ; rt_rmv_list + 38
        0x0000224c:    6840        @h      LDR      r0,[r0,#4]
        0x0000224e:    6048        H`      STR      r0,[r1,#4]
        0x00002250:    4770        pG      BX       lr
        0x00002252:    4611        .F      MOV      r1,r2
        0x00002254:    2900        .)      CMP      r1,#0
        0x00002256:    d1f6        ..      BNE      0x2246 ; rt_rmv_list + 26
        0x00002258:    4770        pG      BX       lr
    $d
        0x0000225a:    0000        ..      DCW    0
        0x0000225c:    2000399c    .9.     DCD    536885660
    $t
    i.rt_sem_psh
    rt_sem_psh
        0x00002260:    b510        ..      PUSH     {r4,lr}
        0x00002262:    6841        Ah      LDR      r1,[r0,#4]
        0x00002264:    2900        .)      CMP      r1,#0
        0x00002266:    d00f        ..      BEQ      0x2288 ; rt_sem_psh + 40
        0x00002268:    f7fffcb5    ....    BL       rt_get_first ; 0x1bd6
        0x0000226c:    4604        .F      MOV      r4,r0
        0x0000226e:    f7ffffc8    ....    BL       rt_rmv_dly ; 0x2202
        0x00002272:    2001        .       MOVS     r0,#1
        0x00002274:    7060        `p      STRB     r0,[r4,#1]
        0x00002276:    4601        .F      MOV      r1,r0
        0x00002278:    4620         F      MOV      r0,r4
        0x0000227a:    f7ffffbb    ....    BL       rt_ret_val ; 0x21f4
        0x0000227e:    4621        !F      MOV      r1,r4
        0x00002280:    4803        .H      LDR      r0,[pc,#12] ; [0x2290] = 0x2000399c
        0x00002282:    f7ffff77    ..w.    BL       rt_put_prio ; 0x2174
        0x00002286:    bd10        ..      POP      {r4,pc}
        0x00002288:    8841        A.      LDRH     r1,[r0,#2]
        0x0000228a:    1c49        I.      ADDS     r1,r1,#1
        0x0000228c:    8041        A.      STRH     r1,[r0,#2]
        0x0000228e:    bd10        ..      POP      {r4,pc}
    $d
        0x00002290:    2000399c    .9.     DCD    536885660
    $t
    i.rt_stk_check
    rt_stk_check
        0x00002294:    b510        ..      PUSH     {r4,lr}
        0x00002296:    4807        .H      LDR      r0,[pc,#28] ; [0x22b4] = 0x20000090
        0x00002298:    6800        .h      LDR      r0,[r0,#0]
        0x0000229a:    6a81        .j      LDR      r1,[r0,#0x28]
        0x0000229c:    6ac0        .j      LDR      r0,[r0,#0x2c]
        0x0000229e:    4281        .B      CMP      r1,r0
        0x000022a0:    d303        ..      BCC      0x22aa ; rt_stk_check + 22
        0x000022a2:    6800        .h      LDR      r0,[r0,#0]
        0x000022a4:    4904        .I      LDR      r1,[pc,#16] ; [0x22b8] = 0xe25a2ea5
        0x000022a6:    4288        .B      CMP      r0,r1
        0x000022a8:    d002        ..      BEQ      0x22b0 ; rt_stk_check + 28
        0x000022aa:    2001        .       MOVS     r0,#1
        0x000022ac:    f7fefef8    ....    BL       os_error ; 0x10a0
        0x000022b0:    bd10        ..      POP      {r4,pc}
    $d
        0x000022b2:    0000        ..      DCW    0
        0x000022b4:    20000090    ...     DCD    536871056
        0x000022b8:    e25a2ea5    ..Z.    DCD    3797560997
    $t
    i.rt_switch_req
    rt_switch_req
        0x000022bc:    4902        .I      LDR      r1,[pc,#8] ; [0x22c8] = 0x20000090
        0x000022be:    6048        H`      STR      r0,[r1,#4]
        0x000022c0:    2102        .!      MOVS     r1,#2
        0x000022c2:    7041        Ap      STRB     r1,[r0,#1]
        0x000022c4:    4770        pG      BX       lr
    $d
        0x000022c6:    0000        ..      DCW    0
        0x000022c8:    20000090    ...     DCD    536871056
    $t
    i.rt_sys_init
    rt_sys_init
        0x000022cc:    b570        p.      PUSH     {r4-r6,lr}
        0x000022ce:    2000        .       MOVS     r0,#0
        0x000022d0:    4604        .F      MOV      r4,r0
        0x000022d2:    4920         I      LDR      r1,[pc,#128] ; [0x2354] = 0x2000392c
        0x000022d4:    4a20         J      LDR      r2,[pc,#128] ; [0x2358] = 0x2b3c
        0x000022d6:    e002        ..      B        0x22de ; rt_sys_init + 18
        0x000022d8:    0083        ..      LSLS     r3,r0,#2
        0x000022da:    50cc        .P      STR      r4,[r1,r3]
        0x000022dc:    1c40        @.      ADDS     r0,r0,#1
        0x000022de:    8813        ..      LDRH     r3,[r2,#0]
        0x000022e0:    4298        .B      CMP      r0,r3
        0x000022e2:    d3f9        ..      BCC      0x22d8 ; rt_sys_init + 12
        0x000022e4:    481d        .H      LDR      r0,[pc,#116] ; [0x235c] = 0x2b68
        0x000022e6:    2234        4"      MOVS     r2,#0x34
        0x000022e8:    8801        ..      LDRH     r1,[r0,#0]
        0x000022ea:    481d        .H      LDR      r0,[pc,#116] ; [0x2360] = 0x200011d8
        0x000022ec:    f7fff801    ....    BL       _init_box ; 0x12f2
        0x000022f0:    481c        .H      LDR      r0,[pc,#112] ; [0x2364] = 0x2b40
        0x000022f2:    2101        .!      MOVS     r1,#1
        0x000022f4:    8800        ..      LDRH     r0,[r0,#0]
        0x000022f6:    07c9        ..      LSLS     r1,r1,#31
        0x000022f8:    b280        ..      UXTH     r0,r0
        0x000022fa:    1842        B.      ADDS     r2,r0,r1
        0x000022fc:    481a        .H      LDR      r0,[pc,#104] ; [0x2368] = 0x2b6c
        0x000022fe:    6801        .h      LDR      r1,[r0,#0]
        0x00002300:    481a        .H      LDR      r0,[pc,#104] ; [0x236c] = 0x20001350
        0x00002302:    f7fefff6    ....    BL       _init_box ; 0x12f2
        0x00002306:    481a        .H      LDR      r0,[pc,#104] ; [0x2370] = 0x2b90
        0x00002308:    2208        ."      MOVS     r2,#8
        0x0000230a:    8801        ..      LDRH     r1,[r0,#0]
        0x0000230c:    4819        .H      LDR      r0,[pc,#100] ; [0x2374] = 0x20000084
        0x0000230e:    6800        .h      LDR      r0,[r0,#0]
        0x00002310:    f7feffef    ....    BL       _init_box ; 0x12f2
        0x00002314:    4d18        .M      LDR      r5,[pc,#96] ; [0x2378] = 0x20003968
        0x00002316:    20ff        .       MOVS     r0,#0xff
        0x00002318:    70e8        .p      STRB     r0,[r5,#3]
        0x0000231a:    84ec        ..      STRH     r4,[r5,#0x26]
        0x0000231c:    4a17        .J      LDR      r2,[pc,#92] ; [0x237c] = 0x109d
        0x0000231e:    2100        .!      MOVS     r1,#0
        0x00002320:    4628        (F      MOV      r0,r5
        0x00002322:    f7fffc71    ..q.    BL       rt_init_context ; 0x1c08
        0x00002326:    4816        .H      LDR      r0,[pc,#88] ; [0x2380] = 0x2000399c
        0x00002328:    2104        .!      MOVS     r1,#4
        0x0000232a:    7001        .p      STRB     r1,[r0,#0]
        0x0000232c:    6044        D`      STR      r4,[r0,#4]
        0x0000232e:    4815        .H      LDR      r0,[pc,#84] ; [0x2384] = 0x200039b4
        0x00002330:    7001        .p      STRB     r1,[r0,#0]
        0x00002332:    60c4        .`      STR      r4,[r0,#0xc]
        0x00002334:    6104        .a      STR      r4,[r0,#0x10]
        0x00002336:    8284        ..      STRH     r4,[r0,#0x14]
        0x00002338:    4813        .H      LDR      r0,[pc,#76] ; [0x2388] = 0x20000090
        0x0000233a:    4915        .I      LDR      r1,[pc,#84] ; [0x2390] = 0x2b74
        0x0000233c:    6005        .`      STR      r5,[r0,#0]
        0x0000233e:    2002        .       MOVS     r0,#2
        0x00002340:    7068        hp      STRB     r0,[r5,#1]
        0x00002342:    4812        .H      LDR      r0,[pc,#72] ; [0x238c] = 0x200038a8
        0x00002344:    7004        .p      STRB     r4,[r0,#0]
        0x00002346:    7044        Dp      STRB     r4,[r0,#1]
        0x00002348:    7809        .x      LDRB     r1,[r1,#0]
        0x0000234a:    70c1        .p      STRB     r1,[r0,#3]
        0x0000234c:    f7fffc8e    ....    BL       rt_init_robin ; 0x1c6c
        0x00002350:    bd70        p.      POP      {r4-r6,pc}
    $d
        0x00002352:    0000        ..      DCW    0
        0x00002354:    2000392c    ,9.     DCD    536885548
        0x00002358:    00002b3c    <+..    DCD    11068
        0x0000235c:    00002b68    h+..    DCD    11112
        0x00002360:    200011d8    ...     DCD    536875480
        0x00002364:    00002b40    @+..    DCD    11072
        0x00002368:    00002b6c    l+..    DCD    11116
        0x0000236c:    20001350    P..     DCD    536875856
        0x00002370:    00002b90    .+..    DCD    11152
        0x00002374:    20000084    ...     DCD    536871044
        0x00002378:    20003968    h9.     DCD    536885608
        0x0000237c:    0000109d    ....    DCD    4253
        0x00002380:    2000399c    .9.     DCD    536885660
        0x00002384:    200039b4    .9.     DCD    536885684
        0x00002388:    20000090    ...     DCD    536871056
        0x0000238c:    200038a8    .8.     DCD    536885416
        0x00002390:    00002b74    t+..    DCD    11124
    $t
    i.rt_sys_start
    rt_sys_start
        0x00002394:    b510        ..      PUSH     {r4,lr}
        0x00002396:    4814        .H      LDR      r0,[pc,#80] ; [0x23e8] = 0xe000ed00
        0x00002398:    6a01        .j      LDR      r1,[r0,#0x20]
        0x0000239a:    22ff        ."      MOVS     r2,#0xff
        0x0000239c:    0412        ..      LSLS     r2,r2,#16
        0x0000239e:    4311        .C      ORRS     r1,r1,r2
        0x000023a0:    6201        .b      STR      r1,[r0,#0x20]
        0x000023a2:    69c1        .i      LDR      r1,[r0,#0x1c]
        0x000023a4:    6a02        .j      LDR      r2,[r0,#0x20]
        0x000023a6:    0252        R.      LSLS     r2,r2,#9
        0x000023a8:    0e92        ..      LSRS     r2,r2,#26
        0x000023aa:    0692        ..      LSLS     r2,r2,#26
        0x000023ac:    4311        .C      ORRS     r1,r1,r2
        0x000023ae:    61c1        .a      STR      r1,[r0,#0x1c]
        0x000023b0:    f7fffa96    ....    BL       os_tick_init ; 0x18e0
        0x000023b4:    490d        .I      LDR      r1,[pc,#52] ; [0x23ec] = 0x2000009c
        0x000023b6:    2800        .(      CMP      r0,#0
        0x000023b8:    6008        .`      STR      r0,[r1,#0]
        0x000023ba:    db13        ..      BLT      0x23e4 ; rt_sys_start + 80
        0x000023bc:    0882        ..      LSRS     r2,r0,#2
        0x000023be:    490c        .I      LDR      r1,[pc,#48] ; [0x23f0] = 0xe000e400
        0x000023c0:    0092        ..      LSLS     r2,r2,#2
        0x000023c2:    1851        Q.      ADDS     r1,r2,r1
        0x000023c4:    680a        .h      LDR      r2,[r1,#0]
        0x000023c6:    0783        ..      LSLS     r3,r0,#30
        0x000023c8:    0edc        ..      LSRS     r4,r3,#27
        0x000023ca:    23ff        .#      MOVS     r3,#0xff
        0x000023cc:    40a3        .@      LSLS     r3,r3,r4
        0x000023ce:    431a        .C      ORRS     r2,r2,r3
        0x000023d0:    600a        .`      STR      r2,[r1,#0]
        0x000023d2:    06c2        ..      LSLS     r2,r0,#27
        0x000023d4:    0ed2        ..      LSRS     r2,r2,#27
        0x000023d6:    2101        .!      MOVS     r1,#1
        0x000023d8:    4091        .@      LSLS     r1,r1,r2
        0x000023da:    0940        @.      LSRS     r0,r0,#5
        0x000023dc:    4a05        .J      LDR      r2,[pc,#20] ; [0x23f4] = 0xe000e100
        0x000023de:    0080        ..      LSLS     r0,r0,#2
        0x000023e0:    1880        ..      ADDS     r0,r0,r2
        0x000023e2:    6001        .`      STR      r1,[r0,#0]
        0x000023e4:    bd10        ..      POP      {r4,pc}
    $d
        0x000023e6:    0000        ..      DCW    0
        0x000023e8:    e000ed00    ....    DCD    3758157056
        0x000023ec:    2000009c    ...     DCD    536871068
        0x000023f0:    e000e400    ....    DCD    3758154752
        0x000023f4:    e000e100    ....    DCD    3758153984
    $t
    i.rt_systick
    rt_systick
        0x000023f8:    b510        ..      PUSH     {r4,lr}
        0x000023fa:    480b        .H      LDR      r0,[pc,#44] ; [0x2428] = 0x20000090
        0x000023fc:    2101        .!      MOVS     r1,#1
        0x000023fe:    6802        .h      LDR      r2,[r0,#0]
        0x00002400:    7051        Qp      STRB     r1,[r2,#1]
        0x00002402:    6800        .h      LDR      r0,[r0,#0]
        0x00002404:    f7fffed4    ....    BL       rt_put_rdy_first ; 0x21b0
        0x00002408:    f7fffb10    ....    BL       rt_chk_robin ; 0x1a2c
        0x0000240c:    4807        .H      LDR      r0,[pc,#28] ; [0x242c] = 0x200000a0
        0x0000240e:    6801        .h      LDR      r1,[r0,#0]
        0x00002410:    1c49        I.      ADDS     r1,r1,#1
        0x00002412:    6001        .`      STR      r1,[r0,#0]
        0x00002414:    f7fffb2c    ..,.    BL       rt_dec_dly ; 0x1a70
        0x00002418:    f000fb2e    ....    BL       sysTimerTick ; 0x2a78
        0x0000241c:    4804        .H      LDR      r0,[pc,#16] ; [0x2430] = 0x2000399c
        0x0000241e:    f7fffbda    ....    BL       rt_get_first ; 0x1bd6
        0x00002422:    f7ffff4b    ..K.    BL       rt_switch_req ; 0x22bc
        0x00002426:    bd10        ..      POP      {r4,pc}
    $d
        0x00002428:    20000090    ...     DCD    536871056
        0x0000242c:    200000a0    ...     DCD    536871072
        0x00002430:    2000399c    .9.     DCD    536885660
    $t
    i.rt_tid2ptcb
    rt_tid2ptcb
        0x00002434:    2800        .(      CMP      r0,#0
        0x00002436:    d005        ..      BEQ      0x2444 ; rt_tid2ptcb + 16
        0x00002438:    0781        ..      LSLS     r1,r0,#30
        0x0000243a:    d102        ..      BNE      0x2442 ; rt_tid2ptcb + 14
        0x0000243c:    7801        .x      LDRB     r1,[r0,#0]
        0x0000243e:    2900        .)      CMP      r1,#0
        0x00002440:    d000        ..      BEQ      0x2444 ; rt_tid2ptcb + 16
        0x00002442:    2000        .       MOVS     r0,#0
        0x00002444:    4770        pG      BX       lr
        0x00002446:    0000        ..      MOVS     r0,r0
    i.rt_timer_insert
    rt_timer_insert
        0x00002448:    b530        0.      PUSH     {r4,r5,lr}
        0x0000244a:    4c0c        .L      LDR      r4,[pc,#48] ; [0x247c] = 0x20000088
        0x0000244c:    2300        .#      MOVS     r3,#0
        0x0000244e:    6862        bh      LDR      r2,[r4,#4]
        0x00002450:    e005        ..      B        0x245e ; rt_timer_insert + 22
        0x00002452:    6895        .h      LDR      r5,[r2,#8]
        0x00002454:    428d        .B      CMP      r5,r1
        0x00002456:    d804        ..      BHI      0x2462 ; rt_timer_insert + 26
        0x00002458:    4613        .F      MOV      r3,r2
        0x0000245a:    6812        .h      LDR      r2,[r2,#0]
        0x0000245c:    1b49        I.      SUBS     r1,r1,r5
        0x0000245e:    2a00        .*      CMP      r2,#0
        0x00002460:    d1f7        ..      BNE      0x2452 ; rt_timer_insert + 10
        0x00002462:    6002        .`      STR      r2,[r0,#0]
        0x00002464:    6081        .`      STR      r1,[r0,#8]
        0x00002466:    2a00        .*      CMP      r2,#0
        0x00002468:    d002        ..      BEQ      0x2470 ; rt_timer_insert + 40
        0x0000246a:    6895        .h      LDR      r5,[r2,#8]
        0x0000246c:    1a69        i.      SUBS     r1,r5,r1
        0x0000246e:    6091        .`      STR      r1,[r2,#8]
        0x00002470:    2b00        .+      CMP      r3,#0
        0x00002472:    d001        ..      BEQ      0x2478 ; rt_timer_insert + 48
        0x00002474:    6018        .`      STR      r0,[r3,#0]
        0x00002476:    bd30        0.      POP      {r4,r5,pc}
        0x00002478:    6060        ``      STR      r0,[r4,#4]
        0x0000247a:    bd30        0.      POP      {r4,r5,pc}
    $d
        0x0000247c:    20000088    ...     DCD    536871048
    $t
    i.rt_timer_remove
    rt_timer_remove
        0x00002480:    4b0f        .K      LDR      r3,[pc,#60] ; [0x24c0] = 0x20000088
        0x00002482:    2200        ."      MOVS     r2,#0
        0x00002484:    6859        Yh      LDR      r1,[r3,#4]
        0x00002486:    e003        ..      B        0x2490 ; rt_timer_remove + 16
        0x00002488:    4281        .B      CMP      r1,r0
        0x0000248a:    d004        ..      BEQ      0x2496 ; rt_timer_remove + 22
        0x0000248c:    460a        .F      MOV      r2,r1
        0x0000248e:    6809        .h      LDR      r1,[r1,#0]
        0x00002490:    2900        .)      CMP      r1,#0
        0x00002492:    d1f9        ..      BNE      0x2488 ; rt_timer_remove + 8
        0x00002494:    e006        ..      B        0x24a4 ; rt_timer_remove + 36
        0x00002496:    2900        .)      CMP      r1,#0
        0x00002498:    d004        ..      BEQ      0x24a4 ; rt_timer_remove + 36
        0x0000249a:    6801        .h      LDR      r1,[r0,#0]
        0x0000249c:    2a00        .*      CMP      r2,#0
        0x0000249e:    d004        ..      BEQ      0x24aa ; rt_timer_remove + 42
        0x000024a0:    6011        .`      STR      r1,[r2,#0]
        0x000024a2:    e003        ..      B        0x24ac ; rt_timer_remove + 44
        0x000024a4:    2000        .       MOVS     r0,#0
        0x000024a6:    43c0        .C      MVNS     r0,r0
        0x000024a8:    4770        pG      BX       lr
        0x000024aa:    6059        Y`      STR      r1,[r3,#4]
        0x000024ac:    6801        .h      LDR      r1,[r0,#0]
        0x000024ae:    2900        .)      CMP      r1,#0
        0x000024b0:    d003        ..      BEQ      0x24ba ; rt_timer_remove + 58
        0x000024b2:    688a        .h      LDR      r2,[r1,#8]
        0x000024b4:    6880        .h      LDR      r0,[r0,#8]
        0x000024b6:    1810        ..      ADDS     r0,r2,r0
        0x000024b8:    6088        .`      STR      r0,[r1,#8]
        0x000024ba:    2000        .       MOVS     r0,#0
        0x000024bc:    4770        pG      BX       lr
    $d
        0x000024be:    0000        ..      DCW    0
        0x000024c0:    20000088    ...     DCD    536871048
    $t
    i.rt_tsk_create
    rt_tsk_create
        0x000024c4:    b5ff        ..      PUSH     {r0-r7,lr}
        0x000024c6:    0608        ..      LSLS     r0,r1,#24
        0x000024c8:    b081        ..      SUB      sp,sp,#4
        0x000024ca:    461e        .F      MOV      r6,r3
        0x000024cc:    4617        .F      MOV      r7,r2
        0x000024ce:    460d        .F      MOV      r5,r1
        0x000024d0:    0e00        ..      LSRS     r0,r0,#24
        0x000024d2:    d100        ..      BNE      0x24d6 ; rt_tsk_create + 18
        0x000024d4:    1c4d        M.      ADDS     r5,r1,#1
        0x000024d6:    4816        .H      LDR      r0,[pc,#88] ; [0x2530] = 0x200011d8
        0x000024d8:    f7fffa5c    ..\.    BL       rt_alloc_box ; 0x1994
        0x000024dc:    1e04        ..      SUBS     r4,r0,#0
        0x000024de:    d018        ..      BEQ      0x2512 ; rt_tsk_create + 78
        0x000024e0:    0228        (.      LSLS     r0,r5,#8
        0x000024e2:    0c00        ..      LSRS     r0,r0,#16
        0x000024e4:    62e7        .b      STR      r7,[r4,#0x2c]
        0x000024e6:    84e0        ..      STRH     r0,[r4,#0x26]
        0x000024e8:    61e6        .a      STR      r6,[r4,#0x1c]
        0x000024ea:    b2e9        ..      UXTB     r1,r5
        0x000024ec:    4620         F      MOV      r0,r4
        0x000024ee:    9a01        ..      LDR      r2,[sp,#4]
        0x000024f0:    f7fffb8a    ....    BL       rt_init_context ; 0x1c08
        0x000024f4:    2501        .%      MOVS     r5,#1
        0x000024f6:    480f        .H      LDR      r0,[pc,#60] ; [0x2534] = 0x2000392c
        0x000024f8:    490f        .I      LDR      r1,[pc,#60] ; [0x2538] = 0x2b3c
        0x000024fa:    e006        ..      B        0x250a ; rt_tsk_create + 70
        0x000024fc:    00aa        ..      LSLS     r2,r5,#2
        0x000024fe:    1812        ..      ADDS     r2,r2,r0
        0x00002500:    3a80        .:      SUBS     r2,r2,#0x80
        0x00002502:    6fd2        .o      LDR      r2,[r2,#0x7c]
        0x00002504:    2a00        .*      CMP      r2,#0
        0x00002506:    d006        ..      BEQ      0x2516 ; rt_tsk_create + 82
        0x00002508:    1c6d        m.      ADDS     r5,r5,#1
        0x0000250a:    880a        ..      LDRH     r2,[r1,#0]
        0x0000250c:    4295        .B      CMP      r5,r2
        0x0000250e:    d9f5        ..      BLS      0x24fc ; rt_tsk_create + 56
        0x00002510:    2000        .       MOVS     r0,#0
        0x00002512:    b005        ..      ADD      sp,sp,#0x14
        0x00002514:    bdf0        ..      POP      {r4-r7,pc}
        0x00002516:    2d00        .-      CMP      r5,#0
        0x00002518:    d0fa        ..      BEQ      0x2510 ; rt_tsk_create + 76
        0x0000251a:    00a9        ..      LSLS     r1,r5,#2
        0x0000251c:    1808        ..      ADDS     r0,r1,r0
        0x0000251e:    3880        .8      SUBS     r0,r0,#0x80
        0x00002520:    67c4        .g      STR      r4,[r0,#0x7c]
        0x00002522:    70e5        .p      STRB     r5,[r4,#3]
        0x00002524:    4620         F      MOV      r0,r4
        0x00002526:    f7fffadd    ....    BL       rt_dispatch ; 0x1ae4
        0x0000252a:    4628        (F      MOV      r0,r5
        0x0000252c:    e7f1        ..      B        0x2512 ; rt_tsk_create + 78
    $d
        0x0000252e:    0000        ..      DCW    0
        0x00002530:    200011d8    ...     DCD    536875480
        0x00002534:    2000392c    ,9.     DCD    536885548
        0x00002538:    00002b3c    <+..    DCD    11068
    $t
    i.rt_tsk_delete
    rt_tsk_delete
        0x0000253c:    b5f8        ..      PUSH     {r3-r7,lr}
        0x0000253e:    4d4f        OM      LDR      r5,[pc,#316] ; [0x267c] = 0x20000090
        0x00002540:    2600        .&      MOVS     r6,#0
        0x00002542:    6829        )h      LDR      r1,[r5,#0]
        0x00002544:    2800        .(      CMP      r0,#0
        0x00002546:    d002        ..      BEQ      0x254e ; rt_tsk_delete + 18
        0x00002548:    78ca        .x      LDRB     r2,[r1,#3]
        0x0000254a:    4282        .B      CMP      r2,r0
        0x0000254c:    d13e        >.      BNE      0x25cc ; rt_tsk_delete + 144
        0x0000254e:    704e        Np      STRB     r6,[r1,#1]
        0x00002550:    f7fdfdd9    ....    BL       rt_get_PSP ; 0x106
        0x00002554:    6829        )h      LDR      r1,[r5,#0]
        0x00002556:    6288        .b      STR      r0,[r1,#0x28]
        0x00002558:    f7fffe9c    ....    BL       rt_stk_check ; 0x2294
        0x0000255c:    6828        (h      LDR      r0,[r5,#0]
        0x0000255e:    6a04        .j      LDR      r4,[r0,#0x20]
        0x00002560:    e020         .      B        0x25a4 ; rt_tsk_delete + 104
        0x00002562:    6860        `h      LDR      r0,[r4,#4]
        0x00002564:    2800        .(      CMP      r0,#0
        0x00002566:    d018        ..      BEQ      0x259a ; rt_tsk_delete + 94
        0x00002568:    4620         F      MOV      r0,r4
        0x0000256a:    f7fffb34    ..4.    BL       rt_get_first ; 0x1bd6
        0x0000256e:    4607        .F      MOV      r7,r0
        0x00002570:    2100        .!      MOVS     r1,#0
        0x00002572:    f7fffe3f    ..?.    BL       rt_ret_val ; 0x21f4
        0x00002576:    4638        8F      MOV      r0,r7
        0x00002578:    f7fffe43    ..C.    BL       rt_rmv_dly ; 0x2202
        0x0000257c:    2001        .       MOVS     r0,#1
        0x0000257e:    7078        xp      STRB     r0,[r7,#1]
        0x00002580:    4639        9F      MOV      r1,r7
        0x00002582:    483f        ?H      LDR      r0,[pc,#252] ; [0x2680] = 0x2000399c
        0x00002584:    f7fffdf6    ....    BL       rt_put_prio ; 0x2174
        0x00002588:    2001        .       MOVS     r0,#1
        0x0000258a:    68e1        .h      LDR      r1,[r4,#0xc]
        0x0000258c:    8060        `.      STRH     r0,[r4,#2]
        0x0000258e:    60a7        .`      STR      r7,[r4,#8]
        0x00002590:    6a38        8j      LDR      r0,[r7,#0x20]
        0x00002592:    60e0        .`      STR      r0,[r4,#0xc]
        0x00002594:    623c        <b      STR      r4,[r7,#0x20]
        0x00002596:    460c        .F      MOV      r4,r1
        0x00002598:    e004        ..      B        0x25a4 ; rt_tsk_delete + 104
        0x0000259a:    68e0        .h      LDR      r0,[r4,#0xc]
        0x0000259c:    8066        f.      STRH     r6,[r4,#2]
        0x0000259e:    60a6        .`      STR      r6,[r4,#8]
        0x000025a0:    60e6        .`      STR      r6,[r4,#0xc]
        0x000025a2:    4604        .F      MOV      r4,r0
        0x000025a4:    2c00        .,      CMP      r4,#0
        0x000025a6:    d1dc        ..      BNE      0x2562 ; rt_tsk_delete + 38
        0x000025a8:    6828        (h      LDR      r0,[r5,#0]
        0x000025aa:    78c1        .x      LDRB     r1,[r0,#3]
        0x000025ac:    008a        ..      LSLS     r2,r1,#2
        0x000025ae:    4935        5I      LDR      r1,[pc,#212] ; [0x2684] = 0x2000392c
        0x000025b0:    1851        Q.      ADDS     r1,r2,r1
        0x000025b2:    3980        .9      SUBS     r1,r1,#0x80
        0x000025b4:    67ce        .g      STR      r6,[r1,#0x7c]
        0x000025b6:    6ac1        .j      LDR      r1,[r0,#0x2c]
        0x000025b8:    4833        3H      LDR      r0,[pc,#204] ; [0x2688] = 0x20001350
        0x000025ba:    f7fffae1    ....    BL       rt_free_box ; 0x1b80
        0x000025be:    6829        )h      LDR      r1,[r5,#0]
        0x000025c0:    4832        2H      LDR      r0,[pc,#200] ; [0x268c] = 0x200011d8
        0x000025c2:    62ce        .b      STR      r6,[r1,#0x2c]
        0x000025c4:    f7fffadc    ....    BL       rt_free_box ; 0x1b80
        0x000025c8:    602e        .`      STR      r6,[r5,#0]
        0x000025ca:    e051        Q.      B        0x2670 ; rt_tsk_delete + 308
        0x000025cc:    4930        0I      LDR      r1,[pc,#192] ; [0x2690] = 0x2b3c
        0x000025ce:    8809        ..      LDRH     r1,[r1,#0]
        0x000025d0:    4288        .B      CMP      r0,r1
        0x000025d2:    d80f        ..      BHI      0x25f4 ; rt_tsk_delete + 184
        0x000025d4:    0081        ..      LSLS     r1,r0,#2
        0x000025d6:    482b        +H      LDR      r0,[pc,#172] ; [0x2684] = 0x2000392c
        0x000025d8:    1808        ..      ADDS     r0,r1,r0
        0x000025da:    3880        .8      SUBS     r0,r0,#0x80
        0x000025dc:    9000        ..      STR      r0,[sp,#0]
        0x000025de:    6fc5        .o      LDR      r5,[r0,#0x7c]
        0x000025e0:    2d00        .-      CMP      r5,#0
        0x000025e2:    d007        ..      BEQ      0x25f4 ; rt_tsk_delete + 184
        0x000025e4:    4628        (F      MOV      r0,r5
        0x000025e6:    f7fffe21    ..!.    BL       rt_rmv_list ; 0x222c
        0x000025ea:    4628        (F      MOV      r0,r5
        0x000025ec:    f7fffe09    ....    BL       rt_rmv_dly ; 0x2202
        0x000025f0:    6a2c        ,j      LDR      r4,[r5,#0x20]
        0x000025f2:    e022        ".      B        0x263a ; rt_tsk_delete + 254
        0x000025f4:    20ff        .       MOVS     r0,#0xff
        0x000025f6:    bdf8        ..      POP      {r3-r7,pc}
        0x000025f8:    6860        `h      LDR      r0,[r4,#4]
        0x000025fa:    2800        .(      CMP      r0,#0
        0x000025fc:    d018        ..      BEQ      0x2630 ; rt_tsk_delete + 244
        0x000025fe:    4620         F      MOV      r0,r4
        0x00002600:    f7fffae9    ....    BL       rt_get_first ; 0x1bd6
        0x00002604:    4607        .F      MOV      r7,r0
        0x00002606:    2100        .!      MOVS     r1,#0
        0x00002608:    f7fffdf4    ....    BL       rt_ret_val ; 0x21f4
        0x0000260c:    4638        8F      MOV      r0,r7
        0x0000260e:    f7fffdf8    ....    BL       rt_rmv_dly ; 0x2202
        0x00002612:    2001        .       MOVS     r0,#1
        0x00002614:    7078        xp      STRB     r0,[r7,#1]
        0x00002616:    4639        9F      MOV      r1,r7
        0x00002618:    4819        .H      LDR      r0,[pc,#100] ; [0x2680] = 0x2000399c
        0x0000261a:    f7fffdab    ....    BL       rt_put_prio ; 0x2174
        0x0000261e:    2001        .       MOVS     r0,#1
        0x00002620:    68e1        .h      LDR      r1,[r4,#0xc]
        0x00002622:    8060        `.      STRH     r0,[r4,#2]
        0x00002624:    60a7        .`      STR      r7,[r4,#8]
        0x00002626:    6a38        8j      LDR      r0,[r7,#0x20]
        0x00002628:    60e0        .`      STR      r0,[r4,#0xc]
        0x0000262a:    623c        <b      STR      r4,[r7,#0x20]
        0x0000262c:    460c        .F      MOV      r4,r1
        0x0000262e:    e004        ..      B        0x263a ; rt_tsk_delete + 254
        0x00002630:    68e0        .h      LDR      r0,[r4,#0xc]
        0x00002632:    8066        f.      STRH     r6,[r4,#2]
        0x00002634:    60a6        .`      STR      r6,[r4,#8]
        0x00002636:    60e6        .`      STR      r6,[r4,#0xc]
        0x00002638:    4604        .F      MOV      r4,r0
        0x0000263a:    2c00        .,      CMP      r4,#0
        0x0000263c:    d1dc        ..      BNE      0x25f8 ; rt_tsk_delete + 188
        0x0000263e:    9800        ..      LDR      r0,[sp,#0]
        0x00002640:    67c6        .g      STR      r6,[r0,#0x7c]
        0x00002642:    4811        .H      LDR      r0,[pc,#68] ; [0x2688] = 0x20001350
        0x00002644:    6ae9        .j      LDR      r1,[r5,#0x2c]
        0x00002646:    f7fffa9b    ....    BL       rt_free_box ; 0x1b80
        0x0000264a:    4629        )F      MOV      r1,r5
        0x0000264c:    480f        .H      LDR      r0,[pc,#60] ; [0x268c] = 0x200011d8
        0x0000264e:    62ee        .b      STR      r6,[r5,#0x2c]
        0x00002650:    f7fffa96    ....    BL       rt_free_box ; 0x1b80
        0x00002654:    480a        .H      LDR      r0,[pc,#40] ; [0x2680] = 0x2000399c
        0x00002656:    6840        @h      LDR      r0,[r0,#4]
        0x00002658:    7881        .x      LDRB     r1,[r0,#2]
        0x0000265a:    4808        .H      LDR      r0,[pc,#32] ; [0x267c] = 0x20000090
        0x0000265c:    6802        .h      LDR      r2,[r0,#0]
        0x0000265e:    7893        .x      LDRB     r3,[r2,#2]
        0x00002660:    4299        .B      CMP      r1,r3
        0x00002662:    d908        ..      BLS      0x2676 ; rt_tsk_delete + 314
        0x00002664:    2101        .!      MOVS     r1,#1
        0x00002666:    7051        Qp      STRB     r1,[r2,#1]
        0x00002668:    6801        .h      LDR      r1,[r0,#0]
        0x0000266a:    4805        .H      LDR      r0,[pc,#20] ; [0x2680] = 0x2000399c
        0x0000266c:    f7fffd82    ....    BL       rt_put_prio ; 0x2174
        0x00002670:    2000        .       MOVS     r0,#0
        0x00002672:    f7fffa37    ..7.    BL       rt_dispatch ; 0x1ae4
        0x00002676:    2000        .       MOVS     r0,#0
        0x00002678:    bdf8        ..      POP      {r3-r7,pc}
    $d
        0x0000267a:    0000        ..      DCW    0
        0x0000267c:    20000090    ...     DCD    536871056
        0x00002680:    2000399c    .9.     DCD    536885660
        0x00002684:    2000392c    ,9.     DCD    536885548
        0x00002688:    20001350    P..     DCD    536875856
        0x0000268c:    200011d8    ...     DCD    536875480
        0x00002690:    00002b3c    <+..    DCD    11068
    $t
    i.rt_tsk_prio
    rt_tsk_prio
        0x00002694:    b570        p.      PUSH     {r4-r6,lr}
        0x00002696:    4d1b        .M      LDR      r5,[pc,#108] ; [0x2704] = 0x20000090
        0x00002698:    2800        .(      CMP      r0,#0
        0x0000269a:    d011        ..      BEQ      0x26c0 ; rt_tsk_prio + 44
        0x0000269c:    4a1a        .J      LDR      r2,[pc,#104] ; [0x2708] = 0x2b3c
        0x0000269e:    8812        ..      LDRH     r2,[r2,#0]
        0x000026a0:    4290        .B      CMP      r0,r2
        0x000026a2:    d820         .      BHI      0x26e6 ; rt_tsk_prio + 82
        0x000026a4:    0082        ..      LSLS     r2,r0,#2
        0x000026a6:    4819        .H      LDR      r0,[pc,#100] ; [0x270c] = 0x2000392c
        0x000026a8:    1810        ..      ADDS     r0,r2,r0
        0x000026aa:    3880        .8      SUBS     r0,r0,#0x80
        0x000026ac:    6fc4        .o      LDR      r4,[r0,#0x7c]
        0x000026ae:    2c00        .,      CMP      r4,#0
        0x000026b0:    d019        ..      BEQ      0x26e6 ; rt_tsk_prio + 82
        0x000026b2:    70a1        .p      STRB     r1,[r4,#2]
        0x000026b4:    2024        $       MOVS     r0,#0x24
        0x000026b6:    5501        .U      STRB     r1,[r0,r4]
        0x000026b8:    6828        (h      LDR      r0,[r5,#0]
        0x000026ba:    42a0        .B      CMP      r0,r4
        0x000026bc:    d005        ..      BEQ      0x26ca ; rt_tsk_prio + 54
        0x000026be:    e014        ..      B        0x26ea ; rt_tsk_prio + 86
        0x000026c0:    6828        (h      LDR      r0,[r5,#0]
        0x000026c2:    7081        .p      STRB     r1,[r0,#2]
        0x000026c4:    6828        (h      LDR      r0,[r5,#0]
        0x000026c6:    3020         0      ADDS     r0,r0,#0x20
        0x000026c8:    7101        .q      STRB     r1,[r0,#4]
        0x000026ca:    4811        .H      LDR      r0,[pc,#68] ; [0x2710] = 0x2000399c
        0x000026cc:    6840        @h      LDR      r0,[r0,#4]
        0x000026ce:    7880        .x      LDRB     r0,[r0,#2]
        0x000026d0:    4288        .B      CMP      r0,r1
        0x000026d2:    d915        ..      BLS      0x2700 ; rt_tsk_prio + 108
        0x000026d4:    480e        .H      LDR      r0,[pc,#56] ; [0x2710] = 0x2000399c
        0x000026d6:    6829        )h      LDR      r1,[r5,#0]
        0x000026d8:    f7fffd4c    ..L.    BL       rt_put_prio ; 0x2174
        0x000026dc:    6829        )h      LDR      r1,[r5,#0]
        0x000026de:    2001        .       MOVS     r0,#1
        0x000026e0:    7048        Hp      STRB     r0,[r1,#1]
        0x000026e2:    2000        .       MOVS     r0,#0
        0x000026e4:    e00a        ..      B        0x26fc ; rt_tsk_prio + 104
        0x000026e6:    20ff        .       MOVS     r0,#0xff
        0x000026e8:    bd70        p.      POP      {r4-r6,pc}
        0x000026ea:    4620         F      MOV      r0,r4
        0x000026ec:    f7fffd6a    ..j.    BL       rt_resort_prio ; 0x21c4
        0x000026f0:    7860        `x      LDRB     r0,[r4,#1]
        0x000026f2:    2801        .(      CMP      r0,#1
        0x000026f4:    d104        ..      BNE      0x2700 ; rt_tsk_prio + 108
        0x000026f6:    4806        .H      LDR      r0,[pc,#24] ; [0x2710] = 0x2000399c
        0x000026f8:    f7fffa6d    ..m.    BL       rt_get_first ; 0x1bd6
        0x000026fc:    f7fff9f2    ....    BL       rt_dispatch ; 0x1ae4
        0x00002700:    2000        .       MOVS     r0,#0
        0x00002702:    bd70        p.      POP      {r4-r6,pc}
    $d
        0x00002704:    20000090    ...     DCD    536871056
        0x00002708:    00002b3c    <+..    DCD    11068
        0x0000270c:    2000392c    ,9.     DCD    536885548
        0x00002710:    2000399c    .9.     DCD    536885660
    $t
    i.rt_tsk_self
    rt_tsk_self
        0x00002714:    4802        .H      LDR      r0,[pc,#8] ; [0x2720] = 0x20000090
        0x00002716:    6800        .h      LDR      r0,[r0,#0]
        0x00002718:    2800        .(      CMP      r0,#0
        0x0000271a:    d000        ..      BEQ      0x271e ; rt_tsk_self + 10
        0x0000271c:    78c0        .x      LDRB     r0,[r0,#3]
        0x0000271e:    4770        pG      BX       lr
    $d
        0x00002720:    20000090    ...     DCD    536871056
    $t
    i.svcDelay
    svcDelay
        0x00002724:    b510        ..      PUSH     {r4,lr}
        0x00002726:    2800        .(      CMP      r0,#0
        0x00002728:    d004        ..      BEQ      0x2734 ; svcDelay + 16
        0x0000272a:    f7fffbbd    ....    BL       rt_ms2tick ; 0x1ea8
        0x0000272e:    f7fff9f9    ....    BL       rt_dly_wait ; 0x1b24
        0x00002732:    2040        @       MOVS     r0,#0x40
        0x00002734:    bd10        ..      POP      {r4,pc}
        0x00002736:    0000        ..      MOVS     r0,r0
    i.svcKernelInitialize
    svcKernelInitialize
        0x00002738:    b510        ..      PUSH     {r4,lr}
        0x0000273a:    4c15        .L      LDR      r4,[pc,#84] ; [0x2790] = 0x20000088
        0x0000273c:    7820         x      LDRB     r0,[r4,#0]
        0x0000273e:    2800        .(      CMP      r0,#0
        0x00002740:    d10d        ..      BNE      0x275e ; svcKernelInitialize + 38
        0x00002742:    4814        .H      LDR      r0,[pc,#80] ; [0x2794] = 0x200019a0
        0x00002744:    0740        @.      LSLS     r0,r0,#29
        0x00002746:    d106        ..      BNE      0x2756 ; svcKernelInitialize + 30
        0x00002748:    4813        .H      LDR      r0,[pc,#76] ; [0x2798] = 0x2b70
        0x0000274a:    6801        .h      LDR      r1,[r0,#0]
        0x0000274c:    4811        .H      LDR      r0,[pc,#68] ; [0x2794] = 0x200019a0
        0x0000274e:    f7fffa7f    ....    BL       rt_init_mem ; 0x1c50
        0x00002752:    2800        .(      CMP      r0,#0
        0x00002754:    d001        ..      BEQ      0x275a ; svcKernelInitialize + 34
        0x00002756:    2085        .       MOVS     r0,#0x85
        0x00002758:    bd10        ..      POP      {r4,pc}
        0x0000275a:    f7fffdb7    ....    BL       rt_sys_init ; 0x22cc
        0x0000275e:    490f        .I      LDR      r1,[pc,#60] ; [0x279c] = 0x20000090
        0x00002760:    20ff        .       MOVS     r0,#0xff
        0x00002762:    6809        .h      LDR      r1,[r1,#0]
        0x00002764:    7088        .p      STRB     r0,[r1,#2]
        0x00002766:    7820         x      LDRB     r0,[r4,#0]
        0x00002768:    2800        .(      CMP      r0,#0
        0x0000276a:    d10b        ..      BNE      0x2784 ; svcKernelInitialize + 76
        0x0000276c:    2100        .!      MOVS     r1,#0
        0x0000276e:    480c        .H      LDR      r0,[pc,#48] ; [0x27a0] = 0x2b88
        0x00002770:    f000f844    ..D.    BL       svcMessageCreate ; 0x27fc
        0x00002774:    490b        .I      LDR      r1,[pc,#44] ; [0x27a4] = 0x2000007c
        0x00002776:    6008        .`      STR      r0,[r1,#0]
        0x00002778:    2100        .!      MOVS     r1,#0
        0x0000277a:    480b        .H      LDR      r0,[pc,#44] ; [0x27a8] = 0x2b78
        0x0000277c:    f000f8b2    ....    BL       svcThreadCreate ; 0x28e4
        0x00002780:    490a        .I      LDR      r1,[pc,#40] ; [0x27ac] = 0x20000078
        0x00002782:    6008        .`      STR      r0,[r1,#0]
        0x00002784:    2001        .       MOVS     r0,#1
        0x00002786:    7020         p      STRB     r0,[r4,#0]
        0x00002788:    2000        .       MOVS     r0,#0
        0x0000278a:    7060        `p      STRB     r0,[r4,#1]
        0x0000278c:    bd10        ..      POP      {r4,pc}
    $d
        0x0000278e:    0000        ..      DCW    0
        0x00002790:    20000088    ...     DCD    536871048
        0x00002794:    200019a0    ...     DCD    536877472
        0x00002798:    00002b70    p+..    DCD    11120
        0x0000279c:    20000090    ...     DCD    536871056
        0x000027a0:    00002b88    .+..    DCD    11144
        0x000027a4:    2000007c    |..     DCD    536871036
        0x000027a8:    00002b78    x+..    DCD    11128
        0x000027ac:    20000078    x..     DCD    536871032
    $t
    i.svcKernelStart
    svcKernelStart
        0x000027b0:    b570        p.      PUSH     {r4-r6,lr}
        0x000027b2:    4d10        .M      LDR      r5,[pc,#64] ; [0x27f4] = 0x20000088
        0x000027b4:    7868        hx      LDRB     r0,[r5,#1]
        0x000027b6:    2800        .(      CMP      r0,#0
        0x000027b8:    d001        ..      BEQ      0x27be ; svcKernelStart + 14
        0x000027ba:    2000        .       MOVS     r0,#0
        0x000027bc:    bd70        p.      POP      {r4-r6,pc}
        0x000027be:    4c0e        .L      LDR      r4,[pc,#56] ; [0x27f8] = 0x20000090
        0x000027c0:    6820         h      LDR      r0,[r4,#0]
        0x000027c2:    3020         0      ADDS     r0,r0,#0x20
        0x000027c4:    7901        .y      LDRB     r1,[r0,#4]
        0x000027c6:    2000        .       MOVS     r0,#0
        0x000027c8:    f7ffff64    ..d.    BL       rt_tsk_prio ; 0x2694
        0x000027cc:    6820         h      LDR      r0,[r4,#0]
        0x000027ce:    78c1        .x      LDRB     r1,[r0,#3]
        0x000027d0:    29ff        .)      CMP      r1,#0xff
        0x000027d2:    d103        ..      BNE      0x27dc ; svcKernelStart + 44
        0x000027d4:    6a81        .j      LDR      r1,[r0,#0x28]
        0x000027d6:    3120         1      ADDS     r1,r1,#0x20
        0x000027d8:    f3818809    ....    MSR      PSP,r1
        0x000027dc:    6861        ah      LDR      r1,[r4,#4]
        0x000027de:    2900        .)      CMP      r1,#0
        0x000027e0:    d102        ..      BNE      0x27e8 ; svcKernelStart + 56
        0x000027e2:    6060        ``      STR      r0,[r4,#4]
        0x000027e4:    2000        .       MOVS     r0,#0
        0x000027e6:    6020         `      STR      r0,[r4,#0]
        0x000027e8:    f7fffdd4    ....    BL       rt_sys_start ; 0x2394
        0x000027ec:    2001        .       MOVS     r0,#1
        0x000027ee:    7068        hp      STRB     r0,[r5,#1]
        0x000027f0:    e7e3        ..      B        0x27ba ; svcKernelStart + 10
    $d
        0x000027f2:    0000        ..      DCW    0
        0x000027f4:    20000088    ...     DCD    536871048
        0x000027f8:    20000090    ...     DCD    536871056
    $t
    i.svcMessageCreate
    svcMessageCreate
        0x000027fc:    b510        ..      PUSH     {r4,lr}
        0x000027fe:    0004        ..      MOVS     r4,r0
        0x00002800:    d008        ..      BEQ      0x2814 ; svcMessageCreate + 24
        0x00002802:    6821        !h      LDR      r1,[r4,#0]
        0x00002804:    2900        .)      CMP      r1,#0
        0x00002806:    d005        ..      BEQ      0x2814 ; svcMessageCreate + 24
        0x00002808:    6860        `h      LDR      r0,[r4,#4]
        0x0000280a:    2800        .(      CMP      r0,#0
        0x0000280c:    d002        ..      BEQ      0x2814 ; svcMessageCreate + 24
        0x0000280e:    7802        .x      LDRB     r2,[r0,#0]
        0x00002810:    2a00        .*      CMP      r2,#0
        0x00002812:    d001        ..      BEQ      0x2818 ; svcMessageCreate + 28
        0x00002814:    2000        .       MOVS     r0,#0
        0x00002816:    bd10        ..      POP      {r4,pc}
        0x00002818:    0089        ..      LSLS     r1,r1,#2
        0x0000281a:    3110        .1      ADDS     r1,r1,#0x10
        0x0000281c:    b289        ..      UXTH     r1,r1
        0x0000281e:    f7fffa71    ..q.    BL       rt_mbx_init ; 0x1d04
        0x00002822:    6860        `h      LDR      r0,[r4,#4]
        0x00002824:    bd10        ..      POP      {r4,pc}
    i.svcMessageGet
    svcMessageGet
        0x00002826:    b53e        >.      PUSH     {r1-r5,lr}
        0x00002828:    4604        .F      MOV      r4,r0
        0x0000282a:    2080        .       MOVS     r0,#0x80
        0x0000282c:    460d        .F      MOV      r5,r1
        0x0000282e:    2c00        .,      CMP      r4,#0
        0x00002830:    d013        ..      BEQ      0x285a ; svcMessageGet + 52
        0x00002832:    7821        !x      LDRB     r1,[r4,#0]
        0x00002834:    2901        .)      CMP      r1,#1
        0x00002836:    d110        ..      BNE      0x285a ; svcMessageGet + 52
        0x00002838:    4628        (F      MOV      r0,r5
        0x0000283a:    f7fffb35    ..5.    BL       rt_ms2tick ; 0x1ea8
        0x0000283e:    4602        .F      MOV      r2,r0
        0x00002840:    4620         F      MOV      r0,r4
        0x00002842:    a901        ..      ADD      r1,sp,#4
        0x00002844:    f7fffad8    ....    BL       rt_mbx_wait ; 0x1df8
        0x00002848:    2801        .(      CMP      r0,#1
        0x0000284a:    d001        ..      BEQ      0x2850 ; svcMessageGet + 42
        0x0000284c:    2010        .       MOVS     r0,#0x10
        0x0000284e:    e004        ..      B        0x285a ; svcMessageGet + 52
        0x00002850:    2d00        .-      CMP      r5,#0
        0x00002852:    d001        ..      BEQ      0x2858 ; svcMessageGet + 50
        0x00002854:    2040        @       MOVS     r0,#0x40
        0x00002856:    e000        ..      B        0x285a ; svcMessageGet + 52
        0x00002858:    2000        .       MOVS     r0,#0
        0x0000285a:    9a02        ..      LDR      r2,[sp,#8]
        0x0000285c:    9901        ..      LDR      r1,[sp,#4]
        0x0000285e:    b003        ..      ADD      sp,sp,#0xc
        0x00002860:    bd30        0.      POP      {r4,r5,pc}
    i.svcMutexCreate
    svcMutexCreate
        0x00002862:    b510        ..      PUSH     {r4,lr}
        0x00002864:    2800        .(      CMP      r0,#0
        0x00002866:    d006        ..      BEQ      0x2876 ; svcMutexCreate + 20
        0x00002868:    6804        .h      LDR      r4,[r0,#0]
        0x0000286a:    2c00        .,      CMP      r4,#0
        0x0000286c:    d002        ..      BEQ      0x2874 ; svcMutexCreate + 18
        0x0000286e:    7820         x      LDRB     r0,[r4,#0]
        0x00002870:    2800        .(      CMP      r0,#0
        0x00002872:    d001        ..      BEQ      0x2878 ; svcMutexCreate + 22
        0x00002874:    2000        .       MOVS     r0,#0
        0x00002876:    bd10        ..      POP      {r4,pc}
        0x00002878:    4620         F      MOV      r0,r4
        0x0000287a:    f7fffb37    ..7.    BL       rt_mut_init ; 0x1eec
        0x0000287e:    4620         F      MOV      r0,r4
        0x00002880:    bd10        ..      POP      {r4,pc}
    i.svcMutexRelease
    svcMutexRelease
        0x00002882:    b510        ..      PUSH     {r4,lr}
        0x00002884:    f7fff9bc    ....    BL       rt_id2obj ; 0x1c00
        0x00002888:    2800        .(      CMP      r0,#0
        0x0000288a:    d002        ..      BEQ      0x2892 ; svcMutexRelease + 16
        0x0000288c:    7801        .x      LDRB     r1,[r0,#0]
        0x0000288e:    2903        .)      CMP      r1,#3
        0x00002890:    d001        ..      BEQ      0x2896 ; svcMutexRelease + 20
        0x00002892:    2080        .       MOVS     r0,#0x80
        0x00002894:    bd10        ..      POP      {r4,pc}
        0x00002896:    f7fffb31    ..1.    BL       rt_mut_release ; 0x1efc
        0x0000289a:    28ff        .(      CMP      r0,#0xff
        0x0000289c:    d001        ..      BEQ      0x28a2 ; svcMutexRelease + 32
        0x0000289e:    2000        .       MOVS     r0,#0
        0x000028a0:    bd10        ..      POP      {r4,pc}
        0x000028a2:    2081        .       MOVS     r0,#0x81
        0x000028a4:    bd10        ..      POP      {r4,pc}
    i.svcMutexWait
    svcMutexWait
        0x000028a6:    b570        p.      PUSH     {r4-r6,lr}
        0x000028a8:    460d        .F      MOV      r5,r1
        0x000028aa:    f7fff9a9    ....    BL       rt_id2obj ; 0x1c00
        0x000028ae:    0004        ..      MOVS     r4,r0
        0x000028b0:    d002        ..      BEQ      0x28b8 ; svcMutexWait + 18
        0x000028b2:    7820         x      LDRB     r0,[r4,#0]
        0x000028b4:    2803        .(      CMP      r0,#3
        0x000028b6:    d001        ..      BEQ      0x28bc ; svcMutexWait + 22
        0x000028b8:    2080        .       MOVS     r0,#0x80
        0x000028ba:    bd70        p.      POP      {r4-r6,pc}
        0x000028bc:    4628        (F      MOV      r0,r5
        0x000028be:    f7fffaf3    ....    BL       rt_ms2tick ; 0x1ea8
        0x000028c2:    4601        .F      MOV      r1,r0
        0x000028c4:    4620         F      MOV      r0,r4
        0x000028c6:    f7fffb85    ....    BL       rt_mut_wait ; 0x1fd4
        0x000028ca:    2801        .(      CMP      r0,#1
        0x000028cc:    d003        ..      BEQ      0x28d6 ; svcMutexWait + 48
        0x000028ce:    28ff        .(      CMP      r0,#0xff
        0x000028d0:    d005        ..      BEQ      0x28de ; svcMutexWait + 56
        0x000028d2:    2000        .       MOVS     r0,#0
        0x000028d4:    bd70        p.      POP      {r4-r6,pc}
        0x000028d6:    2d00        .-      CMP      r5,#0
        0x000028d8:    d001        ..      BEQ      0x28de ; svcMutexWait + 56
        0x000028da:    20c1        .       MOVS     r0,#0xc1
        0x000028dc:    bd70        p.      POP      {r4-r6,pc}
        0x000028de:    2081        .       MOVS     r0,#0x81
        0x000028e0:    bd70        p.      POP      {r4-r6,pc}
        0x000028e2:    0000        ..      MOVS     r0,r0
    i.svcThreadCreate
    svcThreadCreate
        0x000028e4:    b570        p.      PUSH     {r4-r6,lr}
        0x000028e6:    460e        .F      MOV      r6,r1
        0x000028e8:    0004        ..      MOVS     r4,r0
        0x000028ea:    d02c        ,.      BEQ      0x2946 ; svcThreadCreate + 98
        0x000028ec:    6820         h      LDR      r0,[r4,#0]
        0x000028ee:    2800        .(      CMP      r0,#0
        0x000028f0:    d029        ).      BEQ      0x2946 ; svcThreadCreate + 98
        0x000028f2:    6860        `h      LDR      r0,[r4,#4]
        0x000028f4:    1cc1        ..      ADDS     r1,r0,#3
        0x000028f6:    db26        &.      BLT      0x2946 ; svcThreadCreate + 98
        0x000028f8:    2803        .(      CMP      r0,#3
        0x000028fa:    dc24        $.      BGT      0x2946 ; svcThreadCreate + 98
        0x000028fc:    68e1        .h      LDR      r1,[r4,#0xc]
        0x000028fe:    2900        .)      CMP      r1,#0
        0x00002900:    d005        ..      BEQ      0x290e ; svcThreadCreate + 42
        0x00002902:    4812        .H      LDR      r0,[pc,#72] ; [0x294c] = 0x200019a0
        0x00002904:    f7fff855    ..U.    BL       rt_alloc_mem ; 0x19b2
        0x00002908:    1e05        ..      SUBS     r5,r0,#0
        0x0000290a:    d015        ..      BEQ      0x2938 ; svcThreadCreate + 84
        0x0000290c:    e000        ..      B        0x2910 ; svcThreadCreate + 44
        0x0000290e:    2500        .%      MOVS     r5,#0
        0x00002910:    68e0        .h      LDR      r0,[r4,#0xc]
        0x00002912:    6861        ah      LDR      r1,[r4,#4]
        0x00002914:    0200        ..      LSLS     r0,r0,#8
        0x00002916:    1d09        ..      ADDS     r1,r1,#4
        0x00002918:    4301        .C      ORRS     r1,r1,r0
        0x0000291a:    4633        3F      MOV      r3,r6
        0x0000291c:    462a        *F      MOV      r2,r5
        0x0000291e:    6820         h      LDR      r0,[r4,#0]
        0x00002920:    f7fffdd0    ....    BL       rt_tsk_create ; 0x24c4
        0x00002924:    2800        .(      CMP      r0,#0
        0x00002926:    d008        ..      BEQ      0x293a ; svcThreadCreate + 86
        0x00002928:    4909        .I      LDR      r1,[pc,#36] ; [0x2950] = 0x2000392c
        0x0000292a:    0080        ..      LSLS     r0,r0,#2
        0x0000292c:    1840        @.      ADDS     r0,r0,r1
        0x0000292e:    3880        .8      SUBS     r0,r0,#0x80
        0x00002930:    6fc0        .o      LDR      r0,[r0,#0x7c]
        0x00002932:    4908        .I      LDR      r1,[pc,#32] ; [0x2954] = 0x183d
        0x00002934:    6a82        .j      LDR      r2,[r0,#0x28]
        0x00002936:    6351        Qc      STR      r1,[r2,#0x34]
        0x00002938:    bd70        p.      POP      {r4-r6,pc}
        0x0000293a:    2d00        .-      CMP      r5,#0
        0x0000293c:    d003        ..      BEQ      0x2946 ; svcThreadCreate + 98
        0x0000293e:    4629        )F      MOV      r1,r5
        0x00002940:    4802        .H      LDR      r0,[pc,#8] ; [0x294c] = 0x200019a0
        0x00002942:    f7fff930    ..0.    BL       rt_free_mem ; 0x1ba6
        0x00002946:    2000        .       MOVS     r0,#0
        0x00002948:    bd70        p.      POP      {r4-r6,pc}
    $d
        0x0000294a:    0000        ..      DCW    0
        0x0000294c:    200019a0    ...     DCD    536877472
        0x00002950:    2000392c    ,9.     DCD    536885548
        0x00002954:    0000183d    =...    DCD    6205
    $t
    i.svcThreadGetId
    svcThreadGetId
        0x00002958:    b510        ..      PUSH     {r4,lr}
        0x0000295a:    f7fffedb    ....    BL       rt_tsk_self ; 0x2714
        0x0000295e:    2800        .(      CMP      r0,#0
        0x00002960:    d004        ..      BEQ      0x296c ; svcThreadGetId + 20
        0x00002962:    4903        .I      LDR      r1,[pc,#12] ; [0x2970] = 0x2000392c
        0x00002964:    0080        ..      LSLS     r0,r0,#2
        0x00002966:    1840        @.      ADDS     r0,r0,r1
        0x00002968:    3880        .8      SUBS     r0,r0,#0x80
        0x0000296a:    6fc0        .o      LDR      r0,[r0,#0x7c]
        0x0000296c:    bd10        ..      POP      {r4,pc}
    $d
        0x0000296e:    0000        ..      DCW    0
        0x00002970:    2000392c    ,9.     DCD    536885548
    $t
    i.svcThreadTerminate
    svcThreadTerminate
        0x00002974:    b510        ..      PUSH     {r4,lr}
        0x00002976:    f7fffd5d    ..].    BL       rt_tid2ptcb ; 0x2434
        0x0000297a:    2800        .(      CMP      r0,#0
        0x0000297c:    d004        ..      BEQ      0x2988 ; svcThreadTerminate + 20
        0x0000297e:    8cc1        ..      LDRH     r1,[r0,#0x26]
        0x00002980:    2900        .)      CMP      r1,#0
        0x00002982:    d003        ..      BEQ      0x298c ; svcThreadTerminate + 24
        0x00002984:    6ac4        .j      LDR      r4,[r0,#0x2c]
        0x00002986:    e002        ..      B        0x298e ; svcThreadTerminate + 26
        0x00002988:    2080        .       MOVS     r0,#0x80
        0x0000298a:    bd10        ..      POP      {r4,pc}
        0x0000298c:    2400        .$      MOVS     r4,#0
        0x0000298e:    78c0        .x      LDRB     r0,[r0,#3]
        0x00002990:    f7fffdd4    ....    BL       rt_tsk_delete ; 0x253c
        0x00002994:    28ff        .(      CMP      r0,#0xff
        0x00002996:    d007        ..      BEQ      0x29a8 ; svcThreadTerminate + 52
        0x00002998:    2c00        .,      CMP      r4,#0
        0x0000299a:    d003        ..      BEQ      0x29a4 ; svcThreadTerminate + 48
        0x0000299c:    4621        !F      MOV      r1,r4
        0x0000299e:    4803        .H      LDR      r0,[pc,#12] ; [0x29ac] = 0x200019a0
        0x000029a0:    f7fff901    ....    BL       rt_free_mem ; 0x1ba6
        0x000029a4:    2000        .       MOVS     r0,#0
        0x000029a6:    bd10        ..      POP      {r4,pc}
        0x000029a8:    2081        .       MOVS     r0,#0x81
        0x000029aa:    bd10        ..      POP      {r4,pc}
    $d
        0x000029ac:    200019a0    ...     DCD    536877472
    $t
    i.svcTimerCall
    svcTimerCall
        0x000029b0:    b510        ..      PUSH     {r4,lr}
        0x000029b2:    f7fff925    ..%.    BL       rt_id2obj ; 0x1c00
        0x000029b6:    2800        .(      CMP      r0,#0
        0x000029b8:    d005        ..      BEQ      0x29c6 ; svcTimerCall + 22
        0x000029ba:    6941        Ai      LDR      r1,[r0,#0x14]
        0x000029bc:    6902        .i      LDR      r2,[r0,#0x10]
        0x000029be:    6809        .h      LDR      r1,[r1,#0]
        0x000029c0:    4608        .F      MOV      r0,r1
        0x000029c2:    4611        .F      MOV      r1,r2
        0x000029c4:    bd10        ..      POP      {r4,pc}
        0x000029c6:    2000        .       MOVS     r0,#0
        0x000029c8:    4601        .F      MOV      r1,r0
        0x000029ca:    bd10        ..      POP      {r4,pc}
    i.svcTimerCreate
    svcTimerCreate
        0x000029cc:    b510        ..      PUSH     {r4,lr}
        0x000029ce:    0003        ..      MOVS     r3,r0
        0x000029d0:    d010        ..      BEQ      0x29f4 ; svcTimerCreate + 40
        0x000029d2:    6818        .h      LDR      r0,[r3,#0]
        0x000029d4:    2800        .(      CMP      r0,#0
        0x000029d6:    d00d        ..      BEQ      0x29f4 ; svcTimerCreate + 40
        0x000029d8:    6858        Xh      LDR      r0,[r3,#4]
        0x000029da:    2800        .(      CMP      r0,#0
        0x000029dc:    d00b        ..      BEQ      0x29f6 ; svcTimerCreate + 42
        0x000029de:    2900        .)      CMP      r1,#0
        0x000029e0:    d001        ..      BEQ      0x29e6 ; svcTimerCreate + 26
        0x000029e2:    2901        .)      CMP      r1,#1
        0x000029e4:    d106        ..      BNE      0x29f4 ; svcTimerCreate + 40
        0x000029e6:    4c08        .L      LDR      r4,[pc,#32] ; [0x2a08] = 0x20000078
        0x000029e8:    6824        $h      LDR      r4,[r4,#0]
        0x000029ea:    2c00        .,      CMP      r4,#0
        0x000029ec:    d002        ..      BEQ      0x29f4 ; svcTimerCreate + 40
        0x000029ee:    7904        .y      LDRB     r4,[r0,#4]
        0x000029f0:    2c00        .,      CMP      r4,#0
        0x000029f2:    d001        ..      BEQ      0x29f8 ; svcTimerCreate + 44
        0x000029f4:    2000        .       MOVS     r0,#0
        0x000029f6:    bd10        ..      POP      {r4,pc}
        0x000029f8:    2400        .$      MOVS     r4,#0
        0x000029fa:    6004        .`      STR      r4,[r0,#0]
        0x000029fc:    2401        .$      MOVS     r4,#1
        0x000029fe:    7104        .q      STRB     r4,[r0,#4]
        0x00002a00:    7141        Aq      STRB     r1,[r0,#5]
        0x00002a02:    6143        Ca      STR      r3,[r0,#0x14]
        0x00002a04:    6102        .a      STR      r2,[r0,#0x10]
        0x00002a06:    bd10        ..      POP      {r4,pc}
    $d
        0x00002a08:    20000078    x..     DCD    536871032
    $t
    i.svcTimerStart
    svcTimerStart
        0x00002a0c:    b570        p.      PUSH     {r4-r6,lr}
        0x00002a0e:    460d        .F      MOV      r5,r1
        0x00002a10:    f7fff8f6    ....    BL       rt_id2obj ; 0x1c00
        0x00002a14:    0004        ..      MOVS     r4,r0
        0x00002a16:    d019        ..      BEQ      0x2a4c ; svcTimerStart + 64
        0x00002a18:    2d00        .-      CMP      r5,#0
        0x00002a1a:    d019        ..      BEQ      0x2a50 ; svcTimerStart + 68
        0x00002a1c:    217d        }!      MOVS     r1,#0x7d
        0x00002a1e:    4628        (F      MOV      r0,r5
        0x00002a20:    00c9        ..      LSLS     r1,r1,#3
        0x00002a22:    f7fefc3f    ..?.    BL       __ARM_common_ll_muluu ; 0x12a4
        0x00002a26:    4b13        .K      LDR      r3,[pc,#76] ; [0x2a74] = 0x2b60
        0x00002a28:    2200        ."      MOVS     r2,#0
        0x00002a2a:    681d        .h      LDR      r5,[r3,#0]
        0x00002a2c:    1e56        V.      SUBS     r6,r2,#1
        0x00002a2e:    1e6d        m.      SUBS     r5,r5,#1
        0x00002a30:    4172        rA      ADCS     r2,r2,r6
        0x00002a32:    1940        @.      ADDS     r0,r0,r5
        0x00002a34:    4151        QA      ADCS     r1,r1,r2
        0x00002a36:    681a        .h      LDR      r2,[r3,#0]
        0x00002a38:    2300        .#      MOVS     r3,#0
        0x00002a3a:    f7fefb85    ....    BL       __aeabi_uldivmod ; 0x1148
        0x00002a3e:    4605        .F      MOV      r5,r0
        0x00002a40:    7920         y      LDRB     r0,[r4,#4]
        0x00002a42:    2801        .(      CMP      r0,#1
        0x00002a44:    d00d        ..      BEQ      0x2a62 ; svcTimerStart + 86
        0x00002a46:    2802        .(      CMP      r0,#2
        0x00002a48:    d109        ..      BNE      0x2a5e ; svcTimerStart + 82
        0x00002a4a:    e003        ..      B        0x2a54 ; svcTimerStart + 72
        0x00002a4c:    2080        .       MOVS     r0,#0x80
        0x00002a4e:    bd70        p.      POP      {r4-r6,pc}
        0x00002a50:    2086        .       MOVS     r0,#0x86
        0x00002a52:    bd70        p.      POP      {r4-r6,pc}
        0x00002a54:    4620         F      MOV      r0,r4
        0x00002a56:    f7fffd13    ....    BL       rt_timer_remove ; 0x2480
        0x00002a5a:    2800        .(      CMP      r0,#0
        0x00002a5c:    d004        ..      BEQ      0x2a68 ; svcTimerStart + 92
        0x00002a5e:    2081        .       MOVS     r0,#0x81
        0x00002a60:    bd70        p.      POP      {r4-r6,pc}
        0x00002a62:    2002        .       MOVS     r0,#2
        0x00002a64:    7120         q      STRB     r0,[r4,#4]
        0x00002a66:    60e5        .`      STR      r5,[r4,#0xc]
        0x00002a68:    4629        )F      MOV      r1,r5
        0x00002a6a:    4620         F      MOV      r0,r4
        0x00002a6c:    f7fffcec    ....    BL       rt_timer_insert ; 0x2448
        0x00002a70:    2000        .       MOVS     r0,#0
        0x00002a72:    bd70        p.      POP      {r4-r6,pc}
    $d
        0x00002a74:    00002b60    `+..    DCD    11104
    $t
    i.sysTimerTick
    sysTimerTick
        0x00002a78:    b5f8        ..      PUSH     {r3-r7,lr}
        0x00002a7a:    4e13        .N      LDR      r6,[pc,#76] ; [0x2ac8] = 0x20000088
        0x00002a7c:    6874        th      LDR      r4,[r6,#4]
        0x00002a7e:    2c00        .,      CMP      r4,#0
        0x00002a80:    d01b        ..      BEQ      0x2aba ; sysTimerTick + 66
        0x00002a82:    68a0        .h      LDR      r0,[r4,#8]
        0x00002a84:    4f11        .O      LDR      r7,[pc,#68] ; [0x2acc] = 0x2000007c
        0x00002a86:    1e40        @.      SUBS     r0,r0,#1
        0x00002a88:    60a0        .`      STR      r0,[r4,#8]
        0x00002a8a:    e013        ..      B        0x2ab4 ; sysTimerTick + 60
        0x00002a8c:    4625        %F      MOV      r5,r4
        0x00002a8e:    6824        $h      LDR      r4,[r4,#0]
        0x00002a90:    6074        t`      STR      r4,[r6,#4]
        0x00002a92:    2200        ."      MOVS     r2,#0
        0x00002a94:    4629        )F      MOV      r1,r5
        0x00002a96:    6838        8h      LDR      r0,[r7,#0]
        0x00002a98:    f7fefdd5    ....    BL       isrMessagePut ; 0x1646
        0x00002a9c:    2800        .(      CMP      r0,#0
        0x00002a9e:    d002        ..      BEQ      0x2aa6 ; sysTimerTick + 46
        0x00002aa0:    2004        .       MOVS     r0,#4
        0x00002aa2:    f7fefafd    ....    BL       os_error ; 0x10a0
        0x00002aa6:    7968        hy      LDRB     r0,[r5,#5]
        0x00002aa8:    2801        .(      CMP      r0,#1
        0x00002aaa:    d007        ..      BEQ      0x2abc ; sysTimerTick + 68
        0x00002aac:    2001        .       MOVS     r0,#1
        0x00002aae:    7128        (q      STRB     r0,[r5,#4]
        0x00002ab0:    2c00        .,      CMP      r4,#0
        0x00002ab2:    d002        ..      BEQ      0x2aba ; sysTimerTick + 66
        0x00002ab4:    68a0        .h      LDR      r0,[r4,#8]
        0x00002ab6:    2800        .(      CMP      r0,#0
        0x00002ab8:    d0e8        ..      BEQ      0x2a8c ; sysTimerTick + 20
        0x00002aba:    bdf8        ..      POP      {r3-r7,pc}
        0x00002abc:    4628        (F      MOV      r0,r5
        0x00002abe:    68e9        .h      LDR      r1,[r5,#0xc]
        0x00002ac0:    f7fffcc2    ....    BL       rt_timer_insert ; 0x2448
        0x00002ac4:    e7f4        ..      B        0x2ab0 ; sysTimerTick + 56
    $d
        0x00002ac6:    0000        ..      DCW    0
        0x00002ac8:    20000088    ...     DCD    536871048
        0x00002acc:    2000007c    |..     DCD    536871036
    $d.realdata
    .constdata
    os_thread_def_Thread
        0x00002ad0:    00000415    ....    DCD    1045
        0x00002ad4:    00000000    ....    DCD    0
        0x00002ad8:    00000001    ....    DCD    1
        0x00002adc:    000007e8    ....    DCD    2024
    os_thread_def_Thread1
        0x00002ae0:    00000431    1...    DCD    1073
        0x00002ae4:    00000000    ....    DCD    0
        0x00002ae8:    00000001    ....    DCD    1
        0x00002aec:    00000fd0    ....    DCD    4048
    .constdata
    os_timer_def_Timer1
        0x00002af0:    00000705    ....    DCD    1797
        0x00002af4:    200000ac    ...     DCD    536871084
    os_timer_def_Timer2
        0x00002af8:    00000707    ....    DCD    1799
        0x00002afc:    200000c4    ...     DCD    536871108
    .constdata
    os_mutex_def_uart_mutex
        0x00002b00:    200000dc    ...     DCD    536871132
    os_mutex_def_tcp_mutex
        0x00002b04:    200000ec    ...     DCD    536871148
    os_mutex_def_fs_mutex
        0x00002b08:    200000fc    ...     DCD    536871164
    .constdata
        0x00002b0c:    00b71b00    ....    DCD    12000000
        0x00002b10:    00008000    ....    DCD    32768
        0x00002b14:    00000000    ....    DCD    0
        0x00002b18:    00b71b00    ....    DCD    12000000
        0x00002b1c:    00b71b00    ....    DCD    12000000
        0x00002b20:    00008000    ....    DCD    32768
        0x00002b24:    00000000    ....    DCD    0
        0x00002b28:    00b71b00    ....    DCD    12000000
        0x00002b2c:    00b71b00    ....    DCD    12000000
        0x00002b30:    00008000    ....    DCD    32768
        0x00002b34:    00000000    ....    DCD    0
        0x00002b38:    00b71b00    ....    DCD    12000000
    .constdata
    os_maxtaskrun
        0x00002b3c:    00000007    ....    DCD    7
    os_stackinfo
        0x00002b40:    01040190    ....    DCD    17039760
    os_rrobin
        0x00002b44:    00010005    ....    DCD    65541
    os_tickfreq
        0x00002b48:    00b71b00    ....    DCD    12000000
    os_tickus_i
        0x00002b4c:    000c        ..      DCW    12
    os_tickus_f
        0x00002b4e:    0000        ..      DCW    0
    os_trv
        0x00002b50:    00002edf    ....    DCD    11999
    os_flags
        0x00002b54:    00000001    ....    DCD    1
    __tagsym$$used
    CMSIS_RTOS_API_Version
        0x00002b58:    00010002    ....    DCD    65538
    __tagsym$$used
    CMSIS_RTOS_RTX_Version
        0x00002b5c:    00040052    R...    DCD    262226
    __tagsym$$used
    os_clockrate
        0x00002b60:    000003e8    ....    DCD    1000
    __tagsym$$used
    os_timernum
        0x00002b64:    00000000    ....    DCD    0
    mp_tcb_size
        0x00002b68:    00000178    x...    DCD    376
    mp_stk_size
        0x00002b6c:    00000650    P...    DCD    1616
    os_stack_sz
        0x00002b70:    00001f08    ....    DCD    7944
    os_fifo_size
        0x00002b74:    00000010    ....    DCD    16
    os_thread_def_osTimerThread
        0x00002b78:    000018b5    ....    DCD    6325
        0x00002b7c:    00000002    ....    DCD    2
        0x00002b80:    00000001    ....    DCD    1
        0x00002b84:    000001f0    ....    DCD    496
    os_messageQ_def_osTimerMessageQ
        0x00002b88:    00000004    ....    DCD    4
        0x00002b8c:    20003948    H9.     DCD    536885576
    mp_tmr_size
        0x00002b90:    00000000    ....    DCD    0
    os_thread_def_main
        0x00002b94:    00000875    u...    DCD    2165
        0x00002b98:    00000000    ....    DCD    0
        0x00002b9c:    00000001    ....    DCD    1
        0x00002ba0:    00000190    ....    DCD    400
    Region$$Table$$Base
        0x00002ba4:    00002bc4    .+..    DCD    11204
        0x00002ba8:    20000000    ...     DCD    536870912
        0x00002bac:    000000ac    ....    DCD    172
        0x00002bb0:    000012d4    ....    DCD    4820
        0x00002bb4:    00002c70    p,..    DCD    11376
        0x00002bb8:    200000ac    ...     DCD    536871084
        0x00002bbc:    00003e24    $>..    DCD    15908
        0x00002bc0:    000012e4    ....    DCD    4836
    Region$$Table$$Limit

** Section #2 'ER_RW' (SHT_PROGBITS) [SHF_ALLOC + SHF_WRITE]
    Size   : 172 bytes (alignment 4)
    Address: 0x20000000


** Section #3 'ER_ZI' (SHT_NOBITS) [SHF_ALLOC + SHF_WRITE]
    Size   : 15908 bytes (alignment 8)
    Address: 0x200000ac


** Section #4 '.debug_abbrev' (SHT_PROGBITS)
    Size   : 1476 bytes


** Section #5 '.debug_frame' (SHT_PROGBITS)
    Size   : 3944 bytes


** Section #6 '.debug_info' (SHT_PROGBITS)
    Size   : 64076 bytes


** Section #7 '.debug_line' (SHT_PROGBITS)
    Size   : 19548 bytes


** Section #8 '.debug_loc' (SHT_PROGBITS)
    Size   : 10468 bytes


** Section #9 '.debug_macinfo' (SHT_PROGBITS)
    Size   : 291500 bytes


** Section #10 '.debug_pubnames' (SHT_PROGBITS)
    Size   : 5785 bytes


** Section #11 '.symtab' (SHT_SYMTAB)
    Size   : 11600 bytes (alignment 4)
    String table #12 '.strtab'
    Last local symbol no. 408


** Section #12 '.strtab' (SHT_STRTAB)
    Size   : 7760 bytes


** Section #13 '.note' (SHT_NOTE)
    Size   : 28 bytes (alignment 4)


** Section #14 '.comment' (SHT_PROGBITS)
    Size   : 21652 bytes


** Section #15 '.shstrtab' (SHT_STRTAB)
    Size   : 156 bytes


