
========================================================================

** ELF Header Information

    File Name: .\obj\UART_TxRx_Function.axf

    Machine class: ELFCLASS32 (32-bit)
    Data encoding: ELFDATA2LSB (Little endian)
    Header version: EV_CURRENT (Current version)
    Operating System ABI: none
    ABI Version: 0
    File Type: ET_EXEC (Executable) (2)
    Machine: EM_ARM (ARM)

    Image Entry point: 0x00000265
    Flags: EF_ARM_HASENTRY + EF_ARM_ABI_FLOAT_SOFT (0x05000202)

    ARM ELF revision: 5 (ABI version 2)

    Conforms to Soft float procedure-call standard

    Built with
    Component: ARM Compiler 5.06 update 4 (build 422) Tool: armasm [4d35cf]
    Component: ARM Compiler 5.06 update 1 (build 61) Tool: armasm [4d35a5]
    Component: ARM Compiler 5.06 update 4 (build 422) Tool: armlink [4d35d2]
    Component: ARM Compiler 5.06 update 1 (build 61) Tool: armlink [4d35a8]

    Header size: 52 bytes (0x34)
    Program header entry size: 32 bytes (0x20)
    Section header entry size: 40 bytes (0x28)

    Program header entries: 1
    Section header entries: 16

    Program header offset: 494376 (0x00078b28)
    Section header offset: 494408 (0x00078b48)

    Section header string table index: 15

========================================================================

** Program header #0 (PT_LOAD) [PF_X + PF_W + PF_R + PF_ARM_ENTRY]
    Size : 38264 bytes (23136 bytes in file)
    Virtual address: 0x00000000 (Alignment 8)


========================================================================

** Section #1 'ER_RO' (SHT_PROGBITS) [SHF_ALLOC + SHF_EXECINSTR]
    Size   : 22800 bytes (alignment 4)
    Address: 0x00000000

    $d.realdata
    RESET
    __Vectors
        0x00000000:    20003c68    h<.     DCD    536886376
        0x00000004:    00000265    e...    DCD    613
        0x00000008:    00000285    ....    DCD    645
        0x0000000c:    000000e5    ....    DCD    229
        0x00000010:    00000000    ....    DCD    0
        0x00000014:    00000000    ....    DCD    0
        0x00000018:    00000000    ....    DCD    0
        0x0000001c:    00000000    ....    DCD    0
        0x00000020:    00000000    ....    DCD    0
        0x00000024:    00000000    ....    DCD    0
        0x00000028:    00000000    ....    DCD    0
        0x0000002c:    00000171    q...    DCD    369
        0x00000030:    00000000    ....    DCD    0
        0x00000034:    00000000    ....    DCD    0
        0x00000038:    00000205    ....    DCD    517
        0x0000003c:    00000251    Q...    DCD    593
        0x00000040:    0000028f    ....    DCD    655
        0x00000044:    00002b59    Y+..    DCD    11097
        0x00000048:    0000028f    ....    DCD    655
        0x0000004c:    0000028f    ....    DCD    655
        0x00000050:    000010d9    ....    DCD    4313
        0x00000054:    0000028f    ....    DCD    655
        0x00000058:    0000028f    ....    DCD    655
        0x0000005c:    0000028f    ....    DCD    655
        0x00000060:    0000028f    ....    DCD    655
        0x00000064:    0000028f    ....    DCD    655
        0x00000068:    0000028f    ....    DCD    655
        0x0000006c:    0000028f    ....    DCD    655
        0x00000070:    0000028f    ....    DCD    655
        0x00000074:    00002a6d    m*..    DCD    10861
        0x00000078:    0000028f    ....    DCD    655
        0x0000007c:    0000028f    ....    DCD    655
        0x00000080:    0000028f    ....    DCD    655
        0x00000084:    0000028f    ....    DCD    655
        0x00000088:    0000028f    ....    DCD    655
        0x0000008c:    000011a9    ....    DCD    4521
        0x00000090:    0000028f    ....    DCD    655
        0x00000094:    0000028f    ....    DCD    655
        0x00000098:    0000028f    ....    DCD    655
        0x0000009c:    0000028f    ....    DCD    655
        0x000000a0:    0000028f    ....    DCD    655
        0x000000a4:    0000028f    ....    DCD    655
        0x000000a8:    0000028f    ....    DCD    655
        0x000000ac:    0000028f    ....    DCD    655
        0x000000b0:    0000028f    ....    DCD    655
        0x000000b4:    0000028f    ....    DCD    655
        0x000000b8:    0000028f    ....    DCD    655
        0x000000bc:    0000028f    ....    DCD    655
    $t
    .ARM.Collect$$$$00000000
    .ARM.Collect$$$$00000001
    __main
    _main_stk
        0x000000c0:    4807        .H      LDR      r0,__lit__00000000 ; [0xe0] = 0x20003c68
        0x000000c2:    4685        .F      MOV      sp,r0
    .ARM.Collect$$$$00000004
    _main_scatterload
        0x000000c4:    f000fca0    ....    BL       __scatterload ; 0xa08
    .ARM.Collect$$$$000000FF
    .ARM.Collect$$$$00000008
    .ARM.Collect$$$$0000000A
    .ARM.Collect$$$$0000000D
    .ARM.Collect$$$$0000000F
    __main_after_scatterload
    __rt_final_cpp
    __rt_final_exit
    _main_clock
    _main_cpp_init
    _main_init
        0x000000c8:    f003ff1a    ....    BL       osKernelInitialize ; 0x3f00
        0x000000cc:    2100        .!      MOVS     r1,#0
        0x000000ce:    4803        .H      LDR      r0,[pc,#12] ; [0xdc] = 0x56f4
        0x000000d0:    f003ffa4    ....    BL       osThreadCreate ; 0x401c
        0x000000d4:    f003ff28    ..(.    BL       osKernelStart ; 0x3f28
        0x000000d8:    e7fe        ..      B        0xd8 ; __main_after_scatterload + 16
    $d
        0x000000da:    0000        ..      DCW    0
        0x000000dc:    000056f4    .V..    DCD    22260
    .ARM.Collect$$$$00002712
    __lit__00000000
        0x000000e0:    20003c68    h<.     DCD    536886376
    $t
    .emb_text
    HardFault_Handler
        0x000000e4:    2004        .       MOVS     r0,#4
        0x000000e6:    4671        qF      MOV      r1,lr
        0x000000e8:    4208        .B      TST      r0,r1
        0x000000ea:    d002        ..      BEQ      0xf2 ; HardFault_Handler + 14
        0x000000ec:    f3ef8009    ....    MRS      r0,PSP
        0x000000f0:    e001        ..      B        0xf6 ; HardFault_Handler + 18
        0x000000f2:    f3ef8008    ....    MRS      r0,MSP
        0x000000f6:    4671        qF      MOV      r1,lr
        0x000000f8:    4a00        .J      LDR      r2,[pc,#0] ; [0xfc] = 0x1159
        0x000000fa:    4710        .G      BX       r2
    $d
        0x000000fc:    00001159    Y...    DCD    4441
    $t
    .emb_text
    rt_set_PSP
        0x00000100:    f3808809    ....    MSR      PSP,r0
        0x00000104:    4770        pG      BX       lr
    rt_get_PSP
        0x00000106:    f3ef8009    ....    MRS      r0,PSP
        0x0000010a:    4770        pG      BX       lr
    os_set_env
        0x0000010c:    4668        hF      MOV      r0,sp
        0x0000010e:    f3808809    ....    MSR      PSP,r0
        0x00000112:    4806        .H      LDR      r0,[pc,#24] ; [0x12c] = 0x56b4
        0x00000114:    7800        .x      LDRB     r0,[r0,#0]
        0x00000116:    07c0        ..      LSLS     r0,r0,#31
        0x00000118:    d103        ..      BNE      0x122 ; os_set_env + 22
        0x0000011a:    2003        .       MOVS     r0,#3
        0x0000011c:    f3808814    ....    MSR      CONTROL,r0
        0x00000120:    4770        pG      BX       lr
        0x00000122:    2002        .       MOVS     r0,#2
        0x00000124:    f3808814    ....    MSR      CONTROL,r0
        0x00000128:    4770        pG      BX       lr
    $d
        0x0000012a:    0000        ..      DCW    0
        0x0000012c:    000056b4    .V..    DCD    22196
    $t
    _alloc_box
        0x00000130:    4b06        .K      LDR      r3,[pc,#24] ; [0x14c] = 0x4253
        0x00000132:    469c        .F      MOV      r12,r3
        0x00000134:    f3ef8305    ....    MRS      r3,IPSR
        0x00000138:    061b        ..      LSLS     r3,r3,#24
        0x0000013a:    d105        ..      BNE      0x148 ; _alloc_box + 24
        0x0000013c:    f3ef8314    ....    MRS      r3,CONTROL
        0x00000140:    07db        ..      LSLS     r3,r3,#31
        0x00000142:    d001        ..      BEQ      0x148 ; _alloc_box + 24
        0x00000144:    df00        ..      SVC      #0x0 ; formerly SWI
        0x00000146:    4770        pG      BX       lr
        0x00000148:    4760        `G      BX       r12
    $d
        0x0000014a:    0000        ..      DCW    0
        0x0000014c:    00004253    SB..    DCD    16979
    $t
    _free_box
        0x00000150:    4b06        .K      LDR      r3,[pc,#24] ; [0x16c] = 0x4441
        0x00000152:    469c        .F      MOV      r12,r3
        0x00000154:    f3ef8305    ....    MRS      r3,IPSR
        0x00000158:    061b        ..      LSLS     r3,r3,#24
        0x0000015a:    d105        ..      BNE      0x168 ; _free_box + 24
        0x0000015c:    f3ef8314    ....    MRS      r3,CONTROL
        0x00000160:    07db        ..      LSLS     r3,r3,#31
        0x00000162:    d001        ..      BEQ      0x168 ; _free_box + 24
        0x00000164:    df00        ..      SVC      #0x0 ; formerly SWI
        0x00000166:    4770        pG      BX       lr
        0x00000168:    4760        `G      BX       r12
    $d
        0x0000016a:    0000        ..      DCW    0
        0x0000016c:    00004441    AD..    DCD    17473
    $t
    SVC_Handler
        0x00000170:    f3ef8009    ....    MRS      r0,PSP
        0x00000174:    6981        .i      LDR      r1,[r0,#0x18]
        0x00000176:    1e89        ..      SUBS     r1,r1,#2
        0x00000178:    7809        .x      LDRB     r1,[r1,#0]
        0x0000017a:    2900        .)      CMP      r1,#0
        0x0000017c:    d12b        +.      BNE      0x1d6 ; SVC_Handler + 102
        0x0000017e:    46a6        .F      MOV      lr,r4
        0x00000180:    c81f        ..      LDM      r0,{r0-r4}
        0x00000182:    46a4        .F      MOV      r12,r4
        0x00000184:    4674        tF      MOV      r4,lr
        0x00000186:    47e0        .G      BLX      r12
        0x00000188:    f3ef8309    ....    MRS      r3,PSP
        0x0000018c:    c307        ..      STM      r3!,{r0-r2}
        0x0000018e:    4b1a        .K      LDR      r3,[pc,#104] ; [0x1f8] = 0x2000012c
        0x00000190:    cb06        ..      LDM      r3!,{r1,r2}
        0x00000192:    4291        .B      CMP      r1,r2
        0x00000194:    d01c        ..      BEQ      0x1d0 ; SVC_Handler + 96
        0x00000196:    3b08        .;      SUBS     r3,r3,#8
        0x00000198:    2900        .)      CMP      r1,#0
        0x0000019a:    d00d        ..      BEQ      0x1b8 ; SVC_Handler + 72
        0x0000019c:    f3ef8009    ....    MRS      r0,PSP
        0x000001a0:    3820         8      SUBS     r0,r0,#0x20
        0x000001a2:    6288        .b      STR      r0,[r1,#0x28]
        0x000001a4:    c0f0        ..      STM      r0!,{r4-r7}
        0x000001a6:    4644        DF      MOV      r4,r8
        0x000001a8:    464d        MF      MOV      r5,r9
        0x000001aa:    4656        VF      MOV      r6,r10
        0x000001ac:    465f        _F      MOV      r7,r11
        0x000001ae:    c0f0        ..      STM      r0!,{r4-r7}
        0x000001b0:    b40c        ..      PUSH     {r2,r3}
        0x000001b2:    f004fccf    ....    BL       rt_stk_check ; 0x4b54
        0x000001b6:    bc0c        ..      POP      {r2,r3}
        0x000001b8:    601a        .`      STR      r2,[r3,#0]
        0x000001ba:    6a90        .j      LDR      r0,[r2,#0x28]
        0x000001bc:    3010        .0      ADDS     r0,r0,#0x10
        0x000001be:    c8f0        ..      LDM      r0!,{r4-r7}
        0x000001c0:    46a0        .F      MOV      r8,r4
        0x000001c2:    46a9        .F      MOV      r9,r5
        0x000001c4:    46b2        .F      MOV      r10,r6
        0x000001c6:    46bb        .F      MOV      r11,r7
        0x000001c8:    f3808809    ....    MSR      PSP,r0
        0x000001cc:    3820         8      SUBS     r0,r0,#0x20
        0x000001ce:    c8f0        ..      LDM      r0!,{r4-r7}
        0x000001d0:    2002        .       MOVS     r0,#2
        0x000001d2:    43c0        .C      MVNS     r0,r0
        0x000001d4:    4700        .G      BX       r0
        0x000001d6:    b510        ..      PUSH     {r4,lr}
        0x000001d8:    4a08        .J      LDR      r2,[pc,#32] ; [0x1fc] = 0xb20
        0x000001da:    6812        .h      LDR      r2,[r2,#0]
        0x000001dc:    4291        .B      CMP      r1,r2
        0x000001de:    d809        ..      BHI      0x1f4 ; SVC_Handler + 132
        0x000001e0:    4c07        .L      LDR      r4,[pc,#28] ; [0x200] = 0xb20
        0x000001e2:    0089        ..      LSLS     r1,r1,#2
        0x000001e4:    5864        dX      LDR      r4,[r4,r1]
        0x000001e6:    46a6        .F      MOV      lr,r4
        0x000001e8:    c81f        ..      LDM      r0,{r0-r4}
        0x000001ea:    46a4        .F      MOV      r12,r4
        0x000001ec:    47f0        .G      BLX      lr
        0x000001ee:    f3ef8409    ....    MRS      r4,PSP
        0x000001f2:    c40f        ..      STM      r4!,{r0-r3}
        0x000001f4:    bd10        ..      POP      {r4,pc}
    $d
        0x000001f6:    0000        ..      DCW    0
        0x000001f8:    2000012c    ,..     DCD    536871212
        0x000001fc:    00000b20     ...    DCD    2848
        0x00000200:    00000b20     ...    DCD    2848
    $t
    PendSV_Handler
        0x00000204:    f004fb86    ....    BL       rt_pop_req ; 0x4914
        0x00000208:    4b10        .K      LDR      r3,[pc,#64] ; [0x24c] = 0x2000012c
        0x0000020a:    cb06        ..      LDM      r3!,{r1,r2}
        0x0000020c:    4291        .B      CMP      r1,r2
        0x0000020e:    d01a        ..      BEQ      0x246 ; PendSV_Handler + 66
        0x00000210:    3b08        .;      SUBS     r3,r3,#8
        0x00000212:    f3ef8009    ....    MRS      r0,PSP
        0x00000216:    3820         8      SUBS     r0,r0,#0x20
        0x00000218:    6288        .b      STR      r0,[r1,#0x28]
        0x0000021a:    c0f0        ..      STM      r0!,{r4-r7}
        0x0000021c:    4644        DF      MOV      r4,r8
        0x0000021e:    464d        MF      MOV      r5,r9
        0x00000220:    4656        VF      MOV      r6,r10
        0x00000222:    465f        _F      MOV      r7,r11
        0x00000224:    c0f0        ..      STM      r0!,{r4-r7}
        0x00000226:    b40c        ..      PUSH     {r2,r3}
        0x00000228:    f004fc94    ....    BL       rt_stk_check ; 0x4b54
        0x0000022c:    bc0c        ..      POP      {r2,r3}
        0x0000022e:    601a        .`      STR      r2,[r3,#0]
        0x00000230:    6a90        .j      LDR      r0,[r2,#0x28]
        0x00000232:    3010        .0      ADDS     r0,r0,#0x10
        0x00000234:    c8f0        ..      LDM      r0!,{r4-r7}
        0x00000236:    46a0        .F      MOV      r8,r4
        0x00000238:    46a9        .F      MOV      r9,r5
        0x0000023a:    46b2        .F      MOV      r10,r6
        0x0000023c:    46bb        .F      MOV      r11,r7
        0x0000023e:    f3808809    ....    MSR      PSP,r0
        0x00000242:    3820         8      SUBS     r0,r0,#0x20
        0x00000244:    c8f0        ..      LDM      r0!,{r4-r7}
        0x00000246:    2002        .       MOVS     r0,#2
        0x00000248:    43c0        .C      MVNS     r0,r0
        0x0000024a:    4700        .G      BX       r0
    $d
        0x0000024c:    2000012c    ,..     DCD    536871212
    $t
    SysTick_Handler
        0x00000250:    f004fd32    ..2.    BL       rt_systick ; 0x4cb8
        0x00000254:    e7d8        ..      B        0x208 ; PendSV_Handler + 4
    $d
        0x00000256:    0000        ..      DCW    0
    $t
    OS_Tick_Handler
        0x00000258:    f003ff88    ....    BL       os_tick_irqack ; 0x416c
        0x0000025c:    f004fd2c    ..,.    BL       rt_systick ; 0x4cb8
        0x00000260:    e7d2        ..      B        0x208 ; PendSV_Handler + 4
    $d
        0x00000262:    0000        ..      DCW    0
    $t
    .text
    Reset_Handler
        0x00000264:    480a        .H      LDR      r0,[pc,#40] ; [0x290] = 0x50000100
        0x00000266:    490b        .I      LDR      r1,[pc,#44] ; [0x294] = 0x59
        0x00000268:    6001        .`      STR      r1,[r0,#0]
        0x0000026a:    490b        .I      LDR      r1,[pc,#44] ; [0x298] = 0x16
        0x0000026c:    6001        .`      STR      r1,[r0,#0]
        0x0000026e:    490b        .I      LDR      r1,[pc,#44] ; [0x29c] = 0x88
        0x00000270:    6001        .`      STR      r1,[r0,#0]
        0x00000272:    4a0b        .J      LDR      r2,[pc,#44] ; [0x2a0] = 0x50000024
        0x00000274:    490b        .I      LDR      r1,[pc,#44] ; [0x2a4] = 0x5aa5
        0x00000276:    6011        .`      STR      r1,[r2,#0]
        0x00000278:    2100        .!      MOVS     r1,#0
        0x0000027a:    6001        .`      STR      r1,[r0,#0]
        0x0000027c:    480a        .H      LDR      r0,[pc,#40] ; [0x2a8] = 0x1f69
        0x0000027e:    4780        .G      BLX      r0
        0x00000280:    480a        .H      LDR      r0,[pc,#40] ; [0x2ac] = 0xc1
        0x00000282:    4700        .G      BX       r0
    NMI_Handler
        0x00000284:    e7fe        ..      B        NMI_Handler ; 0x284
        0x00000286:    e7fe        ..      B        0x286 ; NMI_Handler + 2
        0x00000288:    e7fe        ..      B        0x288 ; NMI_Handler + 4
        0x0000028a:    e7fe        ..      B        0x28a ; NMI_Handler + 6
        0x0000028c:    e7fe        ..      B        0x28c ; NMI_Handler + 8
    Default_Handler
    ACMP_IRQHandler
    ADC_IRQHandler
    BOD_IRQHandler
    CAN0_IRQHandler
    CAN1_IRQHandler
    EINT0_IRQHandler
    EINT1_IRQHandler
    GPCDEF_IRQHandler
    I2C0_IRQHandler
    I2S_IRQHandler
    PDMA_IRQHandler
    PS2_IRQHandler
    PWMA_IRQHandler
    PWMB_IRQHandler
    PWRWU_IRQHandler
    RTC_IRQHandler
    SC012_IRQHandler
    SPI0_IRQHandler
    SPI1_IRQHandler
    SPI2_IRQHandler
    SPI3_IRQHandler
    TMR0_IRQHandler
    TMR1_IRQHandler
    TMR2_IRQHandler
    TMR3_IRQHandler
    UART02_IRQHandler
    USBD_IRQHandler
        0x0000028e:    e7fe        ..      B        Default_Handler ; 0x28e
    $d
        0x00000290:    50000100    ...P    DCD    1342177536
        0x00000294:    00000059    Y...    DCD    89
        0x00000298:    00000016    ....    DCD    22
        0x0000029c:    00000088    ....    DCD    136
        0x000002a0:    50000024    $..P    DCD    1342177316
        0x000002a4:    00005aa5    .Z..    DCD    23205
        0x000002a8:    00001f69    i...    DCD    8041
        0x000002ac:    000000c1    ....    DCD    193
    $t
    .text
    __aeabi_uidiv
    __aeabi_uidivmod
        0x000002b0:    b530        0.      PUSH     {r4,r5,lr}
        0x000002b2:    460b        .F      MOV      r3,r1
        0x000002b4:    4601        .F      MOV      r1,r0
        0x000002b6:    2000        .       MOVS     r0,#0
        0x000002b8:    2220         "      MOVS     r2,#0x20
        0x000002ba:    2401        .$      MOVS     r4,#1
        0x000002bc:    e009        ..      B        0x2d2 ; __aeabi_uidiv + 34
        0x000002be:    460d        .F      MOV      r5,r1
        0x000002c0:    40d5        .@      LSRS     r5,r5,r2
        0x000002c2:    429d        .B      CMP      r5,r3
        0x000002c4:    d305        ..      BCC      0x2d2 ; __aeabi_uidiv + 34
        0x000002c6:    461d        .F      MOV      r5,r3
        0x000002c8:    4095        .@      LSLS     r5,r5,r2
        0x000002ca:    1b49        I.      SUBS     r1,r1,r5
        0x000002cc:    4625        %F      MOV      r5,r4
        0x000002ce:    4095        .@      LSLS     r5,r5,r2
        0x000002d0:    1940        @.      ADDS     r0,r0,r5
        0x000002d2:    4615        .F      MOV      r5,r2
        0x000002d4:    1e52        R.      SUBS     r2,r2,#1
        0x000002d6:    2d00        .-      CMP      r5,#0
        0x000002d8:    dcf1        ..      BGT      0x2be ; __aeabi_uidiv + 14
        0x000002da:    bd30        0.      POP      {r4,r5,pc}
    .text
    __aeabi_idiv
    __aeabi_idivmod
        0x000002dc:    b570        p.      PUSH     {r4-r6,lr}
        0x000002de:    2400        .$      MOVS     r4,#0
        0x000002e0:    4625        %F      MOV      r5,r4
        0x000002e2:    2800        .(      CMP      r0,#0
        0x000002e4:    da01        ..      BGE      0x2ea ; __aeabi_idiv + 14
        0x000002e6:    2401        .$      MOVS     r4,#1
        0x000002e8:    4240        @B      RSBS     r0,r0,#0
        0x000002ea:    2900        .)      CMP      r1,#0
        0x000002ec:    da01        ..      BGE      0x2f2 ; __aeabi_idiv + 22
        0x000002ee:    2501        .%      MOVS     r5,#1
        0x000002f0:    4249        IB      RSBS     r1,r1,#0
        0x000002f2:    f7ffffdd    ....    BL       __aeabi_uidiv ; 0x2b0
        0x000002f6:    42ac        .B      CMP      r4,r5
        0x000002f8:    d000        ..      BEQ      0x2fc ; __aeabi_idiv + 32
        0x000002fa:    4240        @B      RSBS     r0,r0,#0
        0x000002fc:    2c00        .,      CMP      r4,#0
        0x000002fe:    d000        ..      BEQ      0x302 ; __aeabi_idiv + 38
        0x00000300:    4249        IB      RSBS     r1,r1,#0
        0x00000302:    bd70        p.      POP      {r4-r6,pc}
    .text
    __aeabi_uldivmod
        0x00000304:    b5f0        ..      PUSH     {r4-r7,lr}
        0x00000306:    b41f        ..      PUSH     {r0-r4}
        0x00000308:    4606        .F      MOV      r6,r0
        0x0000030a:    2000        .       MOVS     r0,#0
        0x0000030c:    b082        ..      SUB      sp,sp,#8
        0x0000030e:    4605        .F      MOV      r5,r0
        0x00000310:    2440        @$      MOVS     r4,#0x40
        0x00000312:    9101        ..      STR      r1,[sp,#4]
        0x00000314:    9000        ..      STR      r0,[sp,#0]
        0x00000316:    e01b        ..      B        0x350 ; __aeabi_uldivmod + 76
        0x00000318:    9901        ..      LDR      r1,[sp,#4]
        0x0000031a:    4622        "F      MOV      r2,r4
        0x0000031c:    460f        .F      MOV      r7,r1
        0x0000031e:    4630        0F      MOV      r0,r6
        0x00000320:    f000f9b6    ....    BL       __aeabi_llsr ; 0x690
        0x00000324:    9a04        ..      LDR      r2,[sp,#0x10]
        0x00000326:    9b05        ..      LDR      r3,[sp,#0x14]
        0x00000328:    1a80        ..      SUBS     r0,r0,r2
        0x0000032a:    4199        .A      SBCS     r1,r1,r3
        0x0000032c:    d310        ..      BCC      0x350 ; __aeabi_uldivmod + 76
        0x0000032e:    4610        .F      MOV      r0,r2
        0x00000330:    4619        .F      MOV      r1,r3
        0x00000332:    4622        "F      MOV      r2,r4
        0x00000334:    f000f99c    ....    BL       __aeabi_llsl ; 0x670
        0x00000338:    1a36        6.      SUBS     r6,r6,r0
        0x0000033a:    418f        .A      SBCS     r7,r7,r1
        0x0000033c:    9701        ..      STR      r7,[sp,#4]
        0x0000033e:    4622        "F      MOV      r2,r4
        0x00000340:    2001        .       MOVS     r0,#1
        0x00000342:    2100        .!      MOVS     r1,#0
        0x00000344:    9f00        ..      LDR      r7,[sp,#0]
        0x00000346:    f000f993    ....    BL       __aeabi_llsl ; 0x670
        0x0000034a:    1838        8.      ADDS     r0,r7,r0
        0x0000034c:    414d        MA      ADCS     r5,r5,r1
        0x0000034e:    9000        ..      STR      r0,[sp,#0]
        0x00000350:    4620         F      MOV      r0,r4
        0x00000352:    1e64        d.      SUBS     r4,r4,#1
        0x00000354:    2800        .(      CMP      r0,#0
        0x00000356:    dcdf        ..      BGT      0x318 ; __aeabi_uldivmod + 20
        0x00000358:    9b01        ..      LDR      r3,[sp,#4]
        0x0000035a:    9800        ..      LDR      r0,[sp,#0]
        0x0000035c:    4629        )F      MOV      r1,r5
        0x0000035e:    4632        2F      MOV      r2,r6
        0x00000360:    b007        ..      ADD      sp,sp,#0x1c
        0x00000362:    bdf0        ..      POP      {r4-r7,pc}
    .text
    __aeabi_memset
    __aeabi_memset4
    __aeabi_memset8
        0x00000364:    b2d2        ..      UXTB     r2,r2
        0x00000366:    e001        ..      B        0x36c ; __aeabi_memset + 8
        0x00000368:    7002        .p      STRB     r2,[r0,#0]
        0x0000036a:    1c40        @.      ADDS     r0,r0,#1
        0x0000036c:    1e49        I.      SUBS     r1,r1,#1
        0x0000036e:    d2fb        ..      BCS      0x368 ; __aeabi_memset + 4
        0x00000370:    4770        pG      BX       lr
    __aeabi_memclr
    __aeabi_memclr4
    __aeabi_memclr8
        0x00000372:    2200        ."      MOVS     r2,#0
        0x00000374:    e7f6        ..      B        __aeabi_memset ; 0x364
    _memset$wrapper
        0x00000376:    b510        ..      PUSH     {r4,lr}
        0x00000378:    4613        .F      MOV      r3,r2
        0x0000037a:    460a        .F      MOV      r2,r1
        0x0000037c:    4604        .F      MOV      r4,r0
        0x0000037e:    4619        .F      MOV      r1,r3
        0x00000380:    f7fffff0    ....    BL       __aeabi_memset ; 0x364
        0x00000384:    4620         F      MOV      r0,r4
        0x00000386:    bd10        ..      POP      {r4,pc}
    .text
    strcat
        0x00000388:    1e42        B.      SUBS     r2,r0,#1
        0x0000038a:    7853        Sx      LDRB     r3,[r2,#1]
        0x0000038c:    1c52        R.      ADDS     r2,r2,#1
        0x0000038e:    2b00        .+      CMP      r3,#0
        0x00000390:    d1fb        ..      BNE      0x38a ; strcat + 2
        0x00000392:    780b        .x      LDRB     r3,[r1,#0]
        0x00000394:    7013        .p      STRB     r3,[r2,#0]
        0x00000396:    1c49        I.      ADDS     r1,r1,#1
        0x00000398:    1c52        R.      ADDS     r2,r2,#1
        0x0000039a:    2b00        .+      CMP      r3,#0
        0x0000039c:    d1f9        ..      BNE      0x392 ; strcat + 10
        0x0000039e:    4770        pG      BX       lr
    .text
    strstr
        0x000003a0:    b530        0.      PUSH     {r4,r5,lr}
        0x000003a2:    4605        .F      MOV      r5,r0
        0x000003a4:    462a        *F      MOV      r2,r5
        0x000003a6:    460b        .F      MOV      r3,r1
        0x000003a8:    7810        .x      LDRB     r0,[r2,#0]
        0x000003aa:    781c        .x      LDRB     r4,[r3,#0]
        0x000003ac:    1c52        R.      ADDS     r2,r2,#1
        0x000003ae:    1c5b        [.      ADDS     r3,r3,#1
        0x000003b0:    2800        .(      CMP      r0,#0
        0x000003b2:    d001        ..      BEQ      0x3b8 ; strstr + 24
        0x000003b4:    42a0        .B      CMP      r0,r4
        0x000003b6:    d0f7        ..      BEQ      0x3a8 ; strstr + 8
        0x000003b8:    2c00        .,      CMP      r4,#0
        0x000003ba:    d003        ..      BEQ      0x3c4 ; strstr + 36
        0x000003bc:    2800        .(      CMP      r0,#0
        0x000003be:    d002        ..      BEQ      0x3c6 ; strstr + 38
        0x000003c0:    1c6d        m.      ADDS     r5,r5,#1
        0x000003c2:    e7ef        ..      B        0x3a4 ; strstr + 4
        0x000003c4:    4628        (F      MOV      r0,r5
        0x000003c6:    bd30        0.      POP      {r4,r5,pc}
    .text
    strlen
        0x000003c8:    1c42        B.      ADDS     r2,r0,#1
        0x000003ca:    7801        .x      LDRB     r1,[r0,#0]
        0x000003cc:    1c40        @.      ADDS     r0,r0,#1
        0x000003ce:    2900        .)      CMP      r1,#0
        0x000003d0:    d1fb        ..      BNE      0x3ca ; strlen + 2
        0x000003d2:    1a80        ..      SUBS     r0,r0,r2
        0x000003d4:    4770        pG      BX       lr
    .text
    atoi
        0x000003d6:    b570        p.      PUSH     {r4-r6,lr}
        0x000003d8:    4606        .F      MOV      r6,r0
        0x000003da:    f002fc37    ..7.    BL       __aeabi_errno_addr ; 0x2c4c
        0x000003de:    6804        .h      LDR      r4,[r0,#0]
        0x000003e0:    4605        .F      MOV      r5,r0
        0x000003e2:    220a        ."      MOVS     r2,#0xa
        0x000003e4:    2100        .!      MOVS     r1,#0
        0x000003e6:    4630        0F      MOV      r0,r6
        0x000003e8:    f000f964    ..d.    BL       strtol ; 0x6b4
        0x000003ec:    602c        ,`      STR      r4,[r5,#0]
        0x000003ee:    bd70        p.      POP      {r4-r6,pc}
    .text
    __aeabi_dmul
        0x000003f0:    b5f0        ..      PUSH     {r4-r7,lr}
        0x000003f2:    b41f        ..      PUSH     {r0-r4}
        0x000003f4:    b088        ..      SUB      sp,sp,#0x20
        0x000003f6:    990b        ..      LDR      r1,[sp,#0x2c]
        0x000003f8:    9809        ..      LDR      r0,[sp,#0x24]
        0x000003fa:    2400        .$      MOVS     r4,#0
        0x000003fc:    4048        H@      EORS     r0,r0,r1
        0x000003fe:    9909        ..      LDR      r1,[sp,#0x24]
        0x00000400:    0fc0        ..      LSRS     r0,r0,#31
        0x00000402:    0049        I.      LSLS     r1,r1,#1
        0x00000404:    0849        I.      LSRS     r1,r1,#1
        0x00000406:    9109        ..      STR      r1,[sp,#0x24]
        0x00000408:    07c0        ..      LSLS     r0,r0,#31
        0x0000040a:    990b        ..      LDR      r1,[sp,#0x2c]
        0x0000040c:    9000        ..      STR      r0,[sp,#0]
        0x0000040e:    0049        I.      LSLS     r1,r1,#1
        0x00000410:    0849        I.      LSRS     r1,r1,#1
        0x00000412:    910b        ..      STR      r1,[sp,#0x2c]
        0x00000414:    9909        ..      LDR      r1,[sp,#0x24]
        0x00000416:    9808        ..      LDR      r0,[sp,#0x20]
        0x00000418:    46a6        .F      MOV      lr,r4
        0x0000041a:    4308        .C      ORRS     r0,r0,r1
        0x0000041c:    d01c        ..      BEQ      0x458 ; __aeabi_dmul + 104
        0x0000041e:    990b        ..      LDR      r1,[sp,#0x2c]
        0x00000420:    980a        ..      LDR      r0,[sp,#0x28]
        0x00000422:    4308        .C      ORRS     r0,r0,r1
        0x00000424:    d018        ..      BEQ      0x458 ; __aeabi_dmul + 104
        0x00000426:    9809        ..      LDR      r0,[sp,#0x24]
        0x00000428:    2401        .$      MOVS     r4,#1
        0x0000042a:    0040        @.      LSLS     r0,r0,#1
        0x0000042c:    0d42        B.      LSRS     r2,r0,#21
        0x0000042e:    0048        H.      LSLS     r0,r1,#1
        0x00000430:    0d41        A.      LSRS     r1,r0,#21
        0x00000432:    9809        ..      LDR      r0,[sp,#0x24]
        0x00000434:    0524        $.      LSLS     r4,r4,#20
        0x00000436:    0300        ..      LSLS     r0,r0,#12
        0x00000438:    0b00        ..      LSRS     r0,r0,#12
        0x0000043a:    4320         C      ORRS     r0,r0,r4
        0x0000043c:    9009        ..      STR      r0,[sp,#0x24]
        0x0000043e:    980b        ..      LDR      r0,[sp,#0x2c]
        0x00000440:    0300        ..      LSLS     r0,r0,#12
        0x00000442:    0b00        ..      LSRS     r0,r0,#12
        0x00000444:    4320         C      ORRS     r0,r0,r4
        0x00000446:    900b        ..      STR      r0,[sp,#0x2c]
        0x00000448:    1850        P.      ADDS     r0,r2,r1
        0x0000044a:    491c        .I      LDR      r1,[pc,#112] ; [0x4bc] = 0xfffffc0d
        0x0000044c:    1840        @.      ADDS     r0,r0,r1
        0x0000044e:    2200        ."      MOVS     r2,#0
        0x00000450:    9001        ..      STR      r0,[sp,#4]
        0x00000452:    4614        .F      MOV      r4,r2
        0x00000454:    4610        .F      MOV      r0,r2
        0x00000456:    e005        ..      B        0x464 ; __aeabi_dmul + 116
        0x00000458:    2000        .       MOVS     r0,#0
        0x0000045a:    4601        .F      MOV      r1,r0
        0x0000045c:    b00d        ..      ADD      sp,sp,#0x34
        0x0000045e:    bdf0        ..      POP      {r4-r7,pc}
        0x00000460:    2803        .(      CMP      r0,#3
        0x00000462:    da01        ..      BGE      0x468 ; __aeabi_dmul + 120
        0x00000464:    4603        .F      MOV      r3,r0
        0x00000466:    e000        ..      B        0x46a ; __aeabi_dmul + 122
        0x00000468:    2303        .#      MOVS     r3,#3
        0x0000046a:    469c        .F      MOV      r12,r3
        0x0000046c:    1ac1        ..      SUBS     r1,r0,r3
        0x0000046e:    ae0a        ..      ADD      r6,sp,#0x28
        0x00000470:    e00a        ..      B        0x488 ; __aeabi_dmul + 152
        0x00000472:    005f        _.      LSLS     r7,r3,#1
        0x00000474:    ad08        ..      ADD      r5,sp,#0x20
        0x00000476:    5bed        .[      LDRH     r5,[r5,r7]
        0x00000478:    004f        O.      LSLS     r7,r1,#1
        0x0000047a:    5bf7        .[      LDRH     r7,[r6,r7]
        0x0000047c:    437d        }C      MULS     r5,r7,r5
        0x0000047e:    2700        .'      MOVS     r7,#0
        0x00000480:    18aa        ..      ADDS     r2,r5,r2
        0x00000482:    417c        |A      ADCS     r4,r4,r7
        0x00000484:    1c49        I.      ADDS     r1,r1,#1
        0x00000486:    1e5b        [.      SUBS     r3,r3,#1
        0x00000488:    4561        aE      CMP      r1,r12
        0x0000048a:    ddf2        ..      BLE      0x472 ; __aeabi_dmul + 130
        0x0000048c:    0041        A.      LSLS     r1,r0,#1
        0x0000048e:    ab04        ..      ADD      r3,sp,#0x10
        0x00000490:    525a        ZR      STRH     r2,[r3,r1]
        0x00000492:    0421        !.      LSLS     r1,r4,#16
        0x00000494:    0c12        ..      LSRS     r2,r2,#16
        0x00000496:    430a        .C      ORRS     r2,r2,r1
        0x00000498:    0c24        $.      LSRS     r4,r4,#16
        0x0000049a:    1c40        @.      ADDS     r0,r0,#1
        0x0000049c:    2808        .(      CMP      r0,#8
        0x0000049e:    dbdf        ..      BLT      0x460 ; __aeabi_dmul + 112
        0x000004a0:    9801        ..      LDR      r0,[sp,#4]
        0x000004a2:    9002        ..      STR      r0,[sp,#8]
        0x000004a4:    9900        ..      LDR      r1,[sp,#0]
        0x000004a6:    4670        pF      MOV      r0,lr
        0x000004a8:    9101        ..      STR      r1,[sp,#4]
        0x000004aa:    9000        ..      STR      r0,[sp,#0]
        0x000004ac:    9b05        ..      LDR      r3,[sp,#0x14]
        0x000004ae:    9a04        ..      LDR      r2,[sp,#0x10]
        0x000004b0:    9907        ..      LDR      r1,[sp,#0x1c]
        0x000004b2:    9806        ..      LDR      r0,[sp,#0x18]
        0x000004b4:    f000f984    ....    BL       _double_epilogue ; 0x7c0
        0x000004b8:    e7d0        ..      B        0x45c ; __aeabi_dmul + 108
    $d
        0x000004ba:    0000        ..      DCW    0
        0x000004bc:    fffffc0d    ....    DCD    4294966285
    $t
    .text
    __aeabi_ddiv
        0x000004c0:    b5f0        ..      PUSH     {r4-r7,lr}
        0x000004c2:    460c        .F      MOV      r4,r1
        0x000004c4:    405c        \@      EORS     r4,r4,r3
        0x000004c6:    b085        ..      SUB      sp,sp,#0x14
        0x000004c8:    0fe4        ..      LSRS     r4,r4,#31
        0x000004ca:    07e4        ..      LSLS     r4,r4,#31
        0x000004cc:    9403        ..      STR      r4,[sp,#0xc]
        0x000004ce:    004c        L.      LSLS     r4,r1,#1
        0x000004d0:    2600        .&      MOVS     r6,#0
        0x000004d2:    0864        d.      LSRS     r4,r4,#1
        0x000004d4:    0059        Y.      LSLS     r1,r3,#1
        0x000004d6:    4694        .F      MOV      r12,r2
        0x000004d8:    0849        I.      LSRS     r1,r1,#1
        0x000004da:    4602        .F      MOV      r2,r0
        0x000004dc:    9602        ..      STR      r6,[sp,#8]
        0x000004de:    4322        "C      ORRS     r2,r2,r4
        0x000004e0:    d021        !.      BEQ      0x526 ; __aeabi_ddiv + 102
        0x000004e2:    4662        bF      MOV      r2,r12
        0x000004e4:    430a        .C      ORRS     r2,r2,r1
        0x000004e6:    d01e        ..      BEQ      0x526 ; __aeabi_ddiv + 102
        0x000004e8:    0062        b.      LSLS     r2,r4,#1
        0x000004ea:    0d57        W.      LSRS     r7,r2,#21
        0x000004ec:    004a        J.      LSLS     r2,r1,#1
        0x000004ee:    030e        ..      LSLS     r6,r1,#12
        0x000004f0:    0323        #.      LSLS     r3,r4,#12
        0x000004f2:    0d55        U.      LSRS     r5,r2,#21
        0x000004f4:    2401        .$      MOVS     r4,#1
        0x000004f6:    4602        .F      MOV      r2,r0
        0x000004f8:    492c        ,I      LDR      r1,[pc,#176] ; [0x5ac] = 0x3fd
        0x000004fa:    0524        $.      LSLS     r4,r4,#20
        0x000004fc:    1b78        x.      SUBS     r0,r7,r5
        0x000004fe:    0b1b        ..      LSRS     r3,r3,#12
        0x00000500:    0b36        6.      LSRS     r6,r6,#12
        0x00000502:    1840        @.      ADDS     r0,r0,r1
        0x00000504:    4323        #C      ORRS     r3,r3,r4
        0x00000506:    4326        &C      ORRS     r6,r6,r4
        0x00000508:    4661        aF      MOV      r1,r12
        0x0000050a:    9000        ..      STR      r0,[sp,#0]
        0x0000050c:    461c        .F      MOV      r4,r3
        0x0000050e:    1a50        P.      SUBS     r0,r2,r1
        0x00000510:    41b4        .A      SBCS     r4,r4,r6
        0x00000512:    d303        ..      BCC      0x51c ; __aeabi_ddiv + 92
        0x00000514:    9800        ..      LDR      r0,[sp,#0]
        0x00000516:    1c40        @.      ADDS     r0,r0,#1
        0x00000518:    9000        ..      STR      r0,[sp,#0]
        0x0000051a:    e002        ..      B        0x522 ; __aeabi_ddiv + 98
        0x0000051c:    1892        ..      ADDS     r2,r2,r2
        0x0000051e:    9800        ..      LDR      r0,[sp,#0]
        0x00000520:    415b        [A      ADCS     r3,r3,r3
        0x00000522:    2800        .(      CMP      r0,#0
        0x00000524:    da03        ..      BGE      0x52e ; __aeabi_ddiv + 110
        0x00000526:    2000        .       MOVS     r0,#0
        0x00000528:    4601        .F      MOV      r1,r0
        0x0000052a:    b005        ..      ADD      sp,sp,#0x14
        0x0000052c:    bdf0        ..      POP      {r4-r7,pc}
        0x0000052e:    2000        .       MOVS     r0,#0
        0x00000530:    2101        .!      MOVS     r1,#1
        0x00000532:    0509        ..      LSLS     r1,r1,#20
        0x00000534:    4607        .F      MOV      r7,r0
        0x00000536:    4686        .F      MOV      lr,r0
        0x00000538:    e011        ..      B        0x55e ; __aeabi_ddiv + 158
        0x0000053a:    4664        dF      MOV      r4,r12
        0x0000053c:    461d        .F      MOV      r5,r3
        0x0000053e:    1b14        ..      SUBS     r4,r2,r4
        0x00000540:    41b5        .A      SBCS     r5,r5,r6
        0x00000542:    d306        ..      BCC      0x552 ; __aeabi_ddiv + 146
        0x00000544:    4665        eF      MOV      r5,r12
        0x00000546:    1b52        R.      SUBS     r2,r2,r5
        0x00000548:    41b3        .A      SBCS     r3,r3,r6
        0x0000054a:    4674        tF      MOV      r4,lr
        0x0000054c:    4307        .C      ORRS     r7,r7,r0
        0x0000054e:    430c        .C      ORRS     r4,r4,r1
        0x00000550:    46a6        .F      MOV      lr,r4
        0x00000552:    07cd        ..      LSLS     r5,r1,#31
        0x00000554:    0840        @.      LSRS     r0,r0,#1
        0x00000556:    0849        I.      LSRS     r1,r1,#1
        0x00000558:    4328        (C      ORRS     r0,r0,r5
        0x0000055a:    1892        ..      ADDS     r2,r2,r2
        0x0000055c:    415b        [A      ADCS     r3,r3,r3
        0x0000055e:    4605        .F      MOV      r5,r0
        0x00000560:    430d        .C      ORRS     r5,r5,r1
        0x00000562:    d1ea        ..      BNE      0x53a ; __aeabi_ddiv + 122
        0x00000564:    4610        .F      MOV      r0,r2
        0x00000566:    4318        .C      ORRS     r0,r0,r3
        0x00000568:    d013        ..      BEQ      0x592 ; __aeabi_ddiv + 210
        0x0000056a:    4660        `F      MOV      r0,r12
        0x0000056c:    4619        .F      MOV      r1,r3
        0x0000056e:    4050        P@      EORS     r0,r0,r2
        0x00000570:    4071        q@      EORS     r1,r1,r6
        0x00000572:    4308        .C      ORRS     r0,r0,r1
        0x00000574:    d006        ..      BEQ      0x584 ; __aeabi_ddiv + 196
        0x00000576:    4660        `F      MOV      r0,r12
        0x00000578:    1a10        ..      SUBS     r0,r2,r0
        0x0000057a:    41b3        .A      SBCS     r3,r3,r6
        0x0000057c:    d206        ..      BCS      0x58c ; __aeabi_ddiv + 204
        0x0000057e:    2201        ."      MOVS     r2,#1
        0x00000580:    2300        .#      MOVS     r3,#0
        0x00000582:    e006        ..      B        0x592 ; __aeabi_ddiv + 210
        0x00000584:    2200        ."      MOVS     r2,#0
        0x00000586:    2301        .#      MOVS     r3,#1
        0x00000588:    07db        ..      LSLS     r3,r3,#31
        0x0000058a:    e002        ..      B        0x592 ; __aeabi_ddiv + 210
        0x0000058c:    2201        ."      MOVS     r2,#1
        0x0000058e:    43d2        .C      MVNS     r2,r2
        0x00000590:    1053        S.      ASRS     r3,r2,#1
        0x00000592:    9800        ..      LDR      r0,[sp,#0]
        0x00000594:    4674        tF      MOV      r4,lr
        0x00000596:    0501        ..      LSLS     r1,r0,#20
        0x00000598:    1c38        8.      ADDS     r0,r7,#0
        0x0000059a:    4161        aA      ADCS     r1,r1,r4
        0x0000059c:    9c02        ..      LDR      r4,[sp,#8]
        0x0000059e:    9d03        ..      LDR      r5,[sp,#0xc]
        0x000005a0:    1900        ..      ADDS     r0,r0,r4
        0x000005a2:    4169        iA      ADCS     r1,r1,r5
        0x000005a4:    f000f8ff    ....    BL       _double_round ; 0x7a6
        0x000005a8:    e7bf        ..      B        0x52a ; __aeabi_ddiv + 106
    $d
        0x000005aa:    0000        ..      DCW    0
        0x000005ac:    000003fd    ....    DCD    1021
    $t
    .text
    __aeabi_ui2f
        0x000005b0:    b510        ..      PUSH     {r4,lr}
        0x000005b2:    2200        ."      MOVS     r2,#0
        0x000005b4:    2396        .#      MOVS     r3,#0x96
        0x000005b6:    4611        .F      MOV      r1,r2
        0x000005b8:    f000f8bc    ....    BL       _float_epilogue ; 0x734
        0x000005bc:    bd10        ..      POP      {r4,pc}
    .text
    __aeabi_f2d
        0x000005be:    0fc2        ..      LSRS     r2,r0,#31
        0x000005c0:    07d2        ..      LSLS     r2,r2,#31
        0x000005c2:    0040        @.      LSLS     r0,r0,#1
        0x000005c4:    0840        @.      LSRS     r0,r0,#1
        0x000005c6:    d00b        ..      BEQ      0x5e0 ; __aeabi_f2d + 34
        0x000005c8:    0dc1        ..      LSRS     r1,r0,#23
        0x000005ca:    2307        .#      MOVS     r3,#7
        0x000005cc:    01db        ..      LSLS     r3,r3,#7
        0x000005ce:    18c9        ..      ADDS     r1,r1,r3
        0x000005d0:    0240        @.      LSLS     r0,r0,#9
        0x000005d2:    0509        ..      LSLS     r1,r1,#20
        0x000005d4:    0a40        @.      LSRS     r0,r0,#9
        0x000005d6:    4311        .C      ORRS     r1,r1,r2
        0x000005d8:    08c2        ..      LSRS     r2,r0,#3
        0x000005da:    0740        @.      LSLS     r0,r0,#29
        0x000005dc:    4311        .C      ORRS     r1,r1,r2
        0x000005de:    4770        pG      BX       lr
        0x000005e0:    2000        .       MOVS     r0,#0
        0x000005e2:    4601        .F      MOV      r1,r0
        0x000005e4:    4770        pG      BX       lr
        0x000005e6:    0000        ..      MOVS     r0,r0
    .text
    __aeabi_cdcmpeq
    __aeabi_cdcmple
        0x000005e8:    b510        ..      PUSH     {r4,lr}
        0x000005ea:    2900        .)      CMP      r1,#0
        0x000005ec:    db04        ..      BLT      0x5f8 ; __aeabi_cdcmpeq + 16
        0x000005ee:    2401        .$      MOVS     r4,#1
        0x000005f0:    07e4        ..      LSLS     r4,r4,#31
        0x000005f2:    4240        @B      RSBS     r0,r0,#0
        0x000005f4:    418c        .A      SBCS     r4,r4,r1
        0x000005f6:    4621        !F      MOV      r1,r4
        0x000005f8:    2b00        .+      CMP      r3,#0
        0x000005fa:    db04        ..      BLT      0x606 ; __aeabi_cdcmpeq + 30
        0x000005fc:    461c        .F      MOV      r4,r3
        0x000005fe:    2301        .#      MOVS     r3,#1
        0x00000600:    07db        ..      LSLS     r3,r3,#31
        0x00000602:    4252        RB      RSBS     r2,r2,#0
        0x00000604:    41a3        .A      SBCS     r3,r3,r4
        0x00000606:    428b        .B      CMP      r3,r1
        0x00000608:    d100        ..      BNE      0x60c ; __aeabi_cdcmpeq + 36
        0x0000060a:    4282        .B      CMP      r2,r0
        0x0000060c:    bd10        ..      POP      {r4,pc}
    $d
        0x0000060e:    0000        ..      DCW    0
    $t
    .text
    __aeabi_cdrcmple
        0x00000610:    b510        ..      PUSH     {r4,lr}
        0x00000612:    2900        .)      CMP      r1,#0
        0x00000614:    db04        ..      BLT      0x620 ; __aeabi_cdrcmple + 16
        0x00000616:    2401        .$      MOVS     r4,#1
        0x00000618:    07e4        ..      LSLS     r4,r4,#31
        0x0000061a:    4240        @B      RSBS     r0,r0,#0
        0x0000061c:    418c        .A      SBCS     r4,r4,r1
        0x0000061e:    4621        !F      MOV      r1,r4
        0x00000620:    2b00        .+      CMP      r3,#0
        0x00000622:    db04        ..      BLT      0x62e ; __aeabi_cdrcmple + 30
        0x00000624:    461c        .F      MOV      r4,r3
        0x00000626:    2301        .#      MOVS     r3,#1
        0x00000628:    07db        ..      LSLS     r3,r3,#31
        0x0000062a:    4252        RB      RSBS     r2,r2,#0
        0x0000062c:    41a3        .A      SBCS     r3,r3,r4
        0x0000062e:    4299        .B      CMP      r1,r3
        0x00000630:    d100        ..      BNE      0x634 ; __aeabi_cdrcmple + 36
        0x00000632:    4290        .B      CMP      r0,r2
        0x00000634:    bd10        ..      POP      {r4,pc}
    $d
        0x00000636:    0000        ..      DCW    0
    $t
    .text
    __aeabi_d2f
        0x00000638:    0fcb        ..      LSRS     r3,r1,#31
        0x0000063a:    07db        ..      LSLS     r3,r3,#31
        0x0000063c:    0049        I.      LSLS     r1,r1,#1
        0x0000063e:    b510        ..      PUSH     {r4,lr}
        0x00000640:    0849        I.      LSRS     r1,r1,#1
        0x00000642:    4602        .F      MOV      r2,r0
        0x00000644:    430a        .C      ORRS     r2,r2,r1
        0x00000646:    d007        ..      BEQ      0x658 ; __aeabi_d2f + 32
        0x00000648:    0d0a        ..      LSRS     r2,r1,#20
        0x0000064a:    2407        .$      MOVS     r4,#7
        0x0000064c:    0309        ..      LSLS     r1,r1,#12
        0x0000064e:    01e4        ..      LSLS     r4,r4,#7
        0x00000650:    0b09        ..      LSRS     r1,r1,#12
        0x00000652:    1b12        ..      SUBS     r2,r2,r4
        0x00000654:    2a00        .*      CMP      r2,#0
        0x00000656:    dc01        ..      BGT      0x65c ; __aeabi_d2f + 36
        0x00000658:    2000        .       MOVS     r0,#0
        0x0000065a:    bd10        ..      POP      {r4,pc}
        0x0000065c:    00c9        ..      LSLS     r1,r1,#3
        0x0000065e:    0f44        D.      LSRS     r4,r0,#29
        0x00000660:    430c        .C      ORRS     r4,r4,r1
        0x00000662:    00c1        ..      LSLS     r1,r0,#3
        0x00000664:    18e0        ..      ADDS     r0,r4,r3
        0x00000666:    05d2        ..      LSLS     r2,r2,#23
        0x00000668:    1880        ..      ADDS     r0,r0,r2
        0x0000066a:    f000f85b    ..[.    BL       __I$use$fp ; 0x724
        0x0000066e:    bd10        ..      POP      {r4,pc}
    .text
    __aeabi_llsl
    _ll_shift_l
        0x00000670:    b510        ..      PUSH     {r4,lr}
        0x00000672:    2a20         *      CMP      r2,#0x20
        0x00000674:    db04        ..      BLT      0x680 ; __aeabi_llsl + 16
        0x00000676:    4601        .F      MOV      r1,r0
        0x00000678:    3a20         :      SUBS     r2,r2,#0x20
        0x0000067a:    4091        .@      LSLS     r1,r1,r2
        0x0000067c:    2000        .       MOVS     r0,#0
        0x0000067e:    bd10        ..      POP      {r4,pc}
        0x00000680:    4091        .@      LSLS     r1,r1,r2
        0x00000682:    2320         #      MOVS     r3,#0x20
        0x00000684:    1a9c        ..      SUBS     r4,r3,r2
        0x00000686:    4603        .F      MOV      r3,r0
        0x00000688:    40e3        .@      LSRS     r3,r3,r4
        0x0000068a:    4319        .C      ORRS     r1,r1,r3
        0x0000068c:    4090        .@      LSLS     r0,r0,r2
        0x0000068e:    bd10        ..      POP      {r4,pc}
    .text
    __aeabi_llsr
    _ll_ushift_r
        0x00000690:    b510        ..      PUSH     {r4,lr}
        0x00000692:    2a20         *      CMP      r2,#0x20
        0x00000694:    db04        ..      BLT      0x6a0 ; __aeabi_llsr + 16
        0x00000696:    4608        .F      MOV      r0,r1
        0x00000698:    3a20         :      SUBS     r2,r2,#0x20
        0x0000069a:    40d0        .@      LSRS     r0,r0,r2
        0x0000069c:    2100        .!      MOVS     r1,#0
        0x0000069e:    bd10        ..      POP      {r4,pc}
        0x000006a0:    460b        .F      MOV      r3,r1
        0x000006a2:    40d3        .@      LSRS     r3,r3,r2
        0x000006a4:    40d0        .@      LSRS     r0,r0,r2
        0x000006a6:    2420         $      MOVS     r4,#0x20
        0x000006a8:    1aa2        ..      SUBS     r2,r4,r2
        0x000006aa:    4091        .@      LSLS     r1,r1,r2
        0x000006ac:    4308        .C      ORRS     r0,r0,r1
        0x000006ae:    4619        .F      MOV      r1,r3
        0x000006b0:    bd10        ..      POP      {r4,pc}
        0x000006b2:    0000        ..      MOVS     r0,r0
    .text
    strtol
        0x000006b4:    b5f7        ..      PUSH     {r0-r2,r4-r7,lr}
        0x000006b6:    9c00        ..      LDR      r4,[sp,#0]
        0x000006b8:    460f        .F      MOV      r7,r1
        0x000006ba:    2600        .&      MOVS     r6,#0
        0x000006bc:    7825        %x      LDRB     r5,[r4,#0]
        0x000006be:    1c64        d.      ADDS     r4,r4,#1
        0x000006c0:    2d00        .-      CMP      r5,#0
        0x000006c2:    d005        ..      BEQ      0x6d0 ; strtol + 28
        0x000006c4:    f000f9c6    ....    BL       __rt_ctype_table ; 0xa54
        0x000006c8:    6800        .h      LDR      r0,[r0,#0]
        0x000006ca:    5d40        @]      LDRB     r0,[r0,r5]
        0x000006cc:    07c0        ..      LSLS     r0,r0,#31
        0x000006ce:    d1f5        ..      BNE      0x6bc ; strtol + 8
        0x000006d0:    2d2b        +-      CMP      r5,#0x2b
        0x000006d2:    d002        ..      BEQ      0x6da ; strtol + 38
        0x000006d4:    2d2d        --      CMP      r5,#0x2d
        0x000006d6:    d018        ..      BEQ      0x70a ; strtol + 86
        0x000006d8:    1e64        d.      SUBS     r4,r4,#1
        0x000006da:    4639        9F      MOV      r1,r7
        0x000006dc:    4620         F      MOV      r0,r4
        0x000006de:    9a02        ..      LDR      r2,[sp,#8]
        0x000006e0:    f000f9bc    ....    BL       _strtoul ; 0xa5c
        0x000006e4:    2f00        ./      CMP      r7,#0
        0x000006e6:    d004        ..      BEQ      0x6f2 ; strtol + 62
        0x000006e8:    6839        9h      LDR      r1,[r7,#0]
        0x000006ea:    42a1        .B      CMP      r1,r4
        0x000006ec:    d101        ..      BNE      0x6f2 ; strtol + 62
        0x000006ee:    9900        ..      LDR      r1,[sp,#0]
        0x000006f0:    6039        9`      STR      r1,[r7,#0]
        0x000006f2:    0571        q.      LSLS     r1,r6,#21
        0x000006f4:    2402        .$      MOVS     r4,#2
        0x000006f6:    2900        .)      CMP      r1,#0
        0x000006f8:    da0b        ..      BGE      0x712 ; strtol + 94
        0x000006fa:    4240        @B      RSBS     r0,r0,#0
        0x000006fc:    2800        .(      CMP      r0,#0
        0x000006fe:    dd03        ..      BLE      0x708 ; strtol + 84
        0x00000700:    f002faa4    ....    BL       __aeabi_errno_addr ; 0x2c4c
        0x00000704:    6004        .`      STR      r4,[r0,#0]
        0x00000706:    07a0        ..      LSLS     r0,r4,#30
        0x00000708:    bdfe        ..      POP      {r1-r7,pc}
        0x0000070a:    2001        .       MOVS     r0,#1
        0x0000070c:    0280        ..      LSLS     r0,r0,#10
        0x0000070e:    4306        .C      ORRS     r6,r6,r0
        0x00000710:    e7e3        ..      B        0x6da ; strtol + 38
        0x00000712:    2800        .(      CMP      r0,#0
        0x00000714:    daf8        ..      BGE      0x708 ; strtol + 84
        0x00000716:    f002fa99    ....    BL       __aeabi_errno_addr ; 0x2c4c
        0x0000071a:    6004        .`      STR      r4,[r0,#0]
        0x0000071c:    4800        .H      LDR      r0,[pc,#0] ; [0x720] = 0x7fffffff
        0x0000071e:    bdfe        ..      POP      {r1-r7,pc}
    $d
        0x00000720:    7fffffff    ....    DCD    2147483647
    $t
    .text
    .text
    __I$use$fp
    _float_round
        0x00000724:    2900        .)      CMP      r1,#0
        0x00000726:    da04        ..      BGE      0x732 ; __I$use$fp + 14
        0x00000728:    1c40        @.      ADDS     r0,r0,#1
        0x0000072a:    0049        I.      LSLS     r1,r1,#1
        0x0000072c:    d101        ..      BNE      0x732 ; __I$use$fp + 14
        0x0000072e:    0840        @.      LSRS     r0,r0,#1
        0x00000730:    0040        @.      LSLS     r0,r0,#1
        0x00000732:    4770        pG      BX       lr
    _float_epilogue
        0x00000734:    b470        p.      PUSH     {r4-r6}
        0x00000736:    2400        .$      MOVS     r4,#0
        0x00000738:    0c05        ..      LSRS     r5,r0,#16
        0x0000073a:    d105        ..      BNE      0x748 ; _float_epilogue + 20
        0x0000073c:    2410        .$      MOVS     r4,#0x10
        0x0000073e:    0400        ..      LSLS     r0,r0,#16
        0x00000740:    d102        ..      BNE      0x748 ; _float_epilogue + 20
        0x00000742:    2900        .)      CMP      r1,#0
        0x00000744:    d021        !.      BEQ      0x78a ; _float_epilogue + 86
        0x00000746:    2411        .$      MOVS     r4,#0x11
        0x00000748:    0e05        ..      LSRS     r5,r0,#24
        0x0000074a:    d101        ..      BNE      0x750 ; _float_epilogue + 28
        0x0000074c:    0200        ..      LSLS     r0,r0,#8
        0x0000074e:    3408        .4      ADDS     r4,r4,#8
        0x00000750:    0f05        ..      LSRS     r5,r0,#28
        0x00000752:    d101        ..      BNE      0x758 ; _float_epilogue + 36
        0x00000754:    0100        ..      LSLS     r0,r0,#4
        0x00000756:    1d24        $.      ADDS     r4,r4,#4
        0x00000758:    0f85        ..      LSRS     r5,r0,#30
        0x0000075a:    d101        ..      BNE      0x760 ; _float_epilogue + 44
        0x0000075c:    0080        ..      LSLS     r0,r0,#2
        0x0000075e:    1ca4        ..      ADDS     r4,r4,#2
        0x00000760:    2800        .(      CMP      r0,#0
        0x00000762:    db01        ..      BLT      0x768 ; _float_epilogue + 52
        0x00000764:    0040        @.      LSLS     r0,r0,#1
        0x00000766:    1c64        d.      ADDS     r4,r4,#1
        0x00000768:    2900        .)      CMP      r1,#0
        0x0000076a:    d008        ..      BEQ      0x77e ; _float_epilogue + 74
        0x0000076c:    2520         %      MOVS     r5,#0x20
        0x0000076e:    1b2e        ..      SUBS     r6,r5,r4
        0x00000770:    460d        .F      MOV      r5,r1
        0x00000772:    40f5        .@      LSRS     r5,r5,r6
        0x00000774:    40a1        .@      LSLS     r1,r1,r4
        0x00000776:    d000        ..      BEQ      0x77a ; _float_epilogue + 70
        0x00000778:    2101        .!      MOVS     r1,#1
        0x0000077a:    4329        )C      ORRS     r1,r1,r5
        0x0000077c:    4308        .C      ORRS     r0,r0,r1
        0x0000077e:    0601        ..      LSLS     r1,r0,#24
        0x00000780:    1b1b        ..      SUBS     r3,r3,r4
        0x00000782:    0a00        ..      LSRS     r0,r0,#8
        0x00000784:    1ddb        ..      ADDS     r3,r3,#7
        0x00000786:    d502        ..      BPL      0x78e ; _float_epilogue + 90
        0x00000788:    2000        .       MOVS     r0,#0
        0x0000078a:    bc70        p.      POP      {r4-r6}
        0x0000078c:    4770        pG      BX       lr
        0x0000078e:    05db        ..      LSLS     r3,r3,#23
        0x00000790:    1818        ..      ADDS     r0,r3,r0
        0x00000792:    1880        ..      ADDS     r0,r0,r2
        0x00000794:    2900        .)      CMP      r1,#0
        0x00000796:    daf8        ..      BGE      0x78a ; _float_epilogue + 86
        0x00000798:    1c40        @.      ADDS     r0,r0,#1
        0x0000079a:    0049        I.      LSLS     r1,r1,#1
        0x0000079c:    d1f5        ..      BNE      0x78a ; _float_epilogue + 86
        0x0000079e:    bc70        p.      POP      {r4-r6}
        0x000007a0:    0840        @.      LSRS     r0,r0,#1
        0x000007a2:    0040        @.      LSLS     r0,r0,#1
        0x000007a4:    4770        pG      BX       lr
    .text
    _double_round
        0x000007a6:    b510        ..      PUSH     {r4,lr}
        0x000007a8:    2b00        .+      CMP      r3,#0
        0x000007aa:    da08        ..      BGE      0x7be ; _double_round + 24
        0x000007ac:    2400        .$      MOVS     r4,#0
        0x000007ae:    1c40        @.      ADDS     r0,r0,#1
        0x000007b0:    4161        aA      ADCS     r1,r1,r4
        0x000007b2:    1892        ..      ADDS     r2,r2,r2
        0x000007b4:    415b        [A      ADCS     r3,r3,r3
        0x000007b6:    431a        .C      ORRS     r2,r2,r3
        0x000007b8:    d101        ..      BNE      0x7be ; _double_round + 24
        0x000007ba:    0840        @.      LSRS     r0,r0,#1
        0x000007bc:    0040        @.      LSLS     r0,r0,#1
        0x000007be:    bd10        ..      POP      {r4,pc}
    _double_epilogue
        0x000007c0:    b5f0        ..      PUSH     {r4-r7,lr}
        0x000007c2:    b41f        ..      PUSH     {r0-r4}
        0x000007c4:    b082        ..      SUB      sp,sp,#8
        0x000007c6:    4605        .F      MOV      r5,r0
        0x000007c8:    000c        ..      MOVS     r4,r1
        0x000007ca:    d003        ..      BEQ      0x7d4 ; _double_epilogue + 20
        0x000007cc:    4608        .F      MOV      r0,r1
        0x000007ce:    f002fa01    ....    BL       __ARM_clz ; 0x2bd4
        0x000007d2:    e002        ..      B        0x7da ; _double_epilogue + 26
        0x000007d4:    f002f9fe    ....    BL       __ARM_clz ; 0x2bd4
        0x000007d8:    3020         0      ADDS     r0,r0,#0x20
        0x000007da:    4602        .F      MOV      r2,r0
        0x000007dc:    9000        ..      STR      r0,[sp,#0]
        0x000007de:    4621        !F      MOV      r1,r4
        0x000007e0:    4628        (F      MOV      r0,r5
        0x000007e2:    f7ffff45    ..E.    BL       __aeabi_llsl ; 0x670
        0x000007e6:    9b04        ..      LDR      r3,[sp,#0x10]
        0x000007e8:    9a05        ..      LDR      r2,[sp,#0x14]
        0x000007ea:    4604        .F      MOV      r4,r0
        0x000007ec:    460f        .F      MOV      r7,r1
        0x000007ee:    4318        .C      ORRS     r0,r0,r3
        0x000007f0:    4311        .C      ORRS     r1,r1,r2
        0x000007f2:    4308        .C      ORRS     r0,r0,r1
        0x000007f4:    d014        ..      BEQ      0x820 ; _double_epilogue + 96
        0x000007f6:    4618        .F      MOV      r0,r3
        0x000007f8:    4310        .C      ORRS     r0,r0,r2
        0x000007fa:    d01b        ..      BEQ      0x834 ; _double_epilogue + 116
        0x000007fc:    9800        ..      LDR      r0,[sp,#0]
        0x000007fe:    2140        @!      MOVS     r1,#0x40
        0x00000800:    1a0a        ..      SUBS     r2,r1,r0
        0x00000802:    4618        .F      MOV      r0,r3
        0x00000804:    9905        ..      LDR      r1,[sp,#0x14]
        0x00000806:    f7ffff43    ..C.    BL       __aeabi_llsr ; 0x690
        0x0000080a:    4605        .F      MOV      r5,r0
        0x0000080c:    460e        .F      MOV      r6,r1
        0x0000080e:    9a00        ..      LDR      r2,[sp,#0]
        0x00000810:    9905        ..      LDR      r1,[sp,#0x14]
        0x00000812:    9804        ..      LDR      r0,[sp,#0x10]
        0x00000814:    f7ffff2c    ..,.    BL       __aeabi_llsl ; 0x670
        0x00000818:    4308        .C      ORRS     r0,r0,r1
        0x0000081a:    d005        ..      BEQ      0x828 ; _double_epilogue + 104
        0x0000081c:    2001        .       MOVS     r0,#1
        0x0000081e:    e004        ..      B        0x82a ; _double_epilogue + 106
        0x00000820:    4620         F      MOV      r0,r4
        0x00000822:    4639        9F      MOV      r1,r7
        0x00000824:    b007        ..      ADD      sp,sp,#0x1c
        0x00000826:    bdf0        ..      POP      {r4-r7,pc}
        0x00000828:    2000        .       MOVS     r0,#0
        0x0000082a:    17c1        ..      ASRS     r1,r0,#31
        0x0000082c:    4305        .C      ORRS     r5,r5,r0
        0x0000082e:    430e        .C      ORRS     r6,r6,r1
        0x00000830:    432c        ,C      ORRS     r4,r4,r5
        0x00000832:    4337        7C      ORRS     r7,r7,r6
        0x00000834:    9900        ..      LDR      r1,[sp,#0]
        0x00000836:    980e        ..      LDR      r0,[sp,#0x38]
        0x00000838:    0563        c.      LSLS     r3,r4,#21
        0x0000083a:    1a40        @.      SUBS     r0,r0,r1
        0x0000083c:    0579        y.      LSLS     r1,r7,#21
        0x0000083e:    0ae4        ..      LSRS     r4,r4,#11
        0x00000840:    2200        ."      MOVS     r2,#0
        0x00000842:    430c        .C      ORRS     r4,r4,r1
        0x00000844:    0afd        ..      LSRS     r5,r7,#11
        0x00000846:    300a        .0      ADDS     r0,r0,#0xa
        0x00000848:    d502        ..      BPL      0x850 ; _double_epilogue + 144
        0x0000084a:    2000        .       MOVS     r0,#0
        0x0000084c:    4601        .F      MOV      r1,r0
        0x0000084e:    e7e9        ..      B        0x824 ; _double_epilogue + 100
        0x00000850:    0501        ..      LSLS     r1,r0,#20
        0x00000852:    1910        ..      ADDS     r0,r2,r4
        0x00000854:    4169        iA      ADCS     r1,r1,r5
        0x00000856:    9c0c        ..      LDR      r4,[sp,#0x30]
        0x00000858:    9d0d        ..      LDR      r5,[sp,#0x34]
        0x0000085a:    1900        ..      ADDS     r0,r0,r4
        0x0000085c:    4169        iA      ADCS     r1,r1,r5
        0x0000085e:    f7ffffa2    ....    BL       _double_round ; 0x7a6
        0x00000862:    e7df        ..      B        0x824 ; _double_epilogue + 100
    .text
    __aeabi_dadd
        0x00000864:    b5f0        ..      PUSH     {r4-r7,lr}
        0x00000866:    4607        .F      MOV      r7,r0
        0x00000868:    4608        .F      MOV      r0,r1
        0x0000086a:    4058        X@      EORS     r0,r0,r3
        0x0000086c:    b087        ..      SUB      sp,sp,#0x1c
        0x0000086e:    0fc0        ..      LSRS     r0,r0,#31
        0x00000870:    9004        ..      STR      r0,[sp,#0x10]
        0x00000872:    0048        H.      LSLS     r0,r1,#1
        0x00000874:    460e        .F      MOV      r6,r1
        0x00000876:    0059        Y.      LSLS     r1,r3,#1
        0x00000878:    0840        @.      LSRS     r0,r0,#1
        0x0000087a:    0849        I.      LSRS     r1,r1,#1
        0x0000087c:    1abc        ..      SUBS     r4,r7,r2
        0x0000087e:    4188        .A      SBCS     r0,r0,r1
        0x00000880:    d205        ..      BCS      0x88e ; __aeabi_dadd + 42
        0x00000882:    4638        8F      MOV      r0,r7
        0x00000884:    4631        1F      MOV      r1,r6
        0x00000886:    461e        .F      MOV      r6,r3
        0x00000888:    4617        .F      MOV      r7,r2
        0x0000088a:    460b        .F      MOV      r3,r1
        0x0000088c:    4602        .F      MOV      r2,r0
        0x0000088e:    0058        X.      LSLS     r0,r3,#1
        0x00000890:    0840        @.      LSRS     r0,r0,#1
        0x00000892:    4310        .C      ORRS     r0,r0,r2
        0x00000894:    d04c        L.      BEQ      0x930 ; __aeabi_dadd + 204
        0x00000896:    0d30        0.      LSRS     r0,r6,#20
        0x00000898:    9003        ..      STR      r0,[sp,#0xc]
        0x0000089a:    0540        @.      LSLS     r0,r0,#21
        0x0000089c:    0059        Y.      LSLS     r1,r3,#1
        0x0000089e:    0d40        @.      LSRS     r0,r0,#21
        0x000008a0:    0d49        I.      LSRS     r1,r1,#21
        0x000008a2:    9005        ..      STR      r0,[sp,#0x14]
        0x000008a4:    1a40        @.      SUBS     r0,r0,r1
        0x000008a6:    9002        ..      STR      r0,[sp,#8]
        0x000008a8:    2840        @(      CMP      r0,#0x40
        0x000008aa:    da72        r.      BGE      0x992 ; __aeabi_dadd + 302
        0x000008ac:    0318        ..      LSLS     r0,r3,#12
        0x000008ae:    2101        .!      MOVS     r1,#1
        0x000008b0:    0b00        ..      LSRS     r0,r0,#12
        0x000008b2:    0509        ..      LSLS     r1,r1,#20
        0x000008b4:    4308        .C      ORRS     r0,r0,r1
        0x000008b6:    9001        ..      STR      r0,[sp,#4]
        0x000008b8:    9804        ..      LDR      r0,[sp,#0x10]
        0x000008ba:    9200        ..      STR      r2,[sp,#0]
        0x000008bc:    2800        .(      CMP      r0,#0
        0x000008be:    d005        ..      BEQ      0x8cc ; __aeabi_dadd + 104
        0x000008c0:    9901        ..      LDR      r1,[sp,#4]
        0x000008c2:    4252        RB      RSBS     r2,r2,#0
        0x000008c4:    2000        .       MOVS     r0,#0
        0x000008c6:    4188        .A      SBCS     r0,r0,r1
        0x000008c8:    9200        ..      STR      r2,[sp,#0]
        0x000008ca:    9001        ..      STR      r0,[sp,#4]
        0x000008cc:    9802        ..      LDR      r0,[sp,#8]
        0x000008ce:    2140        @!      MOVS     r1,#0x40
        0x000008d0:    1a0a        ..      SUBS     r2,r1,r0
        0x000008d2:    9901        ..      LDR      r1,[sp,#4]
        0x000008d4:    9800        ..      LDR      r0,[sp,#0]
        0x000008d6:    f7fffecb    ....    BL       __aeabi_llsl ; 0x670
        0x000008da:    4605        .F      MOV      r5,r0
        0x000008dc:    460c        .F      MOV      r4,r1
        0x000008de:    466b        kF      MOV      r3,sp
        0x000008e0:    cb07        ..      LDM      r3!,{r0-r2}
        0x000008e2:    f000f8a3    ....    BL       __aeabi_lasr ; 0xa2c
        0x000008e6:    19c0        ..      ADDS     r0,r0,r7
        0x000008e8:    4171        qA      ADCS     r1,r1,r6
        0x000008ea:    9a03        ..      LDR      r2,[sp,#0xc]
        0x000008ec:    0d0e        ..      LSRS     r6,r1,#20
        0x000008ee:    2300        .#      MOVS     r3,#0
        0x000008f0:    17d7        ..      ASRS     r7,r2,#31
        0x000008f2:    4056        V@      EORS     r6,r6,r2
        0x000008f4:    461a        .F      MOV      r2,r3
        0x000008f6:    407a        z@      EORS     r2,r2,r7
        0x000008f8:    4316        .C      ORRS     r6,r6,r2
        0x000008fa:    d044        D.      BEQ      0x986 ; __aeabi_dadd + 290
        0x000008fc:    9a04        ..      LDR      r2,[sp,#0x10]
        0x000008fe:    2a00        .*      CMP      r2,#0
        0x00000900:    d02d        -.      BEQ      0x95e ; __aeabi_dadd + 250
        0x00000902:    9a02        ..      LDR      r2,[sp,#8]
        0x00000904:    2a01        .*      CMP      r2,#1
        0x00000906:    9a03        ..      LDR      r2,[sp,#0xc]
        0x00000908:    dc15        ..      BGT      0x936 ; __aeabi_dadd + 210
        0x0000090a:    0512        ..      LSLS     r2,r2,#20
        0x0000090c:    1ac0        ..      SUBS     r0,r0,r3
        0x0000090e:    4191        .A      SBCS     r1,r1,r2
        0x00000910:    2601        .&      MOVS     r6,#1
        0x00000912:    0536        6.      LSLS     r6,r6,#20
        0x00000914:    1c00        ..      ADDS     r0,r0,#0
        0x00000916:    4171        qA      ADCS     r1,r1,r6
        0x00000918:    0fd2        ..      LSRS     r2,r2,#31
        0x0000091a:    9e05        ..      LDR      r6,[sp,#0x14]
        0x0000091c:    07d2        ..      LSLS     r2,r2,#31
        0x0000091e:    9300        ..      STR      r3,[sp,#0]
        0x00000920:    9201        ..      STR      r2,[sp,#4]
        0x00000922:    9602        ..      STR      r6,[sp,#8]
        0x00000924:    462a        *F      MOV      r2,r5
        0x00000926:    4623        #F      MOV      r3,r4
        0x00000928:    f7ffff4a    ..J.    BL       _double_epilogue ; 0x7c0
        0x0000092c:    b007        ..      ADD      sp,sp,#0x1c
        0x0000092e:    bdf0        ..      POP      {r4-r7,pc}
        0x00000930:    4638        8F      MOV      r0,r7
        0x00000932:    4631        1F      MOV      r1,r6
        0x00000934:    e7fa        ..      B        0x92c ; __aeabi_dadd + 200
        0x00000936:    0516        ..      LSLS     r6,r2,#20
        0x00000938:    4a22        "J      LDR      r2,[pc,#136] ; [0x9c4] = 0xffe00000
        0x0000093a:    460f        .F      MOV      r7,r1
        0x0000093c:    18b2        ..      ADDS     r2,r6,r2
        0x0000093e:    1ac0        ..      SUBS     r0,r0,r3
        0x00000940:    41b7        .A      SBCS     r7,r7,r6
        0x00000942:    2101        .!      MOVS     r1,#1
        0x00000944:    0509        ..      LSLS     r1,r1,#20
        0x00000946:    1c00        ..      ADDS     r0,r0,#0
        0x00000948:    414f        OA      ADCS     r7,r7,r1
        0x0000094a:    1800        ..      ADDS     r0,r0,r0
        0x0000094c:    417f        .A      ADCS     r7,r7,r7
        0x0000094e:    4611        .F      MOV      r1,r2
        0x00000950:    1818        ..      ADDS     r0,r3,r0
        0x00000952:    4179        yA      ADCS     r1,r1,r7
        0x00000954:    0fe2        ..      LSRS     r2,r4,#31
        0x00000956:    4310        .C      ORRS     r0,r0,r2
        0x00000958:    196d        m.      ADDS     r5,r5,r5
        0x0000095a:    4164        dA      ADCS     r4,r4,r4
        0x0000095c:    e013        ..      B        0x986 ; __aeabi_dadd + 290
        0x0000095e:    07e2        ..      LSLS     r2,r4,#31
        0x00000960:    086d        m.      LSRS     r5,r5,#1
        0x00000962:    4315        .C      ORRS     r5,r5,r2
        0x00000964:    0864        d.      LSRS     r4,r4,#1
        0x00000966:    07c2        ..      LSLS     r2,r0,#31
        0x00000968:    4314        .C      ORRS     r4,r4,r2
        0x0000096a:    9a03        ..      LDR      r2,[sp,#0xc]
        0x0000096c:    2601        .&      MOVS     r6,#1
        0x0000096e:    0512        ..      LSLS     r2,r2,#20
        0x00000970:    1ac0        ..      SUBS     r0,r0,r3
        0x00000972:    4191        .A      SBCS     r1,r1,r2
        0x00000974:    0536        6.      LSLS     r6,r6,#20
        0x00000976:    1c00        ..      ADDS     r0,r0,#0
        0x00000978:    4171        qA      ADCS     r1,r1,r6
        0x0000097a:    07ce        ..      LSLS     r6,r1,#31
        0x0000097c:    0840        @.      LSRS     r0,r0,#1
        0x0000097e:    4330        0C      ORRS     r0,r0,r6
        0x00000980:    0849        I.      LSRS     r1,r1,#1
        0x00000982:    18c0        ..      ADDS     r0,r0,r3
        0x00000984:    4151        QA      ADCS     r1,r1,r2
        0x00000986:    462a        *F      MOV      r2,r5
        0x00000988:    4623        #F      MOV      r3,r4
        0x0000098a:    f7ffff0c    ....    BL       _double_round ; 0x7a6
        0x0000098e:    e7cd        ..      B        0x92c ; __aeabi_dadd + 200
        0x00000990:    e7ff        ..      B        0x992 ; __aeabi_dadd + 302
        0x00000992:    9804        ..      LDR      r0,[sp,#0x10]
        0x00000994:    2201        ."      MOVS     r2,#1
        0x00000996:    0040        @.      LSLS     r0,r0,#1
        0x00000998:    17c1        ..      ASRS     r1,r0,#31
        0x0000099a:    1a12        ..      SUBS     r2,r2,r0
        0x0000099c:    2300        .#      MOVS     r3,#0
        0x0000099e:    418b        .A      SBCS     r3,r3,r1
        0x000009a0:    9804        ..      LDR      r0,[sp,#0x10]
        0x000009a2:    4631        1F      MOV      r1,r6
        0x000009a4:    17c4        ..      ASRS     r4,r0,#31
        0x000009a6:    1a38        8.      SUBS     r0,r7,r0
        0x000009a8:    41a1        .A      SBCS     r1,r1,r4
        0x000009aa:    e7ee        ..      B        0x98a ; __aeabi_dadd + 294
    __aeabi_dsub
        0x000009ac:    b430        0.      PUSH     {r4,r5}
        0x000009ae:    2401        .$      MOVS     r4,#1
        0x000009b0:    07e4        ..      LSLS     r4,r4,#31
        0x000009b2:    4063        c@      EORS     r3,r3,r4
        0x000009b4:    bc30        0.      POP      {r4,r5}
        0x000009b6:    e755        U.      B        __aeabi_dadd ; 0x864
    __aeabi_drsub
        0x000009b8:    b430        0.      PUSH     {r4,r5}
        0x000009ba:    2401        .$      MOVS     r4,#1
        0x000009bc:    07e4        ..      LSLS     r4,r4,#31
        0x000009be:    4061        a@      EORS     r1,r1,r4
        0x000009c0:    bc30        0.      POP      {r4,r5}
        0x000009c2:    e74f        O.      B        __aeabi_dadd ; 0x864
    $d
        0x000009c4:    ffe00000    ....    DCD    4292870144
    $t
    .text
    __aeabi_d2ulz
        0x000009c8:    004a        J.      LSLS     r2,r1,#1
        0x000009ca:    0309        ..      LSLS     r1,r1,#12
        0x000009cc:    2301        .#      MOVS     r3,#1
        0x000009ce:    0b09        ..      LSRS     r1,r1,#12
        0x000009d0:    051b        ..      LSLS     r3,r3,#20
        0x000009d2:    4319        .C      ORRS     r1,r1,r3
        0x000009d4:    4b0a        .K      LDR      r3,[pc,#40] ; [0xa00] = 0x3ff
        0x000009d6:    b510        ..      PUSH     {r4,lr}
        0x000009d8:    0d52        R.      LSRS     r2,r2,#21
        0x000009da:    429a        .B      CMP      r2,r3
        0x000009dc:    da02        ..      BGE      0x9e4 ; __aeabi_d2ulz + 28
        0x000009de:    2000        .       MOVS     r0,#0
        0x000009e0:    4601        .F      MOV      r1,r0
        0x000009e2:    bd10        ..      POP      {r4,pc}
        0x000009e4:    4b06        .K      LDR      r3,[pc,#24] ; [0xa00] = 0x3ff
        0x000009e6:    3334        43      ADDS     r3,r3,#0x34
        0x000009e8:    429a        .B      CMP      r2,r3
        0x000009ea:    dc03        ..      BGT      0x9f4 ; __aeabi_d2ulz + 44
        0x000009ec:    1a9a        ..      SUBS     r2,r3,r2
        0x000009ee:    f7fffe4f    ..O.    BL       __aeabi_llsr ; 0x690
        0x000009f2:    bd10        ..      POP      {r4,pc}
        0x000009f4:    4b03        .K      LDR      r3,[pc,#12] ; [0xa04] = 0xfffffbcd
        0x000009f6:    18d2        ..      ADDS     r2,r2,r3
        0x000009f8:    f7fffe3a    ..:.    BL       __aeabi_llsl ; 0x670
        0x000009fc:    bd10        ..      POP      {r4,pc}
    $d
        0x000009fe:    0000        ..      DCW    0
        0x00000a00:    000003ff    ....    DCD    1023
        0x00000a04:    fffffbcd    ....    DCD    4294966221
    $t
    .text
    __scatterload
    __scatterload_rt2
        0x00000a08:    4c06        .L      LDR      r4,[pc,#24] ; [0xa24] = 0x58f0
        0x00000a0a:    2501        .%      MOVS     r5,#1
        0x00000a0c:    4e06        .N      LDR      r6,[pc,#24] ; [0xa28] = 0x5910
        0x00000a0e:    e005        ..      B        0xa1c ; __scatterload + 20
        0x00000a10:    68e3        .h      LDR      r3,[r4,#0xc]
        0x00000a12:    cc07        ..      LDM      r4!,{r0-r2}
        0x00000a14:    432b        +C      ORRS     r3,r3,r5
        0x00000a16:    3c0c        .<      SUBS     r4,r4,#0xc
        0x00000a18:    4798        .G      BLX      r3
        0x00000a1a:    3410        .4      ADDS     r4,r4,#0x10
        0x00000a1c:    42b4        .B      CMP      r4,r6
        0x00000a1e:    d3f7        ..      BCC      0xa10 ; __scatterload + 8
        0x00000a20:    f7fffb52    ..R.    BL       __main_after_scatterload ; 0xc8
    $d
        0x00000a24:    000058f0    .X..    DCD    22768
        0x00000a28:    00005910    .Y..    DCD    22800
    $t
    .text
    __aeabi_lasr
    _ll_sshift_r
        0x00000a2c:    b510        ..      PUSH     {r4,lr}
        0x00000a2e:    2a20         *      CMP      r2,#0x20
        0x00000a30:    db06        ..      BLT      0xa40 ; __aeabi_lasr + 20
        0x00000a32:    17cb        ..      ASRS     r3,r1,#31
        0x00000a34:    4608        .F      MOV      r0,r1
        0x00000a36:    3a20         :      SUBS     r2,r2,#0x20
        0x00000a38:    4110        .A      ASRS     r0,r0,r2
        0x00000a3a:    17c1        ..      ASRS     r1,r0,#31
        0x00000a3c:    430b        .C      ORRS     r3,r3,r1
        0x00000a3e:    e006        ..      B        0xa4e ; __aeabi_lasr + 34
        0x00000a40:    460b        .F      MOV      r3,r1
        0x00000a42:    4113        .A      ASRS     r3,r3,r2
        0x00000a44:    40d0        .@      LSRS     r0,r0,r2
        0x00000a46:    2420         $      MOVS     r4,#0x20
        0x00000a48:    1aa2        ..      SUBS     r2,r4,r2
        0x00000a4a:    4091        .@      LSLS     r1,r1,r2
        0x00000a4c:    4308        .C      ORRS     r0,r0,r1
        0x00000a4e:    4619        .F      MOV      r1,r3
        0x00000a50:    bd10        ..      POP      {r4,pc}
        0x00000a52:    0000        ..      MOVS     r0,r0
    .text
    __rt_ctype_table
        0x00000a54:    4800        .H      LDR      r0,[pc,#0] ; [0xa58] = 0x57f0
        0x00000a56:    4770        pG      BX       lr
    $d
        0x00000a58:    000057f0    .W..    DCD    22512
    $t
    .text
    _strtoul
        0x00000a5c:    b5f7        ..      PUSH     {r0-r2,r4-r7,lr}
        0x00000a5e:    b082        ..      SUB      sp,sp,#8
        0x00000a60:    9c02        ..      LDR      r4,[sp,#8]
        0x00000a62:    2700        .'      MOVS     r7,#0
        0x00000a64:    7820         x      LDRB     r0,[r4,#0]
        0x00000a66:    1c64        d.      ADDS     r4,r4,#1
        0x00000a68:    4615        .F      MOV      r5,r2
        0x00000a6a:    9701        ..      STR      r7,[sp,#4]
        0x00000a6c:    2830        0(      CMP      r0,#0x30
        0x00000a6e:    d002        ..      BEQ      0xa76 ; _strtoul + 26
        0x00000a70:    2d00        .-      CMP      r5,#0
        0x00000a72:    d015        ..      BEQ      0xaa0 ; _strtoul + 68
        0x00000a74:    e015        ..      B        0xaa2 ; _strtoul + 70
        0x00000a76:    7820         x      LDRB     r0,[r4,#0]
        0x00000a78:    2701        .'      MOVS     r7,#1
        0x00000a7a:    1c64        d.      ADDS     r4,r4,#1
        0x00000a7c:    2878        x(      CMP      r0,#0x78
        0x00000a7e:    d004        ..      BEQ      0xa8a ; _strtoul + 46
        0x00000a80:    2858        X(      CMP      r0,#0x58
        0x00000a82:    d002        ..      BEQ      0xa8a ; _strtoul + 46
        0x00000a84:    2d00        .-      CMP      r5,#0
        0x00000a86:    d009        ..      BEQ      0xa9c ; _strtoul + 64
        0x00000a88:    e00b        ..      B        0xaa2 ; _strtoul + 70
        0x00000a8a:    2d00        .-      CMP      r5,#0
        0x00000a8c:    d001        ..      BEQ      0xa92 ; _strtoul + 54
        0x00000a8e:    2d10        .-      CMP      r5,#0x10
        0x00000a90:    d107        ..      BNE      0xaa2 ; _strtoul + 70
        0x00000a92:    2700        .'      MOVS     r7,#0
        0x00000a94:    2510        .%      MOVS     r5,#0x10
        0x00000a96:    7820         x      LDRB     r0,[r4,#0]
        0x00000a98:    1c64        d.      ADDS     r4,r4,#1
        0x00000a9a:    e002        ..      B        0xaa2 ; _strtoul + 70
        0x00000a9c:    2508        .%      MOVS     r5,#8
        0x00000a9e:    e000        ..      B        0xaa2 ; _strtoul + 70
        0x00000aa0:    250a        .%      MOVS     r5,#0xa
        0x00000aa2:    2600        .&      MOVS     r6,#0
        0x00000aa4:    9600        ..      STR      r6,[sp,#0]
        0x00000aa6:    e010        ..      B        0xaca ; _strtoul + 110
        0x00000aa8:    9900        ..      LDR      r1,[sp,#0]
        0x00000aaa:    2701        .'      MOVS     r7,#1
        0x00000aac:    4369        iC      MULS     r1,r5,r1
        0x00000aae:    1808        ..      ADDS     r0,r1,r0
        0x00000ab0:    0c02        ..      LSRS     r2,r0,#16
        0x00000ab2:    4629        )F      MOV      r1,r5
        0x00000ab4:    b280        ..      UXTH     r0,r0
        0x00000ab6:    4371        qC      MULS     r1,r6,r1
        0x00000ab8:    9000        ..      STR      r0,[sp,#0]
        0x00000aba:    188e        ..      ADDS     r6,r1,r2
        0x00000abc:    0438        8.      LSLS     r0,r7,#16
        0x00000abe:    4286        .B      CMP      r6,r0
        0x00000ac0:    d301        ..      BCC      0xac6 ; _strtoul + 106
        0x00000ac2:    2001        .       MOVS     r0,#1
        0x00000ac4:    9001        ..      STR      r0,[sp,#4]
        0x00000ac6:    7820         x      LDRB     r0,[r4,#0]
        0x00000ac8:    1c64        d.      ADDS     r4,r4,#1
        0x00000aca:    4629        )F      MOV      r1,r5
        0x00000acc:    f000f819    ....    BL       _chval ; 0xb02
        0x00000ad0:    2800        .(      CMP      r0,#0
        0x00000ad2:    dae9        ..      BGE      0xaa8 ; _strtoul + 76
        0x00000ad4:    9803        ..      LDR      r0,[sp,#0xc]
        0x00000ad6:    2800        .(      CMP      r0,#0
        0x00000ad8:    d005        ..      BEQ      0xae6 ; _strtoul + 138
        0x00000ada:    2f00        ./      CMP      r7,#0
        0x00000adc:    d001        ..      BEQ      0xae2 ; _strtoul + 134
        0x00000ade:    1e64        d.      SUBS     r4,r4,#1
        0x00000ae0:    e000        ..      B        0xae4 ; _strtoul + 136
        0x00000ae2:    9c02        ..      LDR      r4,[sp,#8]
        0x00000ae4:    6004        .`      STR      r4,[r0,#0]
        0x00000ae6:    9801        ..      LDR      r0,[sp,#4]
        0x00000ae8:    2800        .(      CMP      r0,#0
        0x00000aea:    d006        ..      BEQ      0xafa ; _strtoul + 158
        0x00000aec:    f002f8ae    ....    BL       __aeabi_errno_addr ; 0x2c4c
        0x00000af0:    2102        .!      MOVS     r1,#2
        0x00000af2:    6001        .`      STR      r1,[r0,#0]
        0x00000af4:    1ec8        ..      SUBS     r0,r1,#3
        0x00000af6:    b005        ..      ADD      sp,sp,#0x14
        0x00000af8:    bdf0        ..      POP      {r4-r7,pc}
        0x00000afa:    9900        ..      LDR      r1,[sp,#0]
        0x00000afc:    0430        0.      LSLS     r0,r6,#16
        0x00000afe:    4308        .C      ORRS     r0,r0,r1
        0x00000b00:    e7f9        ..      B        0xaf6 ; _strtoul + 154
    .text
    _chval
        0x00000b02:    283a        :(      CMP      r0,#0x3a
        0x00000b04:    d200        ..      BCS      0xb08 ; _chval + 6
        0x00000b06:    3830        08      SUBS     r0,r0,#0x30
        0x00000b08:    2320         #      MOVS     r3,#0x20
        0x00000b0a:    4602        .F      MOV      r2,r0
        0x00000b0c:    439a        .C      BICS     r2,r2,r3
        0x00000b0e:    2a41        A*      CMP      r2,#0x41
        0x00000b10:    d301        ..      BCC      0xb16 ; _chval + 20
        0x00000b12:    4610        .F      MOV      r0,r2
        0x00000b14:    3837        78      SUBS     r0,r0,#0x37
        0x00000b16:    4288        .B      CMP      r0,r1
        0x00000b18:    d301        ..      BCC      0xb1e ; _chval + 28
        0x00000b1a:    2000        .       MOVS     r0,#0
        0x00000b1c:    43c0        .C      MVNS     r0,r0
        0x00000b1e:    4770        pG      BX       lr
    $d
    SVC_TABLE
    SVC_Count
        0x00000b20:    00000000    ....    DCD    0
    $t
    i.ADC_Open
    ADC_Open
    SVC_Table
        0x00000b24:    b530        0.      PUSH     {r4,r5,lr}
        0x00000b26:    6a04        .j      LDR      r4,[r0,#0x20]
        0x00000b28:    4d05        .M      LDR      r5,[pc,#20] ; [0xb40] = 0xfffffbf3
        0x00000b2a:    402c        ,@      ANDS     r4,r4,r5
        0x00000b2c:    430c        .C      ORRS     r4,r4,r1
        0x00000b2e:    4314        .C      ORRS     r4,r4,r2
        0x00000b30:    6204        .b      STR      r4,[r0,#0x20]
        0x00000b32:    6a44        Dj      LDR      r4,[r0,#0x24]
        0x00000b34:    0a24        $.      LSRS     r4,r4,#8
        0x00000b36:    0224        $.      LSLS     r4,r4,#8
        0x00000b38:    431c        .C      ORRS     r4,r4,r3
        0x00000b3a:    6244        Db      STR      r4,[r0,#0x24]
        0x00000b3c:    bd30        0.      POP      {r4,r5,pc}
    $d
        0x00000b3e:    0000        ..      DCW    0
        0x00000b40:    fffffbf3    ....    DCD    4294966259
    $t
    i.CLK_EnableModuleClock
    CLK_EnableModuleClock
        0x00000b44:    b51f        ..      PUSH     {r0-r4,lr}
        0x00000b46:    4c0c        .L      LDR      r4,[pc,#48] ; [0xb78] = 0x571c
        0x00000b48:    cc1e        ..      LDM      r4,{r1-r4}
        0x00000b4a:    9403        ..      STR      r4,[sp,#0xc]
        0x00000b4c:    466c        lF      MOV      r4,sp
        0x00000b4e:    c40e        ..      STM      r4!,{r1-r3}
        0x00000b50:    0f81        ..      LSRS     r1,r0,#30
        0x00000b52:    0089        ..      LSLS     r1,r1,#2
        0x00000b54:    466a        jF      MOV      r2,sp
        0x00000b56:    5851        QX      LDR      r1,[r2,r1]
        0x00000b58:    4a08        .J      LDR      r2,[pc,#32] ; [0xb7c] = 0x50000200
        0x00000b5a:    1889        ..      ADDS     r1,r1,r2
        0x00000b5c:    6849        Ih      LDR      r1,[r1,#4]
        0x00000b5e:    06c3        ..      LSLS     r3,r0,#27
        0x00000b60:    0edb        ..      LSRS     r3,r3,#27
        0x00000b62:    2201        ."      MOVS     r2,#1
        0x00000b64:    409a        .@      LSLS     r2,r2,r3
        0x00000b66:    4311        .C      ORRS     r1,r1,r2
        0x00000b68:    0f82        ..      LSRS     r2,r0,#30
        0x00000b6a:    0092        ..      LSLS     r2,r2,#2
        0x00000b6c:    466b        kF      MOV      r3,sp
        0x00000b6e:    589a        .X      LDR      r2,[r3,r2]
        0x00000b70:    4b02        .K      LDR      r3,[pc,#8] ; [0xb7c] = 0x50000200
        0x00000b72:    18d2        ..      ADDS     r2,r2,r3
        0x00000b74:    6051        Q`      STR      r1,[r2,#4]
        0x00000b76:    bd1f        ..      POP      {r0-r4,pc}
    $d
        0x00000b78:    0000571c    .W..    DCD    22300
        0x00000b7c:    50000200    ...P    DCD    1342177792
    $t
    i.CLK_EnablePLL
    CLK_EnablePLL
        0x00000b80:    b5f3        ..      PUSH     {r0,r1,r4-r7,lr}
        0x00000b82:    b089        ..      SUB      sp,sp,#0x24
        0x00000b84:    460c        .F      MOV      r4,r1
        0x00000b86:    2001        .       MOVS     r0,#1
        0x00000b88:    0400        ..      LSLS     r0,r0,#16
        0x00000b8a:    4953        SI      LDR      r1,[pc,#332] ; [0xcd8] = 0x50000200
        0x00000b8c:    6208        .b      STR      r0,[r1,#0x20]
        0x00000b8e:    9809        ..      LDR      r0,[sp,#0x24]
        0x00000b90:    2800        .(      CMP      r0,#0
        0x00000b92:    d10e        ..      BNE      0xbb2 ; CLK_EnablePLL + 50
        0x00000b94:    4608        .F      MOV      r0,r1
        0x00000b96:    6800        .h      LDR      r0,[r0,#0]
        0x00000b98:    2101        .!      MOVS     r1,#1
        0x00000b9a:    4308        .C      ORRS     r0,r0,r1
        0x00000b9c:    494e        NI      LDR      r1,[pc,#312] ; [0xcd8] = 0x50000200
        0x00000b9e:    6008        .`      STR      r0,[r1,#0]
        0x00000ba0:    2001        .       MOVS     r0,#1
        0x00000ba2:    f000fa85    ....    BL       CLK_WaitClockReady ; 0x10b0
        0x00000ba6:    2000        .       MOVS     r0,#0
        0x00000ba8:    9006        ..      STR      r0,[sp,#0x18]
        0x00000baa:    484c        LH      LDR      r0,[pc,#304] ; [0xcdc] = 0xb71b00
        0x00000bac:    9008        ..      STR      r0,[sp,#0x20]
        0x00000bae:    2502        .%      MOVS     r5,#2
        0x00000bb0:    e00e        ..      B        0xbd0 ; CLK_EnablePLL + 80
        0x00000bb2:    4849        IH      LDR      r0,[pc,#292] ; [0xcd8] = 0x50000200
        0x00000bb4:    6800        .h      LDR      r0,[r0,#0]
        0x00000bb6:    2104        .!      MOVS     r1,#4
        0x00000bb8:    4308        .C      ORRS     r0,r0,r1
        0x00000bba:    4947        GI      LDR      r1,[pc,#284] ; [0xcd8] = 0x50000200
        0x00000bbc:    6008        .`      STR      r0,[r1,#0]
        0x00000bbe:    2010        .       MOVS     r0,#0x10
        0x00000bc0:    f000fa76    ..v.    BL       CLK_WaitClockReady ; 0x10b0
        0x00000bc4:    2001        .       MOVS     r0,#1
        0x00000bc6:    04c0        ..      LSLS     r0,r0,#19
        0x00000bc8:    9006        ..      STR      r0,[sp,#0x18]
        0x00000bca:    4845        EH      LDR      r0,[pc,#276] ; [0xce0] = 0x1518000
        0x00000bcc:    9008        ..      STR      r0,[sp,#0x20]
        0x00000bce:    2504        .%      MOVS     r5,#4
        0x00000bd0:    4844        DH      LDR      r0,[pc,#272] ; [0xce4] = 0xbebc200
        0x00000bd2:    4284        .B      CMP      r4,r0
        0x00000bd4:    d804        ..      BHI      0xbe0 ; CLK_EnablePLL + 96
        0x00000bd6:    1040        @.      ASRS     r0,r0,#1
        0x00000bd8:    4284        .B      CMP      r4,r0
        0x00000bda:    d901        ..      BLS      0xbe0 ; CLK_EnablePLL + 96
        0x00000bdc:    2700        .'      MOVS     r7,#0
        0x00000bde:    e012        ..      B        0xc06 ; CLK_EnablePLL + 134
        0x00000be0:    4841        AH      LDR      r0,[pc,#260] ; [0xce8] = 0x5f5e100
        0x00000be2:    4284        .B      CMP      r4,r0
        0x00000be4:    d805        ..      BHI      0xbf2 ; CLK_EnablePLL + 114
        0x00000be6:    1040        @.      ASRS     r0,r0,#1
        0x00000be8:    4284        .B      CMP      r4,r0
        0x00000bea:    d902        ..      BLS      0xbf2 ; CLK_EnablePLL + 114
        0x00000bec:    2701        .'      MOVS     r7,#1
        0x00000bee:    0064        d.      LSLS     r4,r4,#1
        0x00000bf0:    e009        ..      B        0xc06 ; CLK_EnablePLL + 134
        0x00000bf2:    483e        >H      LDR      r0,[pc,#248] ; [0xcec] = 0x2faf080
        0x00000bf4:    4284        .B      CMP      r4,r0
        0x00000bf6:    d805        ..      BHI      0xc04 ; CLK_EnablePLL + 132
        0x00000bf8:    1040        @.      ASRS     r0,r0,#1
        0x00000bfa:    4284        .B      CMP      r4,r0
        0x00000bfc:    d302        ..      BCC      0xc04 ; CLK_EnablePLL + 132
        0x00000bfe:    2703        .'      MOVS     r7,#3
        0x00000c00:    00a4        ..      LSLS     r4,r4,#2
        0x00000c02:    e000        ..      B        0xc06 ; CLK_EnablePLL + 134
        0x00000c04:    e057        W.      B        0xcb6 ; CLK_EnablePLL + 310
        0x00000c06:    2000        .       MOVS     r0,#0
        0x00000c08:    43c0        .C      MVNS     r0,r0
        0x00000c0a:    9003        ..      STR      r0,[sp,#0xc]
        0x00000c0c:    2000        .       MOVS     r0,#0
        0x00000c0e:    9001        ..      STR      r0,[sp,#4]
        0x00000c10:    9002        ..      STR      r0,[sp,#8]
        0x00000c12:    e034        4.      B        0xc7e ; CLK_EnablePLL + 254
        0x00000c14:    4629        )F      MOV      r1,r5
        0x00000c16:    9808        ..      LDR      r0,[sp,#0x20]
        0x00000c18:    f7fffb4a    ..J.    BL       __aeabi_uidiv ; 0x2b0
        0x00000c1c:    9005        ..      STR      r0,[sp,#0x14]
        0x00000c1e:    4934        4I      LDR      r1,[pc,#208] ; [0xcf0] = 0x186a00
        0x00000c20:    9805        ..      LDR      r0,[sp,#0x14]
        0x00000c22:    4288        .B      CMP      r0,r1
        0x00000c24:    d92a        *.      BLS      0xc7c ; CLK_EnablePLL + 252
        0x00000c26:    4933        3I      LDR      r1,[pc,#204] ; [0xcf4] = 0xe4e1c0
        0x00000c28:    9805        ..      LDR      r0,[sp,#0x14]
        0x00000c2a:    4288        .B      CMP      r0,r1
        0x00000c2c:    d226        &.      BCS      0xc7c ; CLK_EnablePLL + 252
        0x00000c2e:    2002        .       MOVS     r0,#2
        0x00000c30:    9007        ..      STR      r0,[sp,#0x1c]
        0x00000c32:    e01e        ..      B        0xc72 ; CLK_EnablePLL + 242
        0x00000c34:    9e05        ..      LDR      r6,[sp,#0x14]
        0x00000c36:    9907        ..      LDR      r1,[sp,#0x1c]
        0x00000c38:    434e        NC      MULS     r6,r1,r6
        0x00000c3a:    482b        +H      LDR      r0,[pc,#172] ; [0xce8] = 0x5f5e100
        0x00000c3c:    4286        .B      CMP      r6,r0
        0x00000c3e:    d315        ..      BCC      0xc6c ; CLK_EnablePLL + 236
        0x00000c40:    0040        @.      LSLS     r0,r0,#1
        0x00000c42:    4286        .B      CMP      r6,r0
        0x00000c44:    d812        ..      BHI      0xc6c ; CLK_EnablePLL + 236
        0x00000c46:    42a6        .B      CMP      r6,r4
        0x00000c48:    d901        ..      BLS      0xc4e ; CLK_EnablePLL + 206
        0x00000c4a:    1b30        0.      SUBS     r0,r6,r4
        0x00000c4c:    e000        ..      B        0xc50 ; CLK_EnablePLL + 208
        0x00000c4e:    1ba0        ..      SUBS     r0,r4,r6
        0x00000c50:    9004        ..      STR      r0,[sp,#0x10]
        0x00000c52:    9903        ..      LDR      r1,[sp,#0xc]
        0x00000c54:    9804        ..      LDR      r0,[sp,#0x10]
        0x00000c56:    4288        .B      CMP      r0,r1
        0x00000c58:    d208        ..      BCS      0xc6c ; CLK_EnablePLL + 236
        0x00000c5a:    9804        ..      LDR      r0,[sp,#0x10]
        0x00000c5c:    9003        ..      STR      r0,[sp,#0xc]
        0x00000c5e:    9501        ..      STR      r5,[sp,#4]
        0x00000c60:    9807        ..      LDR      r0,[sp,#0x1c]
        0x00000c62:    9002        ..      STR      r0,[sp,#8]
        0x00000c64:    9803        ..      LDR      r0,[sp,#0xc]
        0x00000c66:    2800        .(      CMP      r0,#0
        0x00000c68:    d100        ..      BNE      0xc6c ; CLK_EnablePLL + 236
        0x00000c6a:    e006        ..      B        0xc7a ; CLK_EnablePLL + 250
        0x00000c6c:    9807        ..      LDR      r0,[sp,#0x1c]
        0x00000c6e:    1c40        @.      ADDS     r0,r0,#1
        0x00000c70:    9007        ..      STR      r0,[sp,#0x1c]
        0x00000c72:    4921        !I      LDR      r1,[pc,#132] ; [0xcf8] = 0x201
        0x00000c74:    9807        ..      LDR      r0,[sp,#0x1c]
        0x00000c76:    4288        .B      CMP      r0,r1
        0x00000c78:    d9dc        ..      BLS      0xc34 ; CLK_EnablePLL + 180
        0x00000c7a:    bf00        ..      NOP      
        0x00000c7c:    1c6d        m.      ADDS     r5,r5,#1
        0x00000c7e:    2d21        !-      CMP      r5,#0x21
        0x00000c80:    d9c8        ..      BLS      0xc14 ; CLK_EnablePLL + 148
        0x00000c82:    03b8        ..      LSLS     r0,r7,#14
        0x00000c84:    9906        ..      LDR      r1,[sp,#0x18]
        0x00000c86:    4308        .C      ORRS     r0,r0,r1
        0x00000c88:    9901        ..      LDR      r1,[sp,#4]
        0x00000c8a:    1e89        ..      SUBS     r1,r1,#2
        0x00000c8c:    0249        I.      LSLS     r1,r1,#9
        0x00000c8e:    4308        .C      ORRS     r0,r0,r1
        0x00000c90:    9902        ..      LDR      r1,[sp,#8]
        0x00000c92:    1e89        ..      SUBS     r1,r1,#2
        0x00000c94:    4308        .C      ORRS     r0,r0,r1
        0x00000c96:    4910        .I      LDR      r1,[pc,#64] ; [0xcd8] = 0x50000200
        0x00000c98:    6208        .b      STR      r0,[r1,#0x20]
        0x00000c9a:    2004        .       MOVS     r0,#4
        0x00000c9c:    f000fa08    ....    BL       CLK_WaitClockReady ; 0x10b0
        0x00000ca0:    1c78        x.      ADDS     r0,r7,#1
        0x00000ca2:    9a01        ..      LDR      r2,[sp,#4]
        0x00000ca4:    4350        PC      MULS     r0,r2,r0
        0x00000ca6:    4601        .F      MOV      r1,r0
        0x00000ca8:    9808        ..      LDR      r0,[sp,#0x20]
        0x00000caa:    f7fffb01    ....    BL       __aeabi_uidiv ; 0x2b0
        0x00000cae:    9902        ..      LDR      r1,[sp,#8]
        0x00000cb0:    4348        HC      MULS     r0,r1,r0
        0x00000cb2:    b00b        ..      ADD      sp,sp,#0x2c
        0x00000cb4:    bdf0        ..      POP      {r4-r7,pc}
        0x00000cb6:    9809        ..      LDR      r0,[sp,#0x24]
        0x00000cb8:    2800        .(      CMP      r0,#0
        0x00000cba:    d103        ..      BNE      0xcc4 ; CLK_EnablePLL + 324
        0x00000cbc:    480f        .H      LDR      r0,[pc,#60] ; [0xcfc] = 0xc22e
        0x00000cbe:    4906        .I      LDR      r1,[pc,#24] ; [0xcd8] = 0x50000200
        0x00000cc0:    6208        .b      STR      r0,[r1,#0x20]
        0x00000cc2:    e002        ..      B        0xcca ; CLK_EnablePLL + 330
        0x00000cc4:    480e        .H      LDR      r0,[pc,#56] ; [0xd00] = 0xd66f
        0x00000cc6:    4904        .I      LDR      r1,[pc,#16] ; [0xcd8] = 0x50000200
        0x00000cc8:    6208        .b      STR      r0,[r1,#0x20]
        0x00000cca:    2004        .       MOVS     r0,#4
        0x00000ccc:    f000f9f0    ....    BL       CLK_WaitClockReady ; 0x10b0
        0x00000cd0:    f000f820    .. .    BL       CLK_GetPLLClockFreq ; 0xd14
        0x00000cd4:    e7ed        ..      B        0xcb2 ; CLK_EnablePLL + 306
    $d
        0x00000cd6:    0000        ..      DCW    0
        0x00000cd8:    50000200    ...P    DCD    1342177792
        0x00000cdc:    00b71b00    ....    DCD    12000000
        0x00000ce0:    01518000    ..Q.    DCD    22118400
        0x00000ce4:    0bebc200    ....    DCD    200000000
        0x00000ce8:    05f5e100    ....    DCD    100000000
        0x00000cec:    02faf080    ....    DCD    50000000
        0x00000cf0:    00186a00    .j..    DCD    1600000
        0x00000cf4:    00e4e1c0    ....    DCD    15000000
        0x00000cf8:    00000201    ....    DCD    513
        0x00000cfc:    0000c22e    ....    DCD    49710
        0x00000d00:    0000d66f    o...    DCD    54895
    $t
    i.CLK_EnableXtalRC
    CLK_EnableXtalRC
        0x00000d04:    4902        .I      LDR      r1,[pc,#8] ; [0xd10] = 0x50000200
        0x00000d06:    6809        .h      LDR      r1,[r1,#0]
        0x00000d08:    4301        .C      ORRS     r1,r1,r0
        0x00000d0a:    4a01        .J      LDR      r2,[pc,#4] ; [0xd10] = 0x50000200
        0x00000d0c:    6011        .`      STR      r1,[r2,#0]
        0x00000d0e:    4770        pG      BX       lr
    $d
        0x00000d10:    50000200    ...P    DCD    1342177792
    $t
    i.CLK_GetPLLClockFreq
    CLK_GetPLLClockFreq
        0x00000d14:    b5fe        ..      PUSH     {r1-r7,lr}
        0x00000d16:    2000        .       MOVS     r0,#0
        0x00000d18:    9002        ..      STR      r0,[sp,#8]
        0x00000d1a:    a01a        ..      ADR      r0,{pc}+0x6a ; 0xd84
        0x00000d1c:    6800        .h      LDR      r0,[r0,#0]
        0x00000d1e:    9000        ..      STR      r0,[sp,#0]
        0x00000d20:    4819        .H      LDR      r0,[pc,#100] ; [0xd88] = 0x50000200
        0x00000d22:    6a04        .j      LDR      r4,[r0,#0x20]
        0x00000d24:    1300        ..      ASRS     r0,r0,#12
        0x00000d26:    4020         @      ANDS     r0,r0,r4
        0x00000d28:    2800        .(      CMP      r0,#0
        0x00000d2a:    d001        ..      BEQ      0xd30 ; CLK_GetPLLClockFreq + 28
        0x00000d2c:    2000        .       MOVS     r0,#0
        0x00000d2e:    bdfe        ..      POP      {r1-r7,pc}
        0x00000d30:    2001        .       MOVS     r0,#1
        0x00000d32:    04c0        ..      LSLS     r0,r0,#19
        0x00000d34:    4020         @      ANDS     r0,r0,r4
        0x00000d36:    2800        .(      CMP      r0,#0
        0x00000d38:    d001        ..      BEQ      0xd3e ; CLK_GetPLLClockFreq + 42
        0x00000d3a:    4d14        .M      LDR      r5,[pc,#80] ; [0xd8c] = 0x1518000
        0x00000d3c:    e000        ..      B        0xd40 ; CLK_GetPLLClockFreq + 44
        0x00000d3e:    4d14        .M      LDR      r5,[pc,#80] ; [0xd90] = 0xb71b00
        0x00000d40:    2001        .       MOVS     r0,#1
        0x00000d42:    0440        @.      LSLS     r0,r0,#17
        0x00000d44:    4020         @      ANDS     r0,r0,r4
        0x00000d46:    2800        .(      CMP      r0,#0
        0x00000d48:    d001        ..      BEQ      0xd4e ; CLK_GetPLLClockFreq + 58
        0x00000d4a:    4628        (F      MOV      r0,r5
        0x00000d4c:    e7ef        ..      B        0xd2e ; CLK_GetPLLClockFreq + 26
        0x00000d4e:    2003        .       MOVS     r0,#3
        0x00000d50:    0380        ..      LSLS     r0,r0,#14
        0x00000d52:    4020         @      ANDS     r0,r0,r4
        0x00000d54:    0b80        ..      LSRS     r0,r0,#14
        0x00000d56:    4669        iF      MOV      r1,sp
        0x00000d58:    5c0a        .\      LDRB     r2,[r1,r0]
        0x00000d5a:    9201        ..      STR      r2,[sp,#4]
        0x00000d5c:    05e0        ..      LSLS     r0,r4,#23
        0x00000d5e:    0dc0        ..      LSRS     r0,r0,#23
        0x00000d60:    1c86        ..      ADDS     r6,r0,#2
        0x00000d62:    201f        .       MOVS     r0,#0x1f
        0x00000d64:    0240        @.      LSLS     r0,r0,#9
        0x00000d66:    4020         @      ANDS     r0,r0,r4
        0x00000d68:    0a40        @.      LSRS     r0,r0,#9
        0x00000d6a:    1c87        ..      ADDS     r7,r0,#2
        0x00000d6c:    9a01        ..      LDR      r2,[sp,#4]
        0x00000d6e:    437a        zC      MULS     r2,r7,r2
        0x00000d70:    4611        .F      MOV      r1,r2
        0x00000d72:    08aa        ..      LSRS     r2,r5,#2
        0x00000d74:    4372        rC      MULS     r2,r6,r2
        0x00000d76:    4610        .F      MOV      r0,r2
        0x00000d78:    f7fffa9a    ....    BL       __aeabi_uidiv ; 0x2b0
        0x00000d7c:    0080        ..      LSLS     r0,r0,#2
        0x00000d7e:    9002        ..      STR      r0,[sp,#8]
        0x00000d80:    9802        ..      LDR      r0,[sp,#8]
        0x00000d82:    e7d4        ..      B        0xd2e ; CLK_GetPLLClockFreq + 26
    $d
        0x00000d84:    04020201    ....    DCD    67240449
        0x00000d88:    50000200    ...P    DCD    1342177792
        0x00000d8c:    01518000    ..Q.    DCD    22118400
        0x00000d90:    00b71b00    ....    DCD    12000000
    $t
    i.CLK_GetPLLClockFreq
    CLK_GetPLLClockFreq
        0x00000d94:    b5fe        ..      PUSH     {r1-r7,lr}
        0x00000d96:    2000        .       MOVS     r0,#0
        0x00000d98:    9002        ..      STR      r0,[sp,#8]
        0x00000d9a:    a01a        ..      ADR      r0,{pc}+0x6a ; 0xe04
        0x00000d9c:    6800        .h      LDR      r0,[r0,#0]
        0x00000d9e:    9000        ..      STR      r0,[sp,#0]
        0x00000da0:    4819        .H      LDR      r0,[pc,#100] ; [0xe08] = 0x50000200
        0x00000da2:    6a04        .j      LDR      r4,[r0,#0x20]
        0x00000da4:    1300        ..      ASRS     r0,r0,#12
        0x00000da6:    4020         @      ANDS     r0,r0,r4
        0x00000da8:    2800        .(      CMP      r0,#0
        0x00000daa:    d001        ..      BEQ      0xdb0 ; CLK_GetPLLClockFreq + 28
        0x00000dac:    2000        .       MOVS     r0,#0
        0x00000dae:    bdfe        ..      POP      {r1-r7,pc}
        0x00000db0:    2001        .       MOVS     r0,#1
        0x00000db2:    04c0        ..      LSLS     r0,r0,#19
        0x00000db4:    4020         @      ANDS     r0,r0,r4
        0x00000db6:    2800        .(      CMP      r0,#0
        0x00000db8:    d001        ..      BEQ      0xdbe ; CLK_GetPLLClockFreq + 42
        0x00000dba:    4d14        .M      LDR      r5,[pc,#80] ; [0xe0c] = 0x1518000
        0x00000dbc:    e000        ..      B        0xdc0 ; CLK_GetPLLClockFreq + 44
        0x00000dbe:    4d14        .M      LDR      r5,[pc,#80] ; [0xe10] = 0xb71b00
        0x00000dc0:    2001        .       MOVS     r0,#1
        0x00000dc2:    0440        @.      LSLS     r0,r0,#17
        0x00000dc4:    4020         @      ANDS     r0,r0,r4
        0x00000dc6:    2800        .(      CMP      r0,#0
        0x00000dc8:    d001        ..      BEQ      0xdce ; CLK_GetPLLClockFreq + 58
        0x00000dca:    4628        (F      MOV      r0,r5
        0x00000dcc:    e7ef        ..      B        0xdae ; CLK_GetPLLClockFreq + 26
        0x00000dce:    2003        .       MOVS     r0,#3
        0x00000dd0:    0380        ..      LSLS     r0,r0,#14
        0x00000dd2:    4020         @      ANDS     r0,r0,r4
        0x00000dd4:    0b80        ..      LSRS     r0,r0,#14
        0x00000dd6:    4669        iF      MOV      r1,sp
        0x00000dd8:    5c0a        .\      LDRB     r2,[r1,r0]
        0x00000dda:    9201        ..      STR      r2,[sp,#4]
        0x00000ddc:    05e0        ..      LSLS     r0,r4,#23
        0x00000dde:    0dc0        ..      LSRS     r0,r0,#23
        0x00000de0:    1c86        ..      ADDS     r6,r0,#2
        0x00000de2:    201f        .       MOVS     r0,#0x1f
        0x00000de4:    0240        @.      LSLS     r0,r0,#9
        0x00000de6:    4020         @      ANDS     r0,r0,r4
        0x00000de8:    0a40        @.      LSRS     r0,r0,#9
        0x00000dea:    1c87        ..      ADDS     r7,r0,#2
        0x00000dec:    9a01        ..      LDR      r2,[sp,#4]
        0x00000dee:    437a        zC      MULS     r2,r7,r2
        0x00000df0:    4611        .F      MOV      r1,r2
        0x00000df2:    08aa        ..      LSRS     r2,r5,#2
        0x00000df4:    4372        rC      MULS     r2,r6,r2
        0x00000df6:    4610        .F      MOV      r0,r2
        0x00000df8:    f7fffa5a    ..Z.    BL       __aeabi_uidiv ; 0x2b0
        0x00000dfc:    0080        ..      LSLS     r0,r0,#2
        0x00000dfe:    9002        ..      STR      r0,[sp,#8]
        0x00000e00:    9802        ..      LDR      r0,[sp,#8]
        0x00000e02:    e7d4        ..      B        0xdae ; CLK_GetPLLClockFreq + 26
    $d
        0x00000e04:    04020201    ....    DCD    67240449
        0x00000e08:    50000200    ...P    DCD    1342177792
        0x00000e0c:    01518000    ..Q.    DCD    22118400
        0x00000e10:    00b71b00    ....    DCD    12000000
    $t
    i.CLK_GetPLLClockFreq
    CLK_GetPLLClockFreq
        0x00000e14:    b5fe        ..      PUSH     {r1-r7,lr}
        0x00000e16:    2000        .       MOVS     r0,#0
        0x00000e18:    9002        ..      STR      r0,[sp,#8]
        0x00000e1a:    a01a        ..      ADR      r0,{pc}+0x6a ; 0xe84
        0x00000e1c:    6800        .h      LDR      r0,[r0,#0]
        0x00000e1e:    9000        ..      STR      r0,[sp,#0]
        0x00000e20:    4819        .H      LDR      r0,[pc,#100] ; [0xe88] = 0x50000200
        0x00000e22:    6a04        .j      LDR      r4,[r0,#0x20]
        0x00000e24:    1300        ..      ASRS     r0,r0,#12
        0x00000e26:    4020         @      ANDS     r0,r0,r4
        0x00000e28:    2800        .(      CMP      r0,#0
        0x00000e2a:    d001        ..      BEQ      0xe30 ; CLK_GetPLLClockFreq + 28
        0x00000e2c:    2000        .       MOVS     r0,#0
        0x00000e2e:    bdfe        ..      POP      {r1-r7,pc}
        0x00000e30:    2001        .       MOVS     r0,#1
        0x00000e32:    04c0        ..      LSLS     r0,r0,#19
        0x00000e34:    4020         @      ANDS     r0,r0,r4
        0x00000e36:    2800        .(      CMP      r0,#0
        0x00000e38:    d001        ..      BEQ      0xe3e ; CLK_GetPLLClockFreq + 42
        0x00000e3a:    4d14        .M      LDR      r5,[pc,#80] ; [0xe8c] = 0x1518000
        0x00000e3c:    e000        ..      B        0xe40 ; CLK_GetPLLClockFreq + 44
        0x00000e3e:    4d14        .M      LDR      r5,[pc,#80] ; [0xe90] = 0xb71b00
        0x00000e40:    2001        .       MOVS     r0,#1
        0x00000e42:    0440        @.      LSLS     r0,r0,#17
        0x00000e44:    4020         @      ANDS     r0,r0,r4
        0x00000e46:    2800        .(      CMP      r0,#0
        0x00000e48:    d001        ..      BEQ      0xe4e ; CLK_GetPLLClockFreq + 58
        0x00000e4a:    4628        (F      MOV      r0,r5
        0x00000e4c:    e7ef        ..      B        0xe2e ; CLK_GetPLLClockFreq + 26
        0x00000e4e:    2003        .       MOVS     r0,#3
        0x00000e50:    0380        ..      LSLS     r0,r0,#14
        0x00000e52:    4020         @      ANDS     r0,r0,r4
        0x00000e54:    0b80        ..      LSRS     r0,r0,#14
        0x00000e56:    4669        iF      MOV      r1,sp
        0x00000e58:    5c0a        .\      LDRB     r2,[r1,r0]
        0x00000e5a:    9201        ..      STR      r2,[sp,#4]
        0x00000e5c:    05e0        ..      LSLS     r0,r4,#23
        0x00000e5e:    0dc0        ..      LSRS     r0,r0,#23
        0x00000e60:    1c86        ..      ADDS     r6,r0,#2
        0x00000e62:    201f        .       MOVS     r0,#0x1f
        0x00000e64:    0240        @.      LSLS     r0,r0,#9
        0x00000e66:    4020         @      ANDS     r0,r0,r4
        0x00000e68:    0a40        @.      LSRS     r0,r0,#9
        0x00000e6a:    1c87        ..      ADDS     r7,r0,#2
        0x00000e6c:    9a01        ..      LDR      r2,[sp,#4]
        0x00000e6e:    437a        zC      MULS     r2,r7,r2
        0x00000e70:    4611        .F      MOV      r1,r2
        0x00000e72:    08aa        ..      LSRS     r2,r5,#2
        0x00000e74:    4372        rC      MULS     r2,r6,r2
        0x00000e76:    4610        .F      MOV      r0,r2
        0x00000e78:    f7fffa1a    ....    BL       __aeabi_uidiv ; 0x2b0
        0x00000e7c:    0080        ..      LSLS     r0,r0,#2
        0x00000e7e:    9002        ..      STR      r0,[sp,#8]
        0x00000e80:    9802        ..      LDR      r0,[sp,#8]
        0x00000e82:    e7d4        ..      B        0xe2e ; CLK_GetPLLClockFreq + 26
    $d
        0x00000e84:    04020201    ....    DCD    67240449
        0x00000e88:    50000200    ...P    DCD    1342177792
        0x00000e8c:    01518000    ..Q.    DCD    22118400
        0x00000e90:    00b71b00    ....    DCD    12000000
    $t
    i.CLK_SetCoreClock
    CLK_SetCoreClock
        0x00000e94:    b570        p.      PUSH     {r4-r6,lr}
        0x00000e96:    4604        .F      MOV      r4,r0
        0x00000e98:    4825        %H      LDR      r0,[pc,#148] ; [0xf30] = 0x50000200
        0x00000e9a:    68c0        .h      LDR      r0,[r0,#0xc]
        0x00000e9c:    2110        .!      MOVS     r1,#0x10
        0x00000e9e:    4008        .@      ANDS     r0,r0,r1
        0x00000ea0:    4605        .F      MOV      r5,r0
        0x00000ea2:    4824        $H      LDR      r0,[pc,#144] ; [0xf34] = 0x2faf080
        0x00000ea4:    4284        .B      CMP      r4,r0
        0x00000ea6:    d900        ..      BLS      0xeaa ; CLK_SetCoreClock + 22
        0x00000ea8:    4604        .F      MOV      r4,r0
        0x00000eaa:    4823        #H      LDR      r0,[pc,#140] ; [0xf38] = 0x17d7840
        0x00000eac:    4284        .B      CMP      r4,r0
        0x00000eae:    d200        ..      BCS      0xeb2 ; CLK_SetCoreClock + 30
        0x00000eb0:    4604        .F      MOV      r4,r0
        0x00000eb2:    481f        .H      LDR      r0,[pc,#124] ; [0xf30] = 0x50000200
        0x00000eb4:    6800        .h      LDR      r0,[r0,#0]
        0x00000eb6:    2104        .!      MOVS     r1,#4
        0x00000eb8:    4308        .C      ORRS     r0,r0,r1
        0x00000eba:    491d        .I      LDR      r1,[pc,#116] ; [0xf30] = 0x50000200
        0x00000ebc:    6008        .`      STR      r0,[r1,#0]
        0x00000ebe:    bf00        ..      NOP      
        0x00000ec0:    481b        .H      LDR      r0,[pc,#108] ; [0xf30] = 0x50000200
        0x00000ec2:    68c0        .h      LDR      r0,[r0,#0xc]
        0x00000ec4:    2110        .!      MOVS     r1,#0x10
        0x00000ec6:    4008        .@      ANDS     r0,r0,r1
        0x00000ec8:    2800        .(      CMP      r0,#0
        0x00000eca:    d0f9        ..      BEQ      0xec0 ; CLK_SetCoreClock + 44
        0x00000ecc:    4818        .H      LDR      r0,[pc,#96] ; [0xf30] = 0x50000200
        0x00000ece:    6900        .i      LDR      r0,[r0,#0x10]
        0x00000ed0:    08c0        ..      LSRS     r0,r0,#3
        0x00000ed2:    00c0        ..      LSLS     r0,r0,#3
        0x00000ed4:    1dc0        ..      ADDS     r0,r0,#7
        0x00000ed6:    4916        .I      LDR      r1,[pc,#88] ; [0xf30] = 0x50000200
        0x00000ed8:    6108        .a      STR      r0,[r1,#0x10]
        0x00000eda:    4608        .F      MOV      r0,r1
        0x00000edc:    6a00        .j      LDR      r0,[r0,#0x20]
        0x00000ede:    01c9        ..      LSLS     r1,r1,#7
        0x00000ee0:    4308        .C      ORRS     r0,r0,r1
        0x00000ee2:    4913        .I      LDR      r1,[pc,#76] ; [0xf30] = 0x50000200
        0x00000ee4:    6208        .b      STR      r0,[r1,#0x20]
        0x00000ee6:    4608        .F      MOV      r0,r1
        0x00000ee8:    6800        .h      LDR      r0,[r0,#0]
        0x00000eea:    07c0        ..      LSLS     r0,r0,#31
        0x00000eec:    0fc0        ..      LSRS     r0,r0,#31
        0x00000eee:    2800        .(      CMP      r0,#0
        0x00000ef0:    d005        ..      BEQ      0xefe ; CLK_SetCoreClock + 106
        0x00000ef2:    4621        !F      MOV      r1,r4
        0x00000ef4:    2000        .       MOVS     r0,#0
        0x00000ef6:    f7fffe43    ..C.    BL       CLK_EnablePLL ; 0xb80
        0x00000efa:    4604        .F      MOV      r4,r0
        0x00000efc:    e00a        ..      B        0xf14 ; CLK_SetCoreClock + 128
        0x00000efe:    4621        !F      MOV      r1,r4
        0x00000f00:    2001        .       MOVS     r0,#1
        0x00000f02:    04c0        ..      LSLS     r0,r0,#19
        0x00000f04:    f7fffe3c    ..<.    BL       CLK_EnablePLL ; 0xb80
        0x00000f08:    4604        .F      MOV      r4,r0
        0x00000f0a:    4809        .H      LDR      r0,[pc,#36] ; [0xf30] = 0x50000200
        0x00000f0c:    68c0        .h      LDR      r0,[r0,#0xc]
        0x00000f0e:    2110        .!      MOVS     r1,#0x10
        0x00000f10:    4008        .@      ANDS     r0,r0,r1
        0x00000f12:    4605        .F      MOV      r5,r0
        0x00000f14:    2100        .!      MOVS     r1,#0
        0x00000f16:    2002        .       MOVS     r0,#2
        0x00000f18:    f000f810    ....    BL       CLK_SetHCLK ; 0xf3c
        0x00000f1c:    2d00        .-      CMP      r5,#0
        0x00000f1e:    d105        ..      BNE      0xf2c ; CLK_SetCoreClock + 152
        0x00000f20:    4803        .H      LDR      r0,[pc,#12] ; [0xf30] = 0x50000200
        0x00000f22:    6800        .h      LDR      r0,[r0,#0]
        0x00000f24:    2104        .!      MOVS     r1,#4
        0x00000f26:    4388        .C      BICS     r0,r0,r1
        0x00000f28:    4901        .I      LDR      r1,[pc,#4] ; [0xf30] = 0x50000200
        0x00000f2a:    6008        .`      STR      r0,[r1,#0]
        0x00000f2c:    4620         F      MOV      r0,r4
        0x00000f2e:    bd70        p.      POP      {r4-r6,pc}
    $d
        0x00000f30:    50000200    ...P    DCD    1342177792
        0x00000f34:    02faf080    ....    DCD    50000000
        0x00000f38:    017d7840    @x}.    DCD    25000000
    $t
    i.CLK_SetHCLK
    CLK_SetHCLK
        0x00000f3c:    b570        p.      PUSH     {r4-r6,lr}
        0x00000f3e:    4604        .F      MOV      r4,r0
        0x00000f40:    460d        .F      MOV      r5,r1
        0x00000f42:    4818        .H      LDR      r0,[pc,#96] ; [0xfa4] = 0x50000200
        0x00000f44:    68c0        .h      LDR      r0,[r0,#0xc]
        0x00000f46:    2110        .!      MOVS     r1,#0x10
        0x00000f48:    4008        .@      ANDS     r0,r0,r1
        0x00000f4a:    4606        .F      MOV      r6,r0
        0x00000f4c:    4815        .H      LDR      r0,[pc,#84] ; [0xfa4] = 0x50000200
        0x00000f4e:    6800        .h      LDR      r0,[r0,#0]
        0x00000f50:    2104        .!      MOVS     r1,#4
        0x00000f52:    4308        .C      ORRS     r0,r0,r1
        0x00000f54:    4913        .I      LDR      r1,[pc,#76] ; [0xfa4] = 0x50000200
        0x00000f56:    6008        .`      STR      r0,[r1,#0]
        0x00000f58:    bf00        ..      NOP      
        0x00000f5a:    4812        .H      LDR      r0,[pc,#72] ; [0xfa4] = 0x50000200
        0x00000f5c:    68c0        .h      LDR      r0,[r0,#0xc]
        0x00000f5e:    2110        .!      MOVS     r1,#0x10
        0x00000f60:    4008        .@      ANDS     r0,r0,r1
        0x00000f62:    2800        .(      CMP      r0,#0
        0x00000f64:    d0f9        ..      BEQ      0xf5a ; CLK_SetHCLK + 30
        0x00000f66:    480f        .H      LDR      r0,[pc,#60] ; [0xfa4] = 0x50000200
        0x00000f68:    6900        .i      LDR      r0,[r0,#0x10]
        0x00000f6a:    08c0        ..      LSRS     r0,r0,#3
        0x00000f6c:    00c0        ..      LSLS     r0,r0,#3
        0x00000f6e:    1dc0        ..      ADDS     r0,r0,#7
        0x00000f70:    490c        .I      LDR      r1,[pc,#48] ; [0xfa4] = 0x50000200
        0x00000f72:    6108        .a      STR      r0,[r1,#0x10]
        0x00000f74:    4608        .F      MOV      r0,r1
        0x00000f76:    6980        .i      LDR      r0,[r0,#0x18]
        0x00000f78:    0900        ..      LSRS     r0,r0,#4
        0x00000f7a:    0100        ..      LSLS     r0,r0,#4
        0x00000f7c:    4328        (C      ORRS     r0,r0,r5
        0x00000f7e:    6188        .a      STR      r0,[r1,#0x18]
        0x00000f80:    4608        .F      MOV      r0,r1
        0x00000f82:    6900        .i      LDR      r0,[r0,#0x10]
        0x00000f84:    08c0        ..      LSRS     r0,r0,#3
        0x00000f86:    00c0        ..      LSLS     r0,r0,#3
        0x00000f88:    4320         C      ORRS     r0,r0,r4
        0x00000f8a:    6108        .a      STR      r0,[r1,#0x10]
        0x00000f8c:    f000ffba    ....    BL       SystemCoreClockUpdate ; 0x1f04
        0x00000f90:    2e00        ..      CMP      r6,#0
        0x00000f92:    d105        ..      BNE      0xfa0 ; CLK_SetHCLK + 100
        0x00000f94:    4803        .H      LDR      r0,[pc,#12] ; [0xfa4] = 0x50000200
        0x00000f96:    6800        .h      LDR      r0,[r0,#0]
        0x00000f98:    2110        .!      MOVS     r1,#0x10
        0x00000f9a:    4388        .C      BICS     r0,r0,r1
        0x00000f9c:    4901        .I      LDR      r1,[pc,#4] ; [0xfa4] = 0x50000200
        0x00000f9e:    6008        .`      STR      r0,[r1,#0]
        0x00000fa0:    bd70        p.      POP      {r4-r6,pc}
    $d
        0x00000fa2:    0000        ..      DCW    0
        0x00000fa4:    50000200    ...P    DCD    1342177792
    $t
    i.CLK_SetModuleClock
    CLK_SetModuleClock
        0x00000fa8:    b5f7        ..      PUSH     {r0-r2,r4-r7,lr}
        0x00000faa:    b086        ..      SUB      sp,sp,#0x18
        0x00000fac:    2200        ."      MOVS     r2,#0
        0x00000fae:    2300        .#      MOVS     r3,#0
        0x00000fb0:    4c39        9L      LDR      r4,[pc,#228] ; [0x1098] = 0x5704
        0x00000fb2:    4625        %F      MOV      r5,r4
        0x00000fb4:    cde0        ..      LDM      r5,{r5-r7}
        0x00000fb6:    68e4        .h      LDR      r4,[r4,#0xc]
        0x00000fb8:    9704        ..      STR      r7,[sp,#0x10]
        0x00000fba:    9603        ..      STR      r6,[sp,#0xc]
        0x00000fbc:    9502        ..      STR      r5,[sp,#8]
        0x00000fbe:    9405        ..      STR      r4,[sp,#0x14]
        0x00000fc0:    4d35        5M      LDR      r5,[pc,#212] ; [0x1098] = 0x5704
        0x00000fc2:    3510        .5      ADDS     r5,r5,#0x10
        0x00000fc4:    cd30        0.      LDM      r5,{r4,r5}
        0x00000fc6:    9501        ..      STR      r5,[sp,#4]
        0x00000fc8:    9400        ..      STR      r4,[sp,#0]
        0x00000fca:    0104        ..      LSLS     r4,r0,#4
        0x00000fcc:    0f64        d.      LSRS     r4,r4,#29
        0x00000fce:    2c00        .,      CMP      r4,#0
        0x00000fd0:    d04a        J.      BEQ      0x1068 ; CLK_SetModuleClock + 192
        0x00000fd2:    0084        ..      LSLS     r4,r0,#2
        0x00000fd4:    0fa4        ..      LSRS     r4,r4,#30
        0x00000fd6:    00a4        ..      LSLS     r4,r4,#2
        0x00000fd8:    ad02        ..      ADD      r5,sp,#8
        0x00000fda:    592c        ,Y      LDR      r4,[r5,r4]
        0x00000fdc:    4d2f        /M      LDR      r5,[pc,#188] ; [0x109c] = 0x50000210
        0x00000fde:    1962        b.      ADDS     r2,r4,r5
        0x00000fe0:    0104        ..      LSLS     r4,r0,#4
        0x00000fe2:    0f65        e.      LSRS     r5,r4,#29
        0x00000fe4:    01c4        ..      LSLS     r4,r0,#7
        0x00000fe6:    0ee4        ..      LSRS     r4,r4,#27
        0x00000fe8:    40a5        .@      LSLS     r5,r5,r4
        0x00000fea:    6814        .h      LDR      r4,[r2,#0]
        0x00000fec:    43ac        .C      BICS     r4,r4,r5
        0x00000fee:    430c        .C      ORRS     r4,r4,r1
        0x00000ff0:    6014        .`      STR      r4,[r2,#0]
        0x00000ff2:    4c2b        +L      LDR      r4,[pc,#172] ; [0x10a0] = 0x57c00014
        0x00000ff4:    42a0        .B      CMP      r0,r4
        0x00000ff6:    d10b        ..      BNE      0x1010 ; CLK_SetModuleClock + 104
        0x00000ff8:    4c28        (L      LDR      r4,[pc,#160] ; [0x109c] = 0x50000210
        0x00000ffa:    3c10        .<      SUBS     r4,r4,#0x10
        0x00000ffc:    69e4        .i      LDR      r4,[r4,#0x1c]
        0x00000ffe:    25ff        .%      MOVS     r5,#0xff
        0x00001000:    3501        .5      ADDS     r5,#1
        0x00001002:    43ac        .C      BICS     r4,r4,r5
        0x00001004:    400d        .@      ANDS     r5,r5,r1
        0x00001006:    432c        ,C      ORRS     r4,r4,r5
        0x00001008:    4d24        $M      LDR      r5,[pc,#144] ; [0x109c] = 0x50000210
        0x0000100a:    3d10        .=      SUBS     r5,r5,#0x10
        0x0000100c:    61ec        .a      STR      r4,[r5,#0x1c]
        0x0000100e:    e02b        +.      B        0x1068 ; CLK_SetModuleClock + 192
        0x00001010:    4c24        $L      LDR      r4,[pc,#144] ; [0x10a4] = 0x57e00015
        0x00001012:    42a0        .B      CMP      r0,r4
        0x00001014:    d10b        ..      BNE      0x102e ; CLK_SetModuleClock + 134
        0x00001016:    4c21        !L      LDR      r4,[pc,#132] ; [0x109c] = 0x50000210
        0x00001018:    3c10        .<      SUBS     r4,r4,#0x10
        0x0000101a:    69e4        .i      LDR      r4,[r4,#0x1c]
        0x0000101c:    2501        .%      MOVS     r5,#1
        0x0000101e:    026d        m.      LSLS     r5,r5,#9
        0x00001020:    43ac        .C      BICS     r4,r4,r5
        0x00001022:    400d        .@      ANDS     r5,r5,r1
        0x00001024:    432c        ,C      ORRS     r4,r4,r5
        0x00001026:    4d1d        .M      LDR      r5,[pc,#116] ; [0x109c] = 0x50000210
        0x00001028:    3d10        .=      SUBS     r5,r5,#0x10
        0x0000102a:    61ec        .a      STR      r4,[r5,#0x1c]
        0x0000102c:    e01c        ..      B        0x1068 ; CLK_SetModuleClock + 192
        0x0000102e:    4c1e        .L      LDR      r4,[pc,#120] ; [0x10a8] = 0x66400016
        0x00001030:    42a0        .B      CMP      r0,r4
        0x00001032:    d10b        ..      BNE      0x104c ; CLK_SetModuleClock + 164
        0x00001034:    4c19        .L      LDR      r4,[pc,#100] ; [0x109c] = 0x50000210
        0x00001036:    3c10        .<      SUBS     r4,r4,#0x10
        0x00001038:    69e4        .i      LDR      r4,[r4,#0x1c]
        0x0000103a:    2501        .%      MOVS     r5,#1
        0x0000103c:    02ad        ..      LSLS     r5,r5,#10
        0x0000103e:    43ac        .C      BICS     r4,r4,r5
        0x00001040:    400d        .@      ANDS     r5,r5,r1
        0x00001042:    432c        ,C      ORRS     r4,r4,r5
        0x00001044:    4d15        .M      LDR      r5,[pc,#84] ; [0x109c] = 0x50000210
        0x00001046:    3d10        .=      SUBS     r5,r5,#0x10
        0x00001048:    61ec        .a      STR      r4,[r5,#0x1c]
        0x0000104a:    e00d        ..      B        0x1068 ; CLK_SetModuleClock + 192
        0x0000104c:    4c17        .L      LDR      r4,[pc,#92] ; [0x10ac] = 0x66600017
        0x0000104e:    42a0        .B      CMP      r0,r4
        0x00001050:    d10a        ..      BNE      0x1068 ; CLK_SetModuleClock + 192
        0x00001052:    4c12        .L      LDR      r4,[pc,#72] ; [0x109c] = 0x50000210
        0x00001054:    3c10        .<      SUBS     r4,r4,#0x10
        0x00001056:    69e4        .i      LDR      r4,[r4,#0x1c]
        0x00001058:    2501        .%      MOVS     r5,#1
        0x0000105a:    02ed        ..      LSLS     r5,r5,#11
        0x0000105c:    43ac        .C      BICS     r4,r4,r5
        0x0000105e:    400d        .@      ANDS     r5,r5,r1
        0x00001060:    432c        ,C      ORRS     r4,r4,r5
        0x00001062:    4d0e        .M      LDR      r5,[pc,#56] ; [0x109c] = 0x50000210
        0x00001064:    3d10        .=      SUBS     r5,r5,#0x10
        0x00001066:    61ec        .a      STR      r4,[r5,#0x1c]
        0x00001068:    0384        ..      LSLS     r4,r0,#14
        0x0000106a:    0e24        $.      LSRS     r4,r4,#24
        0x0000106c:    2c00        .,      CMP      r4,#0
        0x0000106e:    d011        ..      BEQ      0x1094 ; CLK_SetModuleClock + 236
        0x00001070:    0304        ..      LSLS     r4,r0,#12
        0x00001072:    0fa4        ..      LSRS     r4,r4,#30
        0x00001074:    00a4        ..      LSLS     r4,r4,#2
        0x00001076:    466d        mF      MOV      r5,sp
        0x00001078:    592c        ,Y      LDR      r4,[r5,r4]
        0x0000107a:    4d08        .M      LDR      r5,[pc,#32] ; [0x109c] = 0x50000210
        0x0000107c:    3508        .5      ADDS     r5,r5,#8
        0x0000107e:    1963        c.      ADDS     r3,r4,r5
        0x00001080:    0384        ..      LSLS     r4,r0,#14
        0x00001082:    0e25        %.      LSRS     r5,r4,#24
        0x00001084:    0584        ..      LSLS     r4,r0,#22
        0x00001086:    0ee4        ..      LSRS     r4,r4,#27
        0x00001088:    40a5        .@      LSLS     r5,r5,r4
        0x0000108a:    681c        .h      LDR      r4,[r3,#0]
        0x0000108c:    43ac        .C      BICS     r4,r4,r5
        0x0000108e:    9d08        ..      LDR      r5,[sp,#0x20]
        0x00001090:    432c        ,C      ORRS     r4,r4,r5
        0x00001092:    601c        .`      STR      r4,[r3,#0]
        0x00001094:    b009        ..      ADD      sp,sp,#0x24
        0x00001096:    bdf0        ..      POP      {r4-r7,pc}
    $d
        0x00001098:    00005704    .W..    DCD    22276
        0x0000109c:    50000210    ...P    DCD    1342177808
        0x000010a0:    57c00014    ...W    DCD    1472200724
        0x000010a4:    57e00015    ...W    DCD    1474297877
        0x000010a8:    66400016    ..@f    DCD    1715470358
        0x000010ac:    66600017    ..`f    DCD    1717567511
    $t
    i.CLK_WaitClockReady
    CLK_WaitClockReady
        0x000010b0:    4601        .F      MOV      r1,r0
        0x000010b2:    4a07        .J      LDR      r2,[pc,#28] ; [0x10d0] = 0x124f80
        0x000010b4:    e005        ..      B        0x10c2 ; CLK_WaitClockReady + 18
        0x000010b6:    4610        .F      MOV      r0,r2
        0x000010b8:    1e52        R.      SUBS     r2,r2,#1
        0x000010ba:    2800        .(      CMP      r0,#0
        0x000010bc:    dc01        ..      BGT      0x10c2 ; CLK_WaitClockReady + 18
        0x000010be:    2000        .       MOVS     r0,#0
        0x000010c0:    4770        pG      BX       lr
        0x000010c2:    4804        .H      LDR      r0,[pc,#16] ; [0x10d4] = 0x50000200
        0x000010c4:    68c0        .h      LDR      r0,[r0,#0xc]
        0x000010c6:    4008        .@      ANDS     r0,r0,r1
        0x000010c8:    4288        .B      CMP      r0,r1
        0x000010ca:    d1f4        ..      BNE      0x10b6 ; CLK_WaitClockReady + 6
        0x000010cc:    2001        .       MOVS     r0,#1
        0x000010ce:    e7f7        ..      B        0x10c0 ; CLK_WaitClockReady + 16
    $d
        0x000010d0:    00124f80    .O..    DCD    1200000
        0x000010d4:    50000200    ...P    DCD    1342177792
    $t
    i.GPAB_IRQHandler
    GPAB_IRQHandler
        0x000010d8:    480b        .H      LDR      r0,[pc,#44] ; [0x1108] = 0x50004040
        0x000010da:    6a00        .j      LDR      r0,[r0,#0x20]
        0x000010dc:    2180        .!      MOVS     r1,#0x80
        0x000010de:    4008        .@      ANDS     r0,r0,r1
        0x000010e0:    2800        .(      CMP      r0,#0
        0x000010e2:    d006        ..      BEQ      0x10f2 ; GPAB_IRQHandler + 26
        0x000010e4:    2080        .       MOVS     r0,#0x80
        0x000010e6:    4908        .I      LDR      r1,[pc,#32] ; [0x1108] = 0x50004040
        0x000010e8:    6208        .b      STR      r0,[r1,#0x20]
        0x000010ea:    2001        .       MOVS     r0,#1
        0x000010ec:    4907        .I      LDR      r1,[pc,#28] ; [0x110c] = 0x20000080
        0x000010ee:    7008        .p      STRB     r0,[r1,#0]
        0x000010f0:    e009        ..      B        0x1106 ; GPAB_IRQHandler + 46
        0x000010f2:    4805        .H      LDR      r0,[pc,#20] ; [0x1108] = 0x50004040
        0x000010f4:    3840        @8      SUBS     r0,r0,#0x40
        0x000010f6:    6a00        .j      LDR      r0,[r0,#0x20]
        0x000010f8:    4903        .I      LDR      r1,[pc,#12] ; [0x1108] = 0x50004040
        0x000010fa:    3940        @9      SUBS     r1,r1,#0x40
        0x000010fc:    6208        .b      STR      r0,[r1,#0x20]
        0x000010fe:    4802        .H      LDR      r0,[pc,#8] ; [0x1108] = 0x50004040
        0x00001100:    6a00        .j      LDR      r0,[r0,#0x20]
        0x00001102:    4901        .I      LDR      r1,[pc,#4] ; [0x1108] = 0x50004040
        0x00001104:    6208        .b      STR      r0,[r1,#0x20]
        0x00001106:    4770        pG      BX       lr
    $d
        0x00001108:    50004040    @@.P    DCD    1342193728
        0x0000110c:    20000080    ...     DCD    536871040
    $t
    i.GPIO_EnableInt
    GPIO_EnableInt
        0x00001110:    b510        ..      PUSH     {r4,lr}
        0x00001112:    6984        .i      LDR      r4,[r0,#0x18]
        0x00001114:    0e13        ..      LSRS     r3,r2,#24
        0x00001116:    408b        .@      LSLS     r3,r3,r1
        0x00001118:    431c        .C      ORRS     r4,r4,r3
        0x0000111a:    6184        .a      STR      r4,[r0,#0x18]
        0x0000111c:    69c3        .i      LDR      r3,[r0,#0x1c]
        0x0000111e:    0214        ..      LSLS     r4,r2,#8
        0x00001120:    0a24        $.      LSRS     r4,r4,#8
        0x00001122:    408c        .@      LSLS     r4,r4,r1
        0x00001124:    4323        #C      ORRS     r3,r3,r4
        0x00001126:    61c3        .a      STR      r3,[r0,#0x1c]
        0x00001128:    bd10        ..      POP      {r4,pc}
    i.GPIO_SetMode
    GPIO_SetMode
        0x0000112a:    b570        p.      PUSH     {r4-r6,lr}
        0x0000112c:    4603        .F      MOV      r3,r0
        0x0000112e:    2000        .       MOVS     r0,#0
        0x00001130:    e00f        ..      B        0x1152 ; GPIO_SetMode + 40
        0x00001132:    2401        .$      MOVS     r4,#1
        0x00001134:    4084        .@      LSLS     r4,r4,r0
        0x00001136:    400c        .@      ANDS     r4,r4,r1
        0x00001138:    2c00        .,      CMP      r4,#0
        0x0000113a:    d009        ..      BEQ      0x1150 ; GPIO_SetMode + 38
        0x0000113c:    681c        .h      LDR      r4,[r3,#0]
        0x0000113e:    0046        F.      LSLS     r6,r0,#1
        0x00001140:    2503        .%      MOVS     r5,#3
        0x00001142:    40b5        .@      LSLS     r5,r5,r6
        0x00001144:    43ac        .C      BICS     r4,r4,r5
        0x00001146:    0046        F.      LSLS     r6,r0,#1
        0x00001148:    4615        .F      MOV      r5,r2
        0x0000114a:    40b5        .@      LSLS     r5,r5,r6
        0x0000114c:    432c        ,C      ORRS     r4,r4,r5
        0x0000114e:    601c        .`      STR      r4,[r3,#0]
        0x00001150:    1c40        @.      ADDS     r0,r0,#1
        0x00001152:    2810        .(      CMP      r0,#0x10
        0x00001154:    d3ed        ..      BCC      0x1132 ; GPIO_SetMode + 8
        0x00001156:    bd70        p.      POP      {r4-r6,pc}
    i.Hard_Fault_Handler
    Hard_Fault_Handler
    __tagsym$$used
        0x00001158:    4604        .F      MOV      r4,r0
        0x0000115a:    a00c        ..      ADR      r0,{pc}+0x32 ; 0x118c
        0x0000115c:    f001fd16    ....    BL       __0printf ; 0x2b8c
        0x00001160:    4620         F      MOV      r0,r4
        0x00001162:    f004f847    ..G.    BL       stackDump ; 0x51f4
        0x00001166:    bf00        ..      NOP      
        0x00001168:    e006        ..      B        0x1178 ; Hard_Fault_Handler + 32
        0x0000116a:    2059        Y       MOVS     r0,#0x59
        0x0000116c:    490d        .I      LDR      r1,[pc,#52] ; [0x11a4] = 0x50000100
        0x0000116e:    6008        .`      STR      r0,[r1,#0]
        0x00001170:    2016        .       MOVS     r0,#0x16
        0x00001172:    6008        .`      STR      r0,[r1,#0]
        0x00001174:    2088        .       MOVS     r0,#0x88
        0x00001176:    6008        .`      STR      r0,[r1,#0]
        0x00001178:    480a        .H      LDR      r0,[pc,#40] ; [0x11a4] = 0x50000100
        0x0000117a:    6800        .h      LDR      r0,[r0,#0]
        0x0000117c:    2801        .(      CMP      r0,#1
        0x0000117e:    d1f4        ..      BNE      0x116a ; Hard_Fault_Handler + 18
        0x00001180:    bf00        ..      NOP      
        0x00001182:    2105        .!      MOVS     r1,#5
        0x00001184:    0709        ..      LSLS     r1,r1,#28
        0x00001186:    6088        .`      STR      r0,[r1,#8]
        0x00001188:    bf00        ..      NOP      
        0x0000118a:    e7fe        ..      B        0x118a ; Hard_Fault_Handler + 50
    $d
        0x0000118c:    48206e49    In H    DCD    1210084937
        0x00001190:    20647261    ard     DCD    543453793
        0x00001194:    6c756146    Faul    DCD    1819631942
        0x00001198:    61482074    t Ha    DCD    1632116852
        0x0000119c:    656c646e    ndle    DCD    1701602414
        0x000011a0:    00000a72    r...    DCD    2674
        0x000011a4:    50000100    ...P    DCD    1342177536
    $t
    i.I2C1_IRQHandler
    I2C1_IRQHandler
        0x000011a8:    b510        ..      PUSH     {r4,lr}
        0x000011aa:    480b        .H      LDR      r0,[pc,#44] ; [0x11d8] = 0x40120000
        0x000011ac:    68c4        .h      LDR      r4,[r0,#0xc]
        0x000011ae:    6940        @i      LDR      r0,[r0,#0x14]
        0x000011b0:    07c0        ..      LSLS     r0,r0,#31
        0x000011b2:    0fc0        ..      LSRS     r0,r0,#31
        0x000011b4:    2101        .!      MOVS     r1,#1
        0x000011b6:    4048        H@      EORS     r0,r0,r1
        0x000011b8:    4048        H@      EORS     r0,r0,r1
        0x000011ba:    2800        .(      CMP      r0,#0
        0x000011bc:    d003        ..      BEQ      0x11c6 ; I2C1_IRQHandler + 30
        0x000011be:    4806        .H      LDR      r0,[pc,#24] ; [0x11d8] = 0x40120000
        0x000011c0:    f000f80e    ....    BL       I2C_ClearTimeoutFlag ; 0x11e0
        0x000011c4:    e007        ..      B        0x11d6 ; I2C1_IRQHandler + 46
        0x000011c6:    4805        .H      LDR      r0,[pc,#20] ; [0x11dc] = 0x2000000c
        0x000011c8:    6800        .h      LDR      r0,[r0,#0]
        0x000011ca:    2800        .(      CMP      r0,#0
        0x000011cc:    d003        ..      BEQ      0x11d6 ; I2C1_IRQHandler + 46
        0x000011ce:    4620         F      MOV      r0,r4
        0x000011d0:    4902        .I      LDR      r1,[pc,#8] ; [0x11dc] = 0x2000000c
        0x000011d2:    6809        .h      LDR      r1,[r1,#0]
        0x000011d4:    4788        .G      BLX      r1
        0x000011d6:    bd10        ..      POP      {r4,pc}
    $d
        0x000011d8:    40120000    ...@    DCD    1074921472
        0x000011dc:    2000000c    ...     DCD    536870924
    $t
    i.I2C_ClearTimeoutFlag
    I2C_ClearTimeoutFlag
        0x000011e0:    6941        Ai      LDR      r1,[r0,#0x14]
        0x000011e2:    2201        ."      MOVS     r2,#1
        0x000011e4:    4311        .C      ORRS     r1,r1,r2
        0x000011e6:    6141        Aa      STR      r1,[r0,#0x14]
        0x000011e8:    4770        pG      BX       lr
    i.I2C_EnableInt
    I2C_EnableInt
        0x000011ea:    6801        .h      LDR      r1,[r0,#0]
        0x000011ec:    2280        ."      MOVS     r2,#0x80
        0x000011ee:    4311        .C      ORRS     r1,r1,r2
        0x000011f0:    6001        .`      STR      r1,[r0,#0]
        0x000011f2:    4770        pG      BX       lr
    i.I2C_GetBusClockFreq
    I2C_GetBusClockFreq
        0x000011f4:    b570        p.      PUSH     {r4-r6,lr}
        0x000011f6:    4604        .F      MOV      r4,r0
        0x000011f8:    6925        %i      LDR      r5,[r4,#0x10]
        0x000011fa:    1c68        h.      ADDS     r0,r5,#1
        0x000011fc:    0081        ..      LSLS     r1,r0,#2
        0x000011fe:    4802        .H      LDR      r0,[pc,#8] ; [0x1208] = 0x200000f8
        0x00001200:    6800        .h      LDR      r0,[r0,#0]
        0x00001202:    f7fff855    ..U.    BL       __aeabi_uidiv ; 0x2b0
        0x00001206:    bd70        p.      POP      {r4-r6,pc}
    $d
        0x00001208:    200000f8    ...     DCD    536871160
    $t
    i.I2C_Open
    I2C_Open
        0x0000120c:    b5f8        ..      PUSH     {r3-r7,lr}
        0x0000120e:    4604        .F      MOV      r4,r0
        0x00001210:    460d        .F      MOV      r5,r1
        0x00001212:    00a9        ..      LSLS     r1,r5,#2
        0x00001214:    4a0c        .J      LDR      r2,[pc,#48] ; [0x1248] = 0x200000f8
        0x00001216:    6812        .h      LDR      r2,[r2,#0]
        0x00001218:    230a        .#      MOVS     r3,#0xa
        0x0000121a:    435a        ZC      MULS     r2,r3,r2
        0x0000121c:    4610        .F      MOV      r0,r2
        0x0000121e:    f7fff847    ..G.    BL       __aeabi_uidiv ; 0x2b0
        0x00001222:    1d47        G.      ADDS     r7,r0,#5
        0x00001224:    210a        .!      MOVS     r1,#0xa
        0x00001226:    4638        8F      MOV      r0,r7
        0x00001228:    f7fff842    ..B.    BL       __aeabi_uidiv ; 0x2b0
        0x0000122c:    1e46        F.      SUBS     r6,r0,#1
        0x0000122e:    6126        &a      STR      r6,[r4,#0x10]
        0x00001230:    6820         h      LDR      r0,[r4,#0]
        0x00001232:    2140        @!      MOVS     r1,#0x40
        0x00001234:    4308        .C      ORRS     r0,r0,r1
        0x00001236:    6020         `      STR      r0,[r4,#0]
        0x00001238:    1c70        p.      ADDS     r0,r6,#1
        0x0000123a:    0081        ..      LSLS     r1,r0,#2
        0x0000123c:    4802        .H      LDR      r0,[pc,#8] ; [0x1248] = 0x200000f8
        0x0000123e:    6800        .h      LDR      r0,[r0,#0]
        0x00001240:    f7fff836    ..6.    BL       __aeabi_uidiv ; 0x2b0
        0x00001244:    bdf8        ..      POP      {r3-r7,pc}
    $d
        0x00001246:    0000        ..      DCW    0
        0x00001248:    200000f8    ...     DCD    536871160
    $t
    i.Init_Thread
    Init_Thread
        0x0000124c:    b510        ..      PUSH     {r4,lr}
        0x0000124e:    2100        .!      MOVS     r1,#0
        0x00001250:    480c        .H      LDR      r0,[pc,#48] ; [0x1284] = 0x566c
        0x00001252:    f002fee3    ....    BL       osThreadCreate ; 0x401c
        0x00001256:    490c        .I      LDR      r1,[pc,#48] ; [0x1288] = 0x200000b4
        0x00001258:    6008        .`      STR      r0,[r1,#0]
        0x0000125a:    4608        .F      MOV      r0,r1
        0x0000125c:    6800        .h      LDR      r0,[r0,#0]
        0x0000125e:    2800        .(      CMP      r0,#0
        0x00001260:    d101        ..      BNE      0x1266 ; Init_Thread + 26
        0x00001262:    1e40        @.      SUBS     r0,r0,#1
        0x00001264:    bd10        ..      POP      {r4,pc}
        0x00001266:    2100        .!      MOVS     r1,#0
        0x00001268:    4808        .H      LDR      r0,[pc,#32] ; [0x128c] = 0x567c
        0x0000126a:    f002fed7    ....    BL       osThreadCreate ; 0x401c
        0x0000126e:    4908        .I      LDR      r1,[pc,#32] ; [0x1290] = 0x200000b8
        0x00001270:    6008        .`      STR      r0,[r1,#0]
        0x00001272:    4805        .H      LDR      r0,[pc,#20] ; [0x1288] = 0x200000b4
        0x00001274:    6800        .h      LDR      r0,[r0,#0]
        0x00001276:    2800        .(      CMP      r0,#0
        0x00001278:    d101        ..      BNE      0x127e ; Init_Thread + 50
        0x0000127a:    1e40        @.      SUBS     r0,r0,#1
        0x0000127c:    e7f2        ..      B        0x1264 ; Init_Thread + 24
        0x0000127e:    2000        .       MOVS     r0,#0
        0x00001280:    e7f0        ..      B        0x1264 ; Init_Thread + 24
    $d
        0x00001282:    0000        ..      DCW    0
        0x00001284:    0000566c    lV..    DCD    22124
        0x00001288:    200000b4    ...     DCD    536871092
        0x0000128c:    0000567c    |V..    DCD    22140
        0x00001290:    200000b8    ...     DCD    536871096
    $t
    i.Init_Timers
    Init_Timers
        0x00001294:    b510        ..      PUSH     {r4,lr}
        0x00001296:    2001        .       MOVS     r0,#1
        0x00001298:    4915        .I      LDR      r1,[pc,#84] ; [0x12f0] = 0x200000d4
        0x0000129a:    6008        .`      STR      r0,[r1,#0]
        0x0000129c:    460a        .F      MOV      r2,r1
        0x0000129e:    2100        .!      MOVS     r1,#0
        0x000012a0:    4814        .H      LDR      r0,[pc,#80] ; [0x12f4] = 0x568c
        0x000012a2:    f002fee9    ....    BL       osTimerCreate ; 0x4078
        0x000012a6:    4914        .I      LDR      r1,[pc,#80] ; [0x12f8] = 0x200000d0
        0x000012a8:    6008        .`      STR      r0,[r1,#0]
        0x000012aa:    4608        .F      MOV      r0,r1
        0x000012ac:    6800        .h      LDR      r0,[r0,#0]
        0x000012ae:    2800        .(      CMP      r0,#0
        0x000012b0:    d006        ..      BEQ      0x12c0 ; Init_Timers + 44
        0x000012b2:    2164        d!      MOVS     r1,#0x64
        0x000012b4:    4810        .H      LDR      r0,[pc,#64] ; [0x12f8] = 0x200000d0
        0x000012b6:    6800        .h      LDR      r0,[r0,#0]
        0x000012b8:    f002fef8    ....    BL       osTimerStart ; 0x40ac
        0x000012bc:    4604        .F      MOV      r4,r0
        0x000012be:    bf00        ..      NOP      
        0x000012c0:    2002        .       MOVS     r0,#2
        0x000012c2:    490e        .I      LDR      r1,[pc,#56] ; [0x12fc] = 0x200000dc
        0x000012c4:    6008        .`      STR      r0,[r1,#0]
        0x000012c6:    460a        .F      MOV      r2,r1
        0x000012c8:    2101        .!      MOVS     r1,#1
        0x000012ca:    480d        .H      LDR      r0,[pc,#52] ; [0x1300] = 0x5694
        0x000012cc:    f002fed4    ....    BL       osTimerCreate ; 0x4078
        0x000012d0:    490c        .I      LDR      r1,[pc,#48] ; [0x1304] = 0x200000d8
        0x000012d2:    6008        .`      STR      r0,[r1,#0]
        0x000012d4:    4608        .F      MOV      r0,r1
        0x000012d6:    6800        .h      LDR      r0,[r0,#0]
        0x000012d8:    2800        .(      CMP      r0,#0
        0x000012da:    d007        ..      BEQ      0x12ec ; Init_Timers + 88
        0x000012dc:    217d        }!      MOVS     r1,#0x7d
        0x000012de:    00c9        ..      LSLS     r1,r1,#3
        0x000012e0:    4808        .H      LDR      r0,[pc,#32] ; [0x1304] = 0x200000d8
        0x000012e2:    6800        .h      LDR      r0,[r0,#0]
        0x000012e4:    f002fee2    ....    BL       osTimerStart ; 0x40ac
        0x000012e8:    4604        .F      MOV      r4,r0
        0x000012ea:    bf00        ..      NOP      
        0x000012ec:    bd10        ..      POP      {r4,pc}
    $d
        0x000012ee:    0000        ..      DCW    0
        0x000012f0:    200000d4    ...     DCD    536871124
        0x000012f4:    0000568c    .V..    DCD    22156
        0x000012f8:    200000d0    ...     DCD    536871120
        0x000012fc:    200000dc    ...     DCD    536871132
        0x00001300:    00005694    .V..    DCD    22164
        0x00001304:    200000d8    ...     DCD    536871128
    $t
    i.SYS_Init
    SYS_Init
        0x00001308:    b510        ..      PUSH     {r4,lr}
        0x0000130a:    2004        .       MOVS     r0,#4
        0x0000130c:    f7fffcfa    ....    BL       CLK_EnableXtalRC ; 0xd04
        0x00001310:    2010        .       MOVS     r0,#0x10
        0x00001312:    f7fffecd    ....    BL       CLK_WaitClockReady ; 0x10b0
        0x00001316:    2100        .!      MOVS     r1,#0
        0x00001318:    2007        .       MOVS     r0,#7
        0x0000131a:    f7fffe0f    ....    BL       CLK_SetHCLK ; 0xf3c
        0x0000131e:    2001        .       MOVS     r0,#1
        0x00001320:    f7fffcf0    ....    BL       CLK_EnableXtalRC ; 0xd04
        0x00001324:    2001        .       MOVS     r0,#1
        0x00001326:    f7fffec3    ....    BL       CLK_WaitClockReady ; 0x10b0
        0x0000132a:    4822        "H      LDR      r0,[pc,#136] ; [0x13b4] = 0x2faf080
        0x0000132c:    f7fffdb2    ....    BL       CLK_SetCoreClock ; 0xe94
        0x00001330:    2067        g       MOVS     r0,#0x67
        0x00001332:    0600        ..      LSLS     r0,r0,#24
        0x00001334:    f7fffc06    ....    BL       CLK_EnableModuleClock ; 0xb44
        0x00001338:    2200        ."      MOVS     r2,#0
        0x0000133a:    2101        .!      MOVS     r1,#1
        0x0000133c:    0449        I.      LSLS     r1,r1,#17
        0x0000133e:    2067        g       MOVS     r0,#0x67
        0x00001340:    0600        ..      LSLS     r0,r0,#24
        0x00001342:    f7fffe31    ..1.    BL       CLK_SetModuleClock ; 0xfa8
        0x00001346:    481c        .H      LDR      r0,[pc,#112] ; [0x13b8] = 0x57803d10
        0x00001348:    f7fffbfc    ....    BL       CLK_EnableModuleClock ; 0xb44
        0x0000134c:    2200        ."      MOVS     r2,#0
        0x0000134e:    4611        .F      MOV      r1,r2
        0x00001350:    4819        .H      LDR      r0,[pc,#100] ; [0x13b8] = 0x57803d10
        0x00001352:    f7fffe29    ..).    BL       CLK_SetModuleClock ; 0xfa8
        0x00001356:    4818        .H      LDR      r0,[pc,#96] ; [0x13b8] = 0x57803d10
        0x00001358:    1c40        @.      ADDS     r0,r0,#1
        0x0000135a:    f7fffbf3    ....    BL       CLK_EnableModuleClock ; 0xb44
        0x0000135e:    4817        .H      LDR      r0,[pc,#92] ; [0x13bc] = 0x40000009
        0x00001360:    f7fffbf0    ....    BL       CLK_EnableModuleClock ; 0xb44
        0x00001364:    2200        ."      MOVS     r2,#0
        0x00001366:    4611        .F      MOV      r1,r2
        0x00001368:    4813        .H      LDR      r0,[pc,#76] ; [0x13b8] = 0x57803d10
        0x0000136a:    1c40        @.      ADDS     r0,r0,#1
        0x0000136c:    f7fffe1c    ....    BL       CLK_SetModuleClock ; 0xfa8
        0x00001370:    2005        .       MOVS     r0,#5
        0x00001372:    0700        ..      LSLS     r0,r0,#28
        0x00001374:    6b40        @k      LDR      r0,[r0,#0x34]
        0x00001376:    0880        ..      LSRS     r0,r0,#2
        0x00001378:    0080        ..      LSLS     r0,r0,#2
        0x0000137a:    2105        .!      MOVS     r1,#5
        0x0000137c:    0709        ..      LSLS     r1,r1,#28
        0x0000137e:    6348        Hc      STR      r0,[r1,#0x34]
        0x00001380:    4608        .F      MOV      r0,r1
        0x00001382:    6b40        @k      LDR      r0,[r0,#0x34]
        0x00001384:    2103        .!      MOVS     r1,#3
        0x00001386:    4308        .C      ORRS     r0,r0,r1
        0x00001388:    2105        .!      MOVS     r1,#5
        0x0000138a:    0709        ..      LSLS     r1,r1,#28
        0x0000138c:    6348        Hc      STR      r0,[r1,#0x34]
        0x0000138e:    4608        .F      MOV      r0,r1
        0x00001390:    6b40        @k      LDR      r0,[r0,#0x34]
        0x00001392:    2130        0!      MOVS     r1,#0x30
        0x00001394:    4388        .C      BICS     r0,r0,r1
        0x00001396:    2105        .!      MOVS     r1,#5
        0x00001398:    0709        ..      LSLS     r1,r1,#28
        0x0000139a:    6348        Hc      STR      r0,[r1,#0x34]
        0x0000139c:    4608        .F      MOV      r0,r1
        0x0000139e:    6b40        @k      LDR      r0,[r0,#0x34]
        0x000013a0:    2130        0!      MOVS     r1,#0x30
        0x000013a2:    4308        .C      ORRS     r0,r0,r1
        0x000013a4:    2105        .!      MOVS     r1,#5
        0x000013a6:    0709        ..      LSLS     r1,r1,#28
        0x000013a8:    6348        Hc      STR      r0,[r1,#0x34]
        0x000013aa:    2003        .       MOVS     r0,#3
        0x000013ac:    0280        ..      LSLS     r0,r0,#10
        0x000013ae:    6308        .c      STR      r0,[r1,#0x30]
        0x000013b0:    bd10        ..      POP      {r4,pc}
    $d
        0x000013b2:    0000        ..      DCW    0
        0x000013b4:    02faf080    ....    DCD    50000000
        0x000013b8:    57803d10    .=.W    DCD    1468022032
        0x000013bc:    40000009    ...@    DCD    1073741833
    $t
    i.SYS_ResetModule
    SYS_ResetModule
        0x000013c0:    0e01        ..      LSRS     r1,r0,#24
        0x000013c2:    2205        ."      MOVS     r2,#5
        0x000013c4:    0712        ..      LSLS     r2,r2,#28
        0x000013c6:    1889        ..      ADDS     r1,r1,r2
        0x000013c8:    6889        .h      LDR      r1,[r1,#8]
        0x000013ca:    2201        ."      MOVS     r2,#1
        0x000013cc:    4082        .@      LSLS     r2,r2,r0
        0x000013ce:    4311        .C      ORRS     r1,r1,r2
        0x000013d0:    0e02        ..      LSRS     r2,r0,#24
        0x000013d2:    2305        .#      MOVS     r3,#5
        0x000013d4:    071b        ..      LSLS     r3,r3,#28
        0x000013d6:    18d2        ..      ADDS     r2,r2,r3
        0x000013d8:    6091        .`      STR      r1,[r2,#8]
        0x000013da:    0e01        ..      LSRS     r1,r0,#24
        0x000013dc:    461a        .F      MOV      r2,r3
        0x000013de:    1889        ..      ADDS     r1,r1,r2
        0x000013e0:    688a        .h      LDR      r2,[r1,#8]
        0x000013e2:    2101        .!      MOVS     r1,#1
        0x000013e4:    4081        .@      LSLS     r1,r1,r0
        0x000013e6:    438a        .C      BICS     r2,r2,r1
        0x000013e8:    0e01        ..      LSRS     r1,r0,#24
        0x000013ea:    18c9        ..      ADDS     r1,r1,r3
        0x000013ec:    608a        .`      STR      r2,[r1,#8]
        0x000013ee:    4770        pG      BX       lr
    i.SYS_UnlockReg
    SYS_UnlockReg
        0x000013f0:    e006        ..      B        0x1400 ; SYS_UnlockReg + 16
        0x000013f2:    2059        Y       MOVS     r0,#0x59
        0x000013f4:    4905        .I      LDR      r1,[pc,#20] ; [0x140c] = 0x50000100
        0x000013f6:    6008        .`      STR      r0,[r1,#0]
        0x000013f8:    2016        .       MOVS     r0,#0x16
        0x000013fa:    6008        .`      STR      r0,[r1,#0]
        0x000013fc:    2088        .       MOVS     r0,#0x88
        0x000013fe:    6008        .`      STR      r0,[r1,#0]
        0x00001400:    4802        .H      LDR      r0,[pc,#8] ; [0x140c] = 0x50000100
        0x00001402:    6800        .h      LDR      r0,[r0,#0]
        0x00001404:    2801        .(      CMP      r0,#1
        0x00001406:    d1f4        ..      BNE      0x13f2 ; SYS_UnlockReg + 2
        0x00001408:    4770        pG      BX       lr
    $d
        0x0000140a:    0000        ..      DCW    0
        0x0000140c:    50000100    ...P    DCD    1342177536
    $t
    i.Save_FS
    Save_FS
        0x00001410:    b538        8.      PUSH     {r3-r5,lr}
        0x00001412:    2400        .$      MOVS     r4,#0
        0x00001414:    1e61        a.      SUBS     r1,r4,#1
        0x00001416:    4837        7H      LDR      r0,[pc,#220] ; [0x14f4] = 0x20000000
        0x00001418:    6800        .h      LDR      r0,[r0,#0]
        0x0000141a:    f002fdf1    ....    BL       osMutexWait ; 0x4000
        0x0000141e:    f002fac9    ....    BL       fileopen ; 0x39b4
        0x00001422:    2032        2       MOVS     r0,#0x32
        0x00001424:    a334        4.      ADR      r3,{pc}+0xd4 ; 0x14f8
        0x00001426:    a236        6.      ADR      r2,{pc}+0xda ; 0x1500
        0x00001428:    a136        6.      ADR      r1,{pc}+0xdc ; 0x1504
        0x0000142a:    9000        ..      STR      r0,[sp,#0]
        0x0000142c:    a037        7.      ADR      r0,{pc}+0xe0 ; 0x150c
        0x0000142e:    f000f8ab    ....    BL       SendAT ; 0x1588
        0x00001432:    2164        d!      MOVS     r1,#0x64
        0x00001434:    483a        :H      LDR      r0,[pc,#232] ; [0x1520] = 0x2000122c
        0x00001436:    f7feff9c    ....    BL       __aeabi_memclr ; 0x372
        0x0000143a:    4a3a        :J      LDR      r2,[pc,#232] ; [0x1524] = 0x2000138a
        0x0000143c:    a13a        :.      ADR      r1,{pc}+0xec ; 0x1528
        0x0000143e:    4838        8H      LDR      r0,[pc,#224] ; [0x1520] = 0x2000122c
        0x00001440:    f001fbb4    ....    BL       __0sprintf ; 0x2bac
        0x00001444:    200a        .       MOVS     r0,#0xa
        0x00001446:    a32c        ,.      ADR      r3,{pc}+0xb2 ; 0x14f8
        0x00001448:    a22d        -.      ADR      r2,{pc}+0xb8 ; 0x1500
        0x0000144a:    a13d        =.      ADR      r1,{pc}+0xf6 ; 0x1540
        0x0000144c:    9000        ..      STR      r0,[sp,#0]
        0x0000144e:    4834        4H      LDR      r0,[pc,#208] ; [0x1520] = 0x2000122c
        0x00001450:    f000f89a    ....    BL       SendAT ; 0x1588
        0x00001454:    483c        <H      LDR      r0,[pc,#240] ; [0x1548] = 0x20000180
        0x00001456:    f7feffb7    ....    BL       strlen ; 0x3c8
        0x0000145a:    4604        .F      MOV      r4,r0
        0x0000145c:    a13b        ;.      ADR      r1,{pc}+0xf0 ; 0x154c
        0x0000145e:    483a        :H      LDR      r0,[pc,#232] ; [0x1548] = 0x20000180
        0x00001460:    f7feff92    ....    BL       strcat ; 0x388
        0x00001464:    4838        8H      LDR      r0,[pc,#224] ; [0x1548] = 0x20000180
        0x00001466:    f7feffaf    ....    BL       strlen ; 0x3c8
        0x0000146a:    4604        .F      MOV      r4,r0
        0x0000146c:    2243        C"      MOVS     r2,#0x43
        0x0000146e:    217e        ~!      MOVS     r1,#0x7e
        0x00001470:    4835        5H      LDR      r0,[pc,#212] ; [0x1548] = 0x20000180
        0x00001472:    f003ff13    ....    BL       strreplace ; 0x529c
        0x00001476:    2248        H"      MOVS     r2,#0x48
        0x00001478:    2160        `!      MOVS     r1,#0x60
        0x0000147a:    4833        3H      LDR      r0,[pc,#204] ; [0x1548] = 0x20000180
        0x0000147c:    f003ff0e    ....    BL       strreplace ; 0x529c
        0x00001480:    220a        ."      MOVS     r2,#0xa
        0x00001482:    211a        .!      MOVS     r1,#0x1a
        0x00001484:    4830        0H      LDR      r0,[pc,#192] ; [0x1548] = 0x20000180
        0x00001486:    f003ff09    ....    BL       strreplace ; 0x529c
        0x0000148a:    2164        d!      MOVS     r1,#0x64
        0x0000148c:    4824        $H      LDR      r0,[pc,#144] ; [0x1520] = 0x2000122c
        0x0000148e:    f7feff70    ..p.    BL       __aeabi_memclr ; 0x372
        0x00001492:    4623        #F      MOV      r3,r4
        0x00001494:    4a23        #J      LDR      r2,[pc,#140] ; [0x1524] = 0x2000138a
        0x00001496:    a12f        /.      ADR      r1,{pc}+0xbe ; 0x1554
        0x00001498:    4821        !H      LDR      r0,[pc,#132] ; [0x1520] = 0x2000122c
        0x0000149a:    f001fb87    ....    BL       __0sprintf ; 0x2bac
        0x0000149e:    2002        .       MOVS     r0,#2
        0x000014a0:    a315        ..      ADR      r3,{pc}+0x58 ; 0x14f8
        0x000014a2:    a217        ..      ADR      r2,{pc}+0x5e ; 0x1500
        0x000014a4:    a126        &.      ADR      r1,{pc}+0x9c ; 0x1540
        0x000014a6:    9000        ..      STR      r0,[sp,#0]
        0x000014a8:    481d        .H      LDR      r0,[pc,#116] ; [0x1520] = 0x2000122c
        0x000014aa:    f000f86d    ..m.    BL       SendAT ; 0x1588
        0x000014ae:    4826        &H      LDR      r0,[pc,#152] ; [0x1548] = 0x20000180
        0x000014b0:    f7feff8a    ....    BL       strlen ; 0x3c8
        0x000014b4:    4604        .F      MOV      r4,r0
        0x000014b6:    221a        ."      MOVS     r2,#0x1a
        0x000014b8:    210d        .!      MOVS     r1,#0xd
        0x000014ba:    4823        #H      LDR      r0,[pc,#140] ; [0x1548] = 0x20000180
        0x000014bc:    f002fea8    ....    BL       remove_all_chars ; 0x4210
        0x000014c0:    2014        .       MOVS     r0,#0x14
        0x000014c2:    a30d        ..      ADR      r3,{pc}+0x36 ; 0x14f8
        0x000014c4:    a20e        ..      ADR      r2,{pc}+0x3c ; 0x1500
        0x000014c6:    a129        ).      ADR      r1,{pc}+0xa6 ; 0x156c
        0x000014c8:    9000        ..      STR      r0,[sp,#0]
        0x000014ca:    481f        .H      LDR      r0,[pc,#124] ; [0x1548] = 0x20000180
        0x000014cc:    f000f90a    ....    BL       SendAT_FS ; 0x16e4
        0x000014d0:    a128        (.      ADR      r1,{pc}+0xa4 ; 0x1574
        0x000014d2:    482b        +H      LDR      r0,[pc,#172] ; [0x1580] = 0x20000f2c
        0x000014d4:    f7feff64    ..d.    BL       strstr ; 0x3a0
        0x000014d8:    2800        .(      CMP      r0,#0
        0x000014da:    d003        ..      BEQ      0x14e4 ; Save_FS + 212
        0x000014dc:    4929        )I      LDR      r1,[pc,#164] ; [0x1584] = 0xdac
        0x000014de:    481a        .H      LDR      r0,[pc,#104] ; [0x1548] = 0x20000180
        0x000014e0:    f7feff47    ..G.    BL       __aeabi_memclr ; 0x372
        0x000014e4:    f002fa34    ..4.    BL       fileclose ; 0x3950
        0x000014e8:    4802        .H      LDR      r0,[pc,#8] ; [0x14f4] = 0x20000000
        0x000014ea:    6800        .h      LDR      r0,[r0,#0]
        0x000014ec:    f002fd7a    ..z.    BL       osMutexRelease ; 0x3fe4
        0x000014f0:    bd38        8.      POP      {r3-r5,pc}
    $d
        0x000014f2:    0000        ..      DCW    0
        0x000014f4:    20000000    ...     DCD    536870912
        0x000014f8:    4f525245    ERRO    DCD    1330795077
        0x000014fc:    00000052    R...    DCD    82
        0x00001500:    00004b4f    OK..    DCD    19279
        0x00001504:    64616552    Read    DCD    1684104530
        0x00001508:    00000079    y...    DCD    121
        0x0000150c:    54410a0d    ..AT    DCD    1413548557
        0x00001510:    4c46512b    +QFL    DCD    1279676715
        0x00001514:    223d5344    DS="    DCD    574444356
        0x00001518:    22534655    UFS"    DCD    575882837
        0x0000151c:    00000a0d    ....    DCD    2573
        0x00001520:    2000122c    ,..     DCD    536875564
        0x00001524:    2000138a    ...     DCD    536875914
        0x00001528:    54410a0d    ..AT    DCD    1413548557
        0x0000152c:    5346512b    +QFS    DCD    1397117227
        0x00001530:    3d4b4545    EEK=    DCD    1028343109
        0x00001534:    302c7325    %s,0    DCD    808219429
        0x00001538:    0a0d322c    ,2..    DCD    168636972
        0x0000153c:    00000000    ....    DCD    0
        0x00001540:    4e4e4f43    CONN    DCD    1313754947
        0x00001544:    00544345    ECT.    DCD    5522245
        0x00001548:    20000180    ...     DCD    536871296
        0x0000154c:    0a0a0a0a    ....    DCD    168430090
        0x00001550:    0000000a    ....    DCD    10
        0x00001554:    54410a0d    ..AT    DCD    1413548557
        0x00001558:    5746512b    +QFW    DCD    1464226091
        0x0000155c:    45544952    RITE    DCD    1163151698
        0x00001560:    2c73253d    =%s,    DCD    745743677
        0x00001564:    332c6425    %d,3    DCD    858547237
        0x00001568:    00000a0d    ....    DCD    2573
        0x0000156c:    49525751    QWRI    DCD    1230133073
        0x00001570:    00004554    TE..    DCD    17748
        0x00001574:    5746512b    +QFW    DCD    1464226091
        0x00001578:    45544952    RITE    DCD    1163151698
        0x0000157c:    00000000    ....    DCD    0
        0x00001580:    20000f2c    ,..     DCD    536874796
        0x00001584:    00000dac    ....    DCD    3500
    $t
    i.SendAT
    SendAT
        0x00001588:    b5ff        ..      PUSH     {r0-r7,lr}
        0x0000158a:    b081        ..      SUB      sp,sp,#4
        0x0000158c:    4606        .F      MOV      r6,r0
        0x0000158e:    4614        .F      MOV      r4,r2
        0x00001590:    461d        .F      MOV      r5,r3
        0x00001592:    9f0a        ..      LDR      r7,[sp,#0x28]
        0x00001594:    2000        .       MOVS     r0,#0
        0x00001596:    4941        AI      LDR      r1,[pc,#260] ; [0x169c] = 0x50004240
        0x00001598:    6088        .`      STR      r0,[r1,#8]
        0x0000159a:    2064        d       MOVS     r0,#0x64
        0x0000159c:    f002fca2    ....    BL       osDelay ; 0x3ee4
        0x000015a0:    2100        .!      MOVS     r1,#0
        0x000015a2:    43c9        .C      MVNS     r1,r1
        0x000015a4:    483e        >H      LDR      r0,[pc,#248] ; [0x16a0] = 0x20000000
        0x000015a6:    6800        .h      LDR      r0,[r0,#0]
        0x000015a8:    f002fd2a    ..*.    BL       osMutexWait ; 0x4000
        0x000015ac:    2000        .       MOVS     r0,#0
        0x000015ae:    493d        =I      LDR      r1,[pc,#244] ; [0x16a4] = 0x20000030
        0x000015b0:    6008        .`      STR      r0,[r1,#0]
        0x000015b2:    493d        =I      LDR      r1,[pc,#244] ; [0x16a8] = 0x20000054
        0x000015b4:    6008        .`      STR      r0,[r1,#0]
        0x000015b6:    493d        =I      LDR      r1,[pc,#244] ; [0x16ac] = 0x20000058
        0x000015b8:    6008        .`      STR      r0,[r1,#0]
        0x000015ba:    493d        =I      LDR      r1,[pc,#244] ; [0x16b0] = 0x2000005c
        0x000015bc:    6008        .`      STR      r0,[r1,#0]
        0x000015be:    493d        =I      LDR      r1,[pc,#244] ; [0x16b4] = 0x20000028
        0x000015c0:    6008        .`      STR      r0,[r1,#0]
        0x000015c2:    21af        .!      MOVS     r1,#0xaf
        0x000015c4:    0089        ..      LSLS     r1,r1,#2
        0x000015c6:    483c        <H      LDR      r0,[pc,#240] ; [0x16b8] = 0x20000f2c
        0x000015c8:    f7fefed3    ....    BL       __aeabi_memclr ; 0x372
        0x000015cc:    211a        .!      MOVS     r1,#0x1a
        0x000015ce:    a03b        ;.      ADR      r0,{pc}+0xee ; 0x16bc
        0x000015d0:    f001fadc    ....    BL       __0printf ; 0x2b8c
        0x000015d4:    f002f880    ....    BL       clear ; 0x36d8
        0x000015d8:    4630        0F      MOV      r0,r6
        0x000015da:    f001fad7    ....    BL       __0printf ; 0x2b8c
        0x000015de:    bf00        ..      NOP      
        0x000015e0:    4835        5H      LDR      r0,[pc,#212] ; [0x16b8] = 0x20000f2c
        0x000015e2:    9902        ..      LDR      r1,[sp,#8]
        0x000015e4:    f7fefedc    ....    BL       strstr ; 0x3a0
        0x000015e8:    492f        /I      LDR      r1,[pc,#188] ; [0x16a8] = 0x20000054
        0x000015ea:    6008        .`      STR      r0,[r1,#0]
        0x000015ec:    4621        !F      MOV      r1,r4
        0x000015ee:    4832        2H      LDR      r0,[pc,#200] ; [0x16b8] = 0x20000f2c
        0x000015f0:    f7fefed6    ....    BL       strstr ; 0x3a0
        0x000015f4:    492d        -I      LDR      r1,[pc,#180] ; [0x16ac] = 0x20000058
        0x000015f6:    6008        .`      STR      r0,[r1,#0]
        0x000015f8:    4629        )F      MOV      r1,r5
        0x000015fa:    482f        /H      LDR      r0,[pc,#188] ; [0x16b8] = 0x20000f2c
        0x000015fc:    f7fefed0    ....    BL       strstr ; 0x3a0
        0x00001600:    492b        +I      LDR      r1,[pc,#172] ; [0x16b0] = 0x2000005c
        0x00001602:    6008        .`      STR      r0,[r1,#0]
        0x00001604:    4828        (H      LDR      r0,[pc,#160] ; [0x16a8] = 0x20000054
        0x00001606:    6800        .h      LDR      r0,[r0,#0]
        0x00001608:    2800        .(      CMP      r0,#0
        0x0000160a:    d10b        ..      BNE      0x1624 ; SendAT + 156
        0x0000160c:    4827        'H      LDR      r0,[pc,#156] ; [0x16ac] = 0x20000058
        0x0000160e:    6800        .h      LDR      r0,[r0,#0]
        0x00001610:    2800        .(      CMP      r0,#0
        0x00001612:    d107        ..      BNE      0x1624 ; SendAT + 156
        0x00001614:    4608        .F      MOV      r0,r1
        0x00001616:    6800        .h      LDR      r0,[r0,#0]
        0x00001618:    2800        .(      CMP      r0,#0
        0x0000161a:    d103        ..      BNE      0x1624 ; SendAT + 156
        0x0000161c:    4821        !H      LDR      r0,[pc,#132] ; [0x16a4] = 0x20000030
        0x0000161e:    6800        .h      LDR      r0,[r0,#0]
        0x00001620:    42b8        .B      CMP      r0,r7
        0x00001622:    dbdd        ..      BLT      0x15e0 ; SendAT + 88
        0x00001624:    a126        &.      ADR      r1,{pc}+0x9c ; 0x16c0
        0x00001626:    4630        0F      MOV      r0,r6
        0x00001628:    f7fefeba    ....    BL       strstr ; 0x3a0
        0x0000162c:    2800        .(      CMP      r0,#0
        0x0000162e:    d129        ).      BNE      0x1684 ; SendAT + 252
        0x00001630:    a125        %.      ADR      r1,{pc}+0x98 ; 0x16c8
        0x00001632:    4630        0F      MOV      r0,r6
        0x00001634:    f7fefeb4    ....    BL       strstr ; 0x3a0
        0x00001638:    2800        .(      CMP      r0,#0
        0x0000163a:    d123        #.      BNE      0x1684 ; SendAT + 252
        0x0000163c:    481a        .H      LDR      r0,[pc,#104] ; [0x16a8] = 0x20000054
        0x0000163e:    6800        .h      LDR      r0,[r0,#0]
        0x00001640:    2800        .(      CMP      r0,#0
        0x00001642:    d11c        ..      BNE      0x167e ; SendAT + 246
        0x00001644:    4819        .H      LDR      r0,[pc,#100] ; [0x16ac] = 0x20000058
        0x00001646:    6800        .h      LDR      r0,[r0,#0]
        0x00001648:    2800        .(      CMP      r0,#0
        0x0000164a:    d118        ..      BNE      0x167e ; SendAT + 246
        0x0000164c:    4818        .H      LDR      r0,[pc,#96] ; [0x16b0] = 0x2000005c
        0x0000164e:    6800        .h      LDR      r0,[r0,#0]
        0x00001650:    2800        .(      CMP      r0,#0
        0x00001652:    d114        ..      BNE      0x167e ; SendAT + 246
        0x00001654:    2001        .       MOVS     r0,#1
        0x00001656:    4911        .I      LDR      r1,[pc,#68] ; [0x169c] = 0x50004240
        0x00001658:    3940        @9      SUBS     r1,r1,#0x40
        0x0000165a:    6348        Hc      STR      r0,[r1,#0x34]
        0x0000165c:    481c        .H      LDR      r0,[pc,#112] ; [0x16d0] = 0x200000a8
        0x0000165e:    6800        .h      LDR      r0,[r0,#0]
        0x00001660:    1c40        @.      ADDS     r0,r0,#1
        0x00001662:    491b        .I      LDR      r1,[pc,#108] ; [0x16d0] = 0x200000a8
        0x00001664:    6008        .`      STR      r0,[r1,#0]
        0x00001666:    4608        .F      MOV      r0,r1
        0x00001668:    6800        .h      LDR      r0,[r0,#0]
        0x0000166a:    2803        .(      CMP      r0,#3
        0x0000166c:    dd02        ..      BLE      0x1674 ; SendAT + 236
        0x0000166e:    a019        ..      ADR      r0,{pc}+0x66 ; 0x16d4
        0x00001670:    f001fa8c    ....    BL       __0printf ; 0x2b8c
        0x00001674:    2000        .       MOVS     r0,#0
        0x00001676:    4909        .I      LDR      r1,[pc,#36] ; [0x169c] = 0x50004240
        0x00001678:    3940        @9      SUBS     r1,r1,#0x40
        0x0000167a:    6348        Hc      STR      r0,[r1,#0x34]
        0x0000167c:    e002        ..      B        0x1684 ; SendAT + 252
        0x0000167e:    2000        .       MOVS     r0,#0
        0x00001680:    4913        .I      LDR      r1,[pc,#76] ; [0x16d0] = 0x200000a8
        0x00001682:    6008        .`      STR      r0,[r1,#0]
        0x00001684:    2001        .       MOVS     r0,#1
        0x00001686:    4905        .I      LDR      r1,[pc,#20] ; [0x169c] = 0x50004240
        0x00001688:    6088        .`      STR      r0,[r1,#8]
        0x0000168a:    4805        .H      LDR      r0,[pc,#20] ; [0x16a0] = 0x20000000
        0x0000168c:    6800        .h      LDR      r0,[r0,#0]
        0x0000168e:    f002fca9    ....    BL       osMutexRelease ; 0x3fe4
        0x00001692:    2064        d       MOVS     r0,#0x64
        0x00001694:    f002fc26    ..&.    BL       osDelay ; 0x3ee4
        0x00001698:    b005        ..      ADD      sp,sp,#0x14
        0x0000169a:    bdf0        ..      POP      {r4-r7,pc}
    $d
        0x0000169c:    50004240    @B.P    DCD    1342194240
        0x000016a0:    20000000    ...     DCD    536870912
        0x000016a4:    20000030    0..     DCD    536870960
        0x000016a8:    20000054    T..     DCD    536870996
        0x000016ac:    20000058    X..     DCD    536871000
        0x000016b0:    2000005c    \..     DCD    536871004
        0x000016b4:    20000028    (..     DCD    536870952
        0x000016b8:    20000f2c    ,..     DCD    536874796
        0x000016bc:    00006325    %c..    DCD    25381
        0x000016c0:    4f4c4951    QILO    DCD    1330399569
        0x000016c4:    00504943    CIP.    DCD    5261635
        0x000016c8:    534e4751    QGNS    DCD    1397638993
        0x000016cc:    00004353    SC..    DCD    17235
        0x000016d0:    200000a8    ...     DCD    536871080
        0x000016d4:    54410a0d    ..AT    DCD    1413548557
        0x000016d8:    5546432b    +CFU    DCD    1430668075
        0x000016dc:    2c313d4e    N=1,    DCD    741424462
        0x000016e0:    000a0d31    1...    DCD    658737
    $t
    i.SendAT_FS
    SendAT_FS
        0x000016e4:    b5ff        ..      PUSH     {r0-r7,lr}
        0x000016e6:    b081        ..      SUB      sp,sp,#4
        0x000016e8:    4606        .F      MOV      r6,r0
        0x000016ea:    4614        .F      MOV      r4,r2
        0x000016ec:    461d        .F      MOV      r5,r3
        0x000016ee:    9f0a        ..      LDR      r7,[sp,#0x28]
        0x000016f0:    2064        d       MOVS     r0,#0x64
        0x000016f2:    f002fbf7    ....    BL       osDelay ; 0x3ee4
        0x000016f6:    2100        .!      MOVS     r1,#0
        0x000016f8:    43c9        .C      MVNS     r1,r1
        0x000016fa:    483c        <H      LDR      r0,[pc,#240] ; [0x17ec] = 0x20000000
        0x000016fc:    6800        .h      LDR      r0,[r0,#0]
        0x000016fe:    f002fc7f    ....    BL       osMutexWait ; 0x4000
        0x00001702:    2000        .       MOVS     r0,#0
        0x00001704:    493a        :I      LDR      r1,[pc,#232] ; [0x17f0] = 0x20000030
        0x00001706:    6008        .`      STR      r0,[r1,#0]
        0x00001708:    493a        :I      LDR      r1,[pc,#232] ; [0x17f4] = 0x50004240
        0x0000170a:    6088        .`      STR      r0,[r1,#8]
        0x0000170c:    493a        :I      LDR      r1,[pc,#232] ; [0x17f8] = 0x20000054
        0x0000170e:    6008        .`      STR      r0,[r1,#0]
        0x00001710:    493a        :I      LDR      r1,[pc,#232] ; [0x17fc] = 0x20000058
        0x00001712:    6008        .`      STR      r0,[r1,#0]
        0x00001714:    493a        :I      LDR      r1,[pc,#232] ; [0x1800] = 0x2000005c
        0x00001716:    6008        .`      STR      r0,[r1,#0]
        0x00001718:    493a        :I      LDR      r1,[pc,#232] ; [0x1804] = 0x20000028
        0x0000171a:    6008        .`      STR      r0,[r1,#0]
        0x0000171c:    21af        .!      MOVS     r1,#0xaf
        0x0000171e:    0089        ..      LSLS     r1,r1,#2
        0x00001720:    4839        9H      LDR      r0,[pc,#228] ; [0x1808] = 0x20000f2c
        0x00001722:    f7fefe26    ..&.    BL       __aeabi_memclr ; 0x372
        0x00001726:    f001ffd7    ....    BL       clear ; 0x36d8
        0x0000172a:    4630        0F      MOV      r0,r6
        0x0000172c:    f001fa2e    ....    BL       __0printf ; 0x2b8c
        0x00001730:    bf00        ..      NOP      
        0x00001732:    4835        5H      LDR      r0,[pc,#212] ; [0x1808] = 0x20000f2c
        0x00001734:    9902        ..      LDR      r1,[sp,#8]
        0x00001736:    f7fefe33    ..3.    BL       strstr ; 0x3a0
        0x0000173a:    492f        /I      LDR      r1,[pc,#188] ; [0x17f8] = 0x20000054
        0x0000173c:    6008        .`      STR      r0,[r1,#0]
        0x0000173e:    4621        !F      MOV      r1,r4
        0x00001740:    4831        1H      LDR      r0,[pc,#196] ; [0x1808] = 0x20000f2c
        0x00001742:    f7fefe2d    ..-.    BL       strstr ; 0x3a0
        0x00001746:    492d        -I      LDR      r1,[pc,#180] ; [0x17fc] = 0x20000058
        0x00001748:    6008        .`      STR      r0,[r1,#0]
        0x0000174a:    4629        )F      MOV      r1,r5
        0x0000174c:    482e        .H      LDR      r0,[pc,#184] ; [0x1808] = 0x20000f2c
        0x0000174e:    f7fefe27    ..'.    BL       strstr ; 0x3a0
        0x00001752:    492b        +I      LDR      r1,[pc,#172] ; [0x1800] = 0x2000005c
        0x00001754:    6008        .`      STR      r0,[r1,#0]
        0x00001756:    4828        (H      LDR      r0,[pc,#160] ; [0x17f8] = 0x20000054
        0x00001758:    6800        .h      LDR      r0,[r0,#0]
        0x0000175a:    2800        .(      CMP      r0,#0
        0x0000175c:    d10b        ..      BNE      0x1776 ; SendAT_FS + 146
        0x0000175e:    4827        'H      LDR      r0,[pc,#156] ; [0x17fc] = 0x20000058
        0x00001760:    6800        .h      LDR      r0,[r0,#0]
        0x00001762:    2800        .(      CMP      r0,#0
        0x00001764:    d107        ..      BNE      0x1776 ; SendAT_FS + 146
        0x00001766:    4608        .F      MOV      r0,r1
        0x00001768:    6800        .h      LDR      r0,[r0,#0]
        0x0000176a:    2800        .(      CMP      r0,#0
        0x0000176c:    d103        ..      BNE      0x1776 ; SendAT_FS + 146
        0x0000176e:    4820         H      LDR      r0,[pc,#128] ; [0x17f0] = 0x20000030
        0x00001770:    6800        .h      LDR      r0,[r0,#0]
        0x00001772:    42b8        .B      CMP      r0,r7
        0x00001774:    dbdd        ..      BLT      0x1732 ; SendAT_FS + 78
        0x00001776:    f001ffaf    ....    BL       clear ; 0x36d8
        0x0000177a:    a124        $.      ADR      r1,{pc}+0x92 ; 0x180c
        0x0000177c:    4630        0F      MOV      r0,r6
        0x0000177e:    f7fefe0f    ....    BL       strstr ; 0x3a0
        0x00001782:    2800        .(      CMP      r0,#0
        0x00001784:    d125        %.      BNE      0x17d2 ; SendAT_FS + 238
        0x00001786:    481c        .H      LDR      r0,[pc,#112] ; [0x17f8] = 0x20000054
        0x00001788:    6800        .h      LDR      r0,[r0,#0]
        0x0000178a:    2800        .(      CMP      r0,#0
        0x0000178c:    d121        !.      BNE      0x17d2 ; SendAT_FS + 238
        0x0000178e:    481b        .H      LDR      r0,[pc,#108] ; [0x17fc] = 0x20000058
        0x00001790:    6800        .h      LDR      r0,[r0,#0]
        0x00001792:    2800        .(      CMP      r0,#0
        0x00001794:    d11d        ..      BNE      0x17d2 ; SendAT_FS + 238
        0x00001796:    481a        .H      LDR      r0,[pc,#104] ; [0x1800] = 0x2000005c
        0x00001798:    6800        .h      LDR      r0,[r0,#0]
        0x0000179a:    2800        .(      CMP      r0,#0
        0x0000179c:    d119        ..      BNE      0x17d2 ; SendAT_FS + 238
        0x0000179e:    2001        .       MOVS     r0,#1
        0x000017a0:    4914        .I      LDR      r1,[pc,#80] ; [0x17f4] = 0x50004240
        0x000017a2:    3940        @9      SUBS     r1,r1,#0x40
        0x000017a4:    6348        Hc      STR      r0,[r1,#0x34]
        0x000017a6:    a01b        ..      ADR      r0,{pc}+0x6e ; 0x1814
        0x000017a8:    f001f9f0    ....    BL       __0printf ; 0x2b8c
        0x000017ac:    f001ff94    ....    BL       clear ; 0x36d8
        0x000017b0:    2064        d       MOVS     r0,#0x64
        0x000017b2:    2100        .!      MOVS     r1,#0
        0x000017b4:    e006        ..      B        0x17c4 ; SendAT_FS + 224
        0x000017b6:    2200        ."      MOVS     r2,#0
        0x000017b8:    e000        ..      B        0x17bc ; SendAT_FS + 216
        0x000017ba:    1c52        R.      ADDS     r2,r2,#1
        0x000017bc:    4b19        .K      LDR      r3,[pc,#100] ; [0x1824] = 0xffff
        0x000017be:    429a        .B      CMP      r2,r3
        0x000017c0:    dbfb        ..      BLT      0x17ba ; SendAT_FS + 214
        0x000017c2:    1c49        I.      ADDS     r1,r1,#1
        0x000017c4:    4281        .B      CMP      r1,r0
        0x000017c6:    dbf6        ..      BLT      0x17b6 ; SendAT_FS + 210
        0x000017c8:    bf00        ..      NOP      
        0x000017ca:    2000        .       MOVS     r0,#0
        0x000017cc:    4909        .I      LDR      r1,[pc,#36] ; [0x17f4] = 0x50004240
        0x000017ce:    3940        @9      SUBS     r1,r1,#0x40
        0x000017d0:    6348        Hc      STR      r0,[r1,#0x34]
        0x000017d2:    2001        .       MOVS     r0,#1
        0x000017d4:    4907        .I      LDR      r1,[pc,#28] ; [0x17f4] = 0x50004240
        0x000017d6:    6088        .`      STR      r0,[r1,#8]
        0x000017d8:    4804        .H      LDR      r0,[pc,#16] ; [0x17ec] = 0x20000000
        0x000017da:    6800        .h      LDR      r0,[r0,#0]
        0x000017dc:    f002fc02    ....    BL       osMutexRelease ; 0x3fe4
        0x000017e0:    200a        .       MOVS     r0,#0xa
        0x000017e2:    f002fb7f    ....    BL       osDelay ; 0x3ee4
        0x000017e6:    b005        ..      ADD      sp,sp,#0x14
        0x000017e8:    bdf0        ..      POP      {r4-r7,pc}
    $d
        0x000017ea:    0000        ..      DCW    0
        0x000017ec:    20000000    ...     DCD    536870912
        0x000017f0:    20000030    0..     DCD    536870960
        0x000017f4:    50004240    @B.P    DCD    1342194240
        0x000017f8:    20000054    T..     DCD    536870996
        0x000017fc:    20000058    X..     DCD    536871000
        0x00001800:    2000005c    \..     DCD    536871004
        0x00001804:    20000028    (..     DCD    536870952
        0x00001808:    20000f2c    ,..     DCD    536874796
        0x0000180c:    4f4c4951    QILO    DCD    1330399569
        0x00001810:    00504943    CIP.    DCD    5261635
        0x00001814:    54410a0d    ..AT    DCD    1413548557
        0x00001818:    5546432b    +CFU    DCD    1430668075
        0x0000181c:    2c313d4e    N=1,    DCD    741424462
        0x00001820:    000a0d31    1...    DCD    658737
        0x00001824:    0000ffff    ....    DCD    65535
    $t
    i.SendAT_GPS
    SendAT_GPS
        0x00001828:    b5ff        ..      PUSH     {r0-r7,lr}
        0x0000182a:    b089        ..      SUB      sp,sp,#0x24
        0x0000182c:    4607        .F      MOV      r7,r0
        0x0000182e:    4614        .F      MOV      r4,r2
        0x00001830:    461d        .F      MOV      r5,r3
        0x00001832:    9e12        ..      LDR      r6,[sp,#0x48]
        0x00001834:    2005        .       MOVS     r0,#5
        0x00001836:    a3a7        ..      ADR      r3,{pc}+0x29e ; 0x1ad4
        0x00001838:    a2a8        ..      ADR      r2,{pc}+0x2a4 ; 0x1adc
        0x0000183a:    a1a8        ..      ADR      r1,{pc}+0x2a2 ; 0x1adc
        0x0000183c:    9000        ..      STR      r0,[sp,#0]
        0x0000183e:    a0a8        ..      ADR      r0,{pc}+0x2a2 ; 0x1ae0
        0x00001840:    f7fffea2    ....    BL       SendAT ; 0x1588
        0x00001844:    2000        .       MOVS     r0,#0
        0x00001846:    49ab        .I      LDR      r1,[pc,#684] ; [0x1af4] = 0x50004240
        0x00001848:    6088        .`      STR      r0,[r1,#8]
        0x0000184a:    2064        d       MOVS     r0,#0x64
        0x0000184c:    f002fb4a    ..J.    BL       osDelay ; 0x3ee4
        0x00001850:    2100        .!      MOVS     r1,#0
        0x00001852:    43c9        .C      MVNS     r1,r1
        0x00001854:    48a8        .H      LDR      r0,[pc,#672] ; [0x1af8] = 0x20000000
        0x00001856:    6800        .h      LDR      r0,[r0,#0]
        0x00001858:    f002fbd2    ....    BL       osMutexWait ; 0x4000
        0x0000185c:    2000        .       MOVS     r0,#0
        0x0000185e:    49a7        .I      LDR      r1,[pc,#668] ; [0x1afc] = 0x20000030
        0x00001860:    6008        .`      STR      r0,[r1,#0]
        0x00001862:    49a7        .I      LDR      r1,[pc,#668] ; [0x1b00] = 0x20000054
        0x00001864:    6008        .`      STR      r0,[r1,#0]
        0x00001866:    49a7        .I      LDR      r1,[pc,#668] ; [0x1b04] = 0x20000058
        0x00001868:    6008        .`      STR      r0,[r1,#0]
        0x0000186a:    49a7        .I      LDR      r1,[pc,#668] ; [0x1b08] = 0x2000005c
        0x0000186c:    6008        .`      STR      r0,[r1,#0]
        0x0000186e:    49a7        .I      LDR      r1,[pc,#668] ; [0x1b0c] = 0x20000028
        0x00001870:    6008        .`      STR      r0,[r1,#0]
        0x00001872:    21af        .!      MOVS     r1,#0xaf
        0x00001874:    0089        ..      LSLS     r1,r1,#2
        0x00001876:    48a6        .H      LDR      r0,[pc,#664] ; [0x1b10] = 0x20000f2c
        0x00001878:    f7fefd7b    ..{.    BL       __aeabi_memclr ; 0x372
        0x0000187c:    f001ff2c    ..,.    BL       clear ; 0x36d8
        0x00001880:    48a4        .H      LDR      r0,[pc,#656] ; [0x1b14] = 0x20001290
        0x00001882:    f001ff0f    ....    BL       checkallnumsinstring ; 0x36a4
        0x00001886:    2800        .(      CMP      r0,#0
        0x00001888:    d104        ..      BNE      0x1894 ; SendAT_GPS + 108
        0x0000188a:    48a2        .H      LDR      r0,[pc,#648] ; [0x1b14] = 0x20001290
        0x0000188c:    f7fefd9c    ....    BL       strlen ; 0x3c8
        0x00001890:    2805        .(      CMP      r0,#5
        0x00001892:    d259        Y.      BCS      0x1948 ; SendAT_GPS + 288
        0x00001894:    a0a0        ..      ADR      r0,{pc}+0x284 ; 0x1b18
        0x00001896:    f001f979    ..y.    BL       __0printf ; 0x2b8c
        0x0000189a:    bf00        ..      NOP      
        0x0000189c:    489c        .H      LDR      r0,[pc,#624] ; [0x1b10] = 0x20000f2c
        0x0000189e:    990a        ..      LDR      r1,[sp,#0x28]
        0x000018a0:    f7fefd7e    ..~.    BL       strstr ; 0x3a0
        0x000018a4:    4996        .I      LDR      r1,[pc,#600] ; [0x1b00] = 0x20000054
        0x000018a6:    6008        .`      STR      r0,[r1,#0]
        0x000018a8:    4621        !F      MOV      r1,r4
        0x000018aa:    4899        .H      LDR      r0,[pc,#612] ; [0x1b10] = 0x20000f2c
        0x000018ac:    f7fefd78    ..x.    BL       strstr ; 0x3a0
        0x000018b0:    4994        .I      LDR      r1,[pc,#592] ; [0x1b04] = 0x20000058
        0x000018b2:    6008        .`      STR      r0,[r1,#0]
        0x000018b4:    4629        )F      MOV      r1,r5
        0x000018b6:    4896        .H      LDR      r0,[pc,#600] ; [0x1b10] = 0x20000f2c
        0x000018b8:    f7fefd72    ..r.    BL       strstr ; 0x3a0
        0x000018bc:    4992        .I      LDR      r1,[pc,#584] ; [0x1b08] = 0x2000005c
        0x000018be:    6008        .`      STR      r0,[r1,#0]
        0x000018c0:    488f        .H      LDR      r0,[pc,#572] ; [0x1b00] = 0x20000054
        0x000018c2:    6800        .h      LDR      r0,[r0,#0]
        0x000018c4:    2800        .(      CMP      r0,#0
        0x000018c6:    d10b        ..      BNE      0x18e0 ; SendAT_GPS + 184
        0x000018c8:    488e        .H      LDR      r0,[pc,#568] ; [0x1b04] = 0x20000058
        0x000018ca:    6800        .h      LDR      r0,[r0,#0]
        0x000018cc:    2800        .(      CMP      r0,#0
        0x000018ce:    d107        ..      BNE      0x18e0 ; SendAT_GPS + 184
        0x000018d0:    4608        .F      MOV      r0,r1
        0x000018d2:    6800        .h      LDR      r0,[r0,#0]
        0x000018d4:    2800        .(      CMP      r0,#0
        0x000018d6:    d103        ..      BNE      0x18e0 ; SendAT_GPS + 184
        0x000018d8:    4888        .H      LDR      r0,[pc,#544] ; [0x1afc] = 0x20000030
        0x000018da:    6800        .h      LDR      r0,[r0,#0]
        0x000018dc:    42b0        .B      CMP      r0,r6
        0x000018de:    dbdd        ..      BLT      0x189c ; SendAT_GPS + 116
        0x000018e0:    2119        .!      MOVS     r1,#0x19
        0x000018e2:    488c        .H      LDR      r0,[pc,#560] ; [0x1b14] = 0x20001290
        0x000018e4:    f7fefd45    ..E.    BL       __aeabi_memclr ; 0x372
        0x000018e8:    2000        .       MOVS     r0,#0
        0x000018ea:    498f        .I      LDR      r1,[pc,#572] ; [0x1b28] = 0x20000088
        0x000018ec:    6008        .`      STR      r0,[r1,#0]
        0x000018ee:    498f        .I      LDR      r1,[pc,#572] ; [0x1b2c] = 0x200000a4
        0x000018f0:    6008        .`      STR      r0,[r1,#0]
        0x000018f2:    e01d        ..      B        0x1930 ; SendAT_GPS + 264
        0x000018f4:    4886        .H      LDR      r0,[pc,#536] ; [0x1b10] = 0x20000f2c
        0x000018f6:    498d        .I      LDR      r1,[pc,#564] ; [0x1b2c] = 0x200000a4
        0x000018f8:    6809        .h      LDR      r1,[r1,#0]
        0x000018fa:    5c40        @\      LDRB     r0,[r0,r1]
        0x000018fc:    282f        /(      CMP      r0,#0x2f
        0x000018fe:    dd12        ..      BLE      0x1926 ; SendAT_GPS + 254
        0x00001900:    4883        .H      LDR      r0,[pc,#524] ; [0x1b10] = 0x20000f2c
        0x00001902:    498a        .I      LDR      r1,[pc,#552] ; [0x1b2c] = 0x200000a4
        0x00001904:    6809        .h      LDR      r1,[r1,#0]
        0x00001906:    5c40        @\      LDRB     r0,[r0,r1]
        0x00001908:    283a        :(      CMP      r0,#0x3a
        0x0000190a:    da0c        ..      BGE      0x1926 ; SendAT_GPS + 254
        0x0000190c:    4880        .H      LDR      r0,[pc,#512] ; [0x1b10] = 0x20000f2c
        0x0000190e:    4987        .I      LDR      r1,[pc,#540] ; [0x1b2c] = 0x200000a4
        0x00001910:    6809        .h      LDR      r1,[r1,#0]
        0x00001912:    5c40        @\      LDRB     r0,[r0,r1]
        0x00001914:    497f        .I      LDR      r1,[pc,#508] ; [0x1b14] = 0x20001290
        0x00001916:    4a84        .J      LDR      r2,[pc,#528] ; [0x1b28] = 0x20000088
        0x00001918:    6812        .h      LDR      r2,[r2,#0]
        0x0000191a:    5488        .T      STRB     r0,[r1,r2]
        0x0000191c:    4882        .H      LDR      r0,[pc,#520] ; [0x1b28] = 0x20000088
        0x0000191e:    6800        .h      LDR      r0,[r0,#0]
        0x00001920:    1c40        @.      ADDS     r0,r0,#1
        0x00001922:    4981        .I      LDR      r1,[pc,#516] ; [0x1b28] = 0x20000088
        0x00001924:    6008        .`      STR      r0,[r1,#0]
        0x00001926:    4881        .H      LDR      r0,[pc,#516] ; [0x1b2c] = 0x200000a4
        0x00001928:    6800        .h      LDR      r0,[r0,#0]
        0x0000192a:    1c40        @.      ADDS     r0,r0,#1
        0x0000192c:    497f        .I      LDR      r1,[pc,#508] ; [0x1b2c] = 0x200000a4
        0x0000192e:    6008        .`      STR      r0,[r1,#0]
        0x00001930:    4877        wH      LDR      r0,[pc,#476] ; [0x1b10] = 0x20000f2c
        0x00001932:    f7fefd49    ..I.    BL       strlen ; 0x3c8
        0x00001936:    497d        }I      LDR      r1,[pc,#500] ; [0x1b2c] = 0x200000a4
        0x00001938:    6809        .h      LDR      r1,[r1,#0]
        0x0000193a:    4288        .B      CMP      r0,r1
        0x0000193c:    d8da        ..      BHI      0x18f4 ; SendAT_GPS + 204
        0x0000193e:    221a        ."      MOVS     r2,#0x1a
        0x00001940:    210d        .!      MOVS     r1,#0xd
        0x00001942:    4874        tH      LDR      r0,[pc,#464] ; [0x1b14] = 0x20001290
        0x00001944:    f002fc64    ..d.    BL       remove_all_chars ; 0x4210
        0x00001948:    2000        .       MOVS     r0,#0
        0x0000194a:    496c        lI      LDR      r1,[pc,#432] ; [0x1afc] = 0x20000030
        0x0000194c:    6008        .`      STR      r0,[r1,#0]
        0x0000194e:    496c        lI      LDR      r1,[pc,#432] ; [0x1b00] = 0x20000054
        0x00001950:    6008        .`      STR      r0,[r1,#0]
        0x00001952:    496c        lI      LDR      r1,[pc,#432] ; [0x1b04] = 0x20000058
        0x00001954:    6008        .`      STR      r0,[r1,#0]
        0x00001956:    496c        lI      LDR      r1,[pc,#432] ; [0x1b08] = 0x2000005c
        0x00001958:    6008        .`      STR      r0,[r1,#0]
        0x0000195a:    496c        lI      LDR      r1,[pc,#432] ; [0x1b0c] = 0x20000028
        0x0000195c:    6008        .`      STR      r0,[r1,#0]
        0x0000195e:    21af        .!      MOVS     r1,#0xaf
        0x00001960:    0089        ..      LSLS     r1,r1,#2
        0x00001962:    486b        kH      LDR      r0,[pc,#428] ; [0x1b10] = 0x20000f2c
        0x00001964:    f7fefd05    ....    BL       __aeabi_memclr ; 0x372
        0x00001968:    f001feb6    ....    BL       clear ; 0x36d8
        0x0000196c:    4638        8F      MOV      r0,r7
        0x0000196e:    f001f90d    ....    BL       __0printf ; 0x2b8c
        0x00001972:    bf00        ..      NOP      
        0x00001974:    4866        fH      LDR      r0,[pc,#408] ; [0x1b10] = 0x20000f2c
        0x00001976:    990a        ..      LDR      r1,[sp,#0x28]
        0x00001978:    f7fefd12    ....    BL       strstr ; 0x3a0
        0x0000197c:    4960        `I      LDR      r1,[pc,#384] ; [0x1b00] = 0x20000054
        0x0000197e:    6008        .`      STR      r0,[r1,#0]
        0x00001980:    4621        !F      MOV      r1,r4
        0x00001982:    4863        cH      LDR      r0,[pc,#396] ; [0x1b10] = 0x20000f2c
        0x00001984:    f7fefd0c    ....    BL       strstr ; 0x3a0
        0x00001988:    495e        ^I      LDR      r1,[pc,#376] ; [0x1b04] = 0x20000058
        0x0000198a:    6008        .`      STR      r0,[r1,#0]
        0x0000198c:    4629        )F      MOV      r1,r5
        0x0000198e:    4860        `H      LDR      r0,[pc,#384] ; [0x1b10] = 0x20000f2c
        0x00001990:    f7fefd06    ....    BL       strstr ; 0x3a0
        0x00001994:    495c        \I      LDR      r1,[pc,#368] ; [0x1b08] = 0x2000005c
        0x00001996:    6008        .`      STR      r0,[r1,#0]
        0x00001998:    4859        YH      LDR      r0,[pc,#356] ; [0x1b00] = 0x20000054
        0x0000199a:    6800        .h      LDR      r0,[r0,#0]
        0x0000199c:    2800        .(      CMP      r0,#0
        0x0000199e:    d10b        ..      BNE      0x19b8 ; SendAT_GPS + 400
        0x000019a0:    4858        XH      LDR      r0,[pc,#352] ; [0x1b04] = 0x20000058
        0x000019a2:    6800        .h      LDR      r0,[r0,#0]
        0x000019a4:    2800        .(      CMP      r0,#0
        0x000019a6:    d107        ..      BNE      0x19b8 ; SendAT_GPS + 400
        0x000019a8:    4608        .F      MOV      r0,r1
        0x000019aa:    6800        .h      LDR      r0,[r0,#0]
        0x000019ac:    2800        .(      CMP      r0,#0
        0x000019ae:    d103        ..      BNE      0x19b8 ; SendAT_GPS + 400
        0x000019b0:    4852        RH      LDR      r0,[pc,#328] ; [0x1afc] = 0x20000030
        0x000019b2:    6800        .h      LDR      r0,[r0,#0]
        0x000019b4:    42b0        .B      CMP      r0,r6
        0x000019b6:    dbdd        ..      BLT      0x1974 ; SendAT_GPS + 332
        0x000019b8:    f001fe8e    ....    BL       clear ; 0x36d8
        0x000019bc:    a15c        \.      ADR      r1,{pc}+0x174 ; 0x1b30
        0x000019be:    4854        TH      LDR      r0,[pc,#336] ; [0x1b10] = 0x20000f2c
        0x000019c0:    f7fefcee    ....    BL       strstr ; 0x3a0
        0x000019c4:    2800        .(      CMP      r0,#0
        0x000019c6:    d067        g.      BEQ      0x1a98 ; SendAT_GPS + 624
        0x000019c8:    485b        [H      LDR      r0,[pc,#364] ; [0x1b38] = 0x40400000
        0x000019ca:    495c        \I      LDR      r1,[pc,#368] ; [0x1b3c] = 0x20000034
        0x000019cc:    6008        .`      STR      r0,[r1,#0]
        0x000019ce:    485c        \H      LDR      r0,[pc,#368] ; [0x1b40] = 0x400e0000
        0x000019d0:    6a00        .j      LDR      r0,[r0,#0x20]
        0x000019d2:    2101        .!      MOVS     r1,#1
        0x000019d4:    02c9        ..      LSLS     r1,r1,#11
        0x000019d6:    4308        .C      ORRS     r0,r0,r1
        0x000019d8:    4959        YI      LDR      r1,[pc,#356] ; [0x1b40] = 0x400e0000
        0x000019da:    6208        .b      STR      r0,[r1,#0x20]
        0x000019dc:    6809        .h      LDR      r1,[r1,#0]
        0x000019de:    b288        ..      UXTH     r0,r1
        0x000019e0:    f7fefde6    ....    BL       __aeabi_ui2f ; 0x5b0
        0x000019e4:    4955        UI      LDR      r1,[pc,#340] ; [0x1b3c] = 0x20000034
        0x000019e6:    6008        .`      STR      r0,[r1,#0]
        0x000019e8:    4608        .F      MOV      r0,r1
        0x000019ea:    6800        .h      LDR      r0,[r0,#0]
        0x000019ec:    f7fefde7    ....    BL       __aeabi_f2d ; 0x5be
        0x000019f0:    4a54        TJ      LDR      r2,[pc,#336] ; [0x1b44] = 0xdb22d0e5
        0x000019f2:    4b55        UK      LDR      r3,[pc,#340] ; [0x1b48] = 0x400a7ef9
        0x000019f4:    9101        ..      STR      r1,[sp,#4]
        0x000019f6:    9000        ..      STR      r0,[sp,#0]
        0x000019f8:    f7fefcfa    ....    BL       __aeabi_dmul ; 0x3f0
        0x000019fc:    2200        ."      MOVS     r2,#0
        0x000019fe:    4b53        SK      LDR      r3,[pc,#332] ; [0x1b4c] = 0x40b00000
        0x00001a00:    9103        ..      STR      r1,[sp,#0xc]
        0x00001a02:    9002        ..      STR      r0,[sp,#8]
        0x00001a04:    f7fefd5c    ..\.    BL       __aeabi_ddiv ; 0x4c0
        0x00001a08:    4a51        QJ      LDR      r2,[pc,#324] ; [0x1b50] = 0xe737ca49
        0x00001a0a:    4b52        RK      LDR      r3,[pc,#328] ; [0x1b54] = 0x3ffe15ba
        0x00001a0c:    9105        ..      STR      r1,[sp,#0x14]
        0x00001a0e:    9004        ..      STR      r0,[sp,#0x10]
        0x00001a10:    f7fefcee    ....    BL       __aeabi_dmul ; 0x3f0
        0x00001a14:    9107        ..      STR      r1,[sp,#0x1c]
        0x00001a16:    9006        ..      STR      r0,[sp,#0x18]
        0x00001a18:    f7fefe0e    ....    BL       __aeabi_d2f ; 0x638
        0x00001a1c:    4947        GI      LDR      r1,[pc,#284] ; [0x1b3c] = 0x20000034
        0x00001a1e:    6008        .`      STR      r0,[r1,#0]
        0x00001a20:    2164        d!      MOVS     r1,#0x64
        0x00001a22:    484d        MH      LDR      r0,[pc,#308] ; [0x1b58] = 0x2000122c
        0x00001a24:    f7fefca5    ....    BL       __aeabi_memclr ; 0x372
        0x00001a28:    484b        KH      LDR      r0,[pc,#300] ; [0x1b58] = 0x2000122c
        0x00001a2a:    212c        ,!      MOVS     r1,#0x2c
        0x00001a2c:    2343        C#      MOVS     r3,#0x43
        0x00001a2e:    220a        ."      MOVS     r2,#0xa
        0x00001a30:    9100        ..      STR      r1,[sp,#0]
        0x00001a32:    9001        ..      STR      r0,[sp,#4]
        0x00001a34:    2102        .!      MOVS     r1,#2
        0x00001a36:    4836        6H      LDR      r0,[pc,#216] ; [0x1b10] = 0x20000f2c
        0x00001a38:    f002fb9a    ....    BL       parse_g ; 0x4170
        0x00001a3c:    4935        5I      LDR      r1,[pc,#212] ; [0x1b14] = 0x20001290
        0x00001a3e:    4847        GH      LDR      r0,[pc,#284] ; [0x1b5c] = 0x20000180
        0x00001a40:    f7fefca2    ....    BL       strcat ; 0x388
        0x00001a44:    a146        F.      ADR      r1,{pc}+0x11c ; 0x1b60
        0x00001a46:    4845        EH      LDR      r0,[pc,#276] ; [0x1b5c] = 0x20000180
        0x00001a48:    f7fefc9e    ....    BL       strcat ; 0x388
        0x00001a4c:    4942        BI      LDR      r1,[pc,#264] ; [0x1b58] = 0x2000122c
        0x00001a4e:    4843        CH      LDR      r0,[pc,#268] ; [0x1b5c] = 0x20000180
        0x00001a50:    f7fefc9a    ....    BL       strcat ; 0x388
        0x00001a54:    2164        d!      MOVS     r1,#0x64
        0x00001a56:    4840        @H      LDR      r0,[pc,#256] ; [0x1b58] = 0x2000122c
        0x00001a58:    f7fefc8b    ....    BL       __aeabi_memclr ; 0x372
        0x00001a5c:    4837        7H      LDR      r0,[pc,#220] ; [0x1b3c] = 0x20000034
        0x00001a5e:    6800        .h      LDR      r0,[r0,#0]
        0x00001a60:    f7fefdad    ....    BL       __aeabi_f2d ; 0x5be
        0x00001a64:    4602        .F      MOV      r2,r0
        0x00001a66:    460b        .F      MOV      r3,r1
        0x00001a68:    9107        ..      STR      r1,[sp,#0x1c]
        0x00001a6a:    9006        ..      STR      r0,[sp,#0x18]
        0x00001a6c:    a13d        =.      ADR      r1,{pc}+0xf8 ; 0x1b64
        0x00001a6e:    483a        :H      LDR      r0,[pc,#232] ; [0x1b58] = 0x2000122c
        0x00001a70:    f001f89c    ....    BL       __0sprintf ; 0x2bac
        0x00001a74:    4938        8I      LDR      r1,[pc,#224] ; [0x1b58] = 0x2000122c
        0x00001a76:    4839        9H      LDR      r0,[pc,#228] ; [0x1b5c] = 0x20000180
        0x00001a78:    f7fefc86    ....    BL       strcat ; 0x388
        0x00001a7c:    2164        d!      MOVS     r1,#0x64
        0x00001a7e:    4836        6H      LDR      r0,[pc,#216] ; [0x1b58] = 0x2000122c
        0x00001a80:    f7fefc77    ..w.    BL       __aeabi_memclr ; 0x372
        0x00001a84:    4839        9H      LDR      r0,[pc,#228] ; [0x1b6c] = 0x200000c8
        0x00001a86:    a13a        :.      ADR      r1,{pc}+0xea ; 0x1b70
        0x00001a88:    6802        .h      LDR      r2,[r0,#0]
        0x00001a8a:    4833        3H      LDR      r0,[pc,#204] ; [0x1b58] = 0x2000122c
        0x00001a8c:    f001f88e    ....    BL       __0sprintf ; 0x2bac
        0x00001a90:    4931        1I      LDR      r1,[pc,#196] ; [0x1b58] = 0x2000122c
        0x00001a92:    4832        2H      LDR      r0,[pc,#200] ; [0x1b5c] = 0x20000180
        0x00001a94:    f7fefc78    ..x.    BL       strcat ; 0x388
        0x00001a98:    4830        0H      LDR      r0,[pc,#192] ; [0x1b5c] = 0x20000180
        0x00001a9a:    f7fefc95    ....    BL       strlen ; 0x3c8
        0x00001a9e:    4938        8I      LDR      r1,[pc,#224] ; [0x1b80] = 0xb54
        0x00001aa0:    4288        .B      CMP      r0,r1
        0x00001aa2:    d90b        ..      BLS      0x1abc ; SendAT_GPS + 660
        0x00001aa4:    4937        7I      LDR      r1,[pc,#220] ; [0x1b84] = 0xdac
        0x00001aa6:    482d        -H      LDR      r0,[pc,#180] ; [0x1b5c] = 0x20000180
        0x00001aa8:    f7fefc63    ..c.    BL       __aeabi_memclr ; 0x372
        0x00001aac:    4919        .I      LDR      r1,[pc,#100] ; [0x1b14] = 0x20001290
        0x00001aae:    482b        +H      LDR      r0,[pc,#172] ; [0x1b5c] = 0x20000180
        0x00001ab0:    f7fefc6a    ..j.    BL       strcat ; 0x388
        0x00001ab4:    a134        4.      ADR      r1,{pc}+0xd4 ; 0x1b88
        0x00001ab6:    4829        )H      LDR      r0,[pc,#164] ; [0x1b5c] = 0x20000180
        0x00001ab8:    f7fefc66    ..f.    BL       strcat ; 0x388
        0x00001abc:    2001        .       MOVS     r0,#1
        0x00001abe:    490d        .I      LDR      r1,[pc,#52] ; [0x1af4] = 0x50004240
        0x00001ac0:    6088        .`      STR      r0,[r1,#8]
        0x00001ac2:    480d        .H      LDR      r0,[pc,#52] ; [0x1af8] = 0x20000000
        0x00001ac4:    6800        .h      LDR      r0,[r0,#0]
        0x00001ac6:    f002fa8d    ....    BL       osMutexRelease ; 0x3fe4
        0x00001aca:    2005        .       MOVS     r0,#5
        0x00001acc:    f002fa0a    ....    BL       osDelay ; 0x3ee4
        0x00001ad0:    b00d        ..      ADD      sp,sp,#0x34
        0x00001ad2:    bdf0        ..      POP      {r4-r7,pc}
    $d
        0x00001ad4:    4f525245    ERRO    DCD    1330795077
        0x00001ad8:    00000052    R...    DCD    82
        0x00001adc:    00004b4f    OK..    DCD    19279
        0x00001ae0:    54410a0d    ..AT    DCD    1413548557
        0x00001ae4:    4e47512b    +QGN    DCD    1313296683
        0x00001ae8:    3d435353    SSC=    DCD    1027822419
        0x00001aec:    0d0a0d31    1...    DCD    218762545
        0x00001af0:    0000000a    ....    DCD    10
        0x00001af4:    50004240    @B.P    DCD    1342194240
        0x00001af8:    20000000    ...     DCD    536870912
        0x00001afc:    20000030    0..     DCD    536870960
        0x00001b00:    20000054    T..     DCD    536870996
        0x00001b04:    20000058    X..     DCD    536871000
        0x00001b08:    2000005c    \..     DCD    536871004
        0x00001b0c:    20000028    (..     DCD    536870952
        0x00001b10:    20000f2c    ,..     DCD    536874796
        0x00001b14:    20001290    ...     DCD    536875664
        0x00001b18:    0a0d0a0d    ....    DCD    168626701
        0x00001b1c:    472b5441    AT+G    DCD    1194021953
        0x00001b20:    0a0d4e53    SN..    DCD    168644179
        0x00001b24:    00000a0d    ....    DCD    2573
        0x00001b28:    20000088    ...     DCD    536871048
        0x00001b2c:    200000a4    ...     DCD    536871076
        0x00001b30:    4d524e47    GNRM    DCD    1297239623
        0x00001b34:    00000043    C...    DCD    67
        0x00001b38:    40400000    ..@@    DCD    1077936128
        0x00001b3c:    20000034    4..     DCD    536870964
        0x00001b40:    400e0000    ...@    DCD    1074659328
        0x00001b44:    db22d0e5    ..".    DCD    3676492005
        0x00001b48:    400a7ef9    .~.@    DCD    1074429689
        0x00001b4c:    40b00000    ...@    DCD    1085276160
        0x00001b50:    e737ca49    I.7.    DCD    3879193161
        0x00001b54:    3ffe15ba    ...?    DCD    1073616314
        0x00001b58:    2000122c    ,..     DCD    536875564
        0x00001b5c:    20000180    ...     DCD    536871296
        0x00001b60:    0000002c    ,...    DCD    44
        0x00001b64:    253d462c    ,F=%    DCD    624772652
        0x00001b68:    0066312e    .1f.    DCD    6697262
        0x00001b6c:    200000c8    ...     DCD    536871112
        0x00001b70:    2c607e2c    ,~`,    DCD    744521260
        0x00001b74:    4546494c    LIFE    DCD    1162234188
        0x00001b78:    0a64253d    =%d.    DCD    174335293
        0x00001b7c:    00000000    ....    DCD    0
        0x00001b80:    00000b54    T...    DCD    2900
        0x00001b84:    00000dac    ....    DCD    3500
        0x00001b88:    6f727265    erro    DCD    1869771365
        0x00001b8c:    41523a72    r:RA    DCD    1095907954
        0x00001b90:    6c75664d    Mful    DCD    1819633229
        0x00001b94:    00000a6c    l...    DCD    2668
    $t
    i.SendAT_GPS_WO_MUTEX
    SendAT_GPS_WO_MUTEX
        0x00001b98:    b5ff        ..      PUSH     {r0-r7,lr}
        0x00001b9a:    b089        ..      SUB      sp,sp,#0x24
        0x00001b9c:    4607        .F      MOV      r7,r0
        0x00001b9e:    4614        .F      MOV      r4,r2
        0x00001ba0:    461d        .F      MOV      r5,r3
        0x00001ba2:    9e12        ..      LDR      r6,[sp,#0x48]
        0x00001ba4:    2000        .       MOVS     r0,#0
        0x00001ba6:    49a0        .I      LDR      r1,[pc,#640] ; [0x1e28] = 0x50004240
        0x00001ba8:    6088        .`      STR      r0,[r1,#8]
        0x00001baa:    20ff        .       MOVS     r0,#0xff
        0x00001bac:    30f5        .0      ADDS     r0,r0,#0xf5
        0x00001bae:    f002f999    ....    BL       osDelay ; 0x3ee4
        0x00001bb2:    2000        .       MOVS     r0,#0
        0x00001bb4:    499d        .I      LDR      r1,[pc,#628] ; [0x1e2c] = 0x20000030
        0x00001bb6:    6008        .`      STR      r0,[r1,#0]
        0x00001bb8:    499d        .I      LDR      r1,[pc,#628] ; [0x1e30] = 0x20000054
        0x00001bba:    6008        .`      STR      r0,[r1,#0]
        0x00001bbc:    499d        .I      LDR      r1,[pc,#628] ; [0x1e34] = 0x20000058
        0x00001bbe:    6008        .`      STR      r0,[r1,#0]
        0x00001bc0:    499d        .I      LDR      r1,[pc,#628] ; [0x1e38] = 0x2000005c
        0x00001bc2:    6008        .`      STR      r0,[r1,#0]
        0x00001bc4:    499d        .I      LDR      r1,[pc,#628] ; [0x1e3c] = 0x20000028
        0x00001bc6:    6008        .`      STR      r0,[r1,#0]
        0x00001bc8:    21af        .!      MOVS     r1,#0xaf
        0x00001bca:    0089        ..      LSLS     r1,r1,#2
        0x00001bcc:    489c        .H      LDR      r0,[pc,#624] ; [0x1e40] = 0x20000f2c
        0x00001bce:    f7fefbd0    ....    BL       __aeabi_memclr ; 0x372
        0x00001bd2:    211a        .!      MOVS     r1,#0x1a
        0x00001bd4:    a09b        ..      ADR      r0,{pc}+0x270 ; 0x1e44
        0x00001bd6:    f000ffd9    ....    BL       __0printf ; 0x2b8c
        0x00001bda:    f001fd7d    ..}.    BL       clear ; 0x36d8
        0x00001bde:    489a        .H      LDR      r0,[pc,#616] ; [0x1e48] = 0x20001290
        0x00001be0:    f001fd60    ..`.    BL       checkallnumsinstring ; 0x36a4
        0x00001be4:    2800        .(      CMP      r0,#0
        0x00001be6:    d104        ..      BNE      0x1bf2 ; SendAT_GPS_WO_MUTEX + 90
        0x00001be8:    4897        .H      LDR      r0,[pc,#604] ; [0x1e48] = 0x20001290
        0x00001bea:    f7fefbed    ....    BL       strlen ; 0x3c8
        0x00001bee:    2805        .(      CMP      r0,#5
        0x00001bf0:    d259        Y.      BCS      0x1ca6 ; SendAT_GPS_WO_MUTEX + 270
        0x00001bf2:    a096        ..      ADR      r0,{pc}+0x25a ; 0x1e4c
        0x00001bf4:    f000ffca    ....    BL       __0printf ; 0x2b8c
        0x00001bf8:    bf00        ..      NOP      
        0x00001bfa:    4891        .H      LDR      r0,[pc,#580] ; [0x1e40] = 0x20000f2c
        0x00001bfc:    990a        ..      LDR      r1,[sp,#0x28]
        0x00001bfe:    f7fefbcf    ....    BL       strstr ; 0x3a0
        0x00001c02:    498b        .I      LDR      r1,[pc,#556] ; [0x1e30] = 0x20000054
        0x00001c04:    6008        .`      STR      r0,[r1,#0]
        0x00001c06:    4621        !F      MOV      r1,r4
        0x00001c08:    488d        .H      LDR      r0,[pc,#564] ; [0x1e40] = 0x20000f2c
        0x00001c0a:    f7fefbc9    ....    BL       strstr ; 0x3a0
        0x00001c0e:    4989        .I      LDR      r1,[pc,#548] ; [0x1e34] = 0x20000058
        0x00001c10:    6008        .`      STR      r0,[r1,#0]
        0x00001c12:    4629        )F      MOV      r1,r5
        0x00001c14:    488a        .H      LDR      r0,[pc,#552] ; [0x1e40] = 0x20000f2c
        0x00001c16:    f7fefbc3    ....    BL       strstr ; 0x3a0
        0x00001c1a:    4987        .I      LDR      r1,[pc,#540] ; [0x1e38] = 0x2000005c
        0x00001c1c:    6008        .`      STR      r0,[r1,#0]
        0x00001c1e:    4884        .H      LDR      r0,[pc,#528] ; [0x1e30] = 0x20000054
        0x00001c20:    6800        .h      LDR      r0,[r0,#0]
        0x00001c22:    2800        .(      CMP      r0,#0
        0x00001c24:    d10b        ..      BNE      0x1c3e ; SendAT_GPS_WO_MUTEX + 166
        0x00001c26:    4883        .H      LDR      r0,[pc,#524] ; [0x1e34] = 0x20000058
        0x00001c28:    6800        .h      LDR      r0,[r0,#0]
        0x00001c2a:    2800        .(      CMP      r0,#0
        0x00001c2c:    d107        ..      BNE      0x1c3e ; SendAT_GPS_WO_MUTEX + 166
        0x00001c2e:    4608        .F      MOV      r0,r1
        0x00001c30:    6800        .h      LDR      r0,[r0,#0]
        0x00001c32:    2800        .(      CMP      r0,#0
        0x00001c34:    d103        ..      BNE      0x1c3e ; SendAT_GPS_WO_MUTEX + 166
        0x00001c36:    487d        }H      LDR      r0,[pc,#500] ; [0x1e2c] = 0x20000030
        0x00001c38:    6800        .h      LDR      r0,[r0,#0]
        0x00001c3a:    42b0        .B      CMP      r0,r6
        0x00001c3c:    dbdd        ..      BLT      0x1bfa ; SendAT_GPS_WO_MUTEX + 98
        0x00001c3e:    2119        .!      MOVS     r1,#0x19
        0x00001c40:    4881        .H      LDR      r0,[pc,#516] ; [0x1e48] = 0x20001290
        0x00001c42:    f7fefb96    ....    BL       __aeabi_memclr ; 0x372
        0x00001c46:    2000        .       MOVS     r0,#0
        0x00001c48:    4983        .I      LDR      r1,[pc,#524] ; [0x1e58] = 0x20000088
        0x00001c4a:    6008        .`      STR      r0,[r1,#0]
        0x00001c4c:    4983        .I      LDR      r1,[pc,#524] ; [0x1e5c] = 0x200000a4
        0x00001c4e:    6008        .`      STR      r0,[r1,#0]
        0x00001c50:    e01d        ..      B        0x1c8e ; SendAT_GPS_WO_MUTEX + 246
        0x00001c52:    487b        {H      LDR      r0,[pc,#492] ; [0x1e40] = 0x20000f2c
        0x00001c54:    4981        .I      LDR      r1,[pc,#516] ; [0x1e5c] = 0x200000a4
        0x00001c56:    6809        .h      LDR      r1,[r1,#0]
        0x00001c58:    5c40        @\      LDRB     r0,[r0,r1]
        0x00001c5a:    282f        /(      CMP      r0,#0x2f
        0x00001c5c:    dd12        ..      BLE      0x1c84 ; SendAT_GPS_WO_MUTEX + 236
        0x00001c5e:    4878        xH      LDR      r0,[pc,#480] ; [0x1e40] = 0x20000f2c
        0x00001c60:    497e        ~I      LDR      r1,[pc,#504] ; [0x1e5c] = 0x200000a4
        0x00001c62:    6809        .h      LDR      r1,[r1,#0]
        0x00001c64:    5c40        @\      LDRB     r0,[r0,r1]
        0x00001c66:    283a        :(      CMP      r0,#0x3a
        0x00001c68:    da0c        ..      BGE      0x1c84 ; SendAT_GPS_WO_MUTEX + 236
        0x00001c6a:    4875        uH      LDR      r0,[pc,#468] ; [0x1e40] = 0x20000f2c
        0x00001c6c:    497b        {I      LDR      r1,[pc,#492] ; [0x1e5c] = 0x200000a4
        0x00001c6e:    6809        .h      LDR      r1,[r1,#0]
        0x00001c70:    5c40        @\      LDRB     r0,[r0,r1]
        0x00001c72:    4975        uI      LDR      r1,[pc,#468] ; [0x1e48] = 0x20001290
        0x00001c74:    4a78        xJ      LDR      r2,[pc,#480] ; [0x1e58] = 0x20000088
        0x00001c76:    6812        .h      LDR      r2,[r2,#0]
        0x00001c78:    5488        .T      STRB     r0,[r1,r2]
        0x00001c7a:    4877        wH      LDR      r0,[pc,#476] ; [0x1e58] = 0x20000088
        0x00001c7c:    6800        .h      LDR      r0,[r0,#0]
        0x00001c7e:    1c40        @.      ADDS     r0,r0,#1
        0x00001c80:    4975        uI      LDR      r1,[pc,#468] ; [0x1e58] = 0x20000088
        0x00001c82:    6008        .`      STR      r0,[r1,#0]
        0x00001c84:    4875        uH      LDR      r0,[pc,#468] ; [0x1e5c] = 0x200000a4
        0x00001c86:    6800        .h      LDR      r0,[r0,#0]
        0x00001c88:    1c40        @.      ADDS     r0,r0,#1
        0x00001c8a:    4974        tI      LDR      r1,[pc,#464] ; [0x1e5c] = 0x200000a4
        0x00001c8c:    6008        .`      STR      r0,[r1,#0]
        0x00001c8e:    486c        lH      LDR      r0,[pc,#432] ; [0x1e40] = 0x20000f2c
        0x00001c90:    f7fefb9a    ....    BL       strlen ; 0x3c8
        0x00001c94:    4971        qI      LDR      r1,[pc,#452] ; [0x1e5c] = 0x200000a4
        0x00001c96:    6809        .h      LDR      r1,[r1,#0]
        0x00001c98:    4288        .B      CMP      r0,r1
        0x00001c9a:    d8da        ..      BHI      0x1c52 ; SendAT_GPS_WO_MUTEX + 186
        0x00001c9c:    221a        ."      MOVS     r2,#0x1a
        0x00001c9e:    210d        .!      MOVS     r1,#0xd
        0x00001ca0:    4869        iH      LDR      r0,[pc,#420] ; [0x1e48] = 0x20001290
        0x00001ca2:    f002fab5    ....    BL       remove_all_chars ; 0x4210
        0x00001ca6:    2000        .       MOVS     r0,#0
        0x00001ca8:    4960        `I      LDR      r1,[pc,#384] ; [0x1e2c] = 0x20000030
        0x00001caa:    6008        .`      STR      r0,[r1,#0]
        0x00001cac:    4960        `I      LDR      r1,[pc,#384] ; [0x1e30] = 0x20000054
        0x00001cae:    6008        .`      STR      r0,[r1,#0]
        0x00001cb0:    4960        `I      LDR      r1,[pc,#384] ; [0x1e34] = 0x20000058
        0x00001cb2:    6008        .`      STR      r0,[r1,#0]
        0x00001cb4:    4960        `I      LDR      r1,[pc,#384] ; [0x1e38] = 0x2000005c
        0x00001cb6:    6008        .`      STR      r0,[r1,#0]
        0x00001cb8:    4960        `I      LDR      r1,[pc,#384] ; [0x1e3c] = 0x20000028
        0x00001cba:    6008        .`      STR      r0,[r1,#0]
        0x00001cbc:    21af        .!      MOVS     r1,#0xaf
        0x00001cbe:    0089        ..      LSLS     r1,r1,#2
        0x00001cc0:    485f        _H      LDR      r0,[pc,#380] ; [0x1e40] = 0x20000f2c
        0x00001cc2:    f7fefb56    ..V.    BL       __aeabi_memclr ; 0x372
        0x00001cc6:    f001fd07    ....    BL       clear ; 0x36d8
        0x00001cca:    211a        .!      MOVS     r1,#0x1a
        0x00001ccc:    a05d        ].      ADR      r0,{pc}+0x178 ; 0x1e44
        0x00001cce:    f000ff5d    ..].    BL       __0printf ; 0x2b8c
        0x00001cd2:    4638        8F      MOV      r0,r7
        0x00001cd4:    f000ff5a    ..Z.    BL       __0printf ; 0x2b8c
        0x00001cd8:    bf00        ..      NOP      
        0x00001cda:    4859        YH      LDR      r0,[pc,#356] ; [0x1e40] = 0x20000f2c
        0x00001cdc:    990a        ..      LDR      r1,[sp,#0x28]
        0x00001cde:    f7fefb5f    .._.    BL       strstr ; 0x3a0
        0x00001ce2:    4953        SI      LDR      r1,[pc,#332] ; [0x1e30] = 0x20000054
        0x00001ce4:    6008        .`      STR      r0,[r1,#0]
        0x00001ce6:    4621        !F      MOV      r1,r4
        0x00001ce8:    4855        UH      LDR      r0,[pc,#340] ; [0x1e40] = 0x20000f2c
        0x00001cea:    f7fefb59    ..Y.    BL       strstr ; 0x3a0
        0x00001cee:    4951        QI      LDR      r1,[pc,#324] ; [0x1e34] = 0x20000058
        0x00001cf0:    6008        .`      STR      r0,[r1,#0]
        0x00001cf2:    4629        )F      MOV      r1,r5
        0x00001cf4:    4852        RH      LDR      r0,[pc,#328] ; [0x1e40] = 0x20000f2c
        0x00001cf6:    f7fefb53    ..S.    BL       strstr ; 0x3a0
        0x00001cfa:    494f        OI      LDR      r1,[pc,#316] ; [0x1e38] = 0x2000005c
        0x00001cfc:    6008        .`      STR      r0,[r1,#0]
        0x00001cfe:    484c        LH      LDR      r0,[pc,#304] ; [0x1e30] = 0x20000054
        0x00001d00:    6800        .h      LDR      r0,[r0,#0]
        0x00001d02:    2800        .(      CMP      r0,#0
        0x00001d04:    d10b        ..      BNE      0x1d1e ; SendAT_GPS_WO_MUTEX + 390
        0x00001d06:    484b        KH      LDR      r0,[pc,#300] ; [0x1e34] = 0x20000058
        0x00001d08:    6800        .h      LDR      r0,[r0,#0]
        0x00001d0a:    2800        .(      CMP      r0,#0
        0x00001d0c:    d107        ..      BNE      0x1d1e ; SendAT_GPS_WO_MUTEX + 390
        0x00001d0e:    4608        .F      MOV      r0,r1
        0x00001d10:    6800        .h      LDR      r0,[r0,#0]
        0x00001d12:    2800        .(      CMP      r0,#0
        0x00001d14:    d103        ..      BNE      0x1d1e ; SendAT_GPS_WO_MUTEX + 390
        0x00001d16:    4845        EH      LDR      r0,[pc,#276] ; [0x1e2c] = 0x20000030
        0x00001d18:    6800        .h      LDR      r0,[r0,#0]
        0x00001d1a:    42b0        .B      CMP      r0,r6
        0x00001d1c:    dbdd        ..      BLT      0x1cda ; SendAT_GPS_WO_MUTEX + 322
        0x00001d1e:    a150        P.      ADR      r1,{pc}+0x142 ; 0x1e60
        0x00001d20:    4847        GH      LDR      r0,[pc,#284] ; [0x1e40] = 0x20000f2c
        0x00001d22:    f7fefb3d    ..=.    BL       strstr ; 0x3a0
        0x00001d26:    2800        .(      CMP      r0,#0
        0x00001d28:    d067        g.      BEQ      0x1dfa ; SendAT_GPS_WO_MUTEX + 610
        0x00001d2a:    484f        OH      LDR      r0,[pc,#316] ; [0x1e68] = 0x40400000
        0x00001d2c:    494f        OI      LDR      r1,[pc,#316] ; [0x1e6c] = 0x20000034
        0x00001d2e:    6008        .`      STR      r0,[r1,#0]
        0x00001d30:    484f        OH      LDR      r0,[pc,#316] ; [0x1e70] = 0x400e0000
        0x00001d32:    6a00        .j      LDR      r0,[r0,#0x20]
        0x00001d34:    2101        .!      MOVS     r1,#1
        0x00001d36:    02c9        ..      LSLS     r1,r1,#11
        0x00001d38:    4308        .C      ORRS     r0,r0,r1
        0x00001d3a:    494d        MI      LDR      r1,[pc,#308] ; [0x1e70] = 0x400e0000
        0x00001d3c:    6208        .b      STR      r0,[r1,#0x20]
        0x00001d3e:    6809        .h      LDR      r1,[r1,#0]
        0x00001d40:    b288        ..      UXTH     r0,r1
        0x00001d42:    f7fefc35    ..5.    BL       __aeabi_ui2f ; 0x5b0
        0x00001d46:    4949        II      LDR      r1,[pc,#292] ; [0x1e6c] = 0x20000034
        0x00001d48:    6008        .`      STR      r0,[r1,#0]
        0x00001d4a:    4608        .F      MOV      r0,r1
        0x00001d4c:    6800        .h      LDR      r0,[r0,#0]
        0x00001d4e:    f7fefc36    ..6.    BL       __aeabi_f2d ; 0x5be
        0x00001d52:    4a48        HJ      LDR      r2,[pc,#288] ; [0x1e74] = 0xdb22d0e5
        0x00001d54:    4b48        HK      LDR      r3,[pc,#288] ; [0x1e78] = 0x400a7ef9
        0x00001d56:    9101        ..      STR      r1,[sp,#4]
        0x00001d58:    9000        ..      STR      r0,[sp,#0]
        0x00001d5a:    f7fefb49    ..I.    BL       __aeabi_dmul ; 0x3f0
        0x00001d5e:    2200        ."      MOVS     r2,#0
        0x00001d60:    4b46        FK      LDR      r3,[pc,#280] ; [0x1e7c] = 0x40b00000
        0x00001d62:    9103        ..      STR      r1,[sp,#0xc]
        0x00001d64:    9002        ..      STR      r0,[sp,#8]
        0x00001d66:    f7fefbab    ....    BL       __aeabi_ddiv ; 0x4c0
        0x00001d6a:    4a45        EJ      LDR      r2,[pc,#276] ; [0x1e80] = 0xe737ca49
        0x00001d6c:    4b45        EK      LDR      r3,[pc,#276] ; [0x1e84] = 0x3ffe15ba
        0x00001d6e:    9105        ..      STR      r1,[sp,#0x14]
        0x00001d70:    9004        ..      STR      r0,[sp,#0x10]
        0x00001d72:    f7fefb3d    ..=.    BL       __aeabi_dmul ; 0x3f0
        0x00001d76:    9107        ..      STR      r1,[sp,#0x1c]
        0x00001d78:    9006        ..      STR      r0,[sp,#0x18]
        0x00001d7a:    f7fefc5d    ..].    BL       __aeabi_d2f ; 0x638
        0x00001d7e:    493b        ;I      LDR      r1,[pc,#236] ; [0x1e6c] = 0x20000034
        0x00001d80:    6008        .`      STR      r0,[r1,#0]
        0x00001d82:    2164        d!      MOVS     r1,#0x64
        0x00001d84:    4840        @H      LDR      r0,[pc,#256] ; [0x1e88] = 0x2000122c
        0x00001d86:    f7fefaf4    ....    BL       __aeabi_memclr ; 0x372
        0x00001d8a:    483f        ?H      LDR      r0,[pc,#252] ; [0x1e88] = 0x2000122c
        0x00001d8c:    212c        ,!      MOVS     r1,#0x2c
        0x00001d8e:    2343        C#      MOVS     r3,#0x43
        0x00001d90:    220a        ."      MOVS     r2,#0xa
        0x00001d92:    9100        ..      STR      r1,[sp,#0]
        0x00001d94:    9001        ..      STR      r0,[sp,#4]
        0x00001d96:    2102        .!      MOVS     r1,#2
        0x00001d98:    4829        )H      LDR      r0,[pc,#164] ; [0x1e40] = 0x20000f2c
        0x00001d9a:    f002f9e9    ....    BL       parse_g ; 0x4170
        0x00001d9e:    492a        *I      LDR      r1,[pc,#168] ; [0x1e48] = 0x20001290
        0x00001da0:    483a        :H      LDR      r0,[pc,#232] ; [0x1e8c] = 0x20000180
        0x00001da2:    f7fefaf1    ....    BL       strcat ; 0x388
        0x00001da6:    a13a        :.      ADR      r1,{pc}+0xea ; 0x1e90
        0x00001da8:    4838        8H      LDR      r0,[pc,#224] ; [0x1e8c] = 0x20000180
        0x00001daa:    f7fefaed    ....    BL       strcat ; 0x388
        0x00001dae:    4936        6I      LDR      r1,[pc,#216] ; [0x1e88] = 0x2000122c
        0x00001db0:    4836        6H      LDR      r0,[pc,#216] ; [0x1e8c] = 0x20000180
        0x00001db2:    f7fefae9    ....    BL       strcat ; 0x388
        0x00001db6:    2164        d!      MOVS     r1,#0x64
        0x00001db8:    4833        3H      LDR      r0,[pc,#204] ; [0x1e88] = 0x2000122c
        0x00001dba:    f7fefada    ....    BL       __aeabi_memclr ; 0x372
        0x00001dbe:    482b        +H      LDR      r0,[pc,#172] ; [0x1e6c] = 0x20000034
        0x00001dc0:    6800        .h      LDR      r0,[r0,#0]
        0x00001dc2:    f7fefbfc    ....    BL       __aeabi_f2d ; 0x5be
        0x00001dc6:    4602        .F      MOV      r2,r0
        0x00001dc8:    460b        .F      MOV      r3,r1
        0x00001dca:    9107        ..      STR      r1,[sp,#0x1c]
        0x00001dcc:    9006        ..      STR      r0,[sp,#0x18]
        0x00001dce:    a131        1.      ADR      r1,{pc}+0xc6 ; 0x1e94
        0x00001dd0:    482d        -H      LDR      r0,[pc,#180] ; [0x1e88] = 0x2000122c
        0x00001dd2:    f000feeb    ....    BL       __0sprintf ; 0x2bac
        0x00001dd6:    492c        ,I      LDR      r1,[pc,#176] ; [0x1e88] = 0x2000122c
        0x00001dd8:    482c        ,H      LDR      r0,[pc,#176] ; [0x1e8c] = 0x20000180
        0x00001dda:    f7fefad5    ....    BL       strcat ; 0x388
        0x00001dde:    2164        d!      MOVS     r1,#0x64
        0x00001de0:    4829        )H      LDR      r0,[pc,#164] ; [0x1e88] = 0x2000122c
        0x00001de2:    f7fefac6    ....    BL       __aeabi_memclr ; 0x372
        0x00001de6:    482d        -H      LDR      r0,[pc,#180] ; [0x1e9c] = 0x200000c8
        0x00001de8:    a12d        -.      ADR      r1,{pc}+0xb8 ; 0x1ea0
        0x00001dea:    6802        .h      LDR      r2,[r0,#0]
        0x00001dec:    4826        &H      LDR      r0,[pc,#152] ; [0x1e88] = 0x2000122c
        0x00001dee:    f000fedd    ....    BL       __0sprintf ; 0x2bac
        0x00001df2:    4925        %I      LDR      r1,[pc,#148] ; [0x1e88] = 0x2000122c
        0x00001df4:    4825        %H      LDR      r0,[pc,#148] ; [0x1e8c] = 0x20000180
        0x00001df6:    f7fefac7    ....    BL       strcat ; 0x388
        0x00001dfa:    4824        $H      LDR      r0,[pc,#144] ; [0x1e8c] = 0x20000180
        0x00001dfc:    f7fefae4    ....    BL       strlen ; 0x3c8
        0x00001e00:    492a        *I      LDR      r1,[pc,#168] ; [0x1eac] = 0xb54
        0x00001e02:    4288        .B      CMP      r0,r1
        0x00001e04:    d90b        ..      BLS      0x1e1e ; SendAT_GPS_WO_MUTEX + 646
        0x00001e06:    492a        *I      LDR      r1,[pc,#168] ; [0x1eb0] = 0xdac
        0x00001e08:    4820         H      LDR      r0,[pc,#128] ; [0x1e8c] = 0x20000180
        0x00001e0a:    f7fefab2    ....    BL       __aeabi_memclr ; 0x372
        0x00001e0e:    490e        .I      LDR      r1,[pc,#56] ; [0x1e48] = 0x20001290
        0x00001e10:    481e        .H      LDR      r0,[pc,#120] ; [0x1e8c] = 0x20000180
        0x00001e12:    f7fefab9    ....    BL       strcat ; 0x388
        0x00001e16:    a127        '.      ADR      r1,{pc}+0x9e ; 0x1eb4
        0x00001e18:    481c        .H      LDR      r0,[pc,#112] ; [0x1e8c] = 0x20000180
        0x00001e1a:    f7fefab5    ....    BL       strcat ; 0x388
        0x00001e1e:    2001        .       MOVS     r0,#1
        0x00001e20:    4901        .I      LDR      r1,[pc,#4] ; [0x1e28] = 0x50004240
        0x00001e22:    6088        .`      STR      r0,[r1,#8]
        0x00001e24:    b00d        ..      ADD      sp,sp,#0x34
        0x00001e26:    bdf0        ..      POP      {r4-r7,pc}
    $d
        0x00001e28:    50004240    @B.P    DCD    1342194240
        0x00001e2c:    20000030    0..     DCD    536870960
        0x00001e30:    20000054    T..     DCD    536870996
        0x00001e34:    20000058    X..     DCD    536871000
        0x00001e38:    2000005c    \..     DCD    536871004
        0x00001e3c:    20000028    (..     DCD    536870952
        0x00001e40:    20000f2c    ,..     DCD    536874796
        0x00001e44:    00006325    %c..    DCD    25381
        0x00001e48:    20001290    ...     DCD    536875664
        0x00001e4c:    54410a0d    ..AT    DCD    1413548557
        0x00001e50:    4e53472b    +GSN    DCD    1314080555
        0x00001e54:    00000a0d    ....    DCD    2573
        0x00001e58:    20000088    ...     DCD    536871048
        0x00001e5c:    200000a4    ...     DCD    536871076
        0x00001e60:    4d524e47    GNRM    DCD    1297239623
        0x00001e64:    00000043    C...    DCD    67
        0x00001e68:    40400000    ..@@    DCD    1077936128
        0x00001e6c:    20000034    4..     DCD    536870964
        0x00001e70:    400e0000    ...@    DCD    1074659328
        0x00001e74:    db22d0e5    ..".    DCD    3676492005
        0x00001e78:    400a7ef9    .~.@    DCD    1074429689
        0x00001e7c:    40b00000    ...@    DCD    1085276160
        0x00001e80:    e737ca49    I.7.    DCD    3879193161
        0x00001e84:    3ffe15ba    ...?    DCD    1073616314
        0x00001e88:    2000122c    ,..     DCD    536875564
        0x00001e8c:    20000180    ...     DCD    536871296
        0x00001e90:    0000002c    ,...    DCD    44
        0x00001e94:    253d462c    ,F=%    DCD    624772652
        0x00001e98:    0066312e    .1f.    DCD    6697262
        0x00001e9c:    200000c8    ...     DCD    536871112
        0x00001ea0:    46494c2c    ,LIF    DCD    1179208748
        0x00001ea4:    64253d45    E=%d    DCD    1680162117
        0x00001ea8:    0000000a    ....    DCD    10
        0x00001eac:    00000b54    T...    DCD    2900
        0x00001eb0:    00000dac    ....    DCD    3500
        0x00001eb4:    6f727265    erro    DCD    1869771365
        0x00001eb8:    41523a72    r:RA    DCD    1095907954
        0x00001ebc:    6c75664d    Mful    DCD    1819633229
        0x00001ec0:    00000a6c    l...    DCD    2668
    $t
    i.SendChar
    SendChar
        0x00001ec4:    b500        ..      PUSH     {lr}
        0x00001ec6:    4603        .F      MOV      r3,r0
        0x00001ec8:    4618        .F      MOV      r0,r3
        0x00001eca:    f000f801    ....    BL       SendChar_ToUART ; 0x1ed0
        0x00001ece:    bd00        ..      POP      {pc}
    i.SendChar_ToUART
    SendChar_ToUART
        0x00001ed0:    bf00        ..      NOP      
        0x00001ed2:    490b        .I      LDR      r1,[pc,#44] ; [0x1f00] = 0x40150000
        0x00001ed4:    6989        .i      LDR      r1,[r1,#0x18]
        0x00001ed6:    2201        ."      MOVS     r2,#1
        0x00001ed8:    05d2        ..      LSLS     r2,r2,#23
        0x00001eda:    4011        .@      ANDS     r1,r1,r2
        0x00001edc:    2900        .)      CMP      r1,#0
        0x00001ede:    d1f8        ..      BNE      0x1ed2 ; SendChar_ToUART + 2
        0x00001ee0:    4907        .I      LDR      r1,[pc,#28] ; [0x1f00] = 0x40150000
        0x00001ee2:    6008        .`      STR      r0,[r1,#0]
        0x00001ee4:    280a        .(      CMP      r0,#0xa
        0x00001ee6:    d10a        ..      BNE      0x1efe ; SendChar_ToUART + 46
        0x00001ee8:    bf00        ..      NOP      
        0x00001eea:    4905        .I      LDR      r1,[pc,#20] ; [0x1f00] = 0x40150000
        0x00001eec:    6989        .i      LDR      r1,[r1,#0x18]
        0x00001eee:    2201        ."      MOVS     r2,#1
        0x00001ef0:    05d2        ..      LSLS     r2,r2,#23
        0x00001ef2:    4011        .@      ANDS     r1,r1,r2
        0x00001ef4:    2900        .)      CMP      r1,#0
        0x00001ef6:    d1f8        ..      BNE      0x1eea ; SendChar_ToUART + 26
        0x00001ef8:    210d        .!      MOVS     r1,#0xd
        0x00001efa:    4a01        .J      LDR      r2,[pc,#4] ; [0x1f00] = 0x40150000
        0x00001efc:    6011        .`      STR      r1,[r2,#0]
        0x00001efe:    4770        pG      BX       lr
    $d
        0x00001f00:    40150000    ...@    DCD    1075118080
    $t
    i.SystemCoreClockUpdate
    SystemCoreClockUpdate
        0x00001f04:    b570        p.      PUSH     {r4-r6,lr}
        0x00001f06:    f7feff85    ....    BL       CLK_GetPLLClockFreq ; 0xe14
        0x00001f0a:    4911        .I      LDR      r1,[pc,#68] ; [0x1f50] = 0x20000100
        0x00001f0c:    6008        .`      STR      r0,[r1,#0]
        0x00001f0e:    4811        .H      LDR      r0,[pc,#68] ; [0x1f54] = 0x50000200
        0x00001f10:    6900        .i      LDR      r0,[r0,#0x10]
        0x00001f12:    0745        E.      LSLS     r5,r0,#29
        0x00001f14:    0f6d        m.      LSRS     r5,r5,#29
        0x00001f16:    2d02        .-      CMP      r5,#2
        0x00001f18:    d003        ..      BEQ      0x1f22 ; SystemCoreClockUpdate + 30
        0x00001f1a:    00a8        ..      LSLS     r0,r5,#2
        0x00001f1c:    490e        .I      LDR      r1,[pc,#56] ; [0x1f58] = 0x20000104
        0x00001f1e:    580c        .X      LDR      r4,[r1,r0]
        0x00001f20:    e001        ..      B        0x1f26 ; SystemCoreClockUpdate + 34
        0x00001f22:    480b        .H      LDR      r0,[pc,#44] ; [0x1f50] = 0x20000100
        0x00001f24:    6804        .h      LDR      r4,[r0,#0]
        0x00001f26:    480b        .H      LDR      r0,[pc,#44] ; [0x1f54] = 0x50000200
        0x00001f28:    6980        .i      LDR      r0,[r0,#0x18]
        0x00001f2a:    0700        ..      LSLS     r0,r0,#28
        0x00001f2c:    0f00        ..      LSRS     r0,r0,#28
        0x00001f2e:    1c46        F.      ADDS     r6,r0,#1
        0x00001f30:    4631        1F      MOV      r1,r6
        0x00001f32:    4620         F      MOV      r0,r4
        0x00001f34:    f7fef9bc    ....    BL       __aeabi_uidiv ; 0x2b0
        0x00001f38:    4908        .I      LDR      r1,[pc,#32] ; [0x1f5c] = 0x200000f8
        0x00001f3a:    6008        .`      STR      r0,[r1,#0]
        0x00001f3c:    4908        .I      LDR      r1,[pc,#32] ; [0x1f60] = 0xf4240
        0x00001f3e:    4807        .H      LDR      r0,[pc,#28] ; [0x1f5c] = 0x200000f8
        0x00001f40:    6800        .h      LDR      r0,[r0,#0]
        0x00001f42:    104a        J.      ASRS     r2,r1,#1
        0x00001f44:    1880        ..      ADDS     r0,r0,r2
        0x00001f46:    f7fef9b3    ....    BL       __aeabi_uidiv ; 0x2b0
        0x00001f4a:    4906        .I      LDR      r1,[pc,#24] ; [0x1f64] = 0x200000fc
        0x00001f4c:    6008        .`      STR      r0,[r1,#0]
        0x00001f4e:    bd70        p.      POP      {r4-r6,pc}
    $d
        0x00001f50:    20000100    ...     DCD    536871168
        0x00001f54:    50000200    ...P    DCD    1342177792
        0x00001f58:    20000104    ...     DCD    536871172
        0x00001f5c:    200000f8    ...     DCD    536871160
        0x00001f60:    000f4240    @B..    DCD    1000000
        0x00001f64:    200000fc    ...     DCD    536871164
    $t
    i.SystemInit
    SystemInit
        0x00001f68:    4770        pG      BX       lr
        0x00001f6a:    0000        ..      MOVS     r0,r0
    i.TCP_Send
    TCP_Send
        0x00001f6c:    b5ff        ..      PUSH     {r0-r7,lr}
        0x00001f6e:    b087        ..      SUB      sp,sp,#0x1c
        0x00001f70:    460d        .F      MOV      r5,r1
        0x00001f72:    9f11        ..      LDR      r7,[sp,#0x44]
        0x00001f74:    2000        .       MOVS     r0,#0
        0x00001f76:    9006        ..      STR      r0,[sp,#0x18]
        0x00001f78:    9005        ..      STR      r0,[sp,#0x14]
        0x00001f7a:    2600        .&      MOVS     r6,#0
        0x00001f7c:    2400        .$      MOVS     r4,#0
        0x00001f7e:    9004        ..      STR      r0,[sp,#0x10]
        0x00001f80:    204b        K       MOVS     r0,#0x4b
        0x00001f82:    00c0        ..      LSLS     r0,r0,#3
        0x00001f84:    9003        ..      STR      r0,[sp,#0xc]
        0x00001f86:    1e61        a.      SUBS     r1,r4,#1
        0x00001f88:    4884        .H      LDR      r0,[pc,#528] ; [0x219c] = 0x20000000
        0x00001f8a:    6800        .h      LDR      r0,[r0,#0]
        0x00001f8c:    f002f838    ..8.    BL       osMutexWait ; 0x4000
        0x00001f90:    2000        .       MOVS     r0,#0
        0x00001f92:    4983        .I      LDR      r1,[pc,#524] ; [0x21a0] = 0x50004240
        0x00001f94:    6088        .`      STR      r0,[r1,#8]
        0x00001f96:    2064        d       MOVS     r0,#0x64
        0x00001f98:    f001ffa4    ....    BL       osDelay ; 0x3ee4
        0x00001f9c:    2000        .       MOVS     r0,#0
        0x00001f9e:    4981        .I      LDR      r1,[pc,#516] ; [0x21a4] = 0x20000030
        0x00001fa0:    6008        .`      STR      r0,[r1,#0]
        0x00001fa2:    2705        .'      MOVS     r7,#5
        0x00001fa4:    4980        .I      LDR      r1,[pc,#512] ; [0x21a8] = 0x20000054
        0x00001fa6:    6008        .`      STR      r0,[r1,#0]
        0x00001fa8:    4980        .I      LDR      r1,[pc,#512] ; [0x21ac] = 0x20000058
        0x00001faa:    6008        .`      STR      r0,[r1,#0]
        0x00001fac:    4980        .I      LDR      r1,[pc,#512] ; [0x21b0] = 0x2000005c
        0x00001fae:    6008        .`      STR      r0,[r1,#0]
        0x00001fb0:    4980        .I      LDR      r1,[pc,#512] ; [0x21b4] = 0x20000028
        0x00001fb2:    6008        .`      STR      r0,[r1,#0]
        0x00001fb4:    211a        .!      MOVS     r1,#0x1a
        0x00001fb6:    a080        ..      ADR      r0,{pc}+0x202 ; 0x21b8
        0x00001fb8:    f000fde8    ....    BL       __0printf ; 0x2b8c
        0x00001fbc:    4628        (F      MOV      r0,r5
        0x00001fbe:    f7fefa03    ....    BL       strlen ; 0x3c8
        0x00001fc2:    9006        ..      STR      r0,[sp,#0x18]
        0x00001fc4:    214b        K!      MOVS     r1,#0x4b
        0x00001fc6:    00c9        ..      LSLS     r1,r1,#3
        0x00001fc8:    9806        ..      LDR      r0,[sp,#0x18]
        0x00001fca:    f7fef987    ....    BL       __aeabi_idiv ; 0x2dc
        0x00001fce:    2900        .)      CMP      r1,#0
        0x00001fd0:    d106        ..      BNE      0x1fe0 ; TCP_Send + 116
        0x00001fd2:    214b        K!      MOVS     r1,#0x4b
        0x00001fd4:    00c9        ..      LSLS     r1,r1,#3
        0x00001fd6:    9806        ..      LDR      r0,[sp,#0x18]
        0x00001fd8:    f7fef980    ....    BL       __aeabi_idiv ; 0x2dc
        0x00001fdc:    4606        .F      MOV      r6,r0
        0x00001fde:    e005        ..      B        0x1fec ; TCP_Send + 128
        0x00001fe0:    214b        K!      MOVS     r1,#0x4b
        0x00001fe2:    00c9        ..      LSLS     r1,r1,#3
        0x00001fe4:    9806        ..      LDR      r0,[sp,#0x18]
        0x00001fe6:    f7fef979    ..y.    BL       __aeabi_idiv ; 0x2dc
        0x00001fea:    1c46        F.      ADDS     r6,r0,#1
        0x00001fec:    9806        ..      LDR      r0,[sp,#0x18]
        0x00001fee:    280f        .(      CMP      r0,#0xf
        0x00001ff0:    dd7e        ~.      BLE      0x20f0 ; TCP_Send + 388
        0x00001ff2:    f001fb71    ..q.    BL       clear ; 0x36d8
        0x00001ff6:    2400        .$      MOVS     r4,#0
        0x00001ff8:    e09b        ..      B        0x2132 ; TCP_Send + 454
        0x00001ffa:    2000        .       MOVS     r0,#0
        0x00001ffc:    496d        mI      LDR      r1,[pc,#436] ; [0x21b4] = 0x20000028
        0x00001ffe:    6008        .`      STR      r0,[r1,#0]
        0x00002000:    4968        hI      LDR      r1,[pc,#416] ; [0x21a4] = 0x20000030
        0x00002002:    6008        .`      STR      r0,[r1,#0]
        0x00002004:    21af        .!      MOVS     r1,#0xaf
        0x00002006:    0089        ..      LSLS     r1,r1,#2
        0x00002008:    486c        lH      LDR      r0,[pc,#432] ; [0x21bc] = 0x20000f2c
        0x0000200a:    f7fef9b2    ....    BL       __aeabi_memclr ; 0x372
        0x0000200e:    9807        ..      LDR      r0,[sp,#0x1c]
        0x00002010:    f000fdbc    ....    BL       __0printf ; 0x2b8c
        0x00002014:    bf00        ..      NOP      
        0x00002016:    4869        iH      LDR      r0,[pc,#420] ; [0x21bc] = 0x20000f2c
        0x00002018:    9909        ..      LDR      r1,[sp,#0x24]
        0x0000201a:    f7fef9c1    ....    BL       strstr ; 0x3a0
        0x0000201e:    4962        bI      LDR      r1,[pc,#392] ; [0x21a8] = 0x20000054
        0x00002020:    6008        .`      STR      r0,[r1,#0]
        0x00002022:    4866        fH      LDR      r0,[pc,#408] ; [0x21bc] = 0x20000f2c
        0x00002024:    990a        ..      LDR      r1,[sp,#0x28]
        0x00002026:    f7fef9bb    ....    BL       strstr ; 0x3a0
        0x0000202a:    4960        `I      LDR      r1,[pc,#384] ; [0x21ac] = 0x20000058
        0x0000202c:    6008        .`      STR      r0,[r1,#0]
        0x0000202e:    4863        cH      LDR      r0,[pc,#396] ; [0x21bc] = 0x20000f2c
        0x00002030:    9910        ..      LDR      r1,[sp,#0x40]
        0x00002032:    f7fef9b5    ....    BL       strstr ; 0x3a0
        0x00002036:    495e        ^I      LDR      r1,[pc,#376] ; [0x21b0] = 0x2000005c
        0x00002038:    6008        .`      STR      r0,[r1,#0]
        0x0000203a:    485b        [H      LDR      r0,[pc,#364] ; [0x21a8] = 0x20000054
        0x0000203c:    6800        .h      LDR      r0,[r0,#0]
        0x0000203e:    2800        .(      CMP      r0,#0
        0x00002040:    d10b        ..      BNE      0x205a ; TCP_Send + 238
        0x00002042:    485a        ZH      LDR      r0,[pc,#360] ; [0x21ac] = 0x20000058
        0x00002044:    6800        .h      LDR      r0,[r0,#0]
        0x00002046:    2800        .(      CMP      r0,#0
        0x00002048:    d107        ..      BNE      0x205a ; TCP_Send + 238
        0x0000204a:    4608        .F      MOV      r0,r1
        0x0000204c:    6800        .h      LDR      r0,[r0,#0]
        0x0000204e:    2800        .(      CMP      r0,#0
        0x00002050:    d103        ..      BNE      0x205a ; TCP_Send + 238
        0x00002052:    4854        TH      LDR      r0,[pc,#336] ; [0x21a4] = 0x20000030
        0x00002054:    6800        .h      LDR      r0,[r0,#0]
        0x00002056:    42b8        .B      CMP      r0,r7
        0x00002058:    dbdd        ..      BLT      0x2016 ; TCP_Send + 170
        0x0000205a:    f001fb3d    ..=.    BL       clear ; 0x36d8
        0x0000205e:    2000        .       MOVS     r0,#0
        0x00002060:    4950        PI      LDR      r1,[pc,#320] ; [0x21a4] = 0x20000030
        0x00002062:    6008        .`      STR      r0,[r1,#0]
        0x00002064:    4850        PH      LDR      r0,[pc,#320] ; [0x21a8] = 0x20000054
        0x00002066:    6800        .h      LDR      r0,[r0,#0]
        0x00002068:    2800        .(      CMP      r0,#0
        0x0000206a:    d056        V.      BEQ      0x211a ; TCP_Send + 430
        0x0000206c:    2000        .       MOVS     r0,#0
        0x0000206e:    6008        .`      STR      r0,[r1,#0]
        0x00002070:    2705        .'      MOVS     r7,#5
        0x00002072:    494d        MI      LDR      r1,[pc,#308] ; [0x21a8] = 0x20000054
        0x00002074:    6008        .`      STR      r0,[r1,#0]
        0x00002076:    494d        MI      LDR      r1,[pc,#308] ; [0x21ac] = 0x20000058
        0x00002078:    6008        .`      STR      r0,[r1,#0]
        0x0000207a:    494d        MI      LDR      r1,[pc,#308] ; [0x21b0] = 0x2000005c
        0x0000207c:    6008        .`      STR      r0,[r1,#0]
        0x0000207e:    494d        MI      LDR      r1,[pc,#308] ; [0x21b4] = 0x20000028
        0x00002080:    6008        .`      STR      r0,[r1,#0]
        0x00002082:    21af        .!      MOVS     r1,#0xaf
        0x00002084:    0089        ..      LSLS     r1,r1,#2
        0x00002086:    484d        MH      LDR      r0,[pc,#308] ; [0x21bc] = 0x20000f2c
        0x00002088:    f7fef973    ..s.    BL       __aeabi_memclr ; 0x372
        0x0000208c:    f001fb24    ..$.    BL       clear ; 0x36d8
        0x00002090:    1e70        p.      SUBS     r0,r6,#1
        0x00002092:    42a0        .B      CMP      r0,r4
        0x00002094:    d105        ..      BNE      0x20a2 ; TCP_Send + 310
        0x00002096:    214b        K!      MOVS     r1,#0x4b
        0x00002098:    00c9        ..      LSLS     r1,r1,#3
        0x0000209a:    9806        ..      LDR      r0,[sp,#0x18]
        0x0000209c:    f7fef91e    ....    BL       __aeabi_idiv ; 0x2dc
        0x000020a0:    9103        ..      STR      r1,[sp,#0xc]
        0x000020a2:    2000        .       MOVS     r0,#0
        0x000020a4:    9004        ..      STR      r0,[sp,#0x10]
        0x000020a6:    e009        ..      B        0x20bc ; TCP_Send + 336
        0x000020a8:    9905        ..      LDR      r1,[sp,#0x14]
        0x000020aa:    5c68        h\      LDRB     r0,[r5,r1]
        0x000020ac:    f7ffff0a    ....    BL       SendChar ; 0x1ec4
        0x000020b0:    9805        ..      LDR      r0,[sp,#0x14]
        0x000020b2:    1c40        @.      ADDS     r0,r0,#1
        0x000020b4:    9005        ..      STR      r0,[sp,#0x14]
        0x000020b6:    9804        ..      LDR      r0,[sp,#0x10]
        0x000020b8:    1c40        @.      ADDS     r0,r0,#1
        0x000020ba:    9004        ..      STR      r0,[sp,#0x10]
        0x000020bc:    9903        ..      LDR      r1,[sp,#0xc]
        0x000020be:    9804        ..      LDR      r0,[sp,#0x10]
        0x000020c0:    4288        .B      CMP      r0,r1
        0x000020c2:    dbf1        ..      BLT      0x20a8 ; TCP_Send + 316
        0x000020c4:    211a        .!      MOVS     r1,#0x1a
        0x000020c6:    a03c        <.      ADR      r0,{pc}+0xf2 ; 0x21b8
        0x000020c8:    f000fd60    ..`.    BL       __0printf ; 0x2b8c
        0x000020cc:    bf00        ..      NOP      
        0x000020ce:    483b        ;H      LDR      r0,[pc,#236] ; [0x21bc] = 0x20000f2c
        0x000020d0:    9909        ..      LDR      r1,[sp,#0x24]
        0x000020d2:    f7fef965    ..e.    BL       strstr ; 0x3a0
        0x000020d6:    4934        4I      LDR      r1,[pc,#208] ; [0x21a8] = 0x20000054
        0x000020d8:    6008        .`      STR      r0,[r1,#0]
        0x000020da:    4838        8H      LDR      r0,[pc,#224] ; [0x21bc] = 0x20000f2c
        0x000020dc:    990a        ..      LDR      r1,[sp,#0x28]
        0x000020de:    f7fef95f    .._.    BL       strstr ; 0x3a0
        0x000020e2:    4932        2I      LDR      r1,[pc,#200] ; [0x21ac] = 0x20000058
        0x000020e4:    6008        .`      STR      r0,[r1,#0]
        0x000020e6:    4835        5H      LDR      r0,[pc,#212] ; [0x21bc] = 0x20000f2c
        0x000020e8:    9910        ..      LDR      r1,[sp,#0x40]
        0x000020ea:    f7fef959    ..Y.    BL       strstr ; 0x3a0
        0x000020ee:    e000        ..      B        0x20f2 ; TCP_Send + 390
        0x000020f0:    e045        E.      B        0x217e ; TCP_Send + 530
        0x000020f2:    492f        /I      LDR      r1,[pc,#188] ; [0x21b0] = 0x2000005c
        0x000020f4:    6008        .`      STR      r0,[r1,#0]
        0x000020f6:    482c        ,H      LDR      r0,[pc,#176] ; [0x21a8] = 0x20000054
        0x000020f8:    6800        .h      LDR      r0,[r0,#0]
        0x000020fa:    2800        .(      CMP      r0,#0
        0x000020fc:    d10b        ..      BNE      0x2116 ; TCP_Send + 426
        0x000020fe:    482b        +H      LDR      r0,[pc,#172] ; [0x21ac] = 0x20000058
        0x00002100:    6800        .h      LDR      r0,[r0,#0]
        0x00002102:    2800        .(      CMP      r0,#0
        0x00002104:    d107        ..      BNE      0x2116 ; TCP_Send + 426
        0x00002106:    4608        .F      MOV      r0,r1
        0x00002108:    6800        .h      LDR      r0,[r0,#0]
        0x0000210a:    2800        .(      CMP      r0,#0
        0x0000210c:    d103        ..      BNE      0x2116 ; TCP_Send + 426
        0x0000210e:    4825        %H      LDR      r0,[pc,#148] ; [0x21a4] = 0x20000030
        0x00002110:    6800        .h      LDR      r0,[r0,#0]
        0x00002112:    42b8        .B      CMP      r0,r7
        0x00002114:    dbdb        ..      BLT      0x20ce ; TCP_Send + 354
        0x00002116:    f001fadf    ....    BL       clear ; 0x36d8
        0x0000211a:    4825        %H      LDR      r0,[pc,#148] ; [0x21b0] = 0x2000005c
        0x0000211c:    6800        .h      LDR      r0,[r0,#0]
        0x0000211e:    2800        .(      CMP      r0,#0
        0x00002120:    d103        ..      BNE      0x212a ; TCP_Send + 446
        0x00002122:    2001        .       MOVS     r0,#1
        0x00002124:    4926        &I      LDR      r1,[pc,#152] ; [0x21c0] = 0x20000084
        0x00002126:    6008        .`      STR      r0,[r1,#0]
        0x00002128:    e006        ..      B        0x2138 ; TCP_Send + 460
        0x0000212a:    2000        .       MOVS     r0,#0
        0x0000212c:    4924        $I      LDR      r1,[pc,#144] ; [0x21c0] = 0x20000084
        0x0000212e:    6008        .`      STR      r0,[r1,#0]
        0x00002130:    1c64        d.      ADDS     r4,r4,#1
        0x00002132:    42b4        .B      CMP      r4,r6
        0x00002134:    da00        ..      BGE      0x2138 ; TCP_Send + 460
        0x00002136:    e760        `.      B        0x1ffa ; TCP_Send + 142
        0x00002138:    bf00        ..      NOP      
        0x0000213a:    4821        !H      LDR      r0,[pc,#132] ; [0x21c0] = 0x20000084
        0x0000213c:    6800        .h      LDR      r0,[r0,#0]
        0x0000213e:    2800        .(      CMP      r0,#0
        0x00002140:    d119        ..      BNE      0x2176 ; TCP_Send + 522
        0x00002142:    42b4        .B      CMP      r4,r6
        0x00002144:    db17        ..      BLT      0x2176 ; TCP_Send + 522
        0x00002146:    491f        .I      LDR      r1,[pc,#124] ; [0x21c4] = 0xdac
        0x00002148:    481f        .H      LDR      r0,[pc,#124] ; [0x21c8] = 0x20000180
        0x0000214a:    f7fef912    ....    BL       __aeabi_memclr ; 0x372
        0x0000214e:    bf00        ..      NOP      
        0x00002150:    481e        .H      LDR      r0,[pc,#120] ; [0x21cc] = 0x2000001b
        0x00002152:    7800        .x      LDRB     r0,[r0,#0]
        0x00002154:    2801        .(      CMP      r0,#1
        0x00002156:    d109        ..      BNE      0x216c ; TCP_Send + 512
        0x00002158:    200a        .       MOVS     r0,#0xa
        0x0000215a:    491d        .I      LDR      r1,[pc,#116] ; [0x21d0] = 0x5808
        0x0000215c:    4b1d        .K      LDR      r3,[pc,#116] ; [0x21d4] = 0x58dc
        0x0000215e:    4a1e        .J      LDR      r2,[pc,#120] ; [0x21d8] = 0x5804
        0x00002160:    9100        ..      STR      r1,[sp,#0]
        0x00002162:    9001        ..      STR      r0,[sp,#4]
        0x00002164:    4918        .I      LDR      r1,[pc,#96] ; [0x21c8] = 0x20000180
        0x00002166:    481d        .H      LDR      r0,[pc,#116] ; [0x21dc] = 0x57f4
        0x00002168:    f000f83a    ..:.    BL       TCP_Send_ch ; 0x21e0
        0x0000216c:    bf00        ..      NOP      
        0x0000216e:    2001        .       MOVS     r0,#1
        0x00002170:    4916        .I      LDR      r1,[pc,#88] ; [0x21cc] = 0x2000001b
        0x00002172:    7008        .p      STRB     r0,[r1,#0]
        0x00002174:    e006        ..      B        0x2184 ; TCP_Send + 536
        0x00002176:    2000        .       MOVS     r0,#0
        0x00002178:    4914        .I      LDR      r1,[pc,#80] ; [0x21cc] = 0x2000001b
        0x0000217a:    7008        .p      STRB     r0,[r1,#0]
        0x0000217c:    e002        ..      B        0x2184 ; TCP_Send + 536
        0x0000217e:    2001        .       MOVS     r0,#1
        0x00002180:    490f        .I      LDR      r1,[pc,#60] ; [0x21c0] = 0x20000084
        0x00002182:    6008        .`      STR      r0,[r1,#0]
        0x00002184:    2001        .       MOVS     r0,#1
        0x00002186:    4906        .I      LDR      r1,[pc,#24] ; [0x21a0] = 0x50004240
        0x00002188:    6088        .`      STR      r0,[r1,#8]
        0x0000218a:    4804        .H      LDR      r0,[pc,#16] ; [0x219c] = 0x20000000
        0x0000218c:    6800        .h      LDR      r0,[r0,#0]
        0x0000218e:    f001ff29    ..).    BL       osMutexRelease ; 0x3fe4
        0x00002192:    2005        .       MOVS     r0,#5
        0x00002194:    f001fea6    ....    BL       osDelay ; 0x3ee4
        0x00002198:    b00b        ..      ADD      sp,sp,#0x2c
        0x0000219a:    bdf0        ..      POP      {r4-r7,pc}
    $d
        0x0000219c:    20000000    ...     DCD    536870912
        0x000021a0:    50004240    @B.P    DCD    1342194240
        0x000021a4:    20000030    0..     DCD    536870960
        0x000021a8:    20000054    T..     DCD    536870996
        0x000021ac:    20000058    X..     DCD    536871000
        0x000021b0:    2000005c    \..     DCD    536871004
        0x000021b4:    20000028    (..     DCD    536870952
        0x000021b8:    00006325    %c..    DCD    25381
        0x000021bc:    20000f2c    ,..     DCD    536874796
        0x000021c0:    20000084    ...     DCD    536871044
        0x000021c4:    00000dac    ....    DCD    3500
        0x000021c8:    20000180    ...     DCD    536871296
        0x000021cc:    2000001b    ...     DCD    536870939
        0x000021d0:    00005808    .X..    DCD    22536
        0x000021d4:    000058dc    .X..    DCD    22748
        0x000021d8:    00005804    .X..    DCD    22532
        0x000021dc:    000057f4    .W..    DCD    22516
    $t
    i.TCP_Send_ch
    TCP_Send_ch
        0x000021e0:    b5ff        ..      PUSH     {r0-r7,lr}
        0x000021e2:    b0ff        ..      SUB      sp,sp,#0x1fc
        0x000021e4:    b0a0        ..      SUB      sp,sp,#0x80
        0x000021e6:    2400        .$      MOVS     r4,#0
        0x000021e8:    2000        .       MOVS     r0,#0
        0x000021ea:    909e        ..      STR      r0,[sp,#0x278]
        0x000021ec:    909d        ..      STR      r0,[sp,#0x274]
        0x000021ee:    2500        .%      MOVS     r5,#0
        0x000021f0:    2600        .&      MOVS     r6,#0
        0x000021f2:    204b        K       MOVS     r0,#0x4b
        0x000021f4:    00c0        ..      LSLS     r0,r0,#3
        0x000021f6:    909c        ..      STR      r0,[sp,#0x270]
        0x000021f8:    2000        .       MOVS     r0,#0
        0x000021fa:    9003        ..      STR      r0,[sp,#0xc]
        0x000021fc:    49e7        .I      LDR      r1,[pc,#924] ; [0x259c] = 0x2000004c
        0x000021fe:    6008        .`      STR      r0,[r1,#0]
        0x00002200:    49e7        .I      LDR      r1,[pc,#924] ; [0x25a0] = 0x50004240
        0x00002202:    6088        .`      STR      r0,[r1,#8]
        0x00002204:    20ff        .       MOVS     r0,#0xff
        0x00002206:    30f5        .0      ADDS     r0,r0,#0xf5
        0x00002208:    f001fe6c    ..l.    BL       osDelay ; 0x3ee4
        0x0000220c:    211a        .!      MOVS     r1,#0x1a
        0x0000220e:    a0e5        ..      ADR      r0,{pc}+0x396 ; 0x25a4
        0x00002210:    f000fcbc    ....    BL       __0printf ; 0x2b8c
        0x00002214:    2000        .       MOVS     r0,#0
        0x00002216:    49e4        .I      LDR      r1,[pc,#912] ; [0x25a8] = 0x20000030
        0x00002218:    6008        .`      STR      r0,[r1,#0]
        0x0000221a:    2005        .       MOVS     r0,#5
        0x0000221c:    90a9        ..      STR      r0,[sp,#0x2a4]
        0x0000221e:    2000        .       MOVS     r0,#0
        0x00002220:    49e2        .I      LDR      r1,[pc,#904] ; [0x25ac] = 0x20000054
        0x00002222:    6008        .`      STR      r0,[r1,#0]
        0x00002224:    49e2        .I      LDR      r1,[pc,#904] ; [0x25b0] = 0x20000058
        0x00002226:    6008        .`      STR      r0,[r1,#0]
        0x00002228:    49e2        .I      LDR      r1,[pc,#904] ; [0x25b4] = 0x2000005c
        0x0000222a:    6008        .`      STR      r0,[r1,#0]
        0x0000222c:    2032        2       MOVS     r0,#0x32
        0x0000222e:    a3e2        ..      ADR      r3,{pc}+0x38a ; 0x25b8
        0x00002230:    a2e3        ..      ADR      r2,{pc}+0x390 ; 0x25c0
        0x00002232:    a1e4        ..      ADR      r1,{pc}+0x392 ; 0x25c4
        0x00002234:    9000        ..      STR      r0,[sp,#0]
        0x00002236:    a0e5        ..      ADR      r0,{pc}+0x396 ; 0x25cc
        0x00002238:    f7fff9a6    ....    BL       SendAT ; 0x1588
        0x0000223c:    2000        .       MOVS     r0,#0
        0x0000223e:    909a        ..      STR      r0,[sp,#0x268]
        0x00002240:    909b        ..      STR      r0,[sp,#0x26c]
        0x00002242:    2032        2       MOVS     r0,#0x32
        0x00002244:    a3dc        ..      ADR      r3,{pc}+0x374 ; 0x25b8
        0x00002246:    a2de        ..      ADR      r2,{pc}+0x37a ; 0x25c0
        0x00002248:    a1de        ..      ADR      r1,{pc}+0x37c ; 0x25c4
        0x0000224a:    9000        ..      STR      r0,[sp,#0]
        0x0000224c:    a0e4        ..      ADR      r0,{pc}+0x394 ; 0x25e0
        0x0000224e:    f7fff99b    ....    BL       SendAT ; 0x1588
        0x00002252:    a89a        ..      ADD      r0,sp,#0x268
        0x00002254:    210a        .!      MOVS     r1,#0xa
        0x00002256:    232c        ,#      MOVS     r3,#0x2c
        0x00002258:    2202        ."      MOVS     r2,#2
        0x0000225a:    9100        ..      STR      r1,[sp,#0]
        0x0000225c:    9001        ..      STR      r0,[sp,#4]
        0x0000225e:    2101        .!      MOVS     r1,#1
        0x00002260:    48e5        .H      LDR      r0,[pc,#916] ; [0x25f8] = 0x20000f2c
        0x00002262:    f001ff85    ....    BL       parse_g ; 0x4170
        0x00002266:    221a        ."      MOVS     r2,#0x1a
        0x00002268:    210d        .!      MOVS     r1,#0xd
        0x0000226a:    a89a        ..      ADD      r0,sp,#0x268
        0x0000226c:    f001ffd0    ....    BL       remove_all_chars ; 0x4210
        0x00002270:    a89a        ..      ADD      r0,sp,#0x268
        0x00002272:    f7fef8b0    ....    BL       atoi ; 0x3d6
        0x00002276:    4604        .F      MOV      r4,r0
        0x00002278:    f001fb9c    ....    BL       fileopen ; 0x39b4
        0x0000227c:    1e69        i.      SUBS     r1,r5,#1
        0x0000227e:    48df        .H      LDR      r0,[pc,#892] ; [0x25fc] = 0x20000000
        0x00002280:    6800        .h      LDR      r0,[r0,#0]
        0x00002282:    f001febd    ....    BL       osMutexWait ; 0x4000
        0x00002286:    214b        K!      MOVS     r1,#0x4b
        0x00002288:    00c9        ..      LSLS     r1,r1,#3
        0x0000228a:    4620         F      MOV      r0,r4
        0x0000228c:    f7fef826    ..&.    BL       __aeabi_idiv ; 0x2dc
        0x00002290:    2900        .)      CMP      r1,#0
        0x00002292:    d106        ..      BNE      0x22a2 ; TCP_Send_ch + 194
        0x00002294:    214b        K!      MOVS     r1,#0x4b
        0x00002296:    00c9        ..      LSLS     r1,r1,#3
        0x00002298:    4620         F      MOV      r0,r4
        0x0000229a:    f7fef81f    ....    BL       __aeabi_idiv ; 0x2dc
        0x0000229e:    909d        ..      STR      r0,[sp,#0x274]
        0x000022a0:    e006        ..      B        0x22b0 ; TCP_Send_ch + 208
        0x000022a2:    214b        K!      MOVS     r1,#0x4b
        0x000022a4:    00c9        ..      LSLS     r1,r1,#3
        0x000022a6:    4620         F      MOV      r0,r4
        0x000022a8:    f7fef818    ....    BL       __aeabi_idiv ; 0x2dc
        0x000022ac:    1c40        @.      ADDS     r0,r0,#1
        0x000022ae:    909d        ..      STR      r0,[sp,#0x274]
        0x000022b0:    2500        .%      MOVS     r5,#0
        0x000022b2:    e144        D.      B        0x253e ; TCP_Send_ch + 862
        0x000022b4:    2000        .       MOVS     r0,#0
        0x000022b6:    49d2        .I      LDR      r1,[pc,#840] ; [0x2600] = 0x20000028
        0x000022b8:    6008        .`      STR      r0,[r1,#0]
        0x000022ba:    2c0f        .,      CMP      r4,#0xf
        0x000022bc:    dd7e        ~.      BLE      0x23bc ; TCP_Send_ch + 476
        0x000022be:    f001fa0b    ....    BL       clear ; 0x36d8
        0x000022c2:    200a        .       MOVS     r0,#0xa
        0x000022c4:    a3bc        ..      ADR      r3,{pc}+0x2f4 ; 0x25b8
        0x000022c6:    a2be        ..      ADR      r2,{pc}+0x2fa ; 0x25c0
        0x000022c8:    a1ce        ..      ADR      r1,{pc}+0x33c ; 0x2604
        0x000022ca:    9000        ..      STR      r0,[sp,#0]
        0x000022cc:    a0d0        ..      ADR      r0,{pc}+0x344 ; 0x2610
        0x000022ce:    f7fffc63    ..c.    BL       SendAT_GPS_WO_MUTEX ; 0x1b98
        0x000022d2:    2164        d!      MOVS     r1,#0x64
        0x000022d4:    48d5        .H      LDR      r0,[pc,#852] ; [0x262c] = 0x2000122c
        0x000022d6:    f7fef84c    ..L.    BL       __aeabi_memclr ; 0x372
        0x000022da:    48d5        .H      LDR      r0,[pc,#852] ; [0x2630] = 0x20000048
        0x000022dc:    4ad5        .J      LDR      r2,[pc,#852] ; [0x2634] = 0x2000138a
        0x000022de:    a1d6        ..      ADR      r1,{pc}+0x35a ; 0x2638
        0x000022e0:    6803        .h      LDR      r3,[r0,#0]
        0x000022e2:    48d2        .H      LDR      r0,[pc,#840] ; [0x262c] = 0x2000122c
        0x000022e4:    f000fc62    ..b.    BL       __0sprintf ; 0x2bac
        0x000022e8:    200a        .       MOVS     r0,#0xa
        0x000022ea:    a3b3        ..      ADR      r3,{pc}+0x2ce ; 0x25b8
        0x000022ec:    a2b4        ..      ADR      r2,{pc}+0x2d4 ; 0x25c0
        0x000022ee:    a1d8        ..      ADR      r1,{pc}+0x362 ; 0x2650
        0x000022f0:    9000        ..      STR      r0,[sp,#0]
        0x000022f2:    48ce        .H      LDR      r0,[pc,#824] ; [0x262c] = 0x2000122c
        0x000022f4:    f7fff948    ..H.    BL       SendAT ; 0x1588
        0x000022f8:    48cd        .H      LDR      r0,[pc,#820] ; [0x2630] = 0x20000048
        0x000022fa:    6800        .h      LDR      r0,[r0,#0]
        0x000022fc:    42a0        .B      CMP      r0,r4
        0x000022fe:    dd10        ..      BLE      0x2322 ; TCP_Send_ch + 322
        0x00002300:    2000        .       MOVS     r0,#0
        0x00002302:    49cb        .I      LDR      r1,[pc,#812] ; [0x2630] = 0x20000048
        0x00002304:    6008        .`      STR      r0,[r1,#0]
        0x00002306:    f001fb23    ..#.    BL       fileclose ; 0x3950
        0x0000230a:    200a        .       MOVS     r0,#0xa
        0x0000230c:    a3aa        ..      ADR      r3,{pc}+0x2ac ; 0x25b8
        0x0000230e:    a2ac        ..      ADR      r2,{pc}+0x2b2 ; 0x25c0
        0x00002310:    a1ac        ..      ADR      r1,{pc}+0x2b4 ; 0x25c4
        0x00002312:    9000        ..      STR      r0,[sp,#0]
        0x00002314:    a0d1        ..      ADR      r0,{pc}+0x348 ; 0x265c
        0x00002316:    f7fff937    ..7.    BL       SendAT ; 0x1588
        0x0000231a:    2001        .       MOVS     r0,#1
        0x0000231c:    499f        .I      LDR      r1,[pc,#636] ; [0x259c] = 0x2000004c
        0x0000231e:    6008        .`      STR      r0,[r1,#0]
        0x00002320:    e111        ..      B        0x2546 ; TCP_Send_ch + 870
        0x00002322:    a1cb        ..      ADR      r1,{pc}+0x32e ; 0x2650
        0x00002324:    48b4        .H      LDR      r0,[pc,#720] ; [0x25f8] = 0x20000f2c
        0x00002326:    f7fef83b    ..;.    BL       strstr ; 0x3a0
        0x0000232a:    2800        .(      CMP      r0,#0
        0x0000232c:    d003        ..      BEQ      0x2336 ; TCP_Send_ch + 342
        0x0000232e:    2001        .       MOVS     r0,#1
        0x00002330:    499a        .I      LDR      r1,[pc,#616] ; [0x259c] = 0x2000004c
        0x00002332:    6008        .`      STR      r0,[r1,#0]
        0x00002334:    e107        ..      B        0x2546 ; TCP_Send_ch + 870
        0x00002336:    2164        d!      MOVS     r1,#0x64
        0x00002338:    48bc        .H      LDR      r0,[pc,#752] ; [0x262c] = 0x2000122c
        0x0000233a:    f7fef81a    ....    BL       __aeabi_memclr ; 0x372
        0x0000233e:    f001f9cb    ....    BL       clear ; 0x36d8
        0x00002342:    4abc        .J      LDR      r2,[pc,#752] ; [0x2634] = 0x2000138a
        0x00002344:    a1cb        ..      ADR      r1,{pc}+0x330 ; 0x2674
        0x00002346:    48b9        .H      LDR      r0,[pc,#740] ; [0x262c] = 0x2000122c
        0x00002348:    f000fc30    ..0.    BL       __0sprintf ; 0x2bac
        0x0000234c:    200a        .       MOVS     r0,#0xa
        0x0000234e:    a39a        ..      ADR      r3,{pc}+0x26a ; 0x25b8
        0x00002350:    a29b        ..      ADR      r2,{pc}+0x270 ; 0x25c0
        0x00002352:    a1bf        ..      ADR      r1,{pc}+0x2fe ; 0x2650
        0x00002354:    9000        ..      STR      r0,[sp,#0]
        0x00002356:    48b5        .H      LDR      r0,[pc,#724] ; [0x262c] = 0x2000122c
        0x00002358:    f7fff916    ....    BL       SendAT ; 0x1588
        0x0000235c:    f001f9bc    ....    BL       clear ; 0x36d8
        0x00002360:    a1bb        ..      ADR      r1,{pc}+0x2f0 ; 0x2650
        0x00002362:    48a5        .H      LDR      r0,[pc,#660] ; [0x25f8] = 0x20000f2c
        0x00002364:    f7fef81c    ....    BL       strstr ; 0x3a0
        0x00002368:    2800        .(      CMP      r0,#0
        0x0000236a:    d003        ..      BEQ      0x2374 ; TCP_Send_ch + 404
        0x0000236c:    2001        .       MOVS     r0,#1
        0x0000236e:    498b        .I      LDR      r1,[pc,#556] ; [0x259c] = 0x2000004c
        0x00002370:    6008        .`      STR      r0,[r1,#0]
        0x00002372:    e0e8        ..      B        0x2546 ; TCP_Send_ch + 870
        0x00002374:    48a0        .H      LDR      r0,[pc,#640] ; [0x25f8] = 0x20000f2c
        0x00002376:    f7fef827    ..'.    BL       strlen ; 0x3c8
        0x0000237a:    2864        d(      CMP      r0,#0x64
        0x0000237c:    d20d        ..      BCS      0x239a ; TCP_Send_ch + 442
        0x0000237e:    f001fae7    ....    BL       fileclose ; 0x3950
        0x00002382:    200a        .       MOVS     r0,#0xa
        0x00002384:    a38c        ..      ADR      r3,{pc}+0x234 ; 0x25b8
        0x00002386:    a28e        ..      ADR      r2,{pc}+0x23a ; 0x25c0
        0x00002388:    a18e        ..      ADR      r1,{pc}+0x23c ; 0x25c4
        0x0000238a:    9000        ..      STR      r0,[sp,#0]
        0x0000238c:    a0b3        ..      ADR      r0,{pc}+0x2d0 ; 0x265c
        0x0000238e:    f7fff8fb    ....    BL       SendAT ; 0x1588
        0x00002392:    2001        .       MOVS     r0,#1
        0x00002394:    4981        .I      LDR      r1,[pc,#516] ; [0x259c] = 0x2000004c
        0x00002396:    6008        .`      STR      r0,[r1,#0]
        0x00002398:    e0d5        ..      B        0x2546 ; TCP_Send_ch + 870
        0x0000239a:    214b        K!      MOVS     r1,#0x4b
        0x0000239c:    00c9        ..      LSLS     r1,r1,#3
        0x0000239e:    a804        ..      ADD      r0,sp,#0x10
        0x000023a0:    f7fdffe7    ....    BL       __aeabi_memclr ; 0x372
        0x000023a4:    221a        ."      MOVS     r2,#0x1a
        0x000023a6:    210d        .!      MOVS     r1,#0xd
        0x000023a8:    4893        .H      LDR      r0,[pc,#588] ; [0x25f8] = 0x20000f2c
        0x000023aa:    f001ff31    ..1.    BL       remove_all_chars ; 0x4210
        0x000023ae:    200a        .       MOVS     r0,#0xa
        0x000023b0:    9001        ..      STR      r0,[sp,#4]
        0x000023b2:    4891        .H      LDR      r0,[pc,#580] ; [0x25f8] = 0x20000f2c
        0x000023b4:    9002        ..      STR      r0,[sp,#8]
        0x000023b6:    2000        .       MOVS     r0,#0
        0x000023b8:    9000        ..      STR      r0,[sp,#0]
        0x000023ba:    e000        ..      B        0x23be ; TCP_Send_ch + 478
        0x000023bc:    e0b7        ..      B        0x252e ; TCP_Send_ch + 846
        0x000023be:    2700        .'      MOVS     r7,#0
        0x000023c0:    bf00        ..      NOP      
        0x000023c2:    e008        ..      B        0x23d6 ; TCP_Send_ch + 502
        0x000023c4:    9802        ..      LDR      r0,[sp,#8]
        0x000023c6:    5dc1        .]      LDRB     r1,[r0,r7]
        0x000023c8:    9801        ..      LDR      r0,[sp,#4]
        0x000023ca:    4281        .B      CMP      r1,r0
        0x000023cc:    d102        ..      BNE      0x23d4 ; TCP_Send_ch + 500
        0x000023ce:    9800        ..      LDR      r0,[sp,#0]
        0x000023d0:    1c40        @.      ADDS     r0,r0,#1
        0x000023d2:    9000        ..      STR      r0,[sp,#0]
        0x000023d4:    1c7f        ..      ADDS     r7,r7,#1
        0x000023d6:    9802        ..      LDR      r0,[sp,#8]
        0x000023d8:    f7fdfff6    ....    BL       strlen ; 0x3c8
        0x000023dc:    42b8        .B      CMP      r0,r7
        0x000023de:    d8f1        ..      BHI      0x23c4 ; TCP_Send_ch + 484
        0x000023e0:    9800        ..      LDR      r0,[sp,#0]
        0x000023e2:    1e40        @.      SUBS     r0,r0,#1
        0x000023e4:    9003        ..      STR      r0,[sp,#0xc]
        0x000023e6:    a804        ..      ADD      r0,sp,#0x10
        0x000023e8:    210a        .!      MOVS     r1,#0xa
        0x000023ea:    460b        .F      MOV      r3,r1
        0x000023ec:    9100        ..      STR      r1,[sp,#0]
        0x000023ee:    9001        ..      STR      r0,[sp,#4]
        0x000023f0:    2102        .!      MOVS     r1,#2
        0x000023f2:    4881        .H      LDR      r0,[pc,#516] ; [0x25f8] = 0x20000f2c
        0x000023f4:    9a03        ..      LDR      r2,[sp,#0xc]
        0x000023f6:    f001febb    ....    BL       parse_g ; 0x4170
        0x000023fa:    2164        d!      MOVS     r1,#0x64
        0x000023fc:    488b        .H      LDR      r0,[pc,#556] ; [0x262c] = 0x2000122c
        0x000023fe:    f7fdffb8    ....    BL       __aeabi_memclr ; 0x372
        0x00002402:    2000        .       MOVS     r0,#0
        0x00002404:    497e        ~I      LDR      r1,[pc,#504] ; [0x2600] = 0x20000028
        0x00002406:    6008        .`      STR      r0,[r1,#0]
        0x00002408:    4967        gI      LDR      r1,[pc,#412] ; [0x25a8] = 0x20000030
        0x0000240a:    6008        .`      STR      r0,[r1,#0]
        0x0000240c:    21af        .!      MOVS     r1,#0xaf
        0x0000240e:    0089        ..      LSLS     r1,r1,#2
        0x00002410:    4879        yH      LDR      r0,[pc,#484] ; [0x25f8] = 0x20000f2c
        0x00002412:    f7fdffae    ....    BL       __aeabi_memclr ; 0x372
        0x00002416:    989f        ..      LDR      r0,[sp,#0x27c]
        0x00002418:    f000fbb8    ....    BL       __0printf ; 0x2b8c
        0x0000241c:    bf00        ..      NOP      
        0x0000241e:    4876        vH      LDR      r0,[pc,#472] ; [0x25f8] = 0x20000f2c
        0x00002420:    99a1        ..      LDR      r1,[sp,#0x284]
        0x00002422:    f7fdffbd    ....    BL       strstr ; 0x3a0
        0x00002426:    4961        aI      LDR      r1,[pc,#388] ; [0x25ac] = 0x20000054
        0x00002428:    6008        .`      STR      r0,[r1,#0]
        0x0000242a:    4873        sH      LDR      r0,[pc,#460] ; [0x25f8] = 0x20000f2c
        0x0000242c:    99a2        ..      LDR      r1,[sp,#0x288]
        0x0000242e:    f7fdffb7    ....    BL       strstr ; 0x3a0
        0x00002432:    495f        _I      LDR      r1,[pc,#380] ; [0x25b0] = 0x20000058
        0x00002434:    6008        .`      STR      r0,[r1,#0]
        0x00002436:    4870        pH      LDR      r0,[pc,#448] ; [0x25f8] = 0x20000f2c
        0x00002438:    99a8        ..      LDR      r1,[sp,#0x2a0]
        0x0000243a:    f7fdffb1    ....    BL       strstr ; 0x3a0
        0x0000243e:    495d        ]I      LDR      r1,[pc,#372] ; [0x25b4] = 0x2000005c
        0x00002440:    6008        .`      STR      r0,[r1,#0]
        0x00002442:    485a        ZH      LDR      r0,[pc,#360] ; [0x25ac] = 0x20000054
        0x00002444:    6800        .h      LDR      r0,[r0,#0]
        0x00002446:    2800        .(      CMP      r0,#0
        0x00002448:    d10c        ..      BNE      0x2464 ; TCP_Send_ch + 644
        0x0000244a:    4859        YH      LDR      r0,[pc,#356] ; [0x25b0] = 0x20000058
        0x0000244c:    6800        .h      LDR      r0,[r0,#0]
        0x0000244e:    2800        .(      CMP      r0,#0
        0x00002450:    d108        ..      BNE      0x2464 ; TCP_Send_ch + 644
        0x00002452:    4608        .F      MOV      r0,r1
        0x00002454:    6800        .h      LDR      r0,[r0,#0]
        0x00002456:    2800        .(      CMP      r0,#0
        0x00002458:    d104        ..      BNE      0x2464 ; TCP_Send_ch + 644
        0x0000245a:    4853        SH      LDR      r0,[pc,#332] ; [0x25a8] = 0x20000030
        0x0000245c:    6801        .h      LDR      r1,[r0,#0]
        0x0000245e:    98a9        ..      LDR      r0,[sp,#0x2a4]
        0x00002460:    4281        .B      CMP      r1,r0
        0x00002462:    dbdc        ..      BLT      0x241e ; TCP_Send_ch + 574
        0x00002464:    f001f938    ..8.    BL       clear ; 0x36d8
        0x00002468:    2000        .       MOVS     r0,#0
        0x0000246a:    494f        OI      LDR      r1,[pc,#316] ; [0x25a8] = 0x20000030
        0x0000246c:    6008        .`      STR      r0,[r1,#0]
        0x0000246e:    484f        OH      LDR      r0,[pc,#316] ; [0x25ac] = 0x20000054
        0x00002470:    6800        .h      LDR      r0,[r0,#0]
        0x00002472:    2800        .(      CMP      r0,#0
        0x00002474:    d04e        N.      BEQ      0x2514 ; TCP_Send_ch + 820
        0x00002476:    2000        .       MOVS     r0,#0
        0x00002478:    6008        .`      STR      r0,[r1,#0]
        0x0000247a:    2005        .       MOVS     r0,#5
        0x0000247c:    90a9        ..      STR      r0,[sp,#0x2a4]
        0x0000247e:    2000        .       MOVS     r0,#0
        0x00002480:    494a        JI      LDR      r1,[pc,#296] ; [0x25ac] = 0x20000054
        0x00002482:    6008        .`      STR      r0,[r1,#0]
        0x00002484:    494a        JI      LDR      r1,[pc,#296] ; [0x25b0] = 0x20000058
        0x00002486:    6008        .`      STR      r0,[r1,#0]
        0x00002488:    494a        JI      LDR      r1,[pc,#296] ; [0x25b4] = 0x2000005c
        0x0000248a:    6008        .`      STR      r0,[r1,#0]
        0x0000248c:    495c        \I      LDR      r1,[pc,#368] ; [0x2600] = 0x20000028
        0x0000248e:    6008        .`      STR      r0,[r1,#0]
        0x00002490:    21af        .!      MOVS     r1,#0xaf
        0x00002492:    0089        ..      LSLS     r1,r1,#2
        0x00002494:    4858        XH      LDR      r0,[pc,#352] ; [0x25f8] = 0x20000f2c
        0x00002496:    f7fdff6c    ..l.    BL       __aeabi_memclr ; 0x372
        0x0000249a:    f001f91d    ....    BL       clear ; 0x36d8
        0x0000249e:    2000        .       MOVS     r0,#0
        0x000024a0:    909e        ..      STR      r0,[sp,#0x278]
        0x000024a2:    a804        ..      ADD      r0,sp,#0x10
        0x000024a4:    f7fdff90    ....    BL       strlen ; 0x3c8
        0x000024a8:    909c        ..      STR      r0,[sp,#0x270]
        0x000024aa:    2600        .&      MOVS     r6,#0
        0x000024ac:    e007        ..      B        0x24be ; TCP_Send_ch + 734
        0x000024ae:    a904        ..      ADD      r1,sp,#0x10
        0x000024b0:    5d88        .]      LDRB     r0,[r1,r6]
        0x000024b2:    f7fffd07    ....    BL       SendChar ; 0x1ec4
        0x000024b6:    989e        ..      LDR      r0,[sp,#0x278]
        0x000024b8:    1c40        @.      ADDS     r0,r0,#1
        0x000024ba:    909e        ..      STR      r0,[sp,#0x278]
        0x000024bc:    1c76        v.      ADDS     r6,r6,#1
        0x000024be:    989c        ..      LDR      r0,[sp,#0x270]
        0x000024c0:    4286        .B      CMP      r6,r0
        0x000024c2:    dbf4        ..      BLT      0x24ae ; TCP_Send_ch + 718
        0x000024c4:    211a        .!      MOVS     r1,#0x1a
        0x000024c6:    a037        7.      ADR      r0,{pc}+0xde ; 0x25a4
        0x000024c8:    f000fb60    ..`.    BL       __0printf ; 0x2b8c
        0x000024cc:    bf00        ..      NOP      
        0x000024ce:    484a        JH      LDR      r0,[pc,#296] ; [0x25f8] = 0x20000f2c
        0x000024d0:    99a1        ..      LDR      r1,[sp,#0x284]
        0x000024d2:    f7fdff65    ..e.    BL       strstr ; 0x3a0
        0x000024d6:    4935        5I      LDR      r1,[pc,#212] ; [0x25ac] = 0x20000054
        0x000024d8:    6008        .`      STR      r0,[r1,#0]
        0x000024da:    4847        GH      LDR      r0,[pc,#284] ; [0x25f8] = 0x20000f2c
        0x000024dc:    99a2        ..      LDR      r1,[sp,#0x288]
        0x000024de:    f7fdff5f    .._.    BL       strstr ; 0x3a0
        0x000024e2:    4933        3I      LDR      r1,[pc,#204] ; [0x25b0] = 0x20000058
        0x000024e4:    6008        .`      STR      r0,[r1,#0]
        0x000024e6:    4844        DH      LDR      r0,[pc,#272] ; [0x25f8] = 0x20000f2c
        0x000024e8:    99a8        ..      LDR      r1,[sp,#0x2a0]
        0x000024ea:    f7fdff59    ..Y.    BL       strstr ; 0x3a0
        0x000024ee:    4931        1I      LDR      r1,[pc,#196] ; [0x25b4] = 0x2000005c
        0x000024f0:    6008        .`      STR      r0,[r1,#0]
        0x000024f2:    482e        .H      LDR      r0,[pc,#184] ; [0x25ac] = 0x20000054
        0x000024f4:    6800        .h      LDR      r0,[r0,#0]
        0x000024f6:    2800        .(      CMP      r0,#0
        0x000024f8:    d10c        ..      BNE      0x2514 ; TCP_Send_ch + 820
        0x000024fa:    482d        -H      LDR      r0,[pc,#180] ; [0x25b0] = 0x20000058
        0x000024fc:    6800        .h      LDR      r0,[r0,#0]
        0x000024fe:    2800        .(      CMP      r0,#0
        0x00002500:    d108        ..      BNE      0x2514 ; TCP_Send_ch + 820
        0x00002502:    4608        .F      MOV      r0,r1
        0x00002504:    6800        .h      LDR      r0,[r0,#0]
        0x00002506:    2800        .(      CMP      r0,#0
        0x00002508:    d104        ..      BNE      0x2514 ; TCP_Send_ch + 820
        0x0000250a:    4827        'H      LDR      r0,[pc,#156] ; [0x25a8] = 0x20000030
        0x0000250c:    6801        .h      LDR      r1,[r0,#0]
        0x0000250e:    98a9        ..      LDR      r0,[sp,#0x2a4]
        0x00002510:    4281        .B      CMP      r1,r0
        0x00002512:    dbdc        ..      BLT      0x24ce ; TCP_Send_ch + 750
        0x00002514:    4827        'H      LDR      r0,[pc,#156] ; [0x25b4] = 0x2000005c
        0x00002516:    6800        .h      LDR      r0,[r0,#0]
        0x00002518:    2800        .(      CMP      r0,#0
        0x0000251a:    d105        ..      BNE      0x2528 ; TCP_Send_ch + 840
        0x0000251c:    2001        .       MOVS     r0,#1
        0x0000251e:    495b        [I      LDR      r1,[pc,#364] ; [0x268c] = 0x20000084
        0x00002520:    6008        .`      STR      r0,[r1,#0]
        0x00002522:    491e        .I      LDR      r1,[pc,#120] ; [0x259c] = 0x2000004c
        0x00002524:    6008        .`      STR      r0,[r1,#0]
        0x00002526:    e00e        ..      B        0x2546 ; TCP_Send_ch + 870
        0x00002528:    2000        .       MOVS     r0,#0
        0x0000252a:    4958        XI      LDR      r1,[pc,#352] ; [0x268c] = 0x20000084
        0x0000252c:    6008        .`      STR      r0,[r1,#0]
        0x0000252e:    4840        @H      LDR      r0,[pc,#256] ; [0x2630] = 0x20000048
        0x00002530:    6800        .h      LDR      r0,[r0,#0]
        0x00002532:    214b        K!      MOVS     r1,#0x4b
        0x00002534:    00c9        ..      LSLS     r1,r1,#3
        0x00002536:    1840        @.      ADDS     r0,r0,r1
        0x00002538:    493d        =I      LDR      r1,[pc,#244] ; [0x2630] = 0x20000048
        0x0000253a:    6008        .`      STR      r0,[r1,#0]
        0x0000253c:    1c6d        m.      ADDS     r5,r5,#1
        0x0000253e:    989d        ..      LDR      r0,[sp,#0x274]
        0x00002540:    4285        .B      CMP      r5,r0
        0x00002542:    da00        ..      BGE      0x2546 ; TCP_Send_ch + 870
        0x00002544:    e6b6        ..      B        0x22b4 ; TCP_Send_ch + 212
        0x00002546:    bf00        ..      NOP      
        0x00002548:    f001fa02    ....    BL       fileclose ; 0x3950
        0x0000254c:    484f        OH      LDR      r0,[pc,#316] ; [0x268c] = 0x20000084
        0x0000254e:    6800        .h      LDR      r0,[r0,#0]
        0x00002550:    2800        .(      CMP      r0,#0
        0x00002552:    d10f        ..      BNE      0x2574 ; TCP_Send_ch + 916
        0x00002554:    989d        ..      LDR      r0,[sp,#0x274]
        0x00002556:    4285        .B      CMP      r5,r0
        0x00002558:    db0c        ..      BLT      0x2574 ; TCP_Send_ch + 916
        0x0000255a:    f001f9f9    ....    BL       fileclose ; 0x3950
        0x0000255e:    2000        .       MOVS     r0,#0
        0x00002560:    4933        3I      LDR      r1,[pc,#204] ; [0x2630] = 0x20000048
        0x00002562:    6008        .`      STR      r0,[r1,#0]
        0x00002564:    200a        .       MOVS     r0,#0xa
        0x00002566:    a314        ..      ADR      r3,{pc}+0x52 ; 0x25b8
        0x00002568:    a215        ..      ADR      r2,{pc}+0x58 ; 0x25c0
        0x0000256a:    a116        ..      ADR      r1,{pc}+0x5a ; 0x25c4
        0x0000256c:    9000        ..      STR      r0,[sp,#0]
        0x0000256e:    a03b        ;.      ADR      r0,{pc}+0xee ; 0x265c
        0x00002570:    f7fff80a    ....    BL       SendAT ; 0x1588
        0x00002574:    2001        .       MOVS     r0,#1
        0x00002576:    490a        .I      LDR      r1,[pc,#40] ; [0x25a0] = 0x50004240
        0x00002578:    6088        .`      STR      r0,[r1,#8]
        0x0000257a:    2000        .       MOVS     r0,#0
        0x0000257c:    490b        .I      LDR      r1,[pc,#44] ; [0x25ac] = 0x20000054
        0x0000257e:    6008        .`      STR      r0,[r1,#0]
        0x00002580:    490b        .I      LDR      r1,[pc,#44] ; [0x25b0] = 0x20000058
        0x00002582:    6008        .`      STR      r0,[r1,#0]
        0x00002584:    490b        .I      LDR      r1,[pc,#44] ; [0x25b4] = 0x2000005c
        0x00002586:    6008        .`      STR      r0,[r1,#0]
        0x00002588:    481c        .H      LDR      r0,[pc,#112] ; [0x25fc] = 0x20000000
        0x0000258a:    6800        .h      LDR      r0,[r0,#0]
        0x0000258c:    f001fd2a    ..*.    BL       osMutexRelease ; 0x3fe4
        0x00002590:    200a        .       MOVS     r0,#0xa
        0x00002592:    f001fca7    ....    BL       osDelay ; 0x3ee4
        0x00002596:    b07f        ..      ADD      sp,sp,#0x1fc
        0x00002598:    b024        $.      ADD      sp,sp,#0x90
        0x0000259a:    bdf0        ..      POP      {r4-r7,pc}
    $d
        0x0000259c:    2000004c    L..     DCD    536870988
        0x000025a0:    50004240    @B.P    DCD    1342194240
        0x000025a4:    00006325    %c..    DCD    25381
        0x000025a8:    20000030    0..     DCD    536870960
        0x000025ac:    20000054    T..     DCD    536870996
        0x000025b0:    20000058    X..     DCD    536871000
        0x000025b4:    2000005c    \..     DCD    536871004
        0x000025b8:    4f525245    ERRO    DCD    1330795077
        0x000025bc:    00000052    R...    DCD    82
        0x000025c0:    00004b4f    OK..    DCD    19279
        0x000025c4:    64616552    Read    DCD    1684104530
        0x000025c8:    00000079    y...    DCD    121
        0x000025cc:    54410a0d    ..AT    DCD    1413548557
        0x000025d0:    4c46512b    +QFL    DCD    1279676715
        0x000025d4:    223d7344    Ds="    DCD    574452548
        0x000025d8:    22534655    UFS"    DCD    575882837
        0x000025dc:    00000a0d    ....    DCD    2573
        0x000025e0:    54410a0d    ..AT    DCD    1413548557
        0x000025e4:    4c46512b    +QFL    DCD    1279676715
        0x000025e8:    223d5453    ST="    DCD    574444627
        0x000025ec:    2e474f4c    LOG.    DCD    776425292
        0x000025f0:    22545854    TXT"    DCD    575952980
        0x000025f4:    00000a0d    ....    DCD    2573
        0x000025f8:    20000f2c    ,..     DCD    536874796
        0x000025fc:    20000000    ...     DCD    536870912
        0x00002600:    20000028    (..     DCD    536870952
        0x00002604:    50474d2b    +MGP    DCD    1346850091
        0x00002608:    41545353    SSTA    DCD    1096045395
        0x0000260c:    00535554    TUS.    DCD    5461332
        0x00002610:    54410a0d    ..AT    DCD    1413548557
        0x00002614:    4e47512b    +QGN    DCD    1313296683
        0x00002618:    44525353    SSRD    DCD    1146245971
        0x0000261c:    4d4e223d    ="NM    DCD    1296966205
        0x00002620:    522f4145    EA/R    DCD    1378828613
        0x00002624:    0d22434d    MC".    DCD    220349261
        0x00002628:    0000000a    ....    DCD    10
        0x0000262c:    2000122c    ,..     DCD    536875564
        0x00002630:    20000048    H..     DCD    536870984
        0x00002634:    2000138a    ...     DCD    536875914
        0x00002638:    54410a0d    ..AT    DCD    1413548557
        0x0000263c:    5346512b    +QFS    DCD    1397117227
        0x00002640:    3d4b4545    EEK=    DCD    1028343109
        0x00002644:    252c7325    %s,%    DCD    623670053
        0x00002648:    0d0a0d64    d...    DCD    218762596
        0x0000264c:    0000000a    ....    DCD    10
        0x00002650:    454d432b    +CME    DCD    1162691371
        0x00002654:    52524520     ERR    DCD    1381123360
        0x00002658:    0000524f    OR..    DCD    21071
        0x0000265c:    54410a0d    ..AT    DCD    1413548557
        0x00002660:    4446512b    +QFD    DCD    1145458987
        0x00002664:    223d4c45    EL="    DCD    574442565
        0x00002668:    2e474f4c    LOG.    DCD    776425292
        0x0000266c:    22545854    TXT"    DCD    575952980
        0x00002670:    00000a0d    ....    DCD    2573
        0x00002674:    54410a0d    ..AT    DCD    1413548557
        0x00002678:    5246512b    +QFR    DCD    1380340011
        0x0000267c:    3d444145    EAD=    DCD    1027883333
        0x00002680:    362c7325    %s,6    DCD    908882725
        0x00002684:    0a0d3030    00..    DCD    168636464
        0x00002688:    00000a0d    ....    DCD    2573
        0x0000268c:    20000084    ...     DCD    536871044
    $t
    i.Thread
    Thread
        0x00002690:    b508        ..      PUSH     {r3,lr}
        0x00002692:    e025        %.      B        0x26e0 ; Thread + 80
        0x00002694:    f002fca6    ....    BL       sms_mc60 ; 0x4fe4
        0x00002698:    4812        .H      LDR      r0,[pc,#72] ; [0x26e4] = 0x200000a0
        0x0000269a:    6800        .h      LDR      r0,[r0,#0]
        0x0000269c:    2800        .(      CMP      r0,#0
        0x0000269e:    d008        ..      BEQ      0x26b2 ; Thread + 34
        0x000026a0:    200a        .       MOVS     r0,#0xa
        0x000026a2:    a311        ..      ADR      r3,{pc}+0x46 ; 0x26e8
        0x000026a4:    a212        ..      ADR      r2,{pc}+0x4c ; 0x26f0
        0x000026a6:    a113        ..      ADR      r1,{pc}+0x4e ; 0x26f4
        0x000026a8:    9000        ..      STR      r0,[sp,#0]
        0x000026aa:    a015        ..      ADR      r0,{pc}+0x56 ; 0x2700
        0x000026ac:    f7fff8bc    ....    BL       SendAT_GPS ; 0x1828
        0x000026b0:    e001        ..      B        0x26b6 ; Thread + 38
        0x000026b2:    f001f9ef    ....    BL       imei_fun ; 0x3a94
        0x000026b6:    481a        .H      LDR      r0,[pc,#104] ; [0x2720] = 0x200000c8
        0x000026b8:    6800        .h      LDR      r0,[r0,#0]
        0x000026ba:    21e1        .!      MOVS     r1,#0xe1
        0x000026bc:    00c9        ..      LSLS     r1,r1,#3
        0x000026be:    4288        .B      CMP      r0,r1
        0x000026c0:    d908        ..      BLS      0x26d4 ; Thread + 68
        0x000026c2:    a018        ..      ADR      r0,{pc}+0x62 ; 0x2724
        0x000026c4:    f000fa62    ..b.    BL       __0printf ; 0x2b8c
        0x000026c8:    f7fefe92    ....    BL       SYS_UnlockReg ; 0x13f0
        0x000026cc:    2001        .       MOVS     r0,#1
        0x000026ce:    2105        .!      MOVS     r1,#5
        0x000026d0:    0709        ..      LSLS     r1,r1,#28
        0x000026d2:    6088        .`      STR      r0,[r1,#8]
        0x000026d4:    4818        .H      LDR      r0,[pc,#96] ; [0x2738] = 0x1324
        0x000026d6:    f001fc05    ....    BL       osDelay ; 0x3ee4
        0x000026da:    200a        .       MOVS     r0,#0xa
        0x000026dc:    f001fc02    ....    BL       osDelay ; 0x3ee4
        0x000026e0:    e7d8        ..      B        0x2694 ; Thread + 4
    $d
        0x000026e2:    0000        ..      DCW    0
        0x000026e4:    200000a0    ...     DCD    536871072
        0x000026e8:    4f525245    ERRO    DCD    1330795077
        0x000026ec:    00000052    R...    DCD    82
        0x000026f0:    00004b4f    OK..    DCD    19279
        0x000026f4:    5350474d    MGPS    DCD    1397770061
        0x000026f8:    54415453    STAT    DCD    1413567571
        0x000026fc:    00005355    US..    DCD    21333
        0x00002700:    0a0d0a0d    ....    DCD    168626701
        0x00002704:    512b5441    AT+Q    DCD    1361794113
        0x00002708:    53534e47    GNSS    DCD    1397968455
        0x0000270c:    223d4452    RD="    DCD    574440530
        0x00002710:    41454d4e    NMEA    DCD    1095060814
        0x00002714:    434d522f    /RMC    DCD    1129140783
        0x00002718:    0d0a0d22    "...    DCD    218762530
        0x0000271c:    000a0d0a    ....    DCD    658698
        0x00002720:    200000c8    ...     DCD    536871112
        0x00002724:    54410a0d    ..AT    DCD    1413548557
        0x00002728:    5546432b    +CFU    DCD    1430668075
        0x0000272c:    2c313d4e    N=1,    DCD    741424462
        0x00002730:    0d0a0d31    1...    DCD    218762545
        0x00002734:    0000000a    ....    DCD    10
        0x00002738:    00001324    $...    DCD    4900
    $t
    i.Thread1
    Thread1
        0x0000273c:    b51c        ..      PUSH     {r2-r4,lr}
        0x0000273e:    e0a9        ..      B        0x2894 ; Thread1 + 344
        0x00002740:    2000        .       MOVS     r0,#0
        0x00002742:    4955        UI      LDR      r1,[pc,#340] ; [0x2898] = 0x20000071
        0x00002744:    7008        .p      STRB     r0,[r1,#0]
        0x00002746:    4955        UI      LDR      r1,[pc,#340] ; [0x289c] = 0x20000072
        0x00002748:    7008        .p      STRB     r0,[r1,#0]
        0x0000274a:    2001        .       MOVS     r0,#1
        0x0000274c:    4954        TI      LDR      r1,[pc,#336] ; [0x28a0] = 0x20000073
        0x0000274e:    7008        .p      STRB     r0,[r1,#0]
        0x00002750:    a354        T.      ADR      r3,{pc}+0x154 ; 0x28a4
        0x00002752:    a256        V.      ADR      r2,{pc}+0x15a ; 0x28ac
        0x00002754:    a159        Y.      ADR      r1,{pc}+0x168 ; 0x28bc
        0x00002756:    9000        ..      STR      r0,[sp,#0]
        0x00002758:    a059        Y.      ADR      r0,{pc}+0x168 ; 0x28c0
        0x0000275a:    f7feff15    ....    BL       SendAT ; 0x1588
        0x0000275e:    2064        d       MOVS     r0,#0x64
        0x00002760:    f001fbc0    ....    BL       osDelay ; 0x3ee4
        0x00002764:    f000ffc6    ....    BL       cpinquerry ; 0x36f4
        0x00002768:    4859        YH      LDR      r0,[pc,#356] ; [0x28d0] = 0x2000003d
        0x0000276a:    7800        .x      LDRB     r0,[r0,#0]
        0x0000276c:    2801        .(      CMP      r0,#1
        0x0000276e:    d12d        -.      BNE      0x27cc ; Thread1 + 144
        0x00002770:    f001f848    ..H.    BL       cregquerry ; 0x3804
        0x00002774:    4857        WH      LDR      r0,[pc,#348] ; [0x28d4] = 0x2000003e
        0x00002776:    7800        .x      LDRB     r0,[r0,#0]
        0x00002778:    2801        .(      CMP      r0,#1
        0x0000277a:    d127        '.      BNE      0x27cc ; Thread1 + 144
        0x0000277c:    2005        .       MOVS     r0,#5
        0x0000277e:    a349        I.      ADR      r3,{pc}+0x126 ; 0x28a4
        0x00002780:    a24e        N.      ADR      r2,{pc}+0x13c ; 0x28bc
        0x00002782:    a155        U.      ADR      r1,{pc}+0x156 ; 0x28d8
        0x00002784:    9000        ..      STR      r0,[sp,#0]
        0x00002786:    a056        V.      ADR      r0,{pc}+0x15a ; 0x28e0
        0x00002788:    f7fefefe    ....    BL       SendAT ; 0x1588
        0x0000278c:    2005        .       MOVS     r0,#5
        0x0000278e:    a345        E.      ADR      r3,{pc}+0x116 ; 0x28a4
        0x00002790:    a24a        J.      ADR      r2,{pc}+0x12c ; 0x28bc
        0x00002792:    a151        Q.      ADR      r1,{pc}+0x146 ; 0x28d8
        0x00002794:    9000        ..      STR      r0,[sp,#0]
        0x00002796:    a056        V.      ADR      r0,{pc}+0x15a ; 0x28f0
        0x00002798:    f7fefef6    ....    BL       SendAT ; 0x1588
        0x0000279c:    2005        .       MOVS     r0,#5
        0x0000279e:    a341        A.      ADR      r3,{pc}+0x106 ; 0x28a4
        0x000027a0:    a246        F.      ADR      r2,{pc}+0x11c ; 0x28bc
        0x000027a2:    a14d        M.      ADR      r1,{pc}+0x136 ; 0x28d8
        0x000027a4:    9000        ..      STR      r0,[sp,#0]
        0x000027a6:    a059        Y.      ADR      r0,{pc}+0x166 ; 0x290c
        0x000027a8:    f7fefeee    ....    BL       SendAT ; 0x1588
        0x000027ac:    2005        .       MOVS     r0,#5
        0x000027ae:    a33d        =.      ADR      r3,{pc}+0xf6 ; 0x28a4
        0x000027b0:    a242        B.      ADR      r2,{pc}+0x10c ; 0x28bc
        0x000027b2:    a149        I.      ADR      r1,{pc}+0x126 ; 0x28d8
        0x000027b4:    9000        ..      STR      r0,[sp,#0]
        0x000027b6:    a05a        Z.      ADR      r0,{pc}+0x16a ; 0x2920
        0x000027b8:    f7fefee6    ....    BL       SendAT ; 0x1588
        0x000027bc:    2002        .       MOVS     r0,#2
        0x000027be:    a339        9.      ADR      r3,{pc}+0xe6 ; 0x28a4
        0x000027c0:    a23e        >.      ADR      r2,{pc}+0xfc ; 0x28bc
        0x000027c2:    a15b        [.      ADR      r1,{pc}+0x16e ; 0x2930
        0x000027c4:    9000        ..      STR      r0,[sp,#0]
        0x000027c6:    a05b        [.      ADR      r0,{pc}+0x16e ; 0x2934
        0x000027c8:    f7fefede    ....    BL       SendAT ; 0x1588
        0x000027cc:    2005        .       MOVS     r0,#5
        0x000027ce:    a335        5.      ADR      r3,{pc}+0xd6 ; 0x28a4
        0x000027d0:    a23a        :.      ADR      r2,{pc}+0xec ; 0x28bc
        0x000027d2:    a141        A.      ADR      r1,{pc}+0x106 ; 0x28d8
        0x000027d4:    9000        ..      STR      r0,[sp,#0]
        0x000027d6:    a05c        \.      ADR      r0,{pc}+0x172 ; 0x2948
        0x000027d8:    f7fefed6    ....    BL       SendAT ; 0x1588
        0x000027dc:    2004        .       MOVS     r0,#4
        0x000027de:    a331        1.      ADR      r3,{pc}+0xc6 ; 0x28a4
        0x000027e0:    a236        6.      ADR      r2,{pc}+0xdc ; 0x28bc
        0x000027e2:    a13d        =.      ADR      r1,{pc}+0xf6 ; 0x28d8
        0x000027e4:    9000        ..      STR      r0,[sp,#0]
        0x000027e6:    a05d        ].      ADR      r0,{pc}+0x176 ; 0x295c
        0x000027e8:    f7fefece    ....    BL       SendAT ; 0x1588
        0x000027ec:    200a        .       MOVS     r0,#0xa
        0x000027ee:    a35f        _.      ADR      r3,{pc}+0x17e ; 0x296c
        0x000027f0:    a22c        ,.      ADR      r2,{pc}+0xb4 ; 0x28a4
        0x000027f2:    a160        `.      ADR      r1,{pc}+0x182 ; 0x2974
        0x000027f4:    9000        ..      STR      r0,[sp,#0]
        0x000027f6:    a061        a.      ADR      r0,{pc}+0x186 ; 0x297c
        0x000027f8:    f7fefec6    ....    BL       SendAT ; 0x1588
        0x000027fc:    2000        .       MOVS     r0,#0
        0x000027fe:    496b        kI      LDR      r1,[pc,#428] ; [0x29ac] = 0x20000084
        0x00002800:    6008        .`      STR      r0,[r1,#0]
        0x00002802:    200a        .       MOVS     r0,#0xa
        0x00002804:    a16a        j.      ADR      r1,{pc}+0x1ac ; 0x29b0
        0x00002806:    a327        '.      ADR      r3,{pc}+0x9e ; 0x28a4
        0x00002808:    a26b        k.      ADR      r2,{pc}+0x1b0 ; 0x29b8
        0x0000280a:    9100        ..      STR      r1,[sp,#0]
        0x0000280c:    9001        ..      STR      r0,[sp,#4]
        0x0000280e:    496b        kI      LDR      r1,[pc,#428] ; [0x29bc] = 0x20000180
        0x00002810:    a06b        k.      ADR      r0,{pc}+0x1b0 ; 0x29c0
        0x00002812:    f7fffbab    ....    BL       TCP_Send ; 0x1f6c
        0x00002816:    4865        eH      LDR      r0,[pc,#404] ; [0x29ac] = 0x20000084
        0x00002818:    6800        .h      LDR      r0,[r0,#0]
        0x0000281a:    2801        .(      CMP      r0,#1
        0x0000281c:    d127        '.      BNE      0x286e ; Thread1 + 306
        0x0000281e:    f7fefdf7    ....    BL       Save_FS ; 0x1410
        0x00002822:    200a        .       MOVS     r0,#0xa
        0x00002824:    a351        Q.      ADR      r3,{pc}+0x148 ; 0x296c
        0x00002826:    a21f        ..      ADR      r2,{pc}+0x7e ; 0x28a4
        0x00002828:    a16a        j.      ADR      r1,{pc}+0x1ac ; 0x29d4
        0x0000282a:    9000        ..      STR      r0,[sp,#0]
        0x0000282c:    a06c        l.      ADR      r0,{pc}+0x1b4 ; 0x29e0
        0x0000282e:    f7fefeab    ....    BL       SendAT ; 0x1588
        0x00002832:    200a        .       MOVS     r0,#0xa
        0x00002834:    a31b        ..      ADR      r3,{pc}+0x70 ; 0x28a4
        0x00002836:    a21d        ..      ADR      r2,{pc}+0x76 ; 0x28ac
        0x00002838:    a120         .      ADR      r1,{pc}+0x84 ; 0x28bc
        0x0000283a:    9000        ..      STR      r0,[sp,#0]
        0x0000283c:    a06d        m.      ADR      r0,{pc}+0x1b8 ; 0x29f4
        0x0000283e:    f7fefea3    ....    BL       SendAT ; 0x1588
        0x00002842:    200a        .       MOVS     r0,#0xa
        0x00002844:    a317        ..      ADR      r3,{pc}+0x60 ; 0x28a4
        0x00002846:    a219        ..      ADR      r2,{pc}+0x66 ; 0x28ac
        0x00002848:    a123        #.      ADR      r1,{pc}+0x90 ; 0x28d8
        0x0000284a:    9000        ..      STR      r0,[sp,#0]
        0x0000284c:    a01c        ..      ADR      r0,{pc}+0x74 ; 0x28c0
        0x0000284e:    f7fefe9b    ....    BL       SendAT ; 0x1588
        0x00002852:    20ff        .       MOVS     r0,#0xff
        0x00002854:    30f5        .0      ADDS     r0,r0,#0xf5
        0x00002856:    2100        .!      MOVS     r1,#0
        0x00002858:    e006        ..      B        0x2868 ; Thread1 + 300
        0x0000285a:    2200        ."      MOVS     r2,#0
        0x0000285c:    e000        ..      B        0x2860 ; Thread1 + 292
        0x0000285e:    1c52        R.      ADDS     r2,r2,#1
        0x00002860:    4b68        hK      LDR      r3,[pc,#416] ; [0x2a04] = 0xffff
        0x00002862:    429a        .B      CMP      r2,r3
        0x00002864:    dbfb        ..      BLT      0x285e ; Thread1 + 290
        0x00002866:    1c49        I.      ADDS     r1,r1,#1
        0x00002868:    4281        .B      CMP      r1,r0
        0x0000286a:    dbf6        ..      BLT      0x285a ; Thread1 + 286
        0x0000286c:    e012        ..      B        0x2894 ; Thread1 + 344
        0x0000286e:    4866        fH      LDR      r0,[pc,#408] ; [0x2a08] = 0x200000c8
        0x00002870:    6800        .h      LDR      r0,[r0,#0]
        0x00002872:    21e1        .!      MOVS     r1,#0xe1
        0x00002874:    00c9        ..      LSLS     r1,r1,#3
        0x00002876:    4288        .B      CMP      r0,r1
        0x00002878:    d908        ..      BLS      0x288c ; Thread1 + 336
        0x0000287a:    a064        d.      ADR      r0,{pc}+0x192 ; 0x2a0c
        0x0000287c:    f000f986    ....    BL       __0printf ; 0x2b8c
        0x00002880:    f7fefdb6    ....    BL       SYS_UnlockReg ; 0x13f0
        0x00002884:    2001        .       MOVS     r0,#1
        0x00002886:    2105        .!      MOVS     r1,#5
        0x00002888:    0709        ..      LSLS     r1,r1,#28
        0x0000288a:    6088        .`      STR      r0,[r1,#8]
        0x0000288c:    207d        }       MOVS     r0,#0x7d
        0x0000288e:    0200        ..      LSLS     r0,r0,#8
        0x00002890:    f001fb28    ..(.    BL       osDelay ; 0x3ee4
        0x00002894:    e754        T.      B        0x2740 ; Thread1 + 4
    $d
        0x00002896:    0000        ..      DCW    0
        0x00002898:    20000071    q..     DCD    536871025
        0x0000289c:    20000072    r..     DCD    536871026
        0x000028a0:    20000073    s..     DCD    536871027
        0x000028a4:    4f525245    ERRO    DCD    1330795077
        0x000028a8:    00000052    R...    DCD    82
        0x000028ac:    20544f4e    NOT     DCD    542396238
        0x000028b0:    45534e49    INSE    DCD    1163087433
        0x000028b4:    44455452    RTED    DCD    1145394258
        0x000028b8:    00000000    ....    DCD    0
        0x000028bc:    00004b4f    OK..    DCD    19279
        0x000028c0:    54410a0d    ..AT    DCD    1413548557
        0x000028c4:    5546432b    +CFU    DCD    1430668075
        0x000028c8:    0d313d4e    N=1.    DCD    221330766
        0x000028cc:    000a0d0a    ....    DCD    658698
        0x000028d0:    2000003d    =..     DCD    536870973
        0x000028d4:    2000003e    >..     DCD    536870974
        0x000028d8:    64616552    Read    DCD    1684104530
        0x000028dc:    00000079    y...    DCD    121
        0x000028e0:    54410a0d    ..AT    DCD    1413548557
        0x000028e4:    5247432b    +CGR    DCD    1380401963
        0x000028e8:    0d3f4745    EG?.    DCD    222250821
        0x000028ec:    000a0d0a    ....    DCD    658698
        0x000028f0:    54410a0d    ..AT    DCD    1413548557
        0x000028f4:    5249512b    +QIR    DCD    1380536619
        0x000028f8:    50414745    EGAP    DCD    1346455365
        0x000028fc:    69223d50    P="i    DCD    1763851600
        0x00002900:    65666173    safe    DCD    1701208435
        0x00002904:    0d0a0d22    "...    DCD    218762530
        0x00002908:    0000000a    ....    DCD    10
        0x0000290c:    54410a0d    ..AT    DCD    1413548557
        0x00002910:    5249512b    +QIR    DCD    1380536619
        0x00002914:    50414745    EGAP    DCD    1346455365
        0x00002918:    0d0a0d50    P...    DCD    218762576
        0x0000291c:    0000000a    ....    DCD    10
        0x00002920:    54410a0d    ..AT    DCD    1413548557
        0x00002924:    4149512b    +QIA    DCD    1095323947
        0x00002928:    0a0d5443    CT..    DCD    168645699
        0x0000292c:    00000a0d    ....    DCD    2573
        0x00002930:    0000007a    z...    DCD    122
        0x00002934:    54410a0d    ..AT    DCD    1413548557
        0x00002938:    4c49512b    +QIL    DCD    1279873323
        0x0000293c:    5049434f    OCIP    DCD    1346978639
        0x00002940:    0a0d0a0d    ....    DCD    168626701
        0x00002944:    00000000    ....    DCD    0
        0x00002948:    54410a0d    ..AT    DCD    1413548557
        0x0000294c:    4353512b    +QSC    DCD    1129533739
        0x00002950:    313d4b4c    LK=1    DCD    826100556
        0x00002954:    0a0d0a0d    ....    DCD    168626701
        0x00002958:    00000000    ....    DCD    0
        0x0000295c:    54410a0d    ..AT    DCD    1413548557
        0x00002960:    5153432b    +CSQ    DCD    1364411179
        0x00002964:    0a0d0a0d    ....    DCD    168626701
        0x00002968:    00000000    ....    DCD    0
        0x0000296c:    4c494146    FAIL    DCD    1279869254
        0x00002970:    00000000    ....    DCD    0
        0x00002974:    4e4e4f43    CONN    DCD    1313754947
        0x00002978:    00544345    ECT.    DCD    5522245
        0x0000297c:    54410a0d    ..AT    DCD    1413548557
        0x00002980:    4f49512b    +QIO    DCD    1330204971
        0x00002984:    3d4e4550    PEN=    DCD    1028539728
        0x00002988:    50435422    "TCP    DCD    1346589730
        0x0000298c:    31222c22    ","1    DCD    824323106
        0x00002990:    322e3430    04.2    DCD    841888816
        0x00002994:    322e3633    36.2    DCD    841889331
        0x00002998:    342e3330    03.4    DCD    875442992
        0x0000299c:    35222c22    ","5    DCD    891431970
        0x000029a0:    22363535    556"    DCD    573977909
        0x000029a4:    0a0d0a0d    ....    DCD    168626701
        0x000029a8:    00000000    ....    DCD    0
        0x000029ac:    20000084    ...     DCD    536871044
        0x000029b0:    444e4553    SEND    DCD    1145980243
        0x000029b4:    004b4f20     OK.    DCD    4935456
        0x000029b8:    0000003e    >...    DCD    62
        0x000029bc:    20000180    ...     DCD    536871296
        0x000029c0:    54410a0d    ..AT    DCD    1413548557
        0x000029c4:    5349512b    +QIS    DCD    1397313835
        0x000029c8:    0d444e45    END.    DCD    222580293
        0x000029cc:    0d0a0d0a    ....    DCD    218762506
        0x000029d0:    0000000a    ....    DCD    10
        0x000029d4:    534f4c43    CLOS    DCD    1397705795
        0x000029d8:    4b4f2045    E OK    DCD    1263476805
        0x000029dc:    00000a0d    ....    DCD    2573
        0x000029e0:    54410a0d    ..AT    DCD    1413548557
        0x000029e4:    4349512b    +QIC    DCD    1128878379
        0x000029e8:    45534f4c    LOSE    DCD    1163087692
        0x000029ec:    0a0d0a0d    ....    DCD    168626701
        0x000029f0:    00000000    ....    DCD    0
        0x000029f4:    54410a0d    ..AT    DCD    1413548557
        0x000029f8:    5546432b    +CFU    DCD    1430668075
        0x000029fc:    0d303d4e    N=0.    DCD    221265230
        0x00002a00:    000a0d0a    ....    DCD    658698
        0x00002a04:    0000ffff    ....    DCD    65535
        0x00002a08:    200000c8    ...     DCD    536871112
        0x00002a0c:    54410a0d    ..AT    DCD    1413548557
        0x00002a10:    5546432b    +CFU    DCD    1430668075
        0x00002a14:    2c313d4e    N=1,    DCD    741424462
        0x00002a18:    0d0a0d31    1...    DCD    218762545
        0x00002a1c:    0000000a    ....    DCD    10
    $t
    i.Timer1_Callback
    Timer1_Callback
        0x00002a20:    4770        pG      BX       lr
        0x00002a22:    0000        ..      MOVS     r0,r0
    i.Timer2_Callback
    Timer2_Callback
        0x00002a24:    b510        ..      PUSH     {r4,lr}
        0x00002a26:    4604        .F      MOV      r4,r0
        0x00002a28:    480c        .H      LDR      r0,[pc,#48] ; [0x2a5c] = 0x20000030
        0x00002a2a:    6800        .h      LDR      r0,[r0,#0]
        0x00002a2c:    1c40        @.      ADDS     r0,r0,#1
        0x00002a2e:    490b        .I      LDR      r1,[pc,#44] ; [0x2a5c] = 0x20000030
        0x00002a30:    6008        .`      STR      r0,[r1,#0]
        0x00002a32:    f000fd91    ....    BL       batteryind ; 0x3558
        0x00002a36:    480a        .H      LDR      r0,[pc,#40] ; [0x2a60] = 0x200000cc
        0x00002a38:    7800        .x      LDRB     r0,[r0,#0]
        0x00002a3a:    1c40        @.      ADDS     r0,r0,#1
        0x00002a3c:    b240        @.      SXTB     r0,r0
        0x00002a3e:    4908        .I      LDR      r1,[pc,#32] ; [0x2a60] = 0x200000cc
        0x00002a40:    7008        .p      STRB     r0,[r1,#0]
        0x00002a42:    4808        .H      LDR      r0,[pc,#32] ; [0x2a64] = 0x200000c8
        0x00002a44:    6800        .h      LDR      r0,[r0,#0]
        0x00002a46:    1c40        @.      ADDS     r0,r0,#1
        0x00002a48:    4906        .I      LDR      r1,[pc,#24] ; [0x2a64] = 0x200000c8
        0x00002a4a:    6008        .`      STR      r0,[r1,#0]
        0x00002a4c:    4806        .H      LDR      r0,[pc,#24] ; [0x2a68] = 0x50004200
        0x00002a4e:    6840        @h      LDR      r0,[r0,#4]
        0x00002a50:    2101        .!      MOVS     r1,#1
        0x00002a52:    4048        H@      EORS     r0,r0,r1
        0x00002a54:    4904        .I      LDR      r1,[pc,#16] ; [0x2a68] = 0x50004200
        0x00002a56:    6048        H`      STR      r0,[r1,#4]
        0x00002a58:    bd10        ..      POP      {r4,pc}
    $d
        0x00002a5a:    0000        ..      DCW    0
        0x00002a5c:    20000030    0..     DCD    536870960
        0x00002a60:    200000cc    ...     DCD    536871116
        0x00002a64:    200000c8    ...     DCD    536871112
        0x00002a68:    50004200    .B.P    DCD    1342194176
    $t
    i.UART1_IRQHandler
    UART1_IRQHandler
        0x00002a6c:    e00a        ..      B        0x2a84 ; UART1_IRQHandler + 24
        0x00002a6e:    4809        .H      LDR      r0,[pc,#36] ; [0x2a94] = 0x40150000
        0x00002a70:    6800        .h      LDR      r0,[r0,#0]
        0x00002a72:    4909        .I      LDR      r1,[pc,#36] ; [0x2a98] = 0x20000f2c
        0x00002a74:    4a09        .J      LDR      r2,[pc,#36] ; [0x2a9c] = 0x20000028
        0x00002a76:    6812        .h      LDR      r2,[r2,#0]
        0x00002a78:    5488        .T      STRB     r0,[r1,r2]
        0x00002a7a:    4808        .H      LDR      r0,[pc,#32] ; [0x2a9c] = 0x20000028
        0x00002a7c:    6800        .h      LDR      r0,[r0,#0]
        0x00002a7e:    1c40        @.      ADDS     r0,r0,#1
        0x00002a80:    4906        .I      LDR      r1,[pc,#24] ; [0x2a9c] = 0x20000028
        0x00002a82:    6008        .`      STR      r0,[r1,#0]
        0x00002a84:    4803        .H      LDR      r0,[pc,#12] ; [0x2a94] = 0x40150000
        0x00002a86:    6980        .i      LDR      r0,[r0,#0x18]
        0x00002a88:    2101        .!      MOVS     r1,#1
        0x00002a8a:    0389        ..      LSLS     r1,r1,#14
        0x00002a8c:    4008        .@      ANDS     r0,r0,r1
        0x00002a8e:    2800        .(      CMP      r0,#0
        0x00002a90:    d0ed        ..      BEQ      0x2a6e ; UART1_IRQHandler + 2
        0x00002a92:    4770        pG      BX       lr
    $d
        0x00002a94:    40150000    ...@    DCD    1075118080
        0x00002a98:    20000f2c    ,..     DCD    536874796
        0x00002a9c:    20000028    (..     DCD    536870952
    $t
    i.UART_Open
    UART_Open
        0x00002aa0:    b5f0        ..      PUSH     {r4-r7,lr}
        0x00002aa2:    b087        ..      SUB      sp,sp,#0x1c
        0x00002aa4:    4604        .F      MOV      r4,r0
        0x00002aa6:    460d        .F      MOV      r5,r1
        0x00002aa8:    4827        'H      LDR      r0,[pc,#156] ; [0x2b48] = 0x573c
        0x00002aaa:    4601        .F      MOV      r1,r0
        0x00002aac:    c90e        ..      LDM      r1,{r1-r3}
        0x00002aae:    68c0        .h      LDR      r0,[r0,#0xc]
        0x00002ab0:    ae03        ..      ADD      r6,sp,#0xc
        0x00002ab2:    c60e        ..      STM      r6!,{r1-r3}
        0x00002ab4:    9006        ..      STR      r0,[sp,#0x18]
        0x00002ab6:    2000        .       MOVS     r0,#0
        0x00002ab8:    9002        ..      STR      r0,[sp,#8]
        0x00002aba:    4824        $H      LDR      r0,[pc,#144] ; [0x2b4c] = 0x50000200
        0x00002abc:    6940        @i      LDR      r0,[r0,#0x14]
        0x00002abe:    2103        .!      MOVS     r1,#3
        0x00002ac0:    0609        ..      LSLS     r1,r1,#24
        0x00002ac2:    4008        .@      ANDS     r0,r0,r1
        0x00002ac4:    0e06        ..      LSRS     r6,r0,#24
        0x00002ac6:    4821        !H      LDR      r0,[pc,#132] ; [0x2b4c] = 0x50000200
        0x00002ac8:    6980        .i      LDR      r0,[r0,#0x18]
        0x00002aca:    210f        .!      MOVS     r1,#0xf
        0x00002acc:    0209        ..      LSLS     r1,r1,#8
        0x00002ace:    4008        .@      ANDS     r0,r0,r1
        0x00002ad0:    0a07        ..      LSRS     r7,r0,#8
        0x00002ad2:    2000        .       MOVS     r0,#0
        0x00002ad4:    6320         c      STR      r0,[r4,#0x30]
        0x00002ad6:    2003        .       MOVS     r0,#3
        0x00002ad8:    60e0        .`      STR      r0,[r4,#0xc]
        0x00002ada:    68a0        .h      LDR      r0,[r4,#8]
        0x00002adc:    491c        .I      LDR      r1,[pc,#112] ; [0x2b50] = 0xfff0ff0f
        0x00002ade:    4008        .@      ANDS     r0,r0,r1
        0x00002ae0:    60a0        .`      STR      r0,[r4,#8]
        0x00002ae2:    2e01        ..      CMP      r6,#1
        0x00002ae4:    d104        ..      BNE      0x2af0 ; UART_Open + 80
        0x00002ae6:    f7fef955    ..U.    BL       CLK_GetPLLClockFreq ; 0xd94
        0x00002aea:    00b1        ..      LSLS     r1,r6,#2
        0x00002aec:    aa03        ..      ADD      r2,sp,#0xc
        0x00002aee:    5050        PP      STR      r0,[r2,r1]
        0x00002af0:    2d00        .-      CMP      r5,#0
        0x00002af2:    d026        &.      BEQ      0x2b42 ; UART_Open + 162
        0x00002af4:    00b1        ..      LSLS     r1,r6,#2
        0x00002af6:    aa03        ..      ADD      r2,sp,#0xc
        0x00002af8:    5850        PX      LDR      r0,[r2,r1]
        0x00002afa:    1c79        y.      ADDS     r1,r7,#1
        0x00002afc:    f7fdfbd8    ....    BL       __aeabi_uidiv ; 0x2b0
        0x00002b00:    0869        i.      LSRS     r1,r5,#1
        0x00002b02:    1840        @.      ADDS     r0,r0,r1
        0x00002b04:    4629        )F      MOV      r1,r5
        0x00002b06:    9001        ..      STR      r0,[sp,#4]
        0x00002b08:    f7fdfbd2    ....    BL       __aeabi_uidiv ; 0x2b0
        0x00002b0c:    1e80        ..      SUBS     r0,r0,#2
        0x00002b0e:    9002        ..      STR      r0,[sp,#8]
        0x00002b10:    4910        .I      LDR      r1,[pc,#64] ; [0x2b54] = 0xffff
        0x00002b12:    9802        ..      LDR      r0,[sp,#8]
        0x00002b14:    4288        .B      CMP      r0,r1
        0x00002b16:    d90f        ..      BLS      0x2b38 ; UART_Open + 152
        0x00002b18:    00b1        ..      LSLS     r1,r6,#2
        0x00002b1a:    aa03        ..      ADD      r2,sp,#0xc
        0x00002b1c:    5850        PX      LDR      r0,[r2,r1]
        0x00002b1e:    1c79        y.      ADDS     r1,r7,#1
        0x00002b20:    f7fdfbc6    ....    BL       __aeabi_uidiv ; 0x2b0
        0x00002b24:    00e9        ..      LSLS     r1,r5,#3
        0x00002b26:    1840        @.      ADDS     r0,r0,r1
        0x00002b28:    4629        )F      MOV      r1,r5
        0x00002b2a:    9001        ..      STR      r0,[sp,#4]
        0x00002b2c:    f7fdfbc0    ....    BL       __aeabi_uidiv ; 0x2b0
        0x00002b30:    0900        ..      LSRS     r0,r0,#4
        0x00002b32:    1e80        ..      SUBS     r0,r0,#2
        0x00002b34:    6260        `b      STR      r0,[r4,#0x24]
        0x00002b36:    e004        ..      B        0x2b42 ; UART_Open + 162
        0x00002b38:    2103        .!      MOVS     r1,#3
        0x00002b3a:    0709        ..      LSLS     r1,r1,#28
        0x00002b3c:    9802        ..      LDR      r0,[sp,#8]
        0x00002b3e:    4308        .C      ORRS     r0,r0,r1
        0x00002b40:    6260        `b      STR      r0,[r4,#0x24]
        0x00002b42:    b007        ..      ADD      sp,sp,#0x1c
        0x00002b44:    bdf0        ..      POP      {r4-r7,pc}
    $d
        0x00002b46:    0000        ..      DCW    0
        0x00002b48:    0000573c    <W..    DCD    22332
        0x00002b4c:    50000200    ...P    DCD    1342177792
        0x00002b50:    fff0ff0f    ....    DCD    4293984015
        0x00002b54:    0000ffff    ....    DCD    65535
    $t
    i.WDT_IRQHandler
    WDT_IRQHandler
        0x00002b58:    4802        .H      LDR      r0,[pc,#8] ; [0x2b64] = 0x5aa5
        0x00002b5a:    4903        .I      LDR      r1,[pc,#12] ; [0x2b68] = 0x40004100
        0x00002b5c:    6008        .`      STR      r0,[r1,#0]
        0x00002b5e:    2001        .       MOVS     r0,#1
        0x00002b60:    6088        .`      STR      r0,[r1,#8]
        0x00002b62:    4770        pG      BX       lr
    $d
        0x00002b64:    00005aa5    .Z..    DCD    23205
        0x00002b68:    40004100    .A.@    DCD    1073758464
    $t
    i.WWDT_Open
    WWDT_Open
        0x00002b6c:    b510        ..      PUSH     {r4,lr}
        0x00002b6e:    040b        ..      LSLS     r3,r1,#16
        0x00002b70:    4303        .C      ORRS     r3,r3,r0
        0x00002b72:    2a01        .*      CMP      r2,#1
        0x00002b74:    d101        ..      BNE      0x2b7a ; WWDT_Open + 14
        0x00002b76:    2402        .$      MOVS     r4,#2
        0x00002b78:    e000        ..      B        0x2b7c ; WWDT_Open + 16
        0x00002b7a:    2400        .$      MOVS     r4,#0
        0x00002b7c:    4323        #C      ORRS     r3,r3,r4
        0x00002b7e:    2401        .$      MOVS     r4,#1
        0x00002b80:    4323        #C      ORRS     r3,r3,r4
        0x00002b82:    4c01        .L      LDR      r4,[pc,#4] ; [0x2b88] = 0x40004100
        0x00002b84:    6063        c`      STR      r3,[r4,#4]
        0x00002b86:    bd10        ..      POP      {r4,pc}
    $d
        0x00002b88:    40004100    .A.@    DCD    1073758464
    $t
    i.__0printf
    __0printf
    __1printf
    __2printf
    __c89printf
    printf
        0x00002b8c:    b40f        ..      PUSH     {r0-r3}
        0x00002b8e:    b510        ..      PUSH     {r4,lr}
        0x00002b90:    a903        ..      ADD      r1,sp,#0xc
        0x00002b92:    4b04        .K      LDR      r3,[pc,#16] ; [0x2ba4] = 0x3a65
        0x00002b94:    4a04        .J      LDR      r2,[pc,#16] ; [0x2ba8] = 0x200000f0
        0x00002b96:    9802        ..      LDR      r0,[sp,#8]
        0x00002b98:    f000f93c    ..<.    BL       _printf_core ; 0x2e14
        0x00002b9c:    bc10        ..      POP      {r4}
        0x00002b9e:    bc08        ..      POP      {r3}
        0x00002ba0:    b004        ..      ADD      sp,sp,#0x10
        0x00002ba2:    4718        .G      BX       r3
    $d
        0x00002ba4:    00003a65    e:..    DCD    14949
        0x00002ba8:    200000f0    ...     DCD    536871152
    $t
    i.__0sprintf
    __0sprintf
    __1sprintf
    __2sprintf
    __c89sprintf
    sprintf
        0x00002bac:    b40f        ..      PUSH     {r0-r3}
        0x00002bae:    b510        ..      PUSH     {r4,lr}
        0x00002bb0:    a904        ..      ADD      r1,sp,#0x10
        0x00002bb2:    4b07        .K      LDR      r3,[pc,#28] ; [0x2bd0] = 0x354d
        0x00002bb4:    aa02        ..      ADD      r2,sp,#8
        0x00002bb6:    9803        ..      LDR      r0,[sp,#0xc]
        0x00002bb8:    f000f92c    ..,.    BL       _printf_core ; 0x2e14
        0x00002bbc:    4604        .F      MOV      r4,r0
        0x00002bbe:    a902        ..      ADD      r1,sp,#8
        0x00002bc0:    2000        .       MOVS     r0,#0
        0x00002bc2:    f000fcc3    ....    BL       _sputc ; 0x354c
        0x00002bc6:    4620         F      MOV      r0,r4
        0x00002bc8:    bc10        ..      POP      {r4}
        0x00002bca:    bc08        ..      POP      {r3}
        0x00002bcc:    b004        ..      ADD      sp,sp,#0x10
        0x00002bce:    4718        .G      BX       r3
    $d
        0x00002bd0:    0000354d    M5..    DCD    13645
    $t
    i.__ARM_clz
    __ARM_clz
        0x00002bd4:    2120         !      MOVS     r1,#0x20
        0x00002bd6:    0c02        ..      LSRS     r2,r0,#16
        0x00002bd8:    d001        ..      BEQ      0x2bde ; __ARM_clz + 10
        0x00002bda:    2110        .!      MOVS     r1,#0x10
        0x00002bdc:    4610        .F      MOV      r0,r2
        0x00002bde:    0a02        ..      LSRS     r2,r0,#8
        0x00002be0:    d001        ..      BEQ      0x2be6 ; __ARM_clz + 18
        0x00002be2:    4610        .F      MOV      r0,r2
        0x00002be4:    3908        .9      SUBS     r1,r1,#8
        0x00002be6:    0902        ..      LSRS     r2,r0,#4
        0x00002be8:    d001        ..      BEQ      0x2bee ; __ARM_clz + 26
        0x00002bea:    4610        .F      MOV      r0,r2
        0x00002bec:    1f09        ..      SUBS     r1,r1,#4
        0x00002bee:    0882        ..      LSRS     r2,r0,#2
        0x00002bf0:    d001        ..      BEQ      0x2bf6 ; __ARM_clz + 34
        0x00002bf2:    4610        .F      MOV      r0,r2
        0x00002bf4:    1e89        ..      SUBS     r1,r1,#2
        0x00002bf6:    0842        B.      LSRS     r2,r0,#1
        0x00002bf8:    d001        ..      BEQ      0x2bfe ; __ARM_clz + 42
        0x00002bfa:    1e88        ..      SUBS     r0,r1,#2
        0x00002bfc:    4770        pG      BX       lr
        0x00002bfe:    1a08        ..      SUBS     r0,r1,r0
        0x00002c00:    4770        pG      BX       lr
    i.__ARM_common_ll_muluu
    __ARM_common_ll_muluu
        0x00002c02:    b5f8        ..      PUSH     {r3-r7,lr}
        0x00002c04:    0c04        ..      LSRS     r4,r0,#16
        0x00002c06:    b28b        ..      UXTH     r3,r1
        0x00002c08:    4626        &F      MOV      r6,r4
        0x00002c0a:    b282        ..      UXTH     r2,r0
        0x00002c0c:    435e        ^C      MULS     r6,r3,r6
        0x00002c0e:    0c0d        ..      LSRS     r5,r1,#16
        0x00002c10:    4610        .F      MOV      r0,r2
        0x00002c12:    0c37        7.      LSRS     r7,r6,#16
        0x00002c14:    4358        XC      MULS     r0,r3,r0
        0x00002c16:    0436        6.      LSLS     r6,r6,#16
        0x00002c18:    1980        ..      ADDS     r0,r0,r6
        0x00002c1a:    2100        .!      MOVS     r1,#0
        0x00002c1c:    4179        yA      ADCS     r1,r1,r7
        0x00002c1e:    4616        .F      MOV      r6,r2
        0x00002c20:    436e        nC      MULS     r6,r5,r6
        0x00002c22:    0c37        7.      LSRS     r7,r6,#16
        0x00002c24:    0436        6.      LSLS     r6,r6,#16
        0x00002c26:    1980        ..      ADDS     r0,r0,r6
        0x00002c28:    4179        yA      ADCS     r1,r1,r7
        0x00002c2a:    4626        &F      MOV      r6,r4
        0x00002c2c:    436e        nC      MULS     r6,r5,r6
        0x00002c2e:    1989        ..      ADDS     r1,r1,r6
        0x00002c30:    bdf8        ..      POP      {r3-r7,pc}
        0x00002c32:    0000        ..      MOVS     r0,r0
    i.__NVIC_EnableIRQ
    __NVIC_EnableIRQ
        0x00002c34:    2800        .(      CMP      r0,#0
        0x00002c36:    db05        ..      BLT      0x2c44 ; __NVIC_EnableIRQ + 16
        0x00002c38:    06c2        ..      LSLS     r2,r0,#27
        0x00002c3a:    0ed2        ..      LSRS     r2,r2,#27
        0x00002c3c:    2101        .!      MOVS     r1,#1
        0x00002c3e:    4091        .@      LSLS     r1,r1,r2
        0x00002c40:    4a01        .J      LDR      r2,[pc,#4] ; [0x2c48] = 0xe000e100
        0x00002c42:    6011        .`      STR      r1,[r2,#0]
        0x00002c44:    4770        pG      BX       lr
    $d
        0x00002c46:    0000        ..      DCW    0
        0x00002c48:    e000e100    ....    DCD    3758153984
    $t
    i.__aeabi_errno_addr
    __aeabi_errno_addr
    __rt_errno_addr
        0x00002c4c:    4800        .H      LDR      r0,[pc,#0] ; [0x2c50] = 0x20000148
        0x00002c4e:    4770        pG      BX       lr
    $d
        0x00002c50:    20000148    H..     DCD    536871240
    $t
    i.__scatterload_copy
    __scatterload_copy
        0x00002c54:    e002        ..      B        0x2c5c ; __scatterload_copy + 8
        0x00002c56:    c808        ..      LDM      r0!,{r3}
        0x00002c58:    1f12        ..      SUBS     r2,r2,#4
        0x00002c5a:    c108        ..      STM      r1!,{r3}
        0x00002c5c:    2a00        .*      CMP      r2,#0
        0x00002c5e:    d1fa        ..      BNE      0x2c56 ; __scatterload_copy + 2
        0x00002c60:    4770        pG      BX       lr
    i.__scatterload_null
    __scatterload_null
        0x00002c62:    4770        pG      BX       lr
    i.__scatterload_zeroinit
    __scatterload_zeroinit
        0x00002c64:    2000        .       MOVS     r0,#0
        0x00002c66:    e001        ..      B        0x2c6c ; __scatterload_zeroinit + 8
        0x00002c68:    c101        ..      STM      r1!,{r0}
        0x00002c6a:    1f12        ..      SUBS     r2,r2,#4
        0x00002c6c:    2a00        .*      CMP      r2,#0
        0x00002c6e:    d1fb        ..      BNE      0x2c68 ; __scatterload_zeroinit + 4
        0x00002c70:    4770        pG      BX       lr
        0x00002c72:    0000        ..      MOVS     r0,r0
    i._fp_digits
    _fp_digits
        0x00002c74:    b5f0        ..      PUSH     {r4-r7,lr}
        0x00002c76:    b41f        ..      PUSH     {r0-r4}
        0x00002c78:    b084        ..      SUB      sp,sp,#0x10
        0x00002c7a:    9807        ..      LDR      r0,[sp,#0x1c]
        0x00002c7c:    9906        ..      LDR      r1,[sp,#0x18]
        0x00002c7e:    0d02        ..      LSRS     r2,r0,#20
        0x00002c80:    4301        .C      ORRS     r1,r1,r0
        0x00002c82:    d014        ..      BEQ      0x2cae ; _fp_digits + 58
        0x00002c84:    484a        JH      LDR      r0,[pc,#296] ; [0x2db0] = 0xfffffc01
        0x00002c86:    494b        KI      LDR      r1,[pc,#300] ; [0x2db4] = 0x4d10
        0x00002c88:    1810        ..      ADDS     r0,r2,r0
        0x00002c8a:    4348        HC      MULS     r0,r1,r0
        0x00002c8c:    1405        ..      ASRS     r5,r0,#16
        0x00002c8e:    980f        ..      LDR      r0,[sp,#0x3c]
        0x00002c90:    2801        .(      CMP      r0,#1
        0x00002c92:    980e        ..      LDR      r0,[sp,#0x38]
        0x00002c94:    d01c        ..      BEQ      0x2cd0 ; _fp_digits + 92
        0x00002c96:    1a28        (.      SUBS     r0,r5,r0
        0x00002c98:    1c40        @.      ADDS     r0,r0,#1
        0x00002c9a:    2400        .$      MOVS     r4,#0
        0x00002c9c:    4e46        FN      LDR      r6,[pc,#280] ; [0x2db8] = 0x40240000
        0x00002c9e:    4947        GI      LDR      r1,[pc,#284] ; [0x2dbc] = 0x3ff00000
        0x00002ca0:    9400        ..      STR      r4,[sp,#0]
        0x00002ca2:    9101        ..      STR      r1,[sp,#4]
        0x00002ca4:    9002        ..      STR      r0,[sp,#8]
        0x00002ca6:    2800        .(      CMP      r0,#0
        0x00002ca8:    da14        ..      BGE      0x2cd4 ; _fp_digits + 96
        0x00002caa:    4247        GB      RSBS     r7,r0,#0
        0x00002cac:    e027        '.      B        0x2cfe ; _fp_digits + 138
        0x00002cae:    980f        ..      LDR      r0,[sp,#0x3c]
        0x00002cb0:    2401        .$      MOVS     r4,#1
        0x00002cb2:    a343        C.      ADR      r3,{pc}+0x10e ; 0x2dc0
        0x00002cb4:    2801        .(      CMP      r0,#1
        0x00002cb6:    d008        ..      BEQ      0x2cca ; _fp_digits + 86
        0x00002cb8:    2100        .!      MOVS     r1,#0
        0x00002cba:    9804        ..      LDR      r0,[sp,#0x10]
        0x00002cbc:    9a0f        ..      LDR      r2,[sp,#0x3c]
        0x00002cbe:    6084        .`      STR      r4,[r0,#8]
        0x00002cc0:    6003        .`      STR      r3,[r0,#0]
        0x00002cc2:    60c2        .`      STR      r2,[r0,#0xc]
        0x00002cc4:    6041        A`      STR      r1,[r0,#4]
        0x00002cc6:    b009        ..      ADD      sp,sp,#0x24
        0x00002cc8:    bdf0        ..      POP      {r4-r7,pc}
        0x00002cca:    980e        ..      LDR      r0,[sp,#0x38]
        0x00002ccc:    43c1        .C      MVNS     r1,r0
        0x00002cce:    e7f4        ..      B        0x2cba ; _fp_digits + 70
        0x00002cd0:    4240        @B      RSBS     r0,r0,#0
        0x00002cd2:    e7e2        ..      B        0x2c9a ; _fp_digits + 38
        0x00002cd4:    4607        .F      MOV      r7,r0
        0x00002cd6:    e012        ..      B        0x2cfe ; _fp_digits + 138
        0x00002cd8:    07f8        ..      LSLS     r0,r7,#31
        0x00002cda:    d007        ..      BEQ      0x2cec ; _fp_digits + 120
        0x00002cdc:    4622        "F      MOV      r2,r4
        0x00002cde:    4633        3F      MOV      r3,r6
        0x00002ce0:    9901        ..      LDR      r1,[sp,#4]
        0x00002ce2:    9800        ..      LDR      r0,[sp,#0]
        0x00002ce4:    f7fdfb84    ....    BL       __aeabi_dmul ; 0x3f0
        0x00002ce8:    9101        ..      STR      r1,[sp,#4]
        0x00002cea:    9000        ..      STR      r0,[sp,#0]
        0x00002cec:    4622        "F      MOV      r2,r4
        0x00002cee:    4633        3F      MOV      r3,r6
        0x00002cf0:    4610        .F      MOV      r0,r2
        0x00002cf2:    4619        .F      MOV      r1,r3
        0x00002cf4:    f7fdfb7c    ..|.    BL       __aeabi_dmul ; 0x3f0
        0x00002cf8:    4604        .F      MOV      r4,r0
        0x00002cfa:    460e        .F      MOV      r6,r1
        0x00002cfc:    107f        ..      ASRS     r7,r7,#1
        0x00002cfe:    2f00        ./      CMP      r7,#0
        0x00002d00:    d1ea        ..      BNE      0x2cd8 ; _fp_digits + 100
        0x00002d02:    9802        ..      LDR      r0,[sp,#8]
        0x00002d04:    9b01        ..      LDR      r3,[sp,#4]
        0x00002d06:    2800        .(      CMP      r0,#0
        0x00002d08:    9a00        ..      LDR      r2,[sp,#0]
        0x00002d0a:    9907        ..      LDR      r1,[sp,#0x1c]
        0x00002d0c:    9806        ..      LDR      r0,[sp,#0x18]
        0x00002d0e:    da02        ..      BGE      0x2d16 ; _fp_digits + 162
        0x00002d10:    f7fdfb6e    ..n.    BL       __aeabi_dmul ; 0x3f0
        0x00002d14:    e001        ..      B        0x2d1a ; _fp_digits + 166
        0x00002d16:    f7fdfbd3    ....    BL       __aeabi_ddiv ; 0x4c0
        0x00002d1a:    4604        .F      MOV      r4,r0
        0x00002d1c:    460e        .F      MOV      r6,r1
        0x00002d1e:    2200        ."      MOVS     r2,#0
        0x00002d20:    4b28        (K      LDR      r3,[pc,#160] ; [0x2dc4] = 0x43f00000
        0x00002d22:    f7fdfc75    ..u.    BL       __aeabi_cdrcmple ; 0x610
        0x00002d26:    d803        ..      BHI      0x2d30 ; _fp_digits + 188
        0x00002d28:    2000        .       MOVS     r0,#0
        0x00002d2a:    43c0        .C      MVNS     r0,r0
        0x00002d2c:    4601        .F      MOV      r1,r0
        0x00002d2e:    e007        ..      B        0x2d40 ; _fp_digits + 204
        0x00002d30:    2200        ."      MOVS     r2,#0
        0x00002d32:    4b25        %K      LDR      r3,[pc,#148] ; [0x2dc8] = 0x3fe00000
        0x00002d34:    4620         F      MOV      r0,r4
        0x00002d36:    4631        1F      MOV      r1,r6
        0x00002d38:    f7fdfd94    ....    BL       __aeabi_dadd ; 0x864
        0x00002d3c:    f7fdfe44    ..D.    BL       __aeabi_d2ulz ; 0x9c8
        0x00002d40:    2410        .$      MOVS     r4,#0x10
        0x00002d42:    e009        ..      B        0x2d58 ; _fp_digits + 228
        0x00002d44:    2c00        .,      CMP      r4,#0
        0x00002d46:    db0a        ..      BLT      0x2d5e ; _fp_digits + 234
        0x00002d48:    220a        ."      MOVS     r2,#0xa
        0x00002d4a:    2300        .#      MOVS     r3,#0
        0x00002d4c:    f7fdfada    ....    BL       __aeabi_uldivmod ; 0x304
        0x00002d50:    9b05        ..      LDR      r3,[sp,#0x14]
        0x00002d52:    3230        02      ADDS     r2,r2,#0x30
        0x00002d54:    551a        .U      STRB     r2,[r3,r4]
        0x00002d56:    1e64        d.      SUBS     r4,r4,#1
        0x00002d58:    4602        .F      MOV      r2,r0
        0x00002d5a:    430a        .C      ORRS     r2,r2,r1
        0x00002d5c:    d1f2        ..      BNE      0x2d44 ; _fp_digits + 208
        0x00002d5e:    2211        ."      MOVS     r2,#0x11
        0x00002d60:    1c64        d.      ADDS     r4,r4,#1
        0x00002d62:    9b05        ..      LDR      r3,[sp,#0x14]
        0x00002d64:    1b12        ..      SUBS     r2,r2,r4
        0x00002d66:    191c        ..      ADDS     r4,r3,r4
        0x00002d68:    9b0f        ..      LDR      r3,[sp,#0x3c]
        0x00002d6a:    2b01        .+      CMP      r3,#1
        0x00002d6c:    d003        ..      BEQ      0x2d76 ; _fp_digits + 258
        0x00002d6e:    2301        .#      MOVS     r3,#1
        0x00002d70:    4308        .C      ORRS     r0,r0,r1
        0x00002d72:    d10e        ..      BNE      0x2d92 ; _fp_digits + 286
        0x00002d74:    e00a        ..      B        0x2d8c ; _fp_digits + 280
        0x00002d76:    4308        .C      ORRS     r0,r0,r1
        0x00002d78:    d004        ..      BEQ      0x2d84 ; _fp_digits + 272
        0x00002d7a:    2011        .       MOVS     r0,#0x11
        0x00002d7c:    900e        ..      STR      r0,[sp,#0x38]
        0x00002d7e:    2000        .       MOVS     r0,#0
        0x00002d80:    900f        ..      STR      r0,[sp,#0x3c]
        0x00002d82:    e784        ..      B        0x2c8e ; _fp_digits + 26
        0x00002d84:    980e        ..      LDR      r0,[sp,#0x38]
        0x00002d86:    1a15        ..      SUBS     r5,r2,r0
        0x00002d88:    1e6d        m.      SUBS     r5,r5,#1
        0x00002d8a:    e00b        ..      B        0x2da4 ; _fp_digits + 304
        0x00002d8c:    980e        ..      LDR      r0,[sp,#0x38]
        0x00002d8e:    4282        .B      CMP      r2,r0
        0x00002d90:    dd02        ..      BLE      0x2d98 ; _fp_digits + 292
        0x00002d92:    2300        .#      MOVS     r3,#0
        0x00002d94:    1c6d        m.      ADDS     r5,r5,#1
        0x00002d96:    e003        ..      B        0x2da0 ; _fp_digits + 300
        0x00002d98:    4282        .B      CMP      r2,r0
        0x00002d9a:    da01        ..      BGE      0x2da0 ; _fp_digits + 300
        0x00002d9c:    2300        .#      MOVS     r3,#0
        0x00002d9e:    1e6d        m.      SUBS     r5,r5,#1
        0x00002da0:    2b00        .+      CMP      r3,#0
        0x00002da2:    d0ee        ..      BEQ      0x2d82 ; _fp_digits + 270
        0x00002da4:    9804        ..      LDR      r0,[sp,#0x10]
        0x00002da6:    990f        ..      LDR      r1,[sp,#0x3c]
        0x00002da8:    6082        .`      STR      r2,[r0,#8]
        0x00002daa:    60c1        .`      STR      r1,[r0,#0xc]
        0x00002dac:    c030        0.      STM      r0!,{r4,r5}
        0x00002dae:    e78a        ..      B        0x2cc6 ; _fp_digits + 82
    $d
        0x00002db0:    fffffc01    ....    DCD    4294966273
        0x00002db4:    00004d10    .M..    DCD    19728
        0x00002db8:    40240000    ..$@    DCD    1076101120
        0x00002dbc:    3ff00000    ...?    DCD    1072693248
        0x00002dc0:    00000030    0...    DCD    48
        0x00002dc4:    43f00000    ...C    DCD    1139802112
        0x00002dc8:    3fe00000    ...?    DCD    1071644672
    $t
    i._init_box
    _init_box
        0x00002dcc:    b510        ..      PUSH     {r4,lr}
        0x00002dce:    2a00        .*      CMP      r2,#0
        0x00002dd0:    da06        ..      BGE      0x2de0 ; _init_box + 20
        0x00002dd2:    0052        R.      LSLS     r2,r2,#1
        0x00002dd4:    0852        R.      LSRS     r2,r2,#1
        0x00002dd6:    1dd2        ..      ADDS     r2,r2,#7
        0x00002dd8:    08d3        ..      LSRS     r3,r2,#3
        0x00002dda:    00db        ..      LSLS     r3,r3,#3
        0x00002ddc:    2210        ."      MOVS     r2,#0x10
        0x00002dde:    e003        ..      B        0x2de8 ; _init_box + 28
        0x00002de0:    1cd2        ..      ADDS     r2,r2,#3
        0x00002de2:    0893        ..      LSRS     r3,r2,#2
        0x00002de4:    009b        ..      LSLS     r3,r3,#2
        0x00002de6:    220c        ."      MOVS     r2,#0xc
        0x00002de8:    2b00        .+      CMP      r3,#0
        0x00002dea:    d002        ..      BEQ      0x2df2 ; _init_box + 38
        0x00002dec:    189c        ..      ADDS     r4,r3,r2
        0x00002dee:    428c        .B      CMP      r4,r1
        0x00002df0:    d901        ..      BLS      0x2df6 ; _init_box + 42
        0x00002df2:    2001        .       MOVS     r0,#1
        0x00002df4:    bd10        ..      POP      {r4,pc}
        0x00002df6:    1882        ..      ADDS     r2,r0,r2
        0x00002df8:    6083        .`      STR      r3,[r0,#8]
        0x00002dfa:    1841        A.      ADDS     r1,r0,r1
        0x00002dfc:    6002        .`      STR      r2,[r0,#0]
        0x00002dfe:    6041        A`      STR      r1,[r0,#4]
        0x00002e00:    1ac9        ..      SUBS     r1,r1,r3
        0x00002e02:    18d0        ..      ADDS     r0,r2,r3
        0x00002e04:    4288        .B      CMP      r0,r1
        0x00002e06:    d802        ..      BHI      0x2e0e ; _init_box + 66
        0x00002e08:    6010        .`      STR      r0,[r2,#0]
        0x00002e0a:    4602        .F      MOV      r2,r0
        0x00002e0c:    e7f9        ..      B        0x2e02 ; _init_box + 54
        0x00002e0e:    2000        .       MOVS     r0,#0
        0x00002e10:    6010        .`      STR      r0,[r2,#0]
        0x00002e12:    bd10        ..      POP      {r4,pc}
    i._printf_core
    _printf_core
        0x00002e14:    b5ff        ..      PUSH     {r0-r7,lr}
        0x00002e16:    b097        ..      SUB      sp,sp,#0x5c
        0x00002e18:    4606        .F      MOV      r6,r0
        0x00002e1a:    2500        .%      MOVS     r5,#0
        0x00002e1c:    e218        ..      B        0x3250 ; _printf_core + 1084
        0x00002e1e:    2825        %(      CMP      r0,#0x25
        0x00002e20:    d177        w.      BNE      0x2f12 ; _printf_core + 254
        0x00002e22:    2400        .$      MOVS     r4,#0
        0x00002e24:    4627        'F      MOV      r7,r4
        0x00002e26:    49fd        .I      LDR      r1,[pc,#1012] ; [0x321c] = 0x12809
        0x00002e28:    9404        ..      STR      r4,[sp,#0x10]
        0x00002e2a:    e000        ..      B        0x2e2e ; _printf_core + 26
        0x00002e2c:    4304        .C      ORRS     r4,r4,r0
        0x00002e2e:    1c76        v.      ADDS     r6,r6,#1
        0x00002e30:    7832        2x      LDRB     r2,[r6,#0]
        0x00002e32:    2001        .       MOVS     r0,#1
        0x00002e34:    3a20         :      SUBS     r2,r2,#0x20
        0x00002e36:    4090        .@      LSLS     r0,r0,r2
        0x00002e38:    4208        .B      TST      r0,r1
        0x00002e3a:    d1f7        ..      BNE      0x2e2c ; _printf_core + 24
        0x00002e3c:    7830        0x      LDRB     r0,[r6,#0]
        0x00002e3e:    282a        *(      CMP      r0,#0x2a
        0x00002e40:    d00e        ..      BEQ      0x2e60 ; _printf_core + 76
        0x00002e42:    2202        ."      MOVS     r2,#2
        0x00002e44:    7830        0x      LDRB     r0,[r6,#0]
        0x00002e46:    4601        .F      MOV      r1,r0
        0x00002e48:    3930        09      SUBS     r1,r1,#0x30
        0x00002e4a:    2909        .)      CMP      r1,#9
        0x00002e4c:    d816        ..      BHI      0x2e7c ; _printf_core + 104
        0x00002e4e:    9904        ..      LDR      r1,[sp,#0x10]
        0x00002e50:    230a        .#      MOVS     r3,#0xa
        0x00002e52:    4359        YC      MULS     r1,r3,r1
        0x00002e54:    3930        09      SUBS     r1,r1,#0x30
        0x00002e56:    1840        @.      ADDS     r0,r0,r1
        0x00002e58:    4314        .C      ORRS     r4,r4,r2
        0x00002e5a:    1c76        v.      ADDS     r6,r6,#1
        0x00002e5c:    9004        ..      STR      r0,[sp,#0x10]
        0x00002e5e:    e7f1        ..      B        0x2e44 ; _printf_core + 48
        0x00002e60:    9818        ..      LDR      r0,[sp,#0x60]
        0x00002e62:    c802        ..      LDM      r0!,{r1}
        0x00002e64:    9104        ..      STR      r1,[sp,#0x10]
        0x00002e66:    9018        ..      STR      r0,[sp,#0x60]
        0x00002e68:    2900        .)      CMP      r1,#0
        0x00002e6a:    da04        ..      BGE      0x2e76 ; _printf_core + 98
        0x00002e6c:    2001        .       MOVS     r0,#1
        0x00002e6e:    0340        @.      LSLS     r0,r0,#13
        0x00002e70:    4304        .C      ORRS     r4,r4,r0
        0x00002e72:    4248        HB      RSBS     r0,r1,#0
        0x00002e74:    9004        ..      STR      r0,[sp,#0x10]
        0x00002e76:    2002        .       MOVS     r0,#2
        0x00002e78:    4304        .C      ORRS     r4,r4,r0
        0x00002e7a:    1c76        v.      ADDS     r6,r6,#1
        0x00002e7c:    7830        0x      LDRB     r0,[r6,#0]
        0x00002e7e:    282e        .(      CMP      r0,#0x2e
        0x00002e80:    d114        ..      BNE      0x2eac ; _printf_core + 152
        0x00002e82:    2004        .       MOVS     r0,#4
        0x00002e84:    4304        .C      ORRS     r4,r4,r0
        0x00002e86:    7870        px      LDRB     r0,[r6,#1]
        0x00002e88:    1c76        v.      ADDS     r6,r6,#1
        0x00002e8a:    282a        *(      CMP      r0,#0x2a
        0x00002e8c:    d109        ..      BNE      0x2ea2 ; _printf_core + 142
        0x00002e8e:    9818        ..      LDR      r0,[sp,#0x60]
        0x00002e90:    1c76        v.      ADDS     r6,r6,#1
        0x00002e92:    c880        ..      LDM      r0!,{r7}
        0x00002e94:    9018        ..      STR      r0,[sp,#0x60]
        0x00002e96:    e009        ..      B        0x2eac ; _printf_core + 152
        0x00002e98:    210a        .!      MOVS     r1,#0xa
        0x00002e9a:    434f        OC      MULS     r7,r1,r7
        0x00002e9c:    3f30        0?      SUBS     r7,r7,#0x30
        0x00002e9e:    19c7        ..      ADDS     r7,r0,r7
        0x00002ea0:    1c76        v.      ADDS     r6,r6,#1
        0x00002ea2:    7830        0x      LDRB     r0,[r6,#0]
        0x00002ea4:    4601        .F      MOV      r1,r0
        0x00002ea6:    3930        09      SUBS     r1,r1,#0x30
        0x00002ea8:    2909        .)      CMP      r1,#9
        0x00002eaa:    d9f5        ..      BLS      0x2e98 ; _printf_core + 132
        0x00002eac:    7830        0x      LDRB     r0,[r6,#0]
        0x00002eae:    286c        l(      CMP      r0,#0x6c
        0x00002eb0:    d010        ..      BEQ      0x2ed4 ; _printf_core + 192
        0x00002eb2:    dc06        ..      BGT      0x2ec2 ; _printf_core + 174
        0x00002eb4:    284c        L(      CMP      r0,#0x4c
        0x00002eb6:    d01a        ..      BEQ      0x2eee ; _printf_core + 218
        0x00002eb8:    2868        h(      CMP      r0,#0x68
        0x00002eba:    d00e        ..      BEQ      0x2eda ; _printf_core + 198
        0x00002ebc:    286a        j(      CMP      r0,#0x6a
        0x00002ebe:    d117        ..      BNE      0x2ef0 ; _printf_core + 220
        0x00002ec0:    e004        ..      B        0x2ecc ; _printf_core + 184
        0x00002ec2:    2874        t(      CMP      r0,#0x74
        0x00002ec4:    d013        ..      BEQ      0x2eee ; _printf_core + 218
        0x00002ec6:    287a        z(      CMP      r0,#0x7a
        0x00002ec8:    d112        ..      BNE      0x2ef0 ; _printf_core + 220
        0x00002eca:    e010        ..      B        0x2eee ; _printf_core + 218
        0x00002ecc:    2001        .       MOVS     r0,#1
        0x00002ece:    0540        @.      LSLS     r0,r0,#21
        0x00002ed0:    4304        .C      ORRS     r4,r4,r0
        0x00002ed2:    e00c        ..      B        0x2eee ; _printf_core + 218
        0x00002ed4:    2101        .!      MOVS     r1,#1
        0x00002ed6:    0509        ..      LSLS     r1,r1,#20
        0x00002ed8:    e001        ..      B        0x2ede ; _printf_core + 202
        0x00002eda:    2103        .!      MOVS     r1,#3
        0x00002edc:    0509        ..      LSLS     r1,r1,#20
        0x00002ede:    430c        .C      ORRS     r4,r4,r1
        0x00002ee0:    7871        qx      LDRB     r1,[r6,#1]
        0x00002ee2:    4281        .B      CMP      r1,r0
        0x00002ee4:    d103        ..      BNE      0x2eee ; _printf_core + 218
        0x00002ee6:    2001        .       MOVS     r0,#1
        0x00002ee8:    0500        ..      LSLS     r0,r0,#20
        0x00002eea:    1824        $.      ADDS     r4,r4,r0
        0x00002eec:    1c76        v.      ADDS     r6,r6,#1
        0x00002eee:    1c76        v.      ADDS     r6,r6,#1
        0x00002ef0:    7830        0x      LDRB     r0,[r6,#0]
        0x00002ef2:    9011        ..      STR      r0,[sp,#0x44]
        0x00002ef4:    2866        f(      CMP      r0,#0x66
        0x00002ef6:    d00b        ..      BEQ      0x2f10 ; _printf_core + 252
        0x00002ef8:    dc13        ..      BGT      0x2f22 ; _printf_core + 270
        0x00002efa:    2858        X(      CMP      r0,#0x58
        0x00002efc:    d07d        }.      BEQ      0x2ffa ; _printf_core + 486
        0x00002efe:    dc09        ..      BGT      0x2f14 ; _printf_core + 256
        0x00002f00:    2800        .(      CMP      r0,#0
        0x00002f02:    d07b        {.      BEQ      0x2ffc ; _printf_core + 488
        0x00002f04:    2845        E(      CMP      r0,#0x45
        0x00002f06:    d0f6        ..      BEQ      0x2ef6 ; _printf_core + 226
        0x00002f08:    2846        F(      CMP      r0,#0x46
        0x00002f0a:    d0f4        ..      BEQ      0x2ef6 ; _printf_core + 226
        0x00002f0c:    2847        G(      CMP      r0,#0x47
        0x00002f0e:    d11a        ..      BNE      0x2f46 ; _printf_core + 306
        0x00002f10:    e1a5        ..      B        0x325e ; _printf_core + 1098
        0x00002f12:    e018        ..      B        0x2f46 ; _printf_core + 306
        0x00002f14:    2863        c(      CMP      r0,#0x63
        0x00002f16:    d035        5.      BEQ      0x2f84 ; _printf_core + 368
        0x00002f18:    2864        d(      CMP      r0,#0x64
        0x00002f1a:    d070        p.      BEQ      0x2ffe ; _printf_core + 490
        0x00002f1c:    2865        e(      CMP      r0,#0x65
        0x00002f1e:    d112        ..      BNE      0x2f46 ; _printf_core + 306
        0x00002f20:    e19d        ..      B        0x325e ; _printf_core + 1098
        0x00002f22:    2870        p(      CMP      r0,#0x70
        0x00002f24:    d06c        l.      BEQ      0x3000 ; _printf_core + 492
        0x00002f26:    dc08        ..      BGT      0x2f3a ; _printf_core + 294
        0x00002f28:    2867        g(      CMP      r0,#0x67
        0x00002f2a:    d0f1        ..      BEQ      0x2f10 ; _printf_core + 252
        0x00002f2c:    2869        i(      CMP      r0,#0x69
        0x00002f2e:    d07b        {.      BEQ      0x3028 ; _printf_core + 532
        0x00002f30:    286e        n(      CMP      r0,#0x6e
        0x00002f32:    d00d        ..      BEQ      0x2f50 ; _printf_core + 316
        0x00002f34:    286f        o(      CMP      r0,#0x6f
        0x00002f36:    d106        ..      BNE      0x2f46 ; _printf_core + 306
        0x00002f38:    e0ba        ..      B        0x30b0 ; _printf_core + 668
        0x00002f3a:    2873        s(      CMP      r0,#0x73
        0x00002f3c:    d02e        ..      BEQ      0x2f9c ; _printf_core + 392
        0x00002f3e:    2875        u(      CMP      r0,#0x75
        0x00002f40:    d071        q.      BEQ      0x3026 ; _printf_core + 530
        0x00002f42:    2878        x(      CMP      r0,#0x78
        0x00002f44:    d059        Y.      BEQ      0x2ffa ; _printf_core + 486
        0x00002f46:    9a1a        ..      LDR      r2,[sp,#0x68]
        0x00002f48:    9919        ..      LDR      r1,[sp,#0x64]
        0x00002f4a:    4790        .G      BLX      r2
        0x00002f4c:    1c6d        m.      ADDS     r5,r5,#1
        0x00002f4e:    e17e        ~.      B        0x324e ; _printf_core + 1082
        0x00002f50:    0260        `.      LSLS     r0,r4,#9
        0x00002f52:    0f40        @.      LSRS     r0,r0,#29
        0x00002f54:    2802        .(      CMP      r0,#2
        0x00002f56:    d009        ..      BEQ      0x2f6c ; _printf_core + 344
        0x00002f58:    2803        .(      CMP      r0,#3
        0x00002f5a:    d00d        ..      BEQ      0x2f78 ; _printf_core + 356
        0x00002f5c:    2804        .(      CMP      r0,#4
        0x00002f5e:    9818        ..      LDR      r0,[sp,#0x60]
        0x00002f60:    6801        .h      LDR      r1,[r0,#0]
        0x00002f62:    d00d        ..      BEQ      0x2f80 ; _printf_core + 364
        0x00002f64:    600d        .`      STR      r5,[r1,#0]
        0x00002f66:    1d00        ..      ADDS     r0,r0,#4
        0x00002f68:    9018        ..      STR      r0,[sp,#0x60]
        0x00002f6a:    e170        p.      B        0x324e ; _printf_core + 1082
        0x00002f6c:    9818        ..      LDR      r0,[sp,#0x60]
        0x00002f6e:    17ea        ..      ASRS     r2,r5,#31
        0x00002f70:    6801        .h      LDR      r1,[r0,#0]
        0x00002f72:    600d        .`      STR      r5,[r1,#0]
        0x00002f74:    604a        J`      STR      r2,[r1,#4]
        0x00002f76:    e7f6        ..      B        0x2f66 ; _printf_core + 338
        0x00002f78:    9818        ..      LDR      r0,[sp,#0x60]
        0x00002f7a:    6801        .h      LDR      r1,[r0,#0]
        0x00002f7c:    800d        ..      STRH     r5,[r1,#0]
        0x00002f7e:    e7f2        ..      B        0x2f66 ; _printf_core + 338
        0x00002f80:    700d        .p      STRB     r5,[r1,#0]
        0x00002f82:    e7f0        ..      B        0x2f66 ; _printf_core + 338
        0x00002f84:    9818        ..      LDR      r0,[sp,#0x60]
        0x00002f86:    466a        jF      MOV      r2,sp
        0x00002f88:    7801        .x      LDRB     r1,[r0,#0]
        0x00002f8a:    7211        .r      STRB     r1,[r2,#8]
        0x00002f8c:    1d00        ..      ADDS     r0,r0,#4
        0x00002f8e:    9018        ..      STR      r0,[sp,#0x60]
        0x00002f90:    2000        .       MOVS     r0,#0
        0x00002f92:    7250        Pr      STRB     r0,[r2,#9]
        0x00002f94:    a802        ..      ADD      r0,sp,#8
        0x00002f96:    9000        ..      STR      r0,[sp,#0]
        0x00002f98:    2001        .       MOVS     r0,#1
        0x00002f9a:    e005        ..      B        0x2fa8 ; _printf_core + 404
        0x00002f9c:    9818        ..      LDR      r0,[sp,#0x60]
        0x00002f9e:    c802        ..      LDM      r0!,{r1}
        0x00002fa0:    9018        ..      STR      r0,[sp,#0x60]
        0x00002fa2:    2000        .       MOVS     r0,#0
        0x00002fa4:    9100        ..      STR      r1,[sp,#0]
        0x00002fa6:    43c0        .C      MVNS     r0,r0
        0x00002fa8:    0761        a.      LSLS     r1,r4,#29
        0x00002faa:    d50d        ..      BPL      0x2fc8 ; _printf_core + 436
        0x00002fac:    2100        .!      MOVS     r1,#0
        0x00002fae:    e001        ..      B        0x2fb4 ; _printf_core + 416
        0x00002fb0:    9901        ..      LDR      r1,[sp,#4]
        0x00002fb2:    1c49        I.      ADDS     r1,r1,#1
        0x00002fb4:    9101        ..      STR      r1,[sp,#4]
        0x00002fb6:    42b9        .B      CMP      r1,r7
        0x00002fb8:    da12        ..      BGE      0x2fe0 ; _printf_core + 460
        0x00002fba:    4281        .B      CMP      r1,r0
        0x00002fbc:    dbf8        ..      BLT      0x2fb0 ; _printf_core + 412
        0x00002fbe:    9a00        ..      LDR      r2,[sp,#0]
        0x00002fc0:    5c51        Q\      LDRB     r1,[r2,r1]
        0x00002fc2:    2900        .)      CMP      r1,#0
        0x00002fc4:    d1f4        ..      BNE      0x2fb0 ; _printf_core + 412
        0x00002fc6:    e00b        ..      B        0x2fe0 ; _printf_core + 460
        0x00002fc8:    2100        .!      MOVS     r1,#0
        0x00002fca:    e001        ..      B        0x2fd0 ; _printf_core + 444
        0x00002fcc:    9901        ..      LDR      r1,[sp,#4]
        0x00002fce:    1c49        I.      ADDS     r1,r1,#1
        0x00002fd0:    9101        ..      STR      r1,[sp,#4]
        0x00002fd2:    4281        .B      CMP      r1,r0
        0x00002fd4:    dbfa        ..      BLT      0x2fcc ; _printf_core + 440
        0x00002fd6:    9a01        ..      LDR      r2,[sp,#4]
        0x00002fd8:    9900        ..      LDR      r1,[sp,#0]
        0x00002fda:    5c89        .\      LDRB     r1,[r1,r2]
        0x00002fdc:    2900        .)      CMP      r1,#0
        0x00002fde:    d1f5        ..      BNE      0x2fcc ; _printf_core + 440
        0x00002fe0:    9901        ..      LDR      r1,[sp,#4]
        0x00002fe2:    9804        ..      LDR      r0,[sp,#0x10]
        0x00002fe4:    9b1a        ..      LDR      r3,[sp,#0x68]
        0x00002fe6:    1a47        G.      SUBS     r7,r0,r1
        0x00002fe8:    4621        !F      MOV      r1,r4
        0x00002fea:    4638        8F      MOV      r0,r7
        0x00002fec:    9a19        ..      LDR      r2,[sp,#0x64]
        0x00002fee:    f000fa97    ....    BL       _printf_pre_padding ; 0x3520
        0x00002ff2:    9901        ..      LDR      r1,[sp,#4]
        0x00002ff4:    1940        @.      ADDS     r0,r0,r5
        0x00002ff6:    1845        E.      ADDS     r5,r0,r1
        0x00002ff8:    e00b        ..      B        0x3012 ; _printf_core + 510
        0x00002ffa:    e04f        O.      B        0x309c ; _printf_core + 648
        0x00002ffc:    e12c        ,.      B        0x3258 ; _printf_core + 1092
        0x00002ffe:    e013        ..      B        0x3028 ; _printf_core + 532
        0x00003000:    e04e        N.      B        0x30a0 ; _printf_core + 652
        0x00003002:    9800        ..      LDR      r0,[sp,#0]
        0x00003004:    9900        ..      LDR      r1,[sp,#0]
        0x00003006:    7800        .x      LDRB     r0,[r0,#0]
        0x00003008:    1c49        I.      ADDS     r1,r1,#1
        0x0000300a:    9100        ..      STR      r1,[sp,#0]
        0x0000300c:    9a1a        ..      LDR      r2,[sp,#0x68]
        0x0000300e:    9919        ..      LDR      r1,[sp,#0x64]
        0x00003010:    4790        .G      BLX      r2
        0x00003012:    9801        ..      LDR      r0,[sp,#4]
        0x00003014:    1e40        @.      SUBS     r0,r0,#1
        0x00003016:    9001        ..      STR      r0,[sp,#4]
        0x00003018:    1c40        @.      ADDS     r0,r0,#1
        0x0000301a:    d1f2        ..      BNE      0x3002 ; _printf_core + 494
        0x0000301c:    4621        !F      MOV      r1,r4
        0x0000301e:    4638        8F      MOV      r0,r7
        0x00003020:    9b1a        ..      LDR      r3,[sp,#0x68]
        0x00003022:    9a19        ..      LDR      r2,[sp,#0x64]
        0x00003024:    e110        ..      B        0x3248 ; _printf_core + 1076
        0x00003026:    e037        7.      B        0x3098 ; _printf_core + 644
        0x00003028:    200a        .       MOVS     r0,#0xa
        0x0000302a:    2100        .!      MOVS     r1,#0
        0x0000302c:    9000        ..      STR      r0,[sp,#0]
        0x0000302e:    9101        ..      STR      r1,[sp,#4]
        0x00003030:    0260        `.      LSLS     r0,r4,#9
        0x00003032:    0f41        A.      LSRS     r1,r0,#29
        0x00003034:    2902        .)      CMP      r1,#2
        0x00003036:    d007        ..      BEQ      0x3048 ; _printf_core + 564
        0x00003038:    9a18        ..      LDR      r2,[sp,#0x60]
        0x0000303a:    ca01        ..      LDM      r2!,{r0}
        0x0000303c:    9218        ..      STR      r2,[sp,#0x60]
        0x0000303e:    17c2        ..      ASRS     r2,r0,#31
        0x00003040:    4694        .F      MOV      r12,r2
        0x00003042:    2903        .)      CMP      r1,#3
        0x00003044:    d008        ..      BEQ      0x3058 ; _printf_core + 580
        0x00003046:    e00a        ..      B        0x305e ; _printf_core + 586
        0x00003048:    9818        ..      LDR      r0,[sp,#0x60]
        0x0000304a:    1dc0        ..      ADDS     r0,r0,#7
        0x0000304c:    08c1        ..      LSRS     r1,r0,#3
        0x0000304e:    00c9        ..      LSLS     r1,r1,#3
        0x00003050:    c905        ..      LDM      r1!,{r0,r2}
        0x00003052:    9118        ..      STR      r1,[sp,#0x60]
        0x00003054:    4694        .F      MOV      r12,r2
        0x00003056:    e007        ..      B        0x3068 ; _printf_core + 596
        0x00003058:    b200        ..      SXTH     r0,r0
        0x0000305a:    17c2        ..      ASRS     r2,r0,#31
        0x0000305c:    4694        .F      MOV      r12,r2
        0x0000305e:    2904        .)      CMP      r1,#4
        0x00003060:    d102        ..      BNE      0x3068 ; _printf_core + 596
        0x00003062:    b240        @.      SXTB     r0,r0
        0x00003064:    17c1        ..      ASRS     r1,r0,#31
        0x00003066:    468c        .F      MOV      r12,r1
        0x00003068:    2200        ."      MOVS     r2,#0
        0x0000306a:    4661        aF      MOV      r1,r12
        0x0000306c:    4594        .E      CMP      r12,r2
        0x0000306e:    da06        ..      BGE      0x307e ; _printf_core + 618
        0x00003070:    460a        .F      MOV      r2,r1
        0x00003072:    2100        .!      MOVS     r1,#0
        0x00003074:    4240        @B      RSBS     r0,r0,#0
        0x00003076:    4191        .A      SBCS     r1,r1,r2
        0x00003078:    468c        .F      MOV      r12,r1
        0x0000307a:    212d        -!      MOVS     r1,#0x2d
        0x0000307c:    e002        ..      B        0x3084 ; _printf_core + 624
        0x0000307e:    0521        !.      LSLS     r1,r4,#20
        0x00003080:    d504        ..      BPL      0x308c ; _printf_core + 632
        0x00003082:    212b        +!      MOVS     r1,#0x2b
        0x00003084:    466a        jF      MOV      r2,sp
        0x00003086:    7311        .s      STRB     r1,[r2,#0xc]
        0x00003088:    2101        .!      MOVS     r1,#1
        0x0000308a:    e003        ..      B        0x3094 ; _printf_core + 640
        0x0000308c:    07e1        ..      LSLS     r1,r4,#31
        0x0000308e:    d001        ..      BEQ      0x3094 ; _printf_core + 640
        0x00003090:    2120         !      MOVS     r1,#0x20
        0x00003092:    e7f7        ..      B        0x3084 ; _printf_core + 624
        0x00003094:    9102        ..      STR      r1,[sp,#8]
        0x00003096:    e055        U.      B        0x3144 ; _printf_core + 816
        0x00003098:    200a        .       MOVS     r0,#0xa
        0x0000309a:    e00a        ..      B        0x30b2 ; _printf_core + 670
        0x0000309c:    2010        .       MOVS     r0,#0x10
        0x0000309e:    e008        ..      B        0x30b2 ; _printf_core + 670
        0x000030a0:    2010        .       MOVS     r0,#0x10
        0x000030a2:    9000        ..      STR      r0,[sp,#0]
        0x000030a4:    2100        .!      MOVS     r1,#0
        0x000030a6:    2004        .       MOVS     r0,#4
        0x000030a8:    4304        .C      ORRS     r4,r4,r0
        0x000030aa:    9101        ..      STR      r1,[sp,#4]
        0x000030ac:    2708        .'      MOVS     r7,#8
        0x000030ae:    e003        ..      B        0x30b8 ; _printf_core + 676
        0x000030b0:    2008        .       MOVS     r0,#8
        0x000030b2:    2100        .!      MOVS     r1,#0
        0x000030b4:    9101        ..      STR      r1,[sp,#4]
        0x000030b6:    9000        ..      STR      r0,[sp,#0]
        0x000030b8:    0260        `.      LSLS     r0,r4,#9
        0x000030ba:    0f41        A.      LSRS     r1,r0,#29
        0x000030bc:    2902        .)      CMP      r1,#2
        0x000030be:    d007        ..      BEQ      0x30d0 ; _printf_core + 700
        0x000030c0:    9a18        ..      LDR      r2,[sp,#0x60]
        0x000030c2:    ca01        ..      LDM      r2!,{r0}
        0x000030c4:    9218        ..      STR      r2,[sp,#0x60]
        0x000030c6:    2200        ."      MOVS     r2,#0
        0x000030c8:    4694        .F      MOV      r12,r2
        0x000030ca:    2903        .)      CMP      r1,#3
        0x000030cc:    d008        ..      BEQ      0x30e0 ; _printf_core + 716
        0x000030ce:    e008        ..      B        0x30e2 ; _printf_core + 718
        0x000030d0:    9818        ..      LDR      r0,[sp,#0x60]
        0x000030d2:    1dc0        ..      ADDS     r0,r0,#7
        0x000030d4:    08c1        ..      LSRS     r1,r0,#3
        0x000030d6:    00c9        ..      LSLS     r1,r1,#3
        0x000030d8:    c905        ..      LDM      r1!,{r0,r2}
        0x000030da:    9118        ..      STR      r1,[sp,#0x60]
        0x000030dc:    4694        .F      MOV      r12,r2
        0x000030de:    e003        ..      B        0x30e8 ; _printf_core + 724
        0x000030e0:    b280        ..      UXTH     r0,r0
        0x000030e2:    2904        .)      CMP      r1,#4
        0x000030e4:    d100        ..      BNE      0x30e8 ; _printf_core + 724
        0x000030e6:    b2c0        ..      UXTB     r0,r0
        0x000030e8:    2100        .!      MOVS     r1,#0
        0x000030ea:    9102        ..      STR      r1,[sp,#8]
        0x000030ec:    0721        !.      LSLS     r1,r4,#28
        0x000030ee:    d529        ).      BPL      0x3144 ; _printf_core + 816
        0x000030f0:    9911        ..      LDR      r1,[sp,#0x44]
        0x000030f2:    2970        p)      CMP      r1,#0x70
        0x000030f4:    d006        ..      BEQ      0x3104 ; _printf_core + 752
        0x000030f6:    9a00        ..      LDR      r2,[sp,#0]
        0x000030f8:    2110        .!      MOVS     r1,#0x10
        0x000030fa:    9b01        ..      LDR      r3,[sp,#4]
        0x000030fc:    404a        J@      EORS     r2,r2,r1
        0x000030fe:    431a        .C      ORRS     r2,r2,r3
        0x00003100:    d005        ..      BEQ      0x310e ; _printf_core + 762
        0x00003102:    e00e        ..      B        0x3122 ; _printf_core + 782
        0x00003104:    2140        @!      MOVS     r1,#0x40
        0x00003106:    466a        jF      MOV      r2,sp
        0x00003108:    7311        .s      STRB     r1,[r2,#0xc]
        0x0000310a:    2101        .!      MOVS     r1,#1
        0x0000310c:    e008        ..      B        0x3120 ; _printf_core + 780
        0x0000310e:    4661        aF      MOV      r1,r12
        0x00003110:    4301        .C      ORRS     r1,r1,r0
        0x00003112:    d006        ..      BEQ      0x3122 ; _printf_core + 782
        0x00003114:    2130        0!      MOVS     r1,#0x30
        0x00003116:    466a        jF      MOV      r2,sp
        0x00003118:    7311        .s      STRB     r1,[r2,#0xc]
        0x0000311a:    9911        ..      LDR      r1,[sp,#0x44]
        0x0000311c:    7351        Qs      STRB     r1,[r2,#0xd]
        0x0000311e:    2102        .!      MOVS     r1,#2
        0x00003120:    9102        ..      STR      r1,[sp,#8]
        0x00003122:    9a00        ..      LDR      r2,[sp,#0]
        0x00003124:    2108        .!      MOVS     r1,#8
        0x00003126:    9b01        ..      LDR      r3,[sp,#4]
        0x00003128:    404a        J@      EORS     r2,r2,r1
        0x0000312a:    431a        .C      ORRS     r2,r2,r3
        0x0000312c:    d10a        ..      BNE      0x3144 ; _printf_core + 816
        0x0000312e:    4661        aF      MOV      r1,r12
        0x00003130:    4301        .C      ORRS     r1,r1,r0
        0x00003132:    d101        ..      BNE      0x3138 ; _printf_core + 804
        0x00003134:    0761        a.      LSLS     r1,r4,#29
        0x00003136:    d505        ..      BPL      0x3144 ; _printf_core + 816
        0x00003138:    2130        0!      MOVS     r1,#0x30
        0x0000313a:    466a        jF      MOV      r2,sp
        0x0000313c:    7311        .s      STRB     r1,[r2,#0xc]
        0x0000313e:    2101        .!      MOVS     r1,#1
        0x00003140:    1e7f        ..      SUBS     r7,r7,#1
        0x00003142:    9102        ..      STR      r1,[sp,#8]
        0x00003144:    9911        ..      LDR      r1,[sp,#0x44]
        0x00003146:    2958        X)      CMP      r1,#0x58
        0x00003148:    d004        ..      BEQ      0x3154 ; _printf_core + 832
        0x0000314a:    a135        5.      ADR      r1,{pc}+0xd6 ; 0x3220
        0x0000314c:    910e        ..      STR      r1,[sp,#0x38]
        0x0000314e:    a90d        ..      ADD      r1,sp,#0x34
        0x00003150:    910d        ..      STR      r1,[sp,#0x34]
        0x00003152:    e00d        ..      B        0x3170 ; _printf_core + 860
        0x00003154:    a137        7.      ADR      r1,{pc}+0xe0 ; 0x3234
        0x00003156:    e7f9        ..      B        0x314c ; _printf_core + 824
        0x00003158:    4661        aF      MOV      r1,r12
        0x0000315a:    9b01        ..      LDR      r3,[sp,#4]
        0x0000315c:    9a00        ..      LDR      r2,[sp,#0]
        0x0000315e:    f7fdf8d1    ....    BL       __aeabi_uldivmod ; 0x304
        0x00003162:    9b0e        ..      LDR      r3,[sp,#0x38]
        0x00003164:    468c        .F      MOV      r12,r1
        0x00003166:    5c9b        .\      LDRB     r3,[r3,r2]
        0x00003168:    9a0d        ..      LDR      r2,[sp,#0x34]
        0x0000316a:    1e52        R.      SUBS     r2,r2,#1
        0x0000316c:    920d        ..      STR      r2,[sp,#0x34]
        0x0000316e:    7013        .p      STRB     r3,[r2,#0]
        0x00003170:    4661        aF      MOV      r1,r12
        0x00003172:    4301        .C      ORRS     r1,r1,r0
        0x00003174:    d1f0        ..      BNE      0x3158 ; _printf_core + 836
        0x00003176:    980d        ..      LDR      r0,[sp,#0x34]
        0x00003178:    a905        ..      ADD      r1,sp,#0x14
        0x0000317a:    1a08        ..      SUBS     r0,r1,r0
        0x0000317c:    3020         0      ADDS     r0,r0,#0x20
        0x0000317e:    9001        ..      STR      r0,[sp,#4]
        0x00003180:    0760        `.      LSLS     r0,r4,#29
        0x00003182:    d503        ..      BPL      0x318c ; _printf_core + 888
        0x00003184:    2001        .       MOVS     r0,#1
        0x00003186:    0400        ..      LSLS     r0,r0,#16
        0x00003188:    4384        .C      BICS     r4,r4,r0
        0x0000318a:    e000        ..      B        0x318e ; _printf_core + 890
        0x0000318c:    2701        .'      MOVS     r7,#1
        0x0000318e:    9801        ..      LDR      r0,[sp,#4]
        0x00003190:    4287        .B      CMP      r7,r0
        0x00003192:    dd01        ..      BLE      0x3198 ; _printf_core + 900
        0x00003194:    1a38        8.      SUBS     r0,r7,r0
        0x00003196:    e000        ..      B        0x319a ; _printf_core + 902
        0x00003198:    2000        .       MOVS     r0,#0
        0x0000319a:    9901        ..      LDR      r1,[sp,#4]
        0x0000319c:    9000        ..      STR      r0,[sp,#0]
        0x0000319e:    1841        A.      ADDS     r1,r0,r1
        0x000031a0:    9802        ..      LDR      r0,[sp,#8]
        0x000031a2:    1809        ..      ADDS     r1,r1,r0
        0x000031a4:    9804        ..      LDR      r0,[sp,#0x10]
        0x000031a6:    1a40        @.      SUBS     r0,r0,r1
        0x000031a8:    9004        ..      STR      r0,[sp,#0x10]
        0x000031aa:    03e0        ..      LSLS     r0,r4,#15
        0x000031ac:    d406        ..      BMI      0x31bc ; _printf_core + 936
        0x000031ae:    4621        !F      MOV      r1,r4
        0x000031b0:    9b1a        ..      LDR      r3,[sp,#0x68]
        0x000031b2:    9a19        ..      LDR      r2,[sp,#0x64]
        0x000031b4:    9804        ..      LDR      r0,[sp,#0x10]
        0x000031b6:    f000f9b3    ....    BL       _printf_pre_padding ; 0x3520
        0x000031ba:    1945        E.      ADDS     r5,r0,r5
        0x000031bc:    2700        .'      MOVS     r7,#0
        0x000031be:    e006        ..      B        0x31ce ; _printf_core + 954
        0x000031c0:    a803        ..      ADD      r0,sp,#0xc
        0x000031c2:    9a1a        ..      LDR      r2,[sp,#0x68]
        0x000031c4:    5dc0        .]      LDRB     r0,[r0,r7]
        0x000031c6:    9919        ..      LDR      r1,[sp,#0x64]
        0x000031c8:    4790        .G      BLX      r2
        0x000031ca:    1c6d        m.      ADDS     r5,r5,#1
        0x000031cc:    1c7f        ..      ADDS     r7,r7,#1
        0x000031ce:    9802        ..      LDR      r0,[sp,#8]
        0x000031d0:    4287        .B      CMP      r7,r0
        0x000031d2:    dbf5        ..      BLT      0x31c0 ; _printf_core + 940
        0x000031d4:    03e0        ..      LSLS     r0,r4,#15
        0x000031d6:    d50c        ..      BPL      0x31f2 ; _printf_core + 990
        0x000031d8:    4621        !F      MOV      r1,r4
        0x000031da:    9b1a        ..      LDR      r3,[sp,#0x68]
        0x000031dc:    9a19        ..      LDR      r2,[sp,#0x64]
        0x000031de:    9804        ..      LDR      r0,[sp,#0x10]
        0x000031e0:    f000f99e    ....    BL       _printf_pre_padding ; 0x3520
        0x000031e4:    1945        E.      ADDS     r5,r0,r5
        0x000031e6:    e004        ..      B        0x31f2 ; _printf_core + 990
        0x000031e8:    9a1a        ..      LDR      r2,[sp,#0x68]
        0x000031ea:    2030        0       MOVS     r0,#0x30
        0x000031ec:    9919        ..      LDR      r1,[sp,#0x64]
        0x000031ee:    4790        .G      BLX      r2
        0x000031f0:    1c6d        m.      ADDS     r5,r5,#1
        0x000031f2:    9900        ..      LDR      r1,[sp,#0]
        0x000031f4:    1e48        H.      SUBS     r0,r1,#1
        0x000031f6:    9000        ..      STR      r0,[sp,#0]
        0x000031f8:    2900        .)      CMP      r1,#0
        0x000031fa:    dcf5        ..      BGT      0x31e8 ; _printf_core + 980
        0x000031fc:    e008        ..      B        0x3210 ; _printf_core + 1020
        0x000031fe:    980d        ..      LDR      r0,[sp,#0x34]
        0x00003200:    990d        ..      LDR      r1,[sp,#0x34]
        0x00003202:    7800        .x      LDRB     r0,[r0,#0]
        0x00003204:    1c49        I.      ADDS     r1,r1,#1
        0x00003206:    910d        ..      STR      r1,[sp,#0x34]
        0x00003208:    9a1a        ..      LDR      r2,[sp,#0x68]
        0x0000320a:    9919        ..      LDR      r1,[sp,#0x64]
        0x0000320c:    4790        .G      BLX      r2
        0x0000320e:    1c6d        m.      ADDS     r5,r5,#1
        0x00003210:    9901        ..      LDR      r1,[sp,#4]
        0x00003212:    1e48        H.      SUBS     r0,r1,#1
        0x00003214:    9001        ..      STR      r0,[sp,#4]
        0x00003216:    2900        .)      CMP      r1,#0
        0x00003218:    dcf1        ..      BGT      0x31fe ; _printf_core + 1002
        0x0000321a:    e163        c.      B        0x34e4 ; _printf_core + 1744
    $d
        0x0000321c:    00012809    .(..    DCD    75785
        0x00003220:    33323130    0123    DCD    858927408
        0x00003224:    37363534    4567    DCD    926299444
        0x00003228:    62613938    89ab    DCD    1650538808
        0x0000322c:    66656463    cdef    DCD    1717920867
        0x00003230:    00000000    ....    DCD    0
        0x00003234:    33323130    0123    DCD    858927408
        0x00003238:    37363534    4567    DCD    926299444
        0x0000323c:    42413938    89AB    DCD    1111570744
        0x00003240:    46454443    CDEF    DCD    1178944579
        0x00003244:    00000000    ....    DCD    0
    $t
        0x00003248:    f000f95a    ..Z.    BL       _printf_post_padding ; 0x3500
        0x0000324c:    1945        E.      ADDS     r5,r0,r5
        0x0000324e:    1c76        v.      ADDS     r6,r6,#1
        0x00003250:    7830        0x      LDRB     r0,[r6,#0]
        0x00003252:    2800        .(      CMP      r0,#0
        0x00003254:    d000        ..      BEQ      0x3258 ; _printf_core + 1092
        0x00003256:    e5e2        ..      B        0x2e1e ; _printf_core + 10
        0x00003258:    4628        (F      MOV      r0,r5
        0x0000325a:    b01b        ..      ADD      sp,sp,#0x6c
        0x0000325c:    bdf0        ..      POP      {r4-r7,pc}
        0x0000325e:    0760        `.      LSLS     r0,r4,#29
        0x00003260:    d400        ..      BMI      0x3264 ; _printf_core + 1104
        0x00003262:    2706        .'      MOVS     r7,#6
        0x00003264:    9818        ..      LDR      r0,[sp,#0x60]
        0x00003266:    1dc0        ..      ADDS     r0,r0,#7
        0x00003268:    08c1        ..      LSRS     r1,r0,#3
        0x0000326a:    00c9        ..      LSLS     r1,r1,#3
        0x0000326c:    6848        Hh      LDR      r0,[r1,#4]
        0x0000326e:    680a        .h      LDR      r2,[r1,#0]
        0x00003270:    3108        .1      ADDS     r1,r1,#8
        0x00003272:    0fc3        ..      LSRS     r3,r0,#31
        0x00003274:    07db        ..      LSLS     r3,r3,#31
        0x00003276:    9118        ..      STR      r1,[sp,#0x60]
        0x00003278:    0019        ..      MOVS     r1,r3
        0x0000327a:    d001        ..      BEQ      0x3280 ; _printf_core + 1132
        0x0000327c:    a19c        ..      ADR      r1,{pc}+0x274 ; 0x34f0
        0x0000327e:    e008        ..      B        0x3292 ; _printf_core + 1150
        0x00003280:    0521        !.      LSLS     r1,r4,#20
        0x00003282:    d501        ..      BPL      0x3288 ; _printf_core + 1140
        0x00003284:    a19b        ..      ADR      r1,{pc}+0x270 ; 0x34f4
        0x00003286:    e004        ..      B        0x3292 ; _printf_core + 1150
        0x00003288:    07e1        ..      LSLS     r1,r4,#31
        0x0000328a:    d001        ..      BEQ      0x3290 ; _printf_core + 1148
        0x0000328c:    a19a        ..      ADR      r1,{pc}+0x26c ; 0x34f8
        0x0000328e:    e000        ..      B        0x3292 ; _printf_core + 1150
        0x00003290:    a19a        ..      ADR      r1,{pc}+0x26c ; 0x34fc
        0x00003292:    0043        C.      LSLS     r3,r0,#1
        0x00003294:    9811        ..      LDR      r0,[sp,#0x44]
        0x00003296:    085b        [.      LSRS     r3,r3,#1
        0x00003298:    9110        ..      STR      r1,[sp,#0x40]
        0x0000329a:    2865        e(      CMP      r0,#0x65
        0x0000329c:    d00c        ..      BEQ      0x32b8 ; _printf_core + 1188
        0x0000329e:    dc06        ..      BGT      0x32ae ; _printf_core + 1178
        0x000032a0:    2845        E(      CMP      r0,#0x45
        0x000032a2:    d009        ..      BEQ      0x32b8 ; _printf_core + 1188
        0x000032a4:    2846        F(      CMP      r0,#0x46
        0x000032a6:    d01d        ..      BEQ      0x32e4 ; _printf_core + 1232
        0x000032a8:    2847        G(      CMP      r0,#0x47
        0x000032aa:    d141        A.      BNE      0x3330 ; _printf_core + 1308
        0x000032ac:    e041        A.      B        0x3332 ; _printf_core + 1310
        0x000032ae:    2866        f(      CMP      r0,#0x66
        0x000032b0:    d018        ..      BEQ      0x32e4 ; _printf_core + 1232
        0x000032b2:    2867        g(      CMP      r0,#0x67
        0x000032b4:    d13c        <.      BNE      0x3330 ; _printf_core + 1308
        0x000032b6:    e03c        <.      B        0x3332 ; _printf_core + 1310
        0x000032b8:    2100        .!      MOVS     r1,#0
        0x000032ba:    2f11        ./      CMP      r7,#0x11
        0x000032bc:    db01        ..      BLT      0x32c2 ; _printf_core + 1198
        0x000032be:    2011        .       MOVS     r0,#0x11
        0x000032c0:    e000        ..      B        0x32c4 ; _printf_core + 1200
        0x000032c2:    1c78        x.      ADDS     r0,r7,#1
        0x000032c4:    9101        ..      STR      r1,[sp,#4]
        0x000032c6:    9000        ..      STR      r0,[sp,#0]
        0x000032c8:    a908        ..      ADD      r1,sp,#0x20
        0x000032ca:    a811        ..      ADD      r0,sp,#0x44
        0x000032cc:    f7fffcd2    ....    BL       _fp_digits ; 0x2c74
        0x000032d0:    9913        ..      LDR      r1,[sp,#0x4c]
        0x000032d2:    9105        ..      STR      r1,[sp,#0x14]
        0x000032d4:    2100        .!      MOVS     r1,#0
        0x000032d6:    9a11        ..      LDR      r2,[sp,#0x44]
        0x000032d8:    9215        ..      STR      r2,[sp,#0x54]
        0x000032da:    1c7f        ..      ADDS     r7,r7,#1
        0x000032dc:    9812        ..      LDR      r0,[sp,#0x48]
        0x000032de:    9701        ..      STR      r7,[sp,#4]
        0x000032e0:    9100        ..      STR      r1,[sp,#0]
        0x000032e2:    e050        P.      B        0x3386 ; _printf_core + 1394
        0x000032e4:    2001        .       MOVS     r0,#1
        0x000032e6:    07c0        ..      LSLS     r0,r0,#31
        0x000032e8:    9003        ..      STR      r0,[sp,#0xc]
        0x000032ea:    2001        .       MOVS     r0,#1
        0x000032ec:    9001        ..      STR      r0,[sp,#4]
        0x000032ee:    a908        ..      ADD      r1,sp,#0x20
        0x000032f0:    9700        ..      STR      r7,[sp,#0]
        0x000032f2:    a811        ..      ADD      r0,sp,#0x44
        0x000032f4:    f7fffcbe    ....    BL       _fp_digits ; 0x2c74
        0x000032f8:    9a13        ..      LDR      r2,[sp,#0x4c]
        0x000032fa:    9914        ..      LDR      r1,[sp,#0x50]
        0x000032fc:    9205        ..      STR      r2,[sp,#0x14]
        0x000032fe:    2200        ."      MOVS     r2,#0
        0x00003300:    9b11        ..      LDR      r3,[sp,#0x44]
        0x00003302:    9200        ..      STR      r2,[sp,#0]
        0x00003304:    9812        ..      LDR      r0,[sp,#0x48]
        0x00003306:    9315        ..      STR      r3,[sp,#0x54]
        0x00003308:    9a05        ..      LDR      r2,[sp,#0x14]
        0x0000330a:    9201        ..      STR      r2,[sp,#4]
        0x0000330c:    2900        .)      CMP      r1,#0
        0x0000330e:    d001        ..      BEQ      0x3314 ; _printf_core + 1280
        0x00003310:    4610        .F      MOV      r0,r2
        0x00003312:    e002        ..      B        0x331a ; _printf_core + 1286
        0x00003314:    1c79        y.      ADDS     r1,r7,#1
        0x00003316:    1840        @.      ADDS     r0,r0,r1
        0x00003318:    9001        ..      STR      r0,[sp,#4]
        0x0000331a:    1a38        8.      SUBS     r0,r7,r0
        0x0000331c:    d501        ..      BPL      0x3322 ; _printf_core + 1294
        0x0000331e:    9801        ..      LDR      r0,[sp,#4]
        0x00003320:    e004        ..      B        0x332c ; _printf_core + 1304
        0x00003322:    4240        @B      RSBS     r0,r0,#0
        0x00003324:    1e40        @.      SUBS     r0,r0,#1
        0x00003326:    9000        ..      STR      r0,[sp,#0]
        0x00003328:    1c78        x.      ADDS     r0,r7,#1
        0x0000332a:    9001        ..      STR      r0,[sp,#4]
        0x0000332c:    1bc0        ..      SUBS     r0,r0,r7
        0x0000332e:    9002        ..      STR      r0,[sp,#8]
        0x00003330:    e043        C.      B        0x33ba ; _printf_core + 1446
        0x00003332:    2f01        ./      CMP      r7,#1
        0x00003334:    da00        ..      BGE      0x3338 ; _printf_core + 1316
        0x00003336:    2701        .'      MOVS     r7,#1
        0x00003338:    2100        .!      MOVS     r1,#0
        0x0000333a:    2f11        ./      CMP      r7,#0x11
        0x0000333c:    dd01        ..      BLE      0x3342 ; _printf_core + 1326
        0x0000333e:    2011        .       MOVS     r0,#0x11
        0x00003340:    e000        ..      B        0x3344 ; _printf_core + 1328
        0x00003342:    4638        8F      MOV      r0,r7
        0x00003344:    9101        ..      STR      r1,[sp,#4]
        0x00003346:    9000        ..      STR      r0,[sp,#0]
        0x00003348:    a908        ..      ADD      r1,sp,#0x20
        0x0000334a:    a811        ..      ADD      r0,sp,#0x44
        0x0000334c:    f7fffc92    ....    BL       _fp_digits ; 0x2c74
        0x00003350:    9913        ..      LDR      r1,[sp,#0x4c]
        0x00003352:    9105        ..      STR      r1,[sp,#0x14]
        0x00003354:    9a11        ..      LDR      r2,[sp,#0x44]
        0x00003356:    2100        .!      MOVS     r1,#0
        0x00003358:    9812        ..      LDR      r0,[sp,#0x48]
        0x0000335a:    9215        ..      STR      r2,[sp,#0x54]
        0x0000335c:    9100        ..      STR      r1,[sp,#0]
        0x0000335e:    9701        ..      STR      r7,[sp,#4]
        0x00003360:    0721        !.      LSLS     r1,r4,#28
        0x00003362:    d40c        ..      BMI      0x337e ; _printf_core + 1386
        0x00003364:    9905        ..      LDR      r1,[sp,#0x14]
        0x00003366:    42b9        .B      CMP      r1,r7
        0x00003368:    db01        ..      BLT      0x336e ; _printf_core + 1370
        0x0000336a:    9901        ..      LDR      r1,[sp,#4]
        0x0000336c:    e000        ..      B        0x3370 ; _printf_core + 1372
        0x0000336e:    9101        ..      STR      r1,[sp,#4]
        0x00003370:    2901        .)      CMP      r1,#1
        0x00003372:    dd04        ..      BLE      0x337e ; _printf_core + 1386
        0x00003374:    9a15        ..      LDR      r2,[sp,#0x54]
        0x00003376:    1e49        I.      SUBS     r1,r1,#1
        0x00003378:    5c51        Q\      LDRB     r1,[r2,r1]
        0x0000337a:    2930        0)      CMP      r1,#0x30
        0x0000337c:    d006        ..      BEQ      0x338c ; _printf_core + 1400
        0x0000337e:    42b8        .B      CMP      r0,r7
        0x00003380:    da01        ..      BGE      0x3386 ; _printf_core + 1394
        0x00003382:    1d01        ..      ADDS     r1,r0,#4
        0x00003384:    da05        ..      BGE      0x3392 ; _printf_core + 1406
        0x00003386:    2101        .!      MOVS     r1,#1
        0x00003388:    9102        ..      STR      r1,[sp,#8]
        0x0000338a:    e015        ..      B        0x33b8 ; _printf_core + 1444
        0x0000338c:    9901        ..      LDR      r1,[sp,#4]
        0x0000338e:    1e49        I.      SUBS     r1,r1,#1
        0x00003390:    e7ed        ..      B        0x336e ; _printf_core + 1370
        0x00003392:    2800        .(      CMP      r0,#0
        0x00003394:    dc05        ..      BGT      0x33a2 ; _printf_core + 1422
        0x00003396:    9900        ..      LDR      r1,[sp,#0]
        0x00003398:    1841        A.      ADDS     r1,r0,r1
        0x0000339a:    9100        ..      STR      r1,[sp,#0]
        0x0000339c:    9901        ..      LDR      r1,[sp,#4]
        0x0000339e:    1a09        ..      SUBS     r1,r1,r0
        0x000033a0:    e003        ..      B        0x33aa ; _printf_core + 1430
        0x000033a2:    9a01        ..      LDR      r2,[sp,#4]
        0x000033a4:    1c41        A.      ADDS     r1,r0,#1
        0x000033a6:    4291        .B      CMP      r1,r2
        0x000033a8:    dd00        ..      BLE      0x33ac ; _printf_core + 1432
        0x000033aa:    9101        ..      STR      r1,[sp,#4]
        0x000033ac:    9900        ..      LDR      r1,[sp,#0]
        0x000033ae:    1a40        @.      SUBS     r0,r0,r1
        0x000033b0:    1c40        @.      ADDS     r0,r0,#1
        0x000033b2:    9002        ..      STR      r0,[sp,#8]
        0x000033b4:    2001        .       MOVS     r0,#1
        0x000033b6:    07c0        ..      LSLS     r0,r0,#31
        0x000033b8:    9003        ..      STR      r0,[sp,#0xc]
        0x000033ba:    0720         .      LSLS     r0,r4,#28
        0x000033bc:    d406        ..      BMI      0x33cc ; _printf_core + 1464
        0x000033be:    9902        ..      LDR      r1,[sp,#8]
        0x000033c0:    9801        ..      LDR      r0,[sp,#4]
        0x000033c2:    4281        .B      CMP      r1,r0
        0x000033c4:    db02        ..      BLT      0x33cc ; _printf_core + 1464
        0x000033c6:    2000        .       MOVS     r0,#0
        0x000033c8:    43c0        .C      MVNS     r0,r0
        0x000033ca:    9002        ..      STR      r0,[sp,#8]
        0x000033cc:    2000        .       MOVS     r0,#0
        0x000033ce:    4669        iF      MOV      r1,sp
        0x000033d0:    77c8        .w      STRB     r0,[r1,#0x1f]
        0x000033d2:    af07        ..      ADD      r7,sp,#0x1c
        0x000033d4:    2101        .!      MOVS     r1,#1
        0x000033d6:    9803        ..      LDR      r0,[sp,#0xc]
        0x000033d8:    3703        .7      ADDS     r7,#3
        0x000033da:    07c9        ..      LSLS     r1,r1,#31
        0x000033dc:    4288        .B      CMP      r0,r1
        0x000033de:    d024        $.      BEQ      0x342a ; _printf_core + 1558
        0x000033e0:    2002        .       MOVS     r0,#2
        0x000033e2:    9011        ..      STR      r0,[sp,#0x44]
        0x000033e4:    202b        +       MOVS     r0,#0x2b
        0x000033e6:    9012        ..      STR      r0,[sp,#0x48]
        0x000033e8:    9803        ..      LDR      r0,[sp,#0xc]
        0x000033ea:    2800        .(      CMP      r0,#0
        0x000033ec:    da0c        ..      BGE      0x3408 ; _printf_core + 1524
        0x000033ee:    4240        @B      RSBS     r0,r0,#0
        0x000033f0:    9003        ..      STR      r0,[sp,#0xc]
        0x000033f2:    202d        -       MOVS     r0,#0x2d
        0x000033f4:    9012        ..      STR      r0,[sp,#0x48]
        0x000033f6:    e007        ..      B        0x3408 ; _printf_core + 1524
        0x000033f8:    210a        .!      MOVS     r1,#0xa
        0x000033fa:    9803        ..      LDR      r0,[sp,#0xc]
        0x000033fc:    f7fcff58    ..X.    BL       __aeabi_uidiv ; 0x2b0
        0x00003400:    3130        01      ADDS     r1,r1,#0x30
        0x00003402:    1e7f        ..      SUBS     r7,r7,#1
        0x00003404:    9003        ..      STR      r0,[sp,#0xc]
        0x00003406:    7039        9p      STRB     r1,[r7,#0]
        0x00003408:    9911        ..      LDR      r1,[sp,#0x44]
        0x0000340a:    1e48        H.      SUBS     r0,r1,#1
        0x0000340c:    9011        ..      STR      r0,[sp,#0x44]
        0x0000340e:    2900        .)      CMP      r1,#0
        0x00003410:    dcf2        ..      BGT      0x33f8 ; _printf_core + 1508
        0x00003412:    9803        ..      LDR      r0,[sp,#0xc]
        0x00003414:    2800        .(      CMP      r0,#0
        0x00003416:    d1ef        ..      BNE      0x33f8 ; _printf_core + 1508
        0x00003418:    1e79        y.      SUBS     r1,r7,#1
        0x0000341a:    9812        ..      LDR      r0,[sp,#0x48]
        0x0000341c:    7008        .p      STRB     r0,[r1,#0]
        0x0000341e:    7830        0x      LDRB     r0,[r6,#0]
        0x00003420:    2120         !      MOVS     r1,#0x20
        0x00003422:    4008        .@      ANDS     r0,r0,r1
        0x00003424:    3045        E0      ADDS     r0,r0,#0x45
        0x00003426:    1ebf        ..      SUBS     r7,r7,#2
        0x00003428:    7038        8p      STRB     r0,[r7,#0]
        0x0000342a:    a806        ..      ADD      r0,sp,#0x18
        0x0000342c:    1bc0        ..      SUBS     r0,r0,r7
        0x0000342e:    1dc0        ..      ADDS     r0,r0,#7
        0x00003430:    9003        ..      STR      r0,[sp,#0xc]
        0x00003432:    9810        ..      LDR      r0,[sp,#0x40]
        0x00003434:    7800        .x      LDRB     r0,[r0,#0]
        0x00003436:    2800        .(      CMP      r0,#0
        0x00003438:    d000        ..      BEQ      0x343c ; _printf_core + 1576
        0x0000343a:    2001        .       MOVS     r0,#1
        0x0000343c:    9901        ..      LDR      r1,[sp,#4]
        0x0000343e:    1841        A.      ADDS     r1,r0,r1
        0x00003440:    9802        ..      LDR      r0,[sp,#8]
        0x00003442:    17c0        ..      ASRS     r0,r0,#31
        0x00003444:    1809        ..      ADDS     r1,r1,r0
        0x00003446:    9803        ..      LDR      r0,[sp,#0xc]
        0x00003448:    1809        ..      ADDS     r1,r1,r0
        0x0000344a:    9804        ..      LDR      r0,[sp,#0x10]
        0x0000344c:    1a40        @.      SUBS     r0,r0,r1
        0x0000344e:    1e40        @.      SUBS     r0,r0,#1
        0x00003450:    9004        ..      STR      r0,[sp,#0x10]
        0x00003452:    03e0        ..      LSLS     r0,r4,#15
        0x00003454:    d406        ..      BMI      0x3464 ; _printf_core + 1616
        0x00003456:    4621        !F      MOV      r1,r4
        0x00003458:    9b1a        ..      LDR      r3,[sp,#0x68]
        0x0000345a:    9a19        ..      LDR      r2,[sp,#0x64]
        0x0000345c:    9804        ..      LDR      r0,[sp,#0x10]
        0x0000345e:    f000f85f    .._.    BL       _printf_pre_padding ; 0x3520
        0x00003462:    1945        E.      ADDS     r5,r0,r5
        0x00003464:    9810        ..      LDR      r0,[sp,#0x40]
        0x00003466:    7800        .x      LDRB     r0,[r0,#0]
        0x00003468:    2800        .(      CMP      r0,#0
        0x0000346a:    d003        ..      BEQ      0x3474 ; _printf_core + 1632
        0x0000346c:    9a1a        ..      LDR      r2,[sp,#0x68]
        0x0000346e:    9919        ..      LDR      r1,[sp,#0x64]
        0x00003470:    4790        .G      BLX      r2
        0x00003472:    1c6d        m.      ADDS     r5,r5,#1
        0x00003474:    03e0        ..      LSLS     r0,r4,#15
        0x00003476:    d524        $.      BPL      0x34c2 ; _printf_core + 1710
        0x00003478:    4621        !F      MOV      r1,r4
        0x0000347a:    9b1a        ..      LDR      r3,[sp,#0x68]
        0x0000347c:    9a19        ..      LDR      r2,[sp,#0x64]
        0x0000347e:    9804        ..      LDR      r0,[sp,#0x10]
        0x00003480:    f000f84e    ..N.    BL       _printf_pre_padding ; 0x3520
        0x00003484:    1945        E.      ADDS     r5,r0,r5
        0x00003486:    e01c        ..      B        0x34c2 ; _printf_core + 1710
        0x00003488:    9800        ..      LDR      r0,[sp,#0]
        0x0000348a:    2800        .(      CMP      r0,#0
        0x0000348c:    db07        ..      BLT      0x349e ; _printf_core + 1674
        0x0000348e:    9900        ..      LDR      r1,[sp,#0]
        0x00003490:    9805        ..      LDR      r0,[sp,#0x14]
        0x00003492:    4288        .B      CMP      r0,r1
        0x00003494:    dd03        ..      BLE      0x349e ; _printf_core + 1674
        0x00003496:    9815        ..      LDR      r0,[sp,#0x54]
        0x00003498:    5c40        @\      LDRB     r0,[r0,r1]
        0x0000349a:    9919        ..      LDR      r1,[sp,#0x64]
        0x0000349c:    e001        ..      B        0x34a2 ; _printf_core + 1678
        0x0000349e:    9919        ..      LDR      r1,[sp,#0x64]
        0x000034a0:    2030        0       MOVS     r0,#0x30
        0x000034a2:    9a1a        ..      LDR      r2,[sp,#0x68]
        0x000034a4:    4790        .G      BLX      r2
        0x000034a6:    9800        ..      LDR      r0,[sp,#0]
        0x000034a8:    1c6d        m.      ADDS     r5,r5,#1
        0x000034aa:    1c40        @.      ADDS     r0,r0,#1
        0x000034ac:    9000        ..      STR      r0,[sp,#0]
        0x000034ae:    9802        ..      LDR      r0,[sp,#8]
        0x000034b0:    1e40        @.      SUBS     r0,r0,#1
        0x000034b2:    9002        ..      STR      r0,[sp,#8]
        0x000034b4:    2800        .(      CMP      r0,#0
        0x000034b6:    d104        ..      BNE      0x34c2 ; _printf_core + 1710
        0x000034b8:    9a1a        ..      LDR      r2,[sp,#0x68]
        0x000034ba:    202e        .       MOVS     r0,#0x2e
        0x000034bc:    9919        ..      LDR      r1,[sp,#0x64]
        0x000034be:    4790        .G      BLX      r2
        0x000034c0:    1c6d        m.      ADDS     r5,r5,#1
        0x000034c2:    9901        ..      LDR      r1,[sp,#4]
        0x000034c4:    1e48        H.      SUBS     r0,r1,#1
        0x000034c6:    9001        ..      STR      r0,[sp,#4]
        0x000034c8:    2900        .)      CMP      r1,#0
        0x000034ca:    dcdd        ..      BGT      0x3488 ; _printf_core + 1652
        0x000034cc:    e005        ..      B        0x34da ; _printf_core + 1734
        0x000034ce:    7838        8x      LDRB     r0,[r7,#0]
        0x000034d0:    9a1a        ..      LDR      r2,[sp,#0x68]
        0x000034d2:    1c7f        ..      ADDS     r7,r7,#1
        0x000034d4:    9919        ..      LDR      r1,[sp,#0x64]
        0x000034d6:    4790        .G      BLX      r2
        0x000034d8:    1c6d        m.      ADDS     r5,r5,#1
        0x000034da:    9903        ..      LDR      r1,[sp,#0xc]
        0x000034dc:    1e48        H.      SUBS     r0,r1,#1
        0x000034de:    9003        ..      STR      r0,[sp,#0xc]
        0x000034e0:    2900        .)      CMP      r1,#0
        0x000034e2:    dcf4        ..      BGT      0x34ce ; _printf_core + 1722
        0x000034e4:    4621        !F      MOV      r1,r4
        0x000034e6:    9b1a        ..      LDR      r3,[sp,#0x68]
        0x000034e8:    9a19        ..      LDR      r2,[sp,#0x64]
        0x000034ea:    9804        ..      LDR      r0,[sp,#0x10]
        0x000034ec:    e6ac        ..      B        0x3248 ; _printf_core + 1076
    $d
        0x000034ee:    0000        ..      DCW    0
        0x000034f0:    0000002d    -...    DCD    45
        0x000034f4:    0000002b    +...    DCD    43
        0x000034f8:    00000020     ...    DCD    32
        0x000034fc:    00000000    ....    DCD    0
    $t
    i._printf_post_padding
    _printf_post_padding
        0x00003500:    b5f8        ..      PUSH     {r3-r7,lr}
        0x00003502:    4604        .F      MOV      r4,r0
        0x00003504:    2500        .%      MOVS     r5,#0
        0x00003506:    461e        .F      MOV      r6,r3
        0x00003508:    4617        .F      MOV      r7,r2
        0x0000350a:    0488        ..      LSLS     r0,r1,#18
        0x0000350c:    d404        ..      BMI      0x3518 ; _printf_post_padding + 24
        0x0000350e:    e005        ..      B        0x351c ; _printf_post_padding + 28
        0x00003510:    4639        9F      MOV      r1,r7
        0x00003512:    2020                MOVS     r0,#0x20
        0x00003514:    47b0        .G      BLX      r6
        0x00003516:    1c6d        m.      ADDS     r5,r5,#1
        0x00003518:    1e64        d.      SUBS     r4,r4,#1
        0x0000351a:    d5f9        ..      BPL      0x3510 ; _printf_post_padding + 16
        0x0000351c:    4628        (F      MOV      r0,r5
        0x0000351e:    bdf8        ..      POP      {r3-r7,pc}
    i._printf_pre_padding
    _printf_pre_padding
        0x00003520:    b5ff        ..      PUSH     {r0-r7,lr}
        0x00003522:    4604        .F      MOV      r4,r0
        0x00003524:    2500        .%      MOVS     r5,#0
        0x00003526:    b081        ..      SUB      sp,sp,#4
        0x00003528:    461e        .F      MOV      r6,r3
        0x0000352a:    03c8        ..      LSLS     r0,r1,#15
        0x0000352c:    d501        ..      BPL      0x3532 ; _printf_pre_padding + 18
        0x0000352e:    2730        0'      MOVS     r7,#0x30
        0x00003530:    e000        ..      B        0x3534 ; _printf_pre_padding + 20
        0x00003532:    2720         '      MOVS     r7,#0x20
        0x00003534:    0488        ..      LSLS     r0,r1,#18
        0x00003536:    d504        ..      BPL      0x3542 ; _printf_pre_padding + 34
        0x00003538:    e005        ..      B        0x3546 ; _printf_pre_padding + 38
        0x0000353a:    4638        8F      MOV      r0,r7
        0x0000353c:    9903        ..      LDR      r1,[sp,#0xc]
        0x0000353e:    47b0        .G      BLX      r6
        0x00003540:    1c6d        m.      ADDS     r5,r5,#1
        0x00003542:    1e64        d.      SUBS     r4,r4,#1
        0x00003544:    d5f9        ..      BPL      0x353a ; _printf_pre_padding + 26
        0x00003546:    4628        (F      MOV      r0,r5
        0x00003548:    b005        ..      ADD      sp,sp,#0x14
        0x0000354a:    bdf0        ..      POP      {r4-r7,pc}
    i._sputc
    _sputc
        0x0000354c:    680a        .h      LDR      r2,[r1,#0]
        0x0000354e:    1c53        S.      ADDS     r3,r2,#1
        0x00003550:    600b        .`      STR      r3,[r1,#0]
        0x00003552:    7010        .p      STRB     r0,[r2,#0]
        0x00003554:    4770        pG      BX       lr
        0x00003556:    0000        ..      MOVS     r0,r0
    i.batteryind
    batteryind
        0x00003558:    b570        p.      PUSH     {r4-r6,lr}
        0x0000355a:    4849        IH      LDR      r0,[pc,#292] ; [0x3680] = 0x200000c4
        0x0000355c:    7800        .x      LDRB     r0,[r0,#0]
        0x0000355e:    1c40        @.      ADDS     r0,r0,#1
        0x00003560:    b240        @.      SXTB     r0,r0
        0x00003562:    4947        GI      LDR      r1,[pc,#284] ; [0x3680] = 0x200000c4
        0x00003564:    7008        .p      STRB     r0,[r1,#0]
        0x00003566:    4608        .F      MOV      r0,r1
        0x00003568:    7800        .x      LDRB     r0,[r0,#0]
        0x0000356a:    2801        .(      CMP      r0,#1
        0x0000356c:    d106        ..      BNE      0x357c ; batteryind + 36
        0x0000356e:    2000        .       MOVS     r0,#0
        0x00003570:    4944        DI      LDR      r1,[pc,#272] ; [0x3684] = 0x50004200
        0x00003572:    60c8        .`      STR      r0,[r1,#0xc]
        0x00003574:    6108        .a      STR      r0,[r1,#0x10]
        0x00003576:    6148        Ha      STR      r0,[r1,#0x14]
        0x00003578:    6188        .a      STR      r0,[r1,#0x18]
        0x0000357a:    e07f        ..      B        0x367c ; batteryind + 292
        0x0000357c:    4842        BH      LDR      r0,[pc,#264] ; [0x3688] = 0x20000034
        0x0000357e:    6800        .h      LDR      r0,[r0,#0]
        0x00003580:    f7fdf81d    ....    BL       __aeabi_f2d ; 0x5be
        0x00003584:    4604        .F      MOV      r4,r0
        0x00003586:    4a41        AJ      LDR      r2,[pc,#260] ; [0x368c] = 0x66666666
        0x00003588:    4b41        AK      LDR      r3,[pc,#260] ; [0x3690] = 0x40126666
        0x0000358a:    f7fdf841    ..A.    BL       __aeabi_cdrcmple ; 0x610
        0x0000358e:    d209        ..      BCS      0x35a4 ; batteryind + 76
        0x00003590:    483c        <H      LDR      r0,[pc,#240] ; [0x3684] = 0x50004200
        0x00003592:    6980        .i      LDR      r0,[r0,#0x18]
        0x00003594:    2101        .!      MOVS     r1,#1
        0x00003596:    4048        H@      EORS     r0,r0,r1
        0x00003598:    493a        :I      LDR      r1,[pc,#232] ; [0x3684] = 0x50004200
        0x0000359a:    6188        .a      STR      r0,[r1,#0x18]
        0x0000359c:    6148        Ha      STR      r0,[r1,#0x14]
        0x0000359e:    6108        .a      STR      r0,[r1,#0x10]
        0x000035a0:    60c8        .`      STR      r0,[r1,#0xc]
        0x000035a2:    e068        h.      B        0x3676 ; batteryind + 286
        0x000035a4:    4838        8H      LDR      r0,[pc,#224] ; [0x3688] = 0x20000034
        0x000035a6:    6800        .h      LDR      r0,[r0,#0]
        0x000035a8:    f7fdf809    ....    BL       __aeabi_f2d ; 0x5be
        0x000035ac:    4604        .F      MOV      r4,r0
        0x000035ae:    2200        ."      MOVS     r2,#0
        0x000035b0:    4b38        8K      LDR      r3,[pc,#224] ; [0x3694] = 0x400a0000
        0x000035b2:    f7fdf819    ....    BL       __aeabi_cdcmpeq ; 0x5e8
        0x000035b6:    d209        ..      BCS      0x35cc ; batteryind + 116
        0x000035b8:    4832        2H      LDR      r0,[pc,#200] ; [0x3684] = 0x50004200
        0x000035ba:    68c0        .h      LDR      r0,[r0,#0xc]
        0x000035bc:    2101        .!      MOVS     r1,#1
        0x000035be:    4048        H@      EORS     r0,r0,r1
        0x000035c0:    4930        0I      LDR      r1,[pc,#192] ; [0x3684] = 0x50004200
        0x000035c2:    60c8        .`      STR      r0,[r1,#0xc]
        0x000035c4:    2000        .       MOVS     r0,#0
        0x000035c6:    4934        4I      LDR      r1,[pc,#208] ; [0x3698] = 0x2000003c
        0x000035c8:    7008        .p      STRB     r0,[r1,#0]
        0x000035ca:    e054        T.      B        0x3676 ; batteryind + 286
        0x000035cc:    482e        .H      LDR      r0,[pc,#184] ; [0x3688] = 0x20000034
        0x000035ce:    6800        .h      LDR      r0,[r0,#0]
        0x000035d0:    f7fcfff5    ....    BL       __aeabi_f2d ; 0x5be
        0x000035d4:    4604        .F      MOV      r4,r0
        0x000035d6:    2200        ."      MOVS     r2,#0
        0x000035d8:    4b30        0K      LDR      r3,[pc,#192] ; [0x369c] = 0x400c0000
        0x000035da:    f7fdf805    ....    BL       __aeabi_cdcmpeq ; 0x5e8
        0x000035de:    d20f        ..      BCS      0x3600 ; batteryind + 168
        0x000035e0:    4828        (H      LDR      r0,[pc,#160] ; [0x3684] = 0x50004200
        0x000035e2:    68c0        .h      LDR      r0,[r0,#0xc]
        0x000035e4:    2101        .!      MOVS     r1,#1
        0x000035e6:    4048        H@      EORS     r0,r0,r1
        0x000035e8:    4926        &I      LDR      r1,[pc,#152] ; [0x3684] = 0x50004200
        0x000035ea:    60c8        .`      STR      r0,[r1,#0xc]
        0x000035ec:    4608        .F      MOV      r0,r1
        0x000035ee:    6900        .i      LDR      r0,[r0,#0x10]
        0x000035f0:    2101        .!      MOVS     r1,#1
        0x000035f2:    4048        H@      EORS     r0,r0,r1
        0x000035f4:    4923        #I      LDR      r1,[pc,#140] ; [0x3684] = 0x50004200
        0x000035f6:    6108        .a      STR      r0,[r1,#0x10]
        0x000035f8:    2000        .       MOVS     r0,#0
        0x000035fa:    4927        'I      LDR      r1,[pc,#156] ; [0x3698] = 0x2000003c
        0x000035fc:    7008        .p      STRB     r0,[r1,#0]
        0x000035fe:    e03a        :.      B        0x3676 ; batteryind + 286
        0x00003600:    4821        !H      LDR      r0,[pc,#132] ; [0x3688] = 0x20000034
        0x00003602:    6800        .h      LDR      r0,[r0,#0]
        0x00003604:    f7fcffdb    ....    BL       __aeabi_f2d ; 0x5be
        0x00003608:    4604        .F      MOV      r4,r0
        0x0000360a:    2200        ."      MOVS     r2,#0
        0x0000360c:    4b24        $K      LDR      r3,[pc,#144] ; [0x36a0] = 0x400e0000
        0x0000360e:    f7fcffeb    ....    BL       __aeabi_cdcmpeq ; 0x5e8
        0x00003612:    d215        ..      BCS      0x3640 ; batteryind + 232
        0x00003614:    481b        .H      LDR      r0,[pc,#108] ; [0x3684] = 0x50004200
        0x00003616:    68c0        .h      LDR      r0,[r0,#0xc]
        0x00003618:    2101        .!      MOVS     r1,#1
        0x0000361a:    4048        H@      EORS     r0,r0,r1
        0x0000361c:    4919        .I      LDR      r1,[pc,#100] ; [0x3684] = 0x50004200
        0x0000361e:    60c8        .`      STR      r0,[r1,#0xc]
        0x00003620:    4608        .F      MOV      r0,r1
        0x00003622:    6900        .i      LDR      r0,[r0,#0x10]
        0x00003624:    2101        .!      MOVS     r1,#1
        0x00003626:    4048        H@      EORS     r0,r0,r1
        0x00003628:    4916        .I      LDR      r1,[pc,#88] ; [0x3684] = 0x50004200
        0x0000362a:    6108        .a      STR      r0,[r1,#0x10]
        0x0000362c:    4608        .F      MOV      r0,r1
        0x0000362e:    6940        @i      LDR      r0,[r0,#0x14]
        0x00003630:    2101        .!      MOVS     r1,#1
        0x00003632:    4048        H@      EORS     r0,r0,r1
        0x00003634:    4913        .I      LDR      r1,[pc,#76] ; [0x3684] = 0x50004200
        0x00003636:    6148        Ha      STR      r0,[r1,#0x14]
        0x00003638:    2000        .       MOVS     r0,#0
        0x0000363a:    4917        .I      LDR      r1,[pc,#92] ; [0x3698] = 0x2000003c
        0x0000363c:    7008        .p      STRB     r0,[r1,#0]
        0x0000363e:    e01a        ..      B        0x3676 ; batteryind + 286
        0x00003640:    4810        .H      LDR      r0,[pc,#64] ; [0x3684] = 0x50004200
        0x00003642:    68c0        .h      LDR      r0,[r0,#0xc]
        0x00003644:    2101        .!      MOVS     r1,#1
        0x00003646:    4048        H@      EORS     r0,r0,r1
        0x00003648:    490e        .I      LDR      r1,[pc,#56] ; [0x3684] = 0x50004200
        0x0000364a:    60c8        .`      STR      r0,[r1,#0xc]
        0x0000364c:    4608        .F      MOV      r0,r1
        0x0000364e:    6900        .i      LDR      r0,[r0,#0x10]
        0x00003650:    2101        .!      MOVS     r1,#1
        0x00003652:    4048        H@      EORS     r0,r0,r1
        0x00003654:    490b        .I      LDR      r1,[pc,#44] ; [0x3684] = 0x50004200
        0x00003656:    6108        .a      STR      r0,[r1,#0x10]
        0x00003658:    4608        .F      MOV      r0,r1
        0x0000365a:    6940        @i      LDR      r0,[r0,#0x14]
        0x0000365c:    2101        .!      MOVS     r1,#1
        0x0000365e:    4048        H@      EORS     r0,r0,r1
        0x00003660:    4908        .I      LDR      r1,[pc,#32] ; [0x3684] = 0x50004200
        0x00003662:    6148        Ha      STR      r0,[r1,#0x14]
        0x00003664:    4608        .F      MOV      r0,r1
        0x00003666:    6980        .i      LDR      r0,[r0,#0x18]
        0x00003668:    2101        .!      MOVS     r1,#1
        0x0000366a:    4048        H@      EORS     r0,r0,r1
        0x0000366c:    4905        .I      LDR      r1,[pc,#20] ; [0x3684] = 0x50004200
        0x0000366e:    6188        .a      STR      r0,[r1,#0x18]
        0x00003670:    2000        .       MOVS     r0,#0
        0x00003672:    4909        .I      LDR      r1,[pc,#36] ; [0x3698] = 0x2000003c
        0x00003674:    7008        .p      STRB     r0,[r1,#0]
        0x00003676:    2000        .       MOVS     r0,#0
        0x00003678:    4901        .I      LDR      r1,[pc,#4] ; [0x3680] = 0x200000c4
        0x0000367a:    7008        .p      STRB     r0,[r1,#0]
        0x0000367c:    bd70        p.      POP      {r4-r6,pc}
    $d
        0x0000367e:    0000        ..      DCW    0
        0x00003680:    200000c4    ...     DCD    536871108
        0x00003684:    50004200    .B.P    DCD    1342194176
        0x00003688:    20000034    4..     DCD    536870964
        0x0000368c:    66666666    ffff    DCD    1717986918
        0x00003690:    40126666    ff.@    DCD    1074947686
        0x00003694:    400a0000    ...@    DCD    1074397184
        0x00003698:    2000003c    <..     DCD    536870972
        0x0000369c:    400c0000    ...@    DCD    1074528256
        0x000036a0:    400e0000    ...@    DCD    1074659328
    $t
    i.checkallnumsinstring
    checkallnumsinstring
        0x000036a4:    b5f8        ..      PUSH     {r3-r7,lr}
        0x000036a6:    4605        .F      MOV      r5,r0
        0x000036a8:    2700        .'      MOVS     r7,#0
        0x000036aa:    4628        (F      MOV      r0,r5
        0x000036ac:    f7fcfe8c    ....    BL       strlen ; 0x3c8
        0x000036b0:    4607        .F      MOV      r7,r0
        0x000036b2:    2400        .$      MOVS     r4,#0
        0x000036b4:    e00a        ..      B        0x36cc ; checkallnumsinstring + 40
        0x000036b6:    5d28        (]      LDRB     r0,[r5,r4]
        0x000036b8:    282f        /(      CMP      r0,#0x2f
        0x000036ba:    dd04        ..      BLE      0x36c6 ; checkallnumsinstring + 34
        0x000036bc:    5d28        (]      LDRB     r0,[r5,r4]
        0x000036be:    283a        :(      CMP      r0,#0x3a
        0x000036c0:    da01        ..      BGE      0x36c6 ; checkallnumsinstring + 34
        0x000036c2:    2600        .&      MOVS     r6,#0
        0x000036c4:    e001        ..      B        0x36ca ; checkallnumsinstring + 38
        0x000036c6:    2601        .&      MOVS     r6,#1
        0x000036c8:    e002        ..      B        0x36d0 ; checkallnumsinstring + 44
        0x000036ca:    1c64        d.      ADDS     r4,r4,#1
        0x000036cc:    42bc        .B      CMP      r4,r7
        0x000036ce:    dbf2        ..      BLT      0x36b6 ; checkallnumsinstring + 18
        0x000036d0:    bf00        ..      NOP      
        0x000036d2:    b270        p.      SXTB     r0,r6
        0x000036d4:    bdf8        ..      POP      {r3-r7,pc}
        0x000036d6:    0000        ..      MOVS     r0,r0
    i.clear
    clear
        0x000036d8:    e002        ..      B        0x36e0 ; clear + 8
        0x000036da:    4905        .I      LDR      r1,[pc,#20] ; [0x36f0] = 0x40150000
        0x000036dc:    6809        .h      LDR      r1,[r1,#0]
        0x000036de:    b2c8        ..      UXTB     r0,r1
        0x000036e0:    4903        .I      LDR      r1,[pc,#12] ; [0x36f0] = 0x40150000
        0x000036e2:    6989        .i      LDR      r1,[r1,#0x18]
        0x000036e4:    2201        ."      MOVS     r2,#1
        0x000036e6:    0392        ..      LSLS     r2,r2,#14
        0x000036e8:    4011        .@      ANDS     r1,r1,r2
        0x000036ea:    2900        .)      CMP      r1,#0
        0x000036ec:    d0f5        ..      BEQ      0x36da ; clear + 2
        0x000036ee:    4770        pG      BX       lr
    $d
        0x000036f0:    40150000    ...@    DCD    1075118080
    $t
    i.cpinquerry
    cpinquerry
        0x000036f4:    b510        ..      PUSH     {r4,lr}
        0x000036f6:    2000        .       MOVS     r0,#0
        0x000036f8:    492e        .I      LDR      r1,[pc,#184] ; [0x37b4] = 0x50004240
        0x000036fa:    6088        .`      STR      r0,[r1,#8]
        0x000036fc:    2064        d       MOVS     r0,#0x64
        0x000036fe:    f000fbf1    ....    BL       osDelay ; 0x3ee4
        0x00003702:    2100        .!      MOVS     r1,#0
        0x00003704:    43c9        .C      MVNS     r1,r1
        0x00003706:    482c        ,H      LDR      r0,[pc,#176] ; [0x37b8] = 0x20000000
        0x00003708:    6800        .h      LDR      r0,[r0,#0]
        0x0000370a:    f000fc79    ..y.    BL       osMutexWait ; 0x4000
        0x0000370e:    2000        .       MOVS     r0,#0
        0x00003710:    492a        *I      LDR      r1,[pc,#168] ; [0x37bc] = 0x20000030
        0x00003712:    6008        .`      STR      r0,[r1,#0]
        0x00003714:    2405        .$      MOVS     r4,#5
        0x00003716:    492a        *I      LDR      r1,[pc,#168] ; [0x37c0] = 0x20000054
        0x00003718:    6008        .`      STR      r0,[r1,#0]
        0x0000371a:    492a        *I      LDR      r1,[pc,#168] ; [0x37c4] = 0x20000058
        0x0000371c:    6008        .`      STR      r0,[r1,#0]
        0x0000371e:    492a        *I      LDR      r1,[pc,#168] ; [0x37c8] = 0x2000005c
        0x00003720:    6008        .`      STR      r0,[r1,#0]
        0x00003722:    492a        *I      LDR      r1,[pc,#168] ; [0x37cc] = 0x20000028
        0x00003724:    6008        .`      STR      r0,[r1,#0]
        0x00003726:    21af        .!      MOVS     r1,#0xaf
        0x00003728:    0089        ..      LSLS     r1,r1,#2
        0x0000372a:    4829        )H      LDR      r0,[pc,#164] ; [0x37d0] = 0x20000f2c
        0x0000372c:    f7fcfe21    ..!.    BL       __aeabi_memclr ; 0x372
        0x00003730:    211a        .!      MOVS     r1,#0x1a
        0x00003732:    a028        (.      ADR      r0,{pc}+0xa2 ; 0x37d4
        0x00003734:    f7fffa2a    ..*.    BL       __0printf ; 0x2b8c
        0x00003738:    f7ffffce    ....    BL       clear ; 0x36d8
        0x0000373c:    a026        &.      ADR      r0,{pc}+0x9c ; 0x37d8
        0x0000373e:    f7fffa25    ..%.    BL       __0printf ; 0x2b8c
        0x00003742:    bf00        ..      NOP      
        0x00003744:    a128        (.      ADR      r1,{pc}+0xa4 ; 0x37e8
        0x00003746:    4822        "H      LDR      r0,[pc,#136] ; [0x37d0] = 0x20000f2c
        0x00003748:    f7fcfe2a    ..*.    BL       strstr ; 0x3a0
        0x0000374c:    491c        .I      LDR      r1,[pc,#112] ; [0x37c0] = 0x20000054
        0x0000374e:    6008        .`      STR      r0,[r1,#0]
        0x00003750:    a128        (.      ADR      r1,{pc}+0xa4 ; 0x37f4
        0x00003752:    481f        .H      LDR      r0,[pc,#124] ; [0x37d0] = 0x20000f2c
        0x00003754:    f7fcfe24    ..$.    BL       strstr ; 0x3a0
        0x00003758:    491a        .I      LDR      r1,[pc,#104] ; [0x37c4] = 0x20000058
        0x0000375a:    6008        .`      STR      r0,[r1,#0]
        0x0000375c:    a126        &.      ADR      r1,{pc}+0x9c ; 0x37f8
        0x0000375e:    481c        .H      LDR      r0,[pc,#112] ; [0x37d0] = 0x20000f2c
        0x00003760:    f7fcfe1e    ....    BL       strstr ; 0x3a0
        0x00003764:    4918        .I      LDR      r1,[pc,#96] ; [0x37c8] = 0x2000005c
        0x00003766:    6008        .`      STR      r0,[r1,#0]
        0x00003768:    4815        .H      LDR      r0,[pc,#84] ; [0x37c0] = 0x20000054
        0x0000376a:    6800        .h      LDR      r0,[r0,#0]
        0x0000376c:    2800        .(      CMP      r0,#0
        0x0000376e:    d10b        ..      BNE      0x3788 ; cpinquerry + 148
        0x00003770:    4814        .H      LDR      r0,[pc,#80] ; [0x37c4] = 0x20000058
        0x00003772:    6800        .h      LDR      r0,[r0,#0]
        0x00003774:    2800        .(      CMP      r0,#0
        0x00003776:    d107        ..      BNE      0x3788 ; cpinquerry + 148
        0x00003778:    4608        .F      MOV      r0,r1
        0x0000377a:    6800        .h      LDR      r0,[r0,#0]
        0x0000377c:    2800        .(      CMP      r0,#0
        0x0000377e:    d103        ..      BNE      0x3788 ; cpinquerry + 148
        0x00003780:    480e        .H      LDR      r0,[pc,#56] ; [0x37bc] = 0x20000030
        0x00003782:    6800        .h      LDR      r0,[r0,#0]
        0x00003784:    42a0        .B      CMP      r0,r4
        0x00003786:    dbdd        ..      BLT      0x3744 ; cpinquerry + 80
        0x00003788:    2001        .       MOVS     r0,#1
        0x0000378a:    490a        .I      LDR      r1,[pc,#40] ; [0x37b4] = 0x50004240
        0x0000378c:    6088        .`      STR      r0,[r1,#8]
        0x0000378e:    f7ffffa3    ....    BL       clear ; 0x36d8
        0x00003792:    480b        .H      LDR      r0,[pc,#44] ; [0x37c0] = 0x20000054
        0x00003794:    6800        .h      LDR      r0,[r0,#0]
        0x00003796:    2800        .(      CMP      r0,#0
        0x00003798:    d003        ..      BEQ      0x37a2 ; cpinquerry + 174
        0x0000379a:    2001        .       MOVS     r0,#1
        0x0000379c:    4918        .I      LDR      r1,[pc,#96] ; [0x3800] = 0x2000003d
        0x0000379e:    7008        .p      STRB     r0,[r1,#0]
        0x000037a0:    e002        ..      B        0x37a8 ; cpinquerry + 180
        0x000037a2:    2000        .       MOVS     r0,#0
        0x000037a4:    4916        .I      LDR      r1,[pc,#88] ; [0x3800] = 0x2000003d
        0x000037a6:    7008        .p      STRB     r0,[r1,#0]
        0x000037a8:    4803        .H      LDR      r0,[pc,#12] ; [0x37b8] = 0x20000000
        0x000037aa:    6800        .h      LDR      r0,[r0,#0]
        0x000037ac:    f000fc1a    ....    BL       osMutexRelease ; 0x3fe4
        0x000037b0:    bd10        ..      POP      {r4,pc}
    $d
        0x000037b2:    0000        ..      DCW    0
        0x000037b4:    50004240    @B.P    DCD    1342194240
        0x000037b8:    20000000    ...     DCD    536870912
        0x000037bc:    20000030    0..     DCD    536870960
        0x000037c0:    20000054    T..     DCD    536870996
        0x000037c4:    20000058    X..     DCD    536871000
        0x000037c8:    2000005c    \..     DCD    536871004
        0x000037cc:    20000028    (..     DCD    536870952
        0x000037d0:    20000f2c    ,..     DCD    536874796
        0x000037d4:    00006325    %c..    DCD    25381
        0x000037d8:    54410a0d    ..AT    DCD    1413548557
        0x000037dc:    4950432b    +CPI    DCD    1229996843
        0x000037e0:    0a0d3f4e    N?..    DCD    168640334
        0x000037e4:    00000a0d    ....    DCD    2573
        0x000037e8:    4e495043    CPIN    DCD    1313427523
        0x000037ec:    4552203a    : RE    DCD    1163010106
        0x000037f0:    00594441    ADY.    DCD    5850177
        0x000037f4:    00004b4f    OK..    DCD    19279
        0x000037f8:    4f525245    ERRO    DCD    1330795077
        0x000037fc:    00000052    R...    DCD    82
        0x00003800:    2000003d    =..     DCD    536870973
    $t
    i.cregquerry
    cregquerry
        0x00003804:    b510        ..      PUSH     {r4,lr}
        0x00003806:    b086        ..      SUB      sp,sp,#0x18
        0x00003808:    2000        .       MOVS     r0,#0
        0x0000380a:    493b        ;I      LDR      r1,[pc,#236] ; [0x38f8] = 0x50004240
        0x0000380c:    6088        .`      STR      r0,[r1,#8]
        0x0000380e:    2064        d       MOVS     r0,#0x64
        0x00003810:    f000fb68    ..h.    BL       osDelay ; 0x3ee4
        0x00003814:    2100        .!      MOVS     r1,#0
        0x00003816:    43c9        .C      MVNS     r1,r1
        0x00003818:    4838        8H      LDR      r0,[pc,#224] ; [0x38fc] = 0x20000000
        0x0000381a:    6800        .h      LDR      r0,[r0,#0]
        0x0000381c:    f000fbf0    ....    BL       osMutexWait ; 0x4000
        0x00003820:    2000        .       MOVS     r0,#0
        0x00003822:    4937        7I      LDR      r1,[pc,#220] ; [0x3900] = 0x20000030
        0x00003824:    6008        .`      STR      r0,[r1,#0]
        0x00003826:    2405        .$      MOVS     r4,#5
        0x00003828:    4936        6I      LDR      r1,[pc,#216] ; [0x3904] = 0x20000054
        0x0000382a:    6008        .`      STR      r0,[r1,#0]
        0x0000382c:    4936        6I      LDR      r1,[pc,#216] ; [0x3908] = 0x20000058
        0x0000382e:    6008        .`      STR      r0,[r1,#0]
        0x00003830:    4936        6I      LDR      r1,[pc,#216] ; [0x390c] = 0x2000005c
        0x00003832:    6008        .`      STR      r0,[r1,#0]
        0x00003834:    4936        6I      LDR      r1,[pc,#216] ; [0x3910] = 0x20000028
        0x00003836:    6008        .`      STR      r0,[r1,#0]
        0x00003838:    21af        .!      MOVS     r1,#0xaf
        0x0000383a:    0089        ..      LSLS     r1,r1,#2
        0x0000383c:    4835        5H      LDR      r0,[pc,#212] ; [0x3914] = 0x20000f2c
        0x0000383e:    f7fcfd98    ....    BL       __aeabi_memclr ; 0x372
        0x00003842:    211a        .!      MOVS     r1,#0x1a
        0x00003844:    a034        4.      ADR      r0,{pc}+0xd4 ; 0x3918
        0x00003846:    f7fff9a1    ....    BL       __0printf ; 0x2b8c
        0x0000384a:    f7ffff45    ..E.    BL       clear ; 0x36d8
        0x0000384e:    a033        3.      ADR      r0,{pc}+0xce ; 0x391c
        0x00003850:    f7fff99c    ....    BL       __0printf ; 0x2b8c
        0x00003854:    bf00        ..      NOP      
        0x00003856:    a135        5.      ADR      r1,{pc}+0xd6 ; 0x392c
        0x00003858:    482e        .H      LDR      r0,[pc,#184] ; [0x3914] = 0x20000f2c
        0x0000385a:    f7fcfda1    ....    BL       strstr ; 0x3a0
        0x0000385e:    4929        )I      LDR      r1,[pc,#164] ; [0x3904] = 0x20000054
        0x00003860:    6008        .`      STR      r0,[r1,#0]
        0x00003862:    a135        5.      ADR      r1,{pc}+0xd6 ; 0x3938
        0x00003864:    482b        +H      LDR      r0,[pc,#172] ; [0x3914] = 0x20000f2c
        0x00003866:    f7fcfd9b    ....    BL       strstr ; 0x3a0
        0x0000386a:    4927        'I      LDR      r1,[pc,#156] ; [0x3908] = 0x20000058
        0x0000386c:    6008        .`      STR      r0,[r1,#0]
        0x0000386e:    a133        3.      ADR      r1,{pc}+0xce ; 0x393c
        0x00003870:    4828        (H      LDR      r0,[pc,#160] ; [0x3914] = 0x20000f2c
        0x00003872:    f7fcfd95    ....    BL       strstr ; 0x3a0
        0x00003876:    4925        %I      LDR      r1,[pc,#148] ; [0x390c] = 0x2000005c
        0x00003878:    6008        .`      STR      r0,[r1,#0]
        0x0000387a:    4822        "H      LDR      r0,[pc,#136] ; [0x3904] = 0x20000054
        0x0000387c:    6800        .h      LDR      r0,[r0,#0]
        0x0000387e:    2800        .(      CMP      r0,#0
        0x00003880:    d10b        ..      BNE      0x389a ; cregquerry + 150
        0x00003882:    4821        !H      LDR      r0,[pc,#132] ; [0x3908] = 0x20000058
        0x00003884:    6800        .h      LDR      r0,[r0,#0]
        0x00003886:    2800        .(      CMP      r0,#0
        0x00003888:    d107        ..      BNE      0x389a ; cregquerry + 150
        0x0000388a:    4608        .F      MOV      r0,r1
        0x0000388c:    6800        .h      LDR      r0,[r0,#0]
        0x0000388e:    2800        .(      CMP      r0,#0
        0x00003890:    d103        ..      BNE      0x389a ; cregquerry + 150
        0x00003892:    481b        .H      LDR      r0,[pc,#108] ; [0x3900] = 0x20000030
        0x00003894:    6800        .h      LDR      r0,[r0,#0]
        0x00003896:    42a0        .B      CMP      r0,r4
        0x00003898:    dbdd        ..      BLT      0x3856 ; cregquerry + 82
        0x0000389a:    f7ffff1d    ....    BL       clear ; 0x36d8
        0x0000389e:    2001        .       MOVS     r0,#1
        0x000038a0:    4915        .I      LDR      r1,[pc,#84] ; [0x38f8] = 0x50004240
        0x000038a2:    6088        .`      STR      r0,[r1,#8]
        0x000038a4:    2000        .       MOVS     r0,#0
        0x000038a6:    9003        ..      STR      r0,[sp,#0xc]
        0x000038a8:    9004        ..      STR      r0,[sp,#0x10]
        0x000038aa:    9005        ..      STR      r0,[sp,#0x14]
        0x000038ac:    a803        ..      ADD      r0,sp,#0xc
        0x000038ae:    210a        .!      MOVS     r1,#0xa
        0x000038b0:    232c        ,#      MOVS     r3,#0x2c
        0x000038b2:    2202        ."      MOVS     r2,#2
        0x000038b4:    9100        ..      STR      r1,[sp,#0]
        0x000038b6:    9001        ..      STR      r0,[sp,#4]
        0x000038b8:    2101        .!      MOVS     r1,#1
        0x000038ba:    4816        .H      LDR      r0,[pc,#88] ; [0x3914] = 0x20000f2c
        0x000038bc:    f000fc58    ..X.    BL       parse_g ; 0x4170
        0x000038c0:    a120         .      ADR      r1,{pc}+0x84 ; 0x3944
        0x000038c2:    a803        ..      ADD      r0,sp,#0xc
        0x000038c4:    f7fcfd6c    ..l.    BL       strstr ; 0x3a0
        0x000038c8:    2800        .(      CMP      r0,#0
        0x000038ca:    d105        ..      BNE      0x38d8 ; cregquerry + 212
        0x000038cc:    a11e        ..      ADR      r1,{pc}+0x7c ; 0x3948
        0x000038ce:    a803        ..      ADD      r0,sp,#0xc
        0x000038d0:    f7fcfd66    ..f.    BL       strstr ; 0x3a0
        0x000038d4:    2800        .(      CMP      r0,#0
        0x000038d6:    d003        ..      BEQ      0x38e0 ; cregquerry + 220
        0x000038d8:    2001        .       MOVS     r0,#1
        0x000038da:    491c        .I      LDR      r1,[pc,#112] ; [0x394c] = 0x2000003e
        0x000038dc:    7008        .p      STRB     r0,[r1,#0]
        0x000038de:    e002        ..      B        0x38e6 ; cregquerry + 226
        0x000038e0:    2000        .       MOVS     r0,#0
        0x000038e2:    491a        .I      LDR      r1,[pc,#104] ; [0x394c] = 0x2000003e
        0x000038e4:    7008        .p      STRB     r0,[r1,#0]
        0x000038e6:    4805        .H      LDR      r0,[pc,#20] ; [0x38fc] = 0x20000000
        0x000038e8:    6800        .h      LDR      r0,[r0,#0]
        0x000038ea:    f000fb7b    ..{.    BL       osMutexRelease ; 0x3fe4
        0x000038ee:    2005        .       MOVS     r0,#5
        0x000038f0:    f000faf8    ....    BL       osDelay ; 0x3ee4
        0x000038f4:    b006        ..      ADD      sp,sp,#0x18
        0x000038f6:    bd10        ..      POP      {r4,pc}
    $d
        0x000038f8:    50004240    @B.P    DCD    1342194240
        0x000038fc:    20000000    ...     DCD    536870912
        0x00003900:    20000030    0..     DCD    536870960
        0x00003904:    20000054    T..     DCD    536870996
        0x00003908:    20000058    X..     DCD    536871000
        0x0000390c:    2000005c    \..     DCD    536871004
        0x00003910:    20000028    (..     DCD    536870952
        0x00003914:    20000f2c    ,..     DCD    536874796
        0x00003918:    00006325    %c..    DCD    25381
        0x0000391c:    54410a0d    ..AT    DCD    1413548557
        0x00003920:    4552432b    +CRE    DCD    1163019051
        0x00003924:    0a0d3f47    G?..    DCD    168640327
        0x00003928:    00000a0d    ....    DCD    2573
        0x0000392c:    4e495043    CPIN    DCD    1313427523
        0x00003930:    4552203a    : RE    DCD    1163010106
        0x00003934:    00594441    ADY.    DCD    5850177
        0x00003938:    00004b4f    OK..    DCD    19279
        0x0000393c:    4f525245    ERRO    DCD    1330795077
        0x00003940:    00000052    R...    DCD    82
        0x00003944:    00000031    1...    DCD    49
        0x00003948:    00000035    5...    DCD    53
        0x0000394c:    2000003e    >..     DCD    536870974
    $t
    i.fileclose
    fileclose
        0x00003950:    b508        ..      PUSH     {r3,lr}
        0x00003952:    2164        d!      MOVS     r1,#0x64
        0x00003954:    480a        .H      LDR      r0,[pc,#40] ; [0x3980] = 0x2000122c
        0x00003956:    f7fcfd0c    ....    BL       __aeabi_memclr ; 0x372
        0x0000395a:    4a0a        .J      LDR      r2,[pc,#40] ; [0x3984] = 0x2000138a
        0x0000395c:    a10a        ..      ADR      r1,{pc}+0x2c ; 0x3988
        0x0000395e:    4808        .H      LDR      r0,[pc,#32] ; [0x3980] = 0x2000122c
        0x00003960:    f7fff924    ..$.    BL       __0sprintf ; 0x2bac
        0x00003964:    200a        .       MOVS     r0,#0xa
        0x00003966:    a30d        ..      ADR      r3,{pc}+0x36 ; 0x399c
        0x00003968:    a20e        ..      ADR      r2,{pc}+0x3c ; 0x39a4
        0x0000396a:    a10f        ..      ADR      r1,{pc}+0x3e ; 0x39a8
        0x0000396c:    9000        ..      STR      r0,[sp,#0]
        0x0000396e:    4804        .H      LDR      r0,[pc,#16] ; [0x3980] = 0x2000122c
        0x00003970:    f7fdfe0a    ....    BL       SendAT ; 0x1588
        0x00003974:    2114        .!      MOVS     r1,#0x14
        0x00003976:    4803        .H      LDR      r0,[pc,#12] ; [0x3984] = 0x2000138a
        0x00003978:    f7fcfcfb    ....    BL       __aeabi_memclr ; 0x372
        0x0000397c:    bd08        ..      POP      {r3,pc}
    $d
        0x0000397e:    0000        ..      DCW    0
        0x00003980:    2000122c    ,..     DCD    536875564
        0x00003984:    2000138a    ...     DCD    536875914
        0x00003988:    54410a0d    ..AT    DCD    1413548557
        0x0000398c:    4346512b    +QFC    DCD    1128681771
        0x00003990:    45534f4c    LOSE    DCD    1163087692
        0x00003994:    0d73253d    =%s.    DCD    225649981
        0x00003998:    000a0d0a    ....    DCD    658698
        0x0000399c:    4f525245    ERRO    DCD    1330795077
        0x000039a0:    00000052    R...    DCD    82
        0x000039a4:    00004b4f    OK..    DCD    19279
        0x000039a8:    454d432b    +CME    DCD    1162691371
        0x000039ac:    52524520     ERR    DCD    1381123360
        0x000039b0:    0000524f    OR..    DCD    21071
    $t
    i.fileopen
    fileopen
        0x000039b4:    b51c        ..      PUSH     {r2-r4,lr}
        0x000039b6:    4820         H      LDR      r0,[pc,#128] ; [0x3a38] = 0x2000138a
        0x000039b8:    f7fcfd06    ....    BL       strlen ; 0x3c8
        0x000039bc:    2800        .(      CMP      r0,#0
        0x000039be:    d139        9.      BNE      0x3a34 ; fileopen + 128
        0x000039c0:    200a        .       MOVS     r0,#0xa
        0x000039c2:    4b1e        .K      LDR      r3,[pc,#120] ; [0x3a3c] = 0x58dc
        0x000039c4:    4a1e        .J      LDR      r2,[pc,#120] ; [0x3a40] = 0x58c4
        0x000039c6:    491f        .I      LDR      r1,[pc,#124] ; [0x3a44] = 0x58e8
        0x000039c8:    9000        ..      STR      r0,[sp,#0]
        0x000039ca:    481f        .H      LDR      r0,[pc,#124] ; [0x3a48] = 0x586c
        0x000039cc:    f7fdfddc    ....    BL       SendAT ; 0x1588
        0x000039d0:    491e        .I      LDR      r1,[pc,#120] ; [0x3a4c] = 0x58d8
        0x000039d2:    481f        .H      LDR      r0,[pc,#124] ; [0x3a50] = 0x20000f2c
        0x000039d4:    f7fcfce4    ....    BL       strstr ; 0x3a0
        0x000039d8:    2800        .(      CMP      r0,#0
        0x000039da:    d014        ..      BEQ      0x3a06 ; fileopen + 82
        0x000039dc:    2001        .       MOVS     r0,#1
        0x000039de:    491d        .I      LDR      r1,[pc,#116] ; [0x3a54] = 0x50004200
        0x000039e0:    6348        Hc      STR      r0,[r1,#0x34]
        0x000039e2:    481d        .H      LDR      r0,[pc,#116] ; [0x3a58] = 0x5888
        0x000039e4:    f7fff8d2    ....    BL       __0printf ; 0x2b8c
        0x000039e8:    2000        .       MOVS     r0,#0
        0x000039ea:    491a        .I      LDR      r1,[pc,#104] ; [0x3a54] = 0x50004200
        0x000039ec:    6348        Hc      STR      r0,[r1,#0x34]
        0x000039ee:    2114        .!      MOVS     r1,#0x14
        0x000039f0:    4811        .H      LDR      r0,[pc,#68] ; [0x3a38] = 0x2000138a
        0x000039f2:    f7fcfcbe    ....    BL       __aeabi_memclr ; 0x372
        0x000039f6:    200a        .       MOVS     r0,#0xa
        0x000039f8:    4b10        .K      LDR      r3,[pc,#64] ; [0x3a3c] = 0x58dc
        0x000039fa:    4a11        .J      LDR      r2,[pc,#68] ; [0x3a40] = 0x58c4
        0x000039fc:    4911        .I      LDR      r1,[pc,#68] ; [0x3a44] = 0x58e8
        0x000039fe:    9000        ..      STR      r0,[sp,#0]
        0x00003a00:    4811        .H      LDR      r0,[pc,#68] ; [0x3a48] = 0x586c
        0x00003a02:    f7fdfdc1    ....    BL       SendAT ; 0x1588
        0x00003a06:    480c        .H      LDR      r0,[pc,#48] ; [0x3a38] = 0x2000138a
        0x00003a08:    210a        .!      MOVS     r1,#0xa
        0x00003a0a:    2320         #      MOVS     r3,#0x20
        0x00003a0c:    2202        ."      MOVS     r2,#2
        0x00003a0e:    9100        ..      STR      r1,[sp,#0]
        0x00003a10:    9001        ..      STR      r0,[sp,#4]
        0x00003a12:    2101        .!      MOVS     r1,#1
        0x00003a14:    480e        .H      LDR      r0,[pc,#56] ; [0x3a50] = 0x20000f2c
        0x00003a16:    f000fbab    ....    BL       parse_g ; 0x4170
        0x00003a1a:    220a        ."      MOVS     r2,#0xa
        0x00003a1c:    210d        .!      MOVS     r1,#0xd
        0x00003a1e:    4806        .H      LDR      r0,[pc,#24] ; [0x3a38] = 0x2000138a
        0x00003a20:    f000fbf6    ....    BL       remove_all_chars ; 0x4210
        0x00003a24:    2005        .       MOVS     r0,#5
        0x00003a26:    4b0d        .K      LDR      r3,[pc,#52] ; [0x3a5c] = 0x5898
        0x00003a28:    4a04        .J      LDR      r2,[pc,#16] ; [0x3a3c] = 0x58dc
        0x00003a2a:    4905        .I      LDR      r1,[pc,#20] ; [0x3a40] = 0x58c4
        0x00003a2c:    9000        ..      STR      r0,[sp,#0]
        0x00003a2e:    480c        .H      LDR      r0,[pc,#48] ; [0x3a60] = 0x5824
        0x00003a30:    f7fdfdaa    ....    BL       SendAT ; 0x1588
        0x00003a34:    bd1c        ..      POP      {r2-r4,pc}
    $d
        0x00003a36:    0000        ..      DCW    0
        0x00003a38:    2000138a    ...     DCD    536875914
        0x00003a3c:    000058dc    .X..    DCD    22748
        0x00003a40:    000058c4    .X..    DCD    22724
        0x00003a44:    000058e8    .X..    DCD    22760
        0x00003a48:    0000586c    lX..    DCD    22636
        0x00003a4c:    000058d8    .X..    DCD    22744
        0x00003a50:    20000f2c    ,..     DCD    536874796
        0x00003a54:    50004200    .B.P    DCD    1342194176
        0x00003a58:    00005888    .X..    DCD    22664
        0x00003a5c:    00005898    .X..    DCD    22680
        0x00003a60:    00005824    $X..    DCD    22564
    $t
    i.fputc
    fputc
        0x00003a64:    b530        0.      PUSH     {r4,r5,lr}
        0x00003a66:    4604        .F      MOV      r4,r0
        0x00003a68:    460d        .F      MOV      r5,r1
        0x00003a6a:    4620         F      MOV      r0,r4
        0x00003a6c:    f7fefa2a    ..*.    BL       SendChar ; 0x1ec4
        0x00003a70:    4620         F      MOV      r0,r4
        0x00003a72:    bd30        0.      POP      {r4,r5,pc}
    i.ign_sense
    ign_sense
        0x00003a74:    4805        .H      LDR      r0,[pc,#20] ; [0x3a8c] = 0x50004280
        0x00003a76:    68c0        .h      LDR      r0,[r0,#0xc]
        0x00003a78:    2800        .(      CMP      r0,#0
        0x00003a7a:    d003        ..      BEQ      0x3a84 ; ign_sense + 16
        0x00003a7c:    2000        .       MOVS     r0,#0
        0x00003a7e:    4904        .I      LDR      r1,[pc,#16] ; [0x3a90] = 0x200000a0
        0x00003a80:    6008        .`      STR      r0,[r1,#0]
        0x00003a82:    e002        ..      B        0x3a8a ; ign_sense + 22
        0x00003a84:    2001        .       MOVS     r0,#1
        0x00003a86:    4902        .I      LDR      r1,[pc,#8] ; [0x3a90] = 0x200000a0
        0x00003a88:    6008        .`      STR      r0,[r1,#0]
        0x00003a8a:    4770        pG      BX       lr
    $d
        0x00003a8c:    50004280    .B.P    DCD    1342194304
        0x00003a90:    200000a0    ...     DCD    536871072
    $t
    i.imei_fun
    imei_fun
        0x00003a94:    b510        ..      PUSH     {r4,lr}
        0x00003a96:    2100        .!      MOVS     r1,#0
        0x00003a98:    43c9        .C      MVNS     r1,r1
        0x00003a9a:    4842        BH      LDR      r0,[pc,#264] ; [0x3ba4] = 0x20000004
        0x00003a9c:    6800        .h      LDR      r0,[r0,#0]
        0x00003a9e:    f000faaf    ....    BL       osMutexWait ; 0x4000
        0x00003aa2:    2100        .!      MOVS     r1,#0
        0x00003aa4:    43c9        .C      MVNS     r1,r1
        0x00003aa6:    4840        @H      LDR      r0,[pc,#256] ; [0x3ba8] = 0x20000000
        0x00003aa8:    6800        .h      LDR      r0,[r0,#0]
        0x00003aaa:    f000faa9    ....    BL       osMutexWait ; 0x4000
        0x00003aae:    f7fffe13    ....    BL       clear ; 0x36d8
        0x00003ab2:    2000        .       MOVS     r0,#0
        0x00003ab4:    493d        =I      LDR      r1,[pc,#244] ; [0x3bac] = 0x20000054
        0x00003ab6:    6008        .`      STR      r0,[r1,#0]
        0x00003ab8:    493d        =I      LDR      r1,[pc,#244] ; [0x3bb0] = 0x20000058
        0x00003aba:    6008        .`      STR      r0,[r1,#0]
        0x00003abc:    493d        =I      LDR      r1,[pc,#244] ; [0x3bb4] = 0x2000005c
        0x00003abe:    6008        .`      STR      r0,[r1,#0]
        0x00003ac0:    493d        =I      LDR      r1,[pc,#244] ; [0x3bb8] = 0x20000028
        0x00003ac2:    6008        .`      STR      r0,[r1,#0]
        0x00003ac4:    21af        .!      MOVS     r1,#0xaf
        0x00003ac6:    0089        ..      LSLS     r1,r1,#2
        0x00003ac8:    483c        <H      LDR      r0,[pc,#240] ; [0x3bbc] = 0x20000f2c
        0x00003aca:    f7fcfc52    ..R.    BL       __aeabi_memclr ; 0x372
        0x00003ace:    211a        .!      MOVS     r1,#0x1a
        0x00003ad0:    483b        ;H      LDR      r0,[pc,#236] ; [0x3bc0] = 0x58e4
        0x00003ad2:    f7fff85b    ..[.    BL       __0printf ; 0x2b8c
        0x00003ad6:    2132        2!      MOVS     r1,#0x32
        0x00003ad8:    483a        :H      LDR      r0,[pc,#232] ; [0x3bc4] = 0x20001290
        0x00003ada:    f7fcfc4a    ..J.    BL       __aeabi_memclr ; 0x372
        0x00003ade:    2000        .       MOVS     r0,#0
        0x00003ae0:    4939        9I      LDR      r1,[pc,#228] ; [0x3bc8] = 0x20000030
        0x00003ae2:    6008        .`      STR      r0,[r1,#0]
        0x00003ae4:    4839        9H      LDR      r0,[pc,#228] ; [0x3bcc] = 0x585c
        0x00003ae6:    f7fff851    ..Q.    BL       __0printf ; 0x2b8c
        0x00003aea:    bf00        ..      NOP      
        0x00003aec:    4938        8I      LDR      r1,[pc,#224] ; [0x3bd0] = 0x58c4
        0x00003aee:    4833        3H      LDR      r0,[pc,#204] ; [0x3bbc] = 0x20000f2c
        0x00003af0:    f7fcfc56    ..V.    BL       strstr ; 0x3a0
        0x00003af4:    492d        -I      LDR      r1,[pc,#180] ; [0x3bac] = 0x20000054
        0x00003af6:    6008        .`      STR      r0,[r1,#0]
        0x00003af8:    4936        6I      LDR      r1,[pc,#216] ; [0x3bd4] = 0x58dc
        0x00003afa:    4830        0H      LDR      r0,[pc,#192] ; [0x3bbc] = 0x20000f2c
        0x00003afc:    f7fcfc50    ..P.    BL       strstr ; 0x3a0
        0x00003b00:    492b        +I      LDR      r1,[pc,#172] ; [0x3bb0] = 0x20000058
        0x00003b02:    6008        .`      STR      r0,[r1,#0]
        0x00003b04:    4934        4I      LDR      r1,[pc,#208] ; [0x3bd8] = 0x58b0
        0x00003b06:    482d        -H      LDR      r0,[pc,#180] ; [0x3bbc] = 0x20000f2c
        0x00003b08:    f7fcfc4a    ..J.    BL       strstr ; 0x3a0
        0x00003b0c:    4929        )I      LDR      r1,[pc,#164] ; [0x3bb4] = 0x2000005c
        0x00003b0e:    6008        .`      STR      r0,[r1,#0]
        0x00003b10:    4826        &H      LDR      r0,[pc,#152] ; [0x3bac] = 0x20000054
        0x00003b12:    6800        .h      LDR      r0,[r0,#0]
        0x00003b14:    2800        .(      CMP      r0,#0
        0x00003b16:    d10b        ..      BNE      0x3b30 ; imei_fun + 156
        0x00003b18:    4825        %H      LDR      r0,[pc,#148] ; [0x3bb0] = 0x20000058
        0x00003b1a:    6800        .h      LDR      r0,[r0,#0]
        0x00003b1c:    2800        .(      CMP      r0,#0
        0x00003b1e:    d107        ..      BNE      0x3b30 ; imei_fun + 156
        0x00003b20:    4608        .F      MOV      r0,r1
        0x00003b22:    6800        .h      LDR      r0,[r0,#0]
        0x00003b24:    2800        .(      CMP      r0,#0
        0x00003b26:    d103        ..      BNE      0x3b30 ; imei_fun + 156
        0x00003b28:    4827        'H      LDR      r0,[pc,#156] ; [0x3bc8] = 0x20000030
        0x00003b2a:    6800        .h      LDR      r0,[r0,#0]
        0x00003b2c:    2805        .(      CMP      r0,#5
        0x00003b2e:    dbdd        ..      BLT      0x3aec ; imei_fun + 88
        0x00003b30:    2000        .       MOVS     r0,#0
        0x00003b32:    492a        *I      LDR      r1,[pc,#168] ; [0x3bdc] = 0x20000088
        0x00003b34:    6008        .`      STR      r0,[r1,#0]
        0x00003b36:    492a        *I      LDR      r1,[pc,#168] ; [0x3be0] = 0x200000a4
        0x00003b38:    6008        .`      STR      r0,[r1,#0]
        0x00003b3a:    e01d        ..      B        0x3b78 ; imei_fun + 228
        0x00003b3c:    481f        .H      LDR      r0,[pc,#124] ; [0x3bbc] = 0x20000f2c
        0x00003b3e:    4928        (I      LDR      r1,[pc,#160] ; [0x3be0] = 0x200000a4
        0x00003b40:    6809        .h      LDR      r1,[r1,#0]
        0x00003b42:    5c40        @\      LDRB     r0,[r0,r1]
        0x00003b44:    282f        /(      CMP      r0,#0x2f
        0x00003b46:    dd12        ..      BLE      0x3b6e ; imei_fun + 218
        0x00003b48:    481c        .H      LDR      r0,[pc,#112] ; [0x3bbc] = 0x20000f2c
        0x00003b4a:    4925        %I      LDR      r1,[pc,#148] ; [0x3be0] = 0x200000a4
        0x00003b4c:    6809        .h      LDR      r1,[r1,#0]
        0x00003b4e:    5c40        @\      LDRB     r0,[r0,r1]
        0x00003b50:    283a        :(      CMP      r0,#0x3a
        0x00003b52:    da0c        ..      BGE      0x3b6e ; imei_fun + 218
        0x00003b54:    4819        .H      LDR      r0,[pc,#100] ; [0x3bbc] = 0x20000f2c
        0x00003b56:    4922        "I      LDR      r1,[pc,#136] ; [0x3be0] = 0x200000a4
        0x00003b58:    6809        .h      LDR      r1,[r1,#0]
        0x00003b5a:    5c40        @\      LDRB     r0,[r0,r1]
        0x00003b5c:    4919        .I      LDR      r1,[pc,#100] ; [0x3bc4] = 0x20001290
        0x00003b5e:    4a1f        .J      LDR      r2,[pc,#124] ; [0x3bdc] = 0x20000088
        0x00003b60:    6812        .h      LDR      r2,[r2,#0]
        0x00003b62:    5488        .T      STRB     r0,[r1,r2]
        0x00003b64:    481d        .H      LDR      r0,[pc,#116] ; [0x3bdc] = 0x20000088
        0x00003b66:    6800        .h      LDR      r0,[r0,#0]
        0x00003b68:    1c40        @.      ADDS     r0,r0,#1
        0x00003b6a:    491c        .I      LDR      r1,[pc,#112] ; [0x3bdc] = 0x20000088
        0x00003b6c:    6008        .`      STR      r0,[r1,#0]
        0x00003b6e:    481c        .H      LDR      r0,[pc,#112] ; [0x3be0] = 0x200000a4
        0x00003b70:    6800        .h      LDR      r0,[r0,#0]
        0x00003b72:    1c40        @.      ADDS     r0,r0,#1
        0x00003b74:    491a        .I      LDR      r1,[pc,#104] ; [0x3be0] = 0x200000a4
        0x00003b76:    6008        .`      STR      r0,[r1,#0]
        0x00003b78:    4810        .H      LDR      r0,[pc,#64] ; [0x3bbc] = 0x20000f2c
        0x00003b7a:    f7fcfc25    ..%.    BL       strlen ; 0x3c8
        0x00003b7e:    4918        .I      LDR      r1,[pc,#96] ; [0x3be0] = 0x200000a4
        0x00003b80:    6809        .h      LDR      r1,[r1,#0]
        0x00003b82:    4288        .B      CMP      r0,r1
        0x00003b84:    d8da        ..      BHI      0x3b3c ; imei_fun + 168
        0x00003b86:    221a        ."      MOVS     r2,#0x1a
        0x00003b88:    210d        .!      MOVS     r1,#0xd
        0x00003b8a:    480e        .H      LDR      r0,[pc,#56] ; [0x3bc4] = 0x20001290
        0x00003b8c:    f000fb40    ..@.    BL       remove_all_chars ; 0x4210
        0x00003b90:    4805        .H      LDR      r0,[pc,#20] ; [0x3ba8] = 0x20000000
        0x00003b92:    6800        .h      LDR      r0,[r0,#0]
        0x00003b94:    f000fa26    ..&.    BL       osMutexRelease ; 0x3fe4
        0x00003b98:    4802        .H      LDR      r0,[pc,#8] ; [0x3ba4] = 0x20000004
        0x00003b9a:    6800        .h      LDR      r0,[r0,#0]
        0x00003b9c:    f000fa22    ..".    BL       osMutexRelease ; 0x3fe4
        0x00003ba0:    bd10        ..      POP      {r4,pc}
    $d
        0x00003ba2:    0000        ..      DCW    0
        0x00003ba4:    20000004    ...     DCD    536870916
        0x00003ba8:    20000000    ...     DCD    536870912
        0x00003bac:    20000054    T..     DCD    536870996
        0x00003bb0:    20000058    X..     DCD    536871000
        0x00003bb4:    2000005c    \..     DCD    536871004
        0x00003bb8:    20000028    (..     DCD    536870952
        0x00003bbc:    20000f2c    ,..     DCD    536874796
        0x00003bc0:    000058e4    .X..    DCD    22756
        0x00003bc4:    20001290    ...     DCD    536875664
        0x00003bc8:    20000030    0..     DCD    536870960
        0x00003bcc:    0000585c    \X..    DCD    22620
        0x00003bd0:    000058c4    .X..    DCD    22724
        0x00003bd4:    000058dc    .X..    DCD    22748
        0x00003bd8:    000058b0    .X..    DCD    22704
        0x00003bdc:    20000088    ...     DCD    536871048
        0x00003be0:    200000a4    ...     DCD    536871076
    $t
    i.isrMessageGet
    isrMessageGet
        0x00003be4:    b50e        ..      PUSH     {r1-r3,lr}
        0x00003be6:    4602        .F      MOV      r2,r0
        0x00003be8:    2080        .       MOVS     r0,#0x80
        0x00003bea:    2a00        .*      CMP      r2,#0
        0x00003bec:    d00d        ..      BEQ      0x3c0a ; isrMessageGet + 38
        0x00003bee:    2900        .)      CMP      r1,#0
        0x00003bf0:    d10b        ..      BNE      0x3c0a ; isrMessageGet + 38
        0x00003bf2:    7811        .x      LDRB     r1,[r2,#0]
        0x00003bf4:    2901        .)      CMP      r1,#1
        0x00003bf6:    d108        ..      BNE      0x3c0a ; isrMessageGet + 38
        0x00003bf8:    4610        .F      MOV      r0,r2
        0x00003bfa:    a901        ..      ADD      r1,sp,#4
        0x00003bfc:    f000f821    ..!.    BL       isr_mbx_receive ; 0x3c42
        0x00003c00:    2804        .(      CMP      r0,#4
        0x00003c02:    d001        ..      BEQ      0x3c08 ; isrMessageGet + 36
        0x00003c04:    2000        .       MOVS     r0,#0
        0x00003c06:    e000        ..      B        0x3c0a ; isrMessageGet + 38
        0x00003c08:    2010        .       MOVS     r0,#0x10
        0x00003c0a:    9a02        ..      LDR      r2,[sp,#8]
        0x00003c0c:    9901        ..      LDR      r1,[sp,#4]
        0x00003c0e:    b003        ..      ADD      sp,sp,#0xc
        0x00003c10:    bd00        ..      POP      {pc}
    i.isrMessagePut
    isrMessagePut
        0x00003c12:    b570        p.      PUSH     {r4-r6,lr}
        0x00003c14:    460d        .F      MOV      r5,r1
        0x00003c16:    0004        ..      MOVS     r4,r0
        0x00003c18:    d004        ..      BEQ      0x3c24 ; isrMessagePut + 18
        0x00003c1a:    2a00        .*      CMP      r2,#0
        0x00003c1c:    d102        ..      BNE      0x3c24 ; isrMessagePut + 18
        0x00003c1e:    7820         x      LDRB     r0,[r4,#0]
        0x00003c20:    2801        .(      CMP      r0,#1
        0x00003c22:    d001        ..      BEQ      0x3c28 ; isrMessagePut + 22
        0x00003c24:    2080        .       MOVS     r0,#0x80
        0x00003c26:    bd70        p.      POP      {r4-r6,pc}
        0x00003c28:    4620         F      MOV      r0,r4
        0x00003c2a:    f000fcc7    ....    BL       rt_mbx_check ; 0x45bc
        0x00003c2e:    2800        .(      CMP      r0,#0
        0x00003c30:    d005        ..      BEQ      0x3c3e ; isrMessagePut + 44
        0x00003c32:    4629        )F      MOV      r1,r5
        0x00003c34:    4620         F      MOV      r0,r4
        0x00003c36:    f000f82a    ..*.    BL       isr_mbx_send ; 0x3c8e
        0x00003c3a:    2000        .       MOVS     r0,#0
        0x00003c3c:    bd70        p.      POP      {r4-r6,pc}
        0x00003c3e:    2081        .       MOVS     r0,#0x81
        0x00003c40:    bd70        p.      POP      {r4-r6,pc}
    i.isr_mbx_receive
    isr_mbx_receive
        0x00003c42:    b510        ..      PUSH     {r4,lr}
        0x00003c44:    4604        .F      MOV      r4,r0
        0x00003c46:    8980        ..      LDRH     r0,[r0,#0xc]
        0x00003c48:    2800        .(      CMP      r0,#0
        0x00003c4a:    d01f        ..      BEQ      0x3c8c ; isr_mbx_receive + 74
        0x00003c4c:    8960        `.      LDRH     r0,[r4,#0xa]
        0x00003c4e:    0080        ..      LSLS     r0,r0,#2
        0x00003c50:    1900        ..      ADDS     r0,r0,r4
        0x00003c52:    6900        .i      LDR      r0,[r0,#0x10]
        0x00003c54:    6008        .`      STR      r0,[r1,#0]
        0x00003c56:    6860        `h      LDR      r0,[r4,#4]
        0x00003c58:    2800        .(      CMP      r0,#0
        0x00003c5a:    d008        ..      BEQ      0x3c6e ; isr_mbx_receive + 44
        0x00003c5c:    7860        `x      LDRB     r0,[r4,#1]
        0x00003c5e:    2802        .(      CMP      r0,#2
        0x00003c60:    d105        ..      BNE      0x3c6e ; isr_mbx_receive + 44
        0x00003c62:    2100        .!      MOVS     r1,#0
        0x00003c64:    4620         F      MOV      r0,r4
        0x00003c66:    f000fe9d    ....    BL       rt_psq_enq ; 0x49a4
        0x00003c6a:    f000fe8b    ....    BL       rt_psh_req ; 0x4984
        0x00003c6e:    b672        r.      CPSID    i
        0x00003c70:    89a0        ..      LDRH     r0,[r4,#0xc]
        0x00003c72:    1e40        @.      SUBS     r0,r0,#1
        0x00003c74:    81a0        ..      STRH     r0,[r4,#0xc]
        0x00003c76:    b662        b.      CPSIE    i
        0x00003c78:    8960        `.      LDRH     r0,[r4,#0xa]
        0x00003c7a:    1c40        @.      ADDS     r0,r0,#1
        0x00003c7c:    b280        ..      UXTH     r0,r0
        0x00003c7e:    8160        `.      STRH     r0,[r4,#0xa]
        0x00003c80:    89e1        ..      LDRH     r1,[r4,#0xe]
        0x00003c82:    4288        .B      CMP      r0,r1
        0x00003c84:    d101        ..      BNE      0x3c8a ; isr_mbx_receive + 72
        0x00003c86:    2000        .       MOVS     r0,#0
        0x00003c88:    8160        `.      STRH     r0,[r4,#0xa]
        0x00003c8a:    2004        .       MOVS     r0,#4
        0x00003c8c:    bd10        ..      POP      {r4,pc}
    i.isr_mbx_send
    isr_mbx_send
        0x00003c8e:    b510        ..      PUSH     {r4,lr}
        0x00003c90:    f000fe88    ....    BL       rt_psq_enq ; 0x49a4
        0x00003c94:    f000fe76    ..v.    BL       rt_psh_req ; 0x4984
        0x00003c98:    bd10        ..      POP      {r4,pc}
        0x00003c9a:    0000        ..      MOVS     r0,r0
    i.main
    main
        0x00003c9c:    b508        ..      PUSH     {r3,lr}
        0x00003c9e:    bf00        ..      NOP      
        0x00003ca0:    e006        ..      B        0x3cb0 ; main + 20
        0x00003ca2:    2059        Y       MOVS     r0,#0x59
        0x00003ca4:    495f        _I      LDR      r1,[pc,#380] ; [0x3e24] = 0x50000100
        0x00003ca6:    6008        .`      STR      r0,[r1,#0]
        0x00003ca8:    2016        .       MOVS     r0,#0x16
        0x00003caa:    6008        .`      STR      r0,[r1,#0]
        0x00003cac:    2088        .       MOVS     r0,#0x88
        0x00003cae:    6008        .`      STR      r0,[r1,#0]
        0x00003cb0:    485c        \H      LDR      r0,[pc,#368] ; [0x3e24] = 0x50000100
        0x00003cb2:    6800        .h      LDR      r0,[r0,#0]
        0x00003cb4:    2801        .(      CMP      r0,#1
        0x00003cb6:    d1f4        ..      BNE      0x3ca2 ; main + 6
        0x00003cb8:    bf00        ..      NOP      
        0x00003cba:    f7fdfb25    ..%.    BL       SYS_Init ; 0x1308
        0x00003cbe:    2200        ."      MOVS     r2,#0
        0x00003cc0:    2180        .!      MOVS     r1,#0x80
        0x00003cc2:    4859        YH      LDR      r0,[pc,#356] ; [0x3e28] = 0x50004040
        0x00003cc4:    f7fdfa31    ..1.    BL       GPIO_SetMode ; 0x112a
        0x00003cc8:    2201        ."      MOVS     r2,#1
        0x00003cca:    0412        ..      LSLS     r2,r2,#16
        0x00003ccc:    2107        .!      MOVS     r1,#7
        0x00003cce:    4856        VH      LDR      r0,[pc,#344] ; [0x3e28] = 0x50004040
        0x00003cd0:    f7fdfa1e    ....    BL       GPIO_EnableInt ; 0x1110
        0x00003cd4:    2004        .       MOVS     r0,#4
        0x00003cd6:    f7feffad    ....    BL       __NVIC_EnableIRQ ; 0x2c34
        0x00003cda:    bf00        ..      NOP      
        0x00003cdc:    2000        .       MOVS     r0,#0
        0x00003cde:    4951        QI      LDR      r1,[pc,#324] ; [0x3e24] = 0x50000100
        0x00003ce0:    6008        .`      STR      r0,[r1,#0]
        0x00003ce2:    bf00        ..      NOP      
        0x00003ce4:    2201        ."      MOVS     r2,#1
        0x00003ce6:    2102        .!      MOVS     r1,#2
        0x00003ce8:    484f        OH      LDR      r0,[pc,#316] ; [0x3e28] = 0x50004040
        0x00003cea:    3840        @8      SUBS     r0,r0,#0x40
        0x00003cec:    f7fdfa1d    ....    BL       GPIO_SetMode ; 0x112a
        0x00003cf0:    2201        ."      MOVS     r2,#1
        0x00003cf2:    03d1        ..      LSLS     r1,r2,#15
        0x00003cf4:    484c        LH      LDR      r0,[pc,#304] ; [0x3e28] = 0x50004040
        0x00003cf6:    3040        @0      ADDS     r0,r0,#0x40
        0x00003cf8:    f7fdfa17    ....    BL       GPIO_SetMode ; 0x112a
        0x00003cfc:    2200        ."      MOVS     r2,#0
        0x00003cfe:    2108        .!      MOVS     r1,#8
        0x00003d00:    4849        IH      LDR      r0,[pc,#292] ; [0x3e28] = 0x50004040
        0x00003d02:    3040        @0      ADDS     r0,r0,#0x40
        0x00003d04:    f7fdfa11    ....    BL       GPIO_SetMode ; 0x112a
        0x00003d08:    bf00        ..      NOP      
        0x00003d0a:    4848        HH      LDR      r0,[pc,#288] ; [0x3e2c] = 0x4000011
        0x00003d0c:    f7fdfb58    ..X.    BL       SYS_ResetModule ; 0x13c0
        0x00003d10:    21e1        .!      MOVS     r1,#0xe1
        0x00003d12:    0249        I.      LSLS     r1,r1,#9
        0x00003d14:    4846        FH      LDR      r0,[pc,#280] ; [0x3e30] = 0x40150000
        0x00003d16:    f7fefec3    ....    BL       UART_Open ; 0x2aa0
        0x00003d1a:    4845        EH      LDR      r0,[pc,#276] ; [0x3e30] = 0x40150000
        0x00003d1c:    6840        @h      LDR      r0,[r0,#4]
        0x00003d1e:    2101        .!      MOVS     r1,#1
        0x00003d20:    4308        .C      ORRS     r0,r0,r1
        0x00003d22:    4943        CI      LDR      r1,[pc,#268] ; [0x3e30] = 0x40150000
        0x00003d24:    6048        H`      STR      r0,[r1,#4]
        0x00003d26:    200d        .       MOVS     r0,#0xd
        0x00003d28:    f7feff84    ....    BL       __NVIC_EnableIRQ ; 0x2c34
        0x00003d2c:    bf00        ..      NOP      
        0x00003d2e:    4941        AI      LDR      r1,[pc,#260] ; [0x3e34] = 0x186a0
        0x00003d30:    4841        AH      LDR      r0,[pc,#260] ; [0x3e38] = 0x40120000
        0x00003d32:    f7fdfa6b    ..k.    BL       I2C_Open ; 0x120c
        0x00003d36:    4840        @H      LDR      r0,[pc,#256] ; [0x3e38] = 0x40120000
        0x00003d38:    f7fdfa57    ..W.    BL       I2C_EnableInt ; 0x11ea
        0x00003d3c:    2013        .       MOVS     r0,#0x13
        0x00003d3e:    f7feff79    ..y.    BL       __NVIC_EnableIRQ ; 0x2c34
        0x00003d42:    483d        =H      LDR      r0,[pc,#244] ; [0x3e38] = 0x40120000
        0x00003d44:    f7fdfa56    ..V.    BL       I2C_GetBusClockFreq ; 0x11f4
        0x00003d48:    493c        <I      LDR      r1,[pc,#240] ; [0x3e3c] = 0x20000074
        0x00003d4a:    6008        .`      STR      r0,[r1,#0]
        0x00003d4c:    f7fdfa7e    ..~.    BL       Init_Thread ; 0x124c
        0x00003d50:    f7fdfaa0    ....    BL       Init_Timers ; 0x1294
        0x00003d54:    2001        .       MOVS     r0,#1
        0x00003d56:    f7feff6d    ..m.    BL       __NVIC_EnableIRQ ; 0x2c34
        0x00003d5a:    bf00        ..      NOP      
        0x00003d5c:    2300        .#      MOVS     r3,#0
        0x00003d5e:    220c        ."      MOVS     r2,#0xc
        0x00003d60:    4619        .F      MOV      r1,r3
        0x00003d62:    4837        7H      LDR      r0,[pc,#220] ; [0x3e40] = 0x400e0000
        0x00003d64:    f7fcfede    ....    BL       ADC_Open ; 0xb24
        0x00003d68:    4835        5H      LDR      r0,[pc,#212] ; [0x3e40] = 0x400e0000
        0x00003d6a:    6a00        .j      LDR      r0,[r0,#0x20]
        0x00003d6c:    2101        .!      MOVS     r1,#1
        0x00003d6e:    4308        .C      ORRS     r0,r0,r1
        0x00003d70:    4933        3I      LDR      r1,[pc,#204] ; [0x3e40] = 0x400e0000
        0x00003d72:    6208        .b      STR      r0,[r1,#0x20]
        0x00003d74:    4608        .F      MOV      r0,r1
        0x00003d76:    6a00        .j      LDR      r0,[r0,#0x20]
        0x00003d78:    2101        .!      MOVS     r1,#1
        0x00003d7a:    02c9        ..      LSLS     r1,r1,#11
        0x00003d7c:    4308        .C      ORRS     r0,r0,r1
        0x00003d7e:    4930        0I      LDR      r1,[pc,#192] ; [0x3e40] = 0x400e0000
        0x00003d80:    6208        .b      STR      r0,[r1,#0x20]
        0x00003d82:    bf00        ..      NOP      
        0x00003d84:    2201        ."      MOVS     r2,#1
        0x00003d86:    2120         !      MOVS     r1,#0x20
        0x00003d88:    2003        .       MOVS     r0,#3
        0x00003d8a:    0280        ..      LSLS     r0,r0,#10
        0x00003d8c:    f7fefeee    ....    BL       WWDT_Open ; 0x2b6c
        0x00003d90:    f000f8b6    ....    BL       osKernelInitialize ; 0x3f00
        0x00003d94:    bf00        ..      NOP      
        0x00003d96:    482b        +H      LDR      r0,[pc,#172] ; [0x3e44] = 0x40004000
        0x00003d98:    6800        .h      LDR      r0,[r0,#0]
        0x00003d9a:    2140        @!      MOVS     r1,#0x40
        0x00003d9c:    4308        .C      ORRS     r0,r0,r1
        0x00003d9e:    4929        )I      LDR      r1,[pc,#164] ; [0x3e44] = 0x40004000
        0x00003da0:    6008        .`      STR      r0,[r1,#0]
        0x00003da2:    bf00        ..      NOP      
        0x00003da4:    2001        .       MOVS     r0,#1
        0x00003da6:    f7feff45    ..E.    BL       __NVIC_EnableIRQ ; 0x2c34
        0x00003daa:    4827        'H      LDR      r0,[pc,#156] ; [0x3e48] = 0x5660
        0x00003dac:    f000f900    ....    BL       osMutexCreate ; 0x3fb0
        0x00003db0:    4926        &I      LDR      r1,[pc,#152] ; [0x3e4c] = 0x20000000
        0x00003db2:    6008        .`      STR      r0,[r1,#0]
        0x00003db4:    4826        &H      LDR      r0,[pc,#152] ; [0x3e50] = 0x5664
        0x00003db6:    f000f8fb    ....    BL       osMutexCreate ; 0x3fb0
        0x00003dba:    4926        &I      LDR      r1,[pc,#152] ; [0x3e54] = 0x20000004
        0x00003dbc:    6008        .`      STR      r0,[r1,#0]
        0x00003dbe:    4826        &H      LDR      r0,[pc,#152] ; [0x3e58] = 0x5668
        0x00003dc0:    f000f8f6    ....    BL       osMutexCreate ; 0x3fb0
        0x00003dc4:    4925        %I      LDR      r1,[pc,#148] ; [0x3e5c] = 0x20000008
        0x00003dc6:    6008        .`      STR      r0,[r1,#0]
        0x00003dc8:    f000f8ae    ....    BL       osKernelStart ; 0x3f28
        0x00003dcc:    f7fffe52    ..R.    BL       ign_sense ; 0x3a74
        0x00003dd0:    2005        .       MOVS     r0,#5
        0x00003dd2:    a323        #.      ADR      r3,{pc}+0x8e ; 0x3e60
        0x00003dd4:    a224        $.      ADR      r2,{pc}+0x94 ; 0x3e68
        0x00003dd6:    a125        %.      ADR      r1,{pc}+0x96 ; 0x3e6c
        0x00003dd8:    9000        ..      STR      r0,[sp,#0]
        0x00003dda:    a026        &.      ADR      r0,{pc}+0x9a ; 0x3e74
        0x00003ddc:    f7fdfbd4    ....    BL       SendAT ; 0x1588
        0x00003de0:    200a        .       MOVS     r0,#0xa
        0x00003de2:    a31f        ..      ADR      r3,{pc}+0x7e ; 0x3e60
        0x00003de4:    a220         .      ADR      r2,{pc}+0x84 ; 0x3e68
        0x00003de6:    a121        !.      ADR      r1,{pc}+0x86 ; 0x3e6c
        0x00003de8:    9000        ..      STR      r0,[sp,#0]
        0x00003dea:    a026        &.      ADR      r0,{pc}+0x9a ; 0x3e84
        0x00003dec:    f7fdfbcc    ....    BL       SendAT ; 0x1588
        0x00003df0:    f7fffde0    ....    BL       fileopen ; 0x39b4
        0x00003df4:    200a        .       MOVS     r0,#0xa
        0x00003df6:    a31a        ..      ADR      r3,{pc}+0x6a ; 0x3e60
        0x00003df8:    a21b        ..      ADR      r2,{pc}+0x70 ; 0x3e68
        0x00003dfa:    a11c        ..      ADR      r1,{pc}+0x72 ; 0x3e6c
        0x00003dfc:    9000        ..      STR      r0,[sp,#0]
        0x00003dfe:    a027        '.      ADR      r0,{pc}+0x9e ; 0x3e9c
        0x00003e00:    f7fdfbc2    ....    BL       SendAT ; 0x1588
        0x00003e04:    e00c        ..      B        0x3e20 ; main + 388
        0x00003e06:    2001        .       MOVS     r0,#1
        0x00003e08:    4929        )I      LDR      r1,[pc,#164] ; [0x3eb0] = 0x20000071
        0x00003e0a:    7008        .p      STRB     r0,[r1,#0]
        0x00003e0c:    2000        .       MOVS     r0,#0
        0x00003e0e:    4929        )I      LDR      r1,[pc,#164] ; [0x3eb4] = 0x20000072
        0x00003e10:    7008        .p      STRB     r0,[r1,#0]
        0x00003e12:    4929        )I      LDR      r1,[pc,#164] ; [0x3eb8] = 0x20000073
        0x00003e14:    7008        .p      STRB     r0,[r1,#0]
        0x00003e16:    f7fffe2d    ..-.    BL       ign_sense ; 0x3a74
        0x00003e1a:    200a        .       MOVS     r0,#0xa
        0x00003e1c:    f000f862    ..b.    BL       osDelay ; 0x3ee4
        0x00003e20:    e7f1        ..      B        0x3e06 ; main + 362
    $d
        0x00003e22:    0000        ..      DCW    0
        0x00003e24:    50000100    ...P    DCD    1342177536
        0x00003e28:    50004040    @@.P    DCD    1342193728
        0x00003e2c:    04000011    ....    DCD    67108881
        0x00003e30:    40150000    ...@    DCD    1075118080
        0x00003e34:    000186a0    ....    DCD    100000
        0x00003e38:    40120000    ...@    DCD    1074921472
        0x00003e3c:    20000074    t..     DCD    536871028
        0x00003e40:    400e0000    ...@    DCD    1074659328
        0x00003e44:    40004000    .@.@    DCD    1073758208
        0x00003e48:    00005660    `V..    DCD    22112
        0x00003e4c:    20000000    ...     DCD    536870912
        0x00003e50:    00005664    dV..    DCD    22116
        0x00003e54:    20000004    ...     DCD    536870916
        0x00003e58:    00005668    hV..    DCD    22120
        0x00003e5c:    20000008    ...     DCD    536870920
        0x00003e60:    4f525245    ERRO    DCD    1330795077
        0x00003e64:    00000052    R...    DCD    82
        0x00003e68:    00004b4f    OK..    DCD    19279
        0x00003e6c:    64616552    Read    DCD    1684104530
        0x00003e70:    00000079    y...    DCD    121
        0x00003e74:    54410a0d    ..AT    DCD    1413548557
        0x00003e78:    4353512b    +QSC    DCD    1129533739
        0x00003e7c:    313d4b4c    LK=1    DCD    826100556
        0x00003e80:    00000a0d    ....    DCD    2573
        0x00003e84:    54410a0d    ..AT    DCD    1413548557
        0x00003e88:    5359532b    +SYS    DCD    1398362923
        0x00003e8c:    534d4554    TEMS    DCD    1397572948
        0x00003e90:    54524154    TART    DCD    1414676820
        0x00003e94:    0d0a0d53    S...    DCD    218762579
        0x00003e98:    0000000a    ....    DCD    10
        0x00003e9c:    54410a0d    ..AT    DCD    1413548557
        0x00003ea0:    4e47512b    +QGN    DCD    1313296683
        0x00003ea4:    3d435353    SSC=    DCD    1027822419
        0x00003ea8:    0d0a0d31    1...    DCD    218762545
        0x00003eac:    0000000a    ....    DCD    10
        0x00003eb0:    20000071    q..     DCD    536871025
        0x00003eb4:    20000072    r..     DCD    536871026
        0x00003eb8:    20000073    s..     DCD    536871027
    $t
    i.mystrstr
    mystrstr
        0x00003ebc:    b5f8        ..      PUSH     {r3-r7,lr}
        0x00003ebe:    4605        .F      MOV      r5,r0
        0x00003ec0:    460e        .F      MOV      r6,r1
        0x00003ec2:    4628        (F      MOV      r0,r5
        0x00003ec4:    f7fcfa80    ....    BL       strlen ; 0x3c8
        0x00003ec8:    4607        .F      MOV      r7,r0
        0x00003eca:    2400        .$      MOVS     r4,#0
        0x00003ecc:    e005        ..      B        0x3eda ; mystrstr + 30
        0x00003ece:    5d28        (]      LDRB     r0,[r5,r4]
        0x00003ed0:    42b0        .B      CMP      r0,r6
        0x00003ed2:    d101        ..      BNE      0x3ed8 ; mystrstr + 28
        0x00003ed4:    2001        .       MOVS     r0,#1
        0x00003ed6:    bdf8        ..      POP      {r3-r7,pc}
        0x00003ed8:    1c64        d.      ADDS     r4,r4,#1
        0x00003eda:    42bc        .B      CMP      r4,r7
        0x00003edc:    ddf7        ..      BLE      0x3ece ; mystrstr + 18
        0x00003ede:    2000        .       MOVS     r0,#0
        0x00003ee0:    e7f9        ..      B        0x3ed6 ; mystrstr + 26
        0x00003ee2:    0000        ..      MOVS     r0,r0
    i.osDelay
    osDelay
        0x00003ee4:    b580        ..      PUSH     {r7,lr}
        0x00003ee6:    f3ef8105    ....    MRS      r1,IPSR
        0x00003eea:    2900        .)      CMP      r1,#0
        0x00003eec:    d001        ..      BEQ      0x3ef2 ; osDelay + 14
        0x00003eee:    2082        .       MOVS     r0,#0x82
        0x00003ef0:    bd80        ..      POP      {r7,pc}
        0x00003ef2:    4f02        .O      LDR      r7,[pc,#8] ; [0x3efc] = 0x52b7
        0x00003ef4:    46bc        .F      MOV      r12,r7
        0x00003ef6:    df00        ..      SVC      #0x0 ; formerly SWI
        0x00003ef8:    bd80        ..      POP      {r7,pc}
    $d
        0x00003efa:    0000        ..      DCW    0
        0x00003efc:    000052b7    .R..    DCD    21175
    $t
    i.osKernelInitialize
    osKernelInitialize
        0x00003f00:    b580        ..      PUSH     {r7,lr}
        0x00003f02:    f3ef8005    ....    MRS      r0,IPSR
        0x00003f06:    2800        .(      CMP      r0,#0
        0x00003f08:    d001        ..      BEQ      0x3f0e ; osKernelInitialize + 14
        0x00003f0a:    2082        .       MOVS     r0,#0x82
        0x00003f0c:    bd80        ..      POP      {r7,pc}
        0x00003f0e:    f3ef8014    ....    MRS      r0,CONTROL
        0x00003f12:    07c0        ..      LSLS     r0,r0,#31
        0x00003f14:    d003        ..      BEQ      0x3f1e ; osKernelInitialize + 30
        0x00003f16:    4f03        .O      LDR      r7,[pc,#12] ; [0x3f24] = 0x52c9
        0x00003f18:    46bc        .F      MOV      r12,r7
        0x00003f1a:    df00        ..      SVC      #0x0 ; formerly SWI
        0x00003f1c:    bd80        ..      POP      {r7,pc}
        0x00003f1e:    f001f9d3    ....    BL       svcKernelInitialize ; 0x52c8
        0x00003f22:    bd80        ..      POP      {r7,pc}
    $d
        0x00003f24:    000052c9    .R..    DCD    21193
    $t
    i.osKernelStart
    osKernelStart
        0x00003f28:    b580        ..      PUSH     {r7,lr}
        0x00003f2a:    b088        ..      SUB      sp,sp,#0x20
        0x00003f2c:    f3ef8005    ....    MRS      r0,IPSR
        0x00003f30:    2800        .(      CMP      r0,#0
        0x00003f32:    d002        ..      BEQ      0x3f3a ; osKernelStart + 18
        0x00003f34:    2082        .       MOVS     r0,#0x82
        0x00003f36:    b008        ..      ADD      sp,sp,#0x20
        0x00003f38:    bd80        ..      POP      {r7,pc}
        0x00003f3a:    f3ef8014    ....    MRS      r0,CONTROL
        0x00003f3e:    0781        ..      LSLS     r1,r0,#30
        0x00003f40:    4812        .H      LDR      r0,[pc,#72] ; [0x3f8c] = 0x56b4
        0x00003f42:    0f89        ..      LSRS     r1,r1,#30
        0x00003f44:    d006        ..      BEQ      0x3f54 ; osKernelStart + 44
        0x00003f46:    2901        .)      CMP      r1,#1
        0x00003f48:    d01a        ..      BEQ      0x3f80 ; osKernelStart + 88
        0x00003f4a:    2902        .)      CMP      r1,#2
        0x00003f4c:    d010        ..      BEQ      0x3f70 ; osKernelStart + 72
        0x00003f4e:    2903        .)      CMP      r1,#3
        0x00003f50:    d118        ..      BNE      0x3f84 ; osKernelStart + 92
        0x00003f52:    e012        ..      B        0x3f7a ; osKernelStart + 82
        0x00003f54:    a908        ..      ADD      r1,sp,#0x20
        0x00003f56:    f3818809    ....    MSR      PSP,r1
        0x00003f5a:    7800        .x      LDRB     r0,[r0,#0]
        0x00003f5c:    07c0        ..      LSLS     r0,r0,#31
        0x00003f5e:    d00a        ..      BEQ      0x3f76 ; osKernelStart + 78
        0x00003f60:    2002        .       MOVS     r0,#2
        0x00003f62:    f3808814    ....    MSR      CONTROL,r0
        0x00003f66:    f3bf8f4f    ..O.    DSB      
        0x00003f6a:    f3bf8f6f    ..o.    ISB      
        0x00003f6e:    e009        ..      B        0x3f84 ; osKernelStart + 92
        0x00003f70:    7800        .x      LDRB     r0,[r0,#0]
        0x00003f72:    07c0        ..      LSLS     r0,r0,#31
        0x00003f74:    d106        ..      BNE      0x3f84 ; osKernelStart + 92
        0x00003f76:    2003        .       MOVS     r0,#3
        0x00003f78:    e7f3        ..      B        0x3f62 ; osKernelStart + 58
        0x00003f7a:    7800        .x      LDRB     r0,[r0,#0]
        0x00003f7c:    07c0        ..      LSLS     r0,r0,#31
        0x00003f7e:    d001        ..      BEQ      0x3f84 ; osKernelStart + 92
        0x00003f80:    20ff        .       MOVS     r0,#0xff
        0x00003f82:    e7d8        ..      B        0x3f36 ; osKernelStart + 14
        0x00003f84:    4f02        .O      LDR      r7,[pc,#8] ; [0x3f90] = 0x5341
        0x00003f86:    46bc        .F      MOV      r12,r7
        0x00003f88:    df00        ..      SVC      #0x0 ; formerly SWI
        0x00003f8a:    e7d4        ..      B        0x3f36 ; osKernelStart + 14
    $d
        0x00003f8c:    000056b4    .V..    DCD    22196
        0x00003f90:    00005341    AS..    DCD    21313
    $t
    i.osMessageGet
    osMessageGet
        0x00003f94:    b580        ..      PUSH     {r7,lr}
        0x00003f96:    f3ef8205    ....    MRS      r2,IPSR
        0x00003f9a:    2a00        .*      CMP      r2,#0
        0x00003f9c:    d002        ..      BEQ      0x3fa4 ; osMessageGet + 16
        0x00003f9e:    f7fffe21    ..!.    BL       isrMessageGet ; 0x3be4
        0x00003fa2:    bd80        ..      POP      {r7,pc}
        0x00003fa4:    4f01        .O      LDR      r7,[pc,#4] ; [0x3fac] = 0x53b7
        0x00003fa6:    46bc        .F      MOV      r12,r7
        0x00003fa8:    df00        ..      SVC      #0x0 ; formerly SWI
        0x00003faa:    bd80        ..      POP      {r7,pc}
    $d
        0x00003fac:    000053b7    .S..    DCD    21431
    $t
    i.osMutexCreate
    osMutexCreate
        0x00003fb0:    b580        ..      PUSH     {r7,lr}
        0x00003fb2:    f3ef8105    ....    MRS      r1,IPSR
        0x00003fb6:    2900        .)      CMP      r1,#0
        0x00003fb8:    d001        ..      BEQ      0x3fbe ; osMutexCreate + 14
        0x00003fba:    2000        .       MOVS     r0,#0
        0x00003fbc:    bd80        ..      POP      {r7,pc}
        0x00003fbe:    f3ef8114    ....    MRS      r1,CONTROL
        0x00003fc2:    07c9        ..      LSLS     r1,r1,#31
        0x00003fc4:    d103        ..      BNE      0x3fce ; osMutexCreate + 30
        0x00003fc6:    4905        .I      LDR      r1,[pc,#20] ; [0x3fdc] = 0x20000124
        0x00003fc8:    7849        Ix      LDRB     r1,[r1,#1]
        0x00003fca:    2900        .)      CMP      r1,#0
        0x00003fcc:    d003        ..      BEQ      0x3fd6 ; osMutexCreate + 38
        0x00003fce:    4f04        .O      LDR      r7,[pc,#16] ; [0x3fe0] = 0x53f3
        0x00003fd0:    46bc        .F      MOV      r12,r7
        0x00003fd2:    df00        ..      SVC      #0x0 ; formerly SWI
        0x00003fd4:    bd80        ..      POP      {r7,pc}
        0x00003fd6:    f001fa0c    ....    BL       svcMutexCreate ; 0x53f2
        0x00003fda:    bd80        ..      POP      {r7,pc}
    $d
        0x00003fdc:    20000124    $..     DCD    536871204
        0x00003fe0:    000053f3    .S..    DCD    21491
    $t
    i.osMutexRelease
    osMutexRelease
        0x00003fe4:    b580        ..      PUSH     {r7,lr}
        0x00003fe6:    f3ef8105    ....    MRS      r1,IPSR
        0x00003fea:    2900        .)      CMP      r1,#0
        0x00003fec:    d001        ..      BEQ      0x3ff2 ; osMutexRelease + 14
        0x00003fee:    2082        .       MOVS     r0,#0x82
        0x00003ff0:    bd80        ..      POP      {r7,pc}
        0x00003ff2:    4f02        .O      LDR      r7,[pc,#8] ; [0x3ffc] = 0x5413
        0x00003ff4:    46bc        .F      MOV      r12,r7
        0x00003ff6:    df00        ..      SVC      #0x0 ; formerly SWI
        0x00003ff8:    bd80        ..      POP      {r7,pc}
    $d
        0x00003ffa:    0000        ..      DCW    0
        0x00003ffc:    00005413    .T..    DCD    21523
    $t
    i.osMutexWait
    osMutexWait
        0x00004000:    b580        ..      PUSH     {r7,lr}
        0x00004002:    f3ef8205    ....    MRS      r2,IPSR
        0x00004006:    2a00        .*      CMP      r2,#0
        0x00004008:    d001        ..      BEQ      0x400e ; osMutexWait + 14
        0x0000400a:    2082        .       MOVS     r0,#0x82
        0x0000400c:    bd80        ..      POP      {r7,pc}
        0x0000400e:    4f02        .O      LDR      r7,[pc,#8] ; [0x4018] = 0x5437
        0x00004010:    46bc        .F      MOV      r12,r7
        0x00004012:    df00        ..      SVC      #0x0 ; formerly SWI
        0x00004014:    bd80        ..      POP      {r7,pc}
    $d
        0x00004016:    0000        ..      DCW    0
        0x00004018:    00005437    7T..    DCD    21559
    $t
    i.osThreadCreate
    osThreadCreate
        0x0000401c:    b580        ..      PUSH     {r7,lr}
        0x0000401e:    f3ef8205    ....    MRS      r2,IPSR
        0x00004022:    2a00        .*      CMP      r2,#0
        0x00004024:    d001        ..      BEQ      0x402a ; osThreadCreate + 14
        0x00004026:    2000        .       MOVS     r0,#0
        0x00004028:    bd80        ..      POP      {r7,pc}
        0x0000402a:    f3ef8214    ....    MRS      r2,CONTROL
        0x0000402e:    07d2        ..      LSLS     r2,r2,#31
        0x00004030:    d103        ..      BNE      0x403a ; osThreadCreate + 30
        0x00004032:    4a05        .J      LDR      r2,[pc,#20] ; [0x4048] = 0x20000124
        0x00004034:    7852        Rx      LDRB     r2,[r2,#1]
        0x00004036:    2a00        .*      CMP      r2,#0
        0x00004038:    d003        ..      BEQ      0x4042 ; osThreadCreate + 38
        0x0000403a:    4f04        .O      LDR      r7,[pc,#16] ; [0x404c] = 0x5475
        0x0000403c:    46bc        .F      MOV      r12,r7
        0x0000403e:    df00        ..      SVC      #0x0 ; formerly SWI
        0x00004040:    bd80        ..      POP      {r7,pc}
        0x00004042:    f001fa17    ....    BL       svcThreadCreate ; 0x5474
        0x00004046:    bd80        ..      POP      {r7,pc}
    $d
        0x00004048:    20000124    $..     DCD    536871204
        0x0000404c:    00005475    uT..    DCD    21621
    $t
    i.osThreadExit
    osThreadExit
        0x00004050:    4f03        .O      LDR      r7,[pc,#12] ; [0x4060] = 0x54e9
        0x00004052:    46bc        .F      MOV      r12,r7
        0x00004054:    df00        ..      SVC      #0x0 ; formerly SWI
        0x00004056:    4f03        .O      LDR      r7,[pc,#12] ; [0x4064] = 0x5505
        0x00004058:    46bc        .F      MOV      r12,r7
        0x0000405a:    df00        ..      SVC      #0x0 ; formerly SWI
        0x0000405c:    e7fe        ..      B        0x405c ; osThreadExit + 12
    $d
        0x0000405e:    0000        ..      DCW    0
        0x00004060:    000054e9    .T..    DCD    21737
        0x00004064:    00005505    .U..    DCD    21765
    $t
    i.osTimerCall
    osTimerCall
        0x00004068:    b580        ..      PUSH     {r7,lr}
        0x0000406a:    4f02        .O      LDR      r7,[pc,#8] ; [0x4074] = 0x5541
        0x0000406c:    46bc        .F      MOV      r12,r7
        0x0000406e:    df00        ..      SVC      #0x0 ; formerly SWI
        0x00004070:    bd80        ..      POP      {r7,pc}
    $d
        0x00004072:    0000        ..      DCW    0
        0x00004074:    00005541    AU..    DCD    21825
    $t
    i.osTimerCreate
    osTimerCreate
        0x00004078:    b580        ..      PUSH     {r7,lr}
        0x0000407a:    f3ef8305    ....    MRS      r3,IPSR
        0x0000407e:    2b00        .+      CMP      r3,#0
        0x00004080:    d001        ..      BEQ      0x4086 ; osTimerCreate + 14
        0x00004082:    2000        .       MOVS     r0,#0
        0x00004084:    bd80        ..      POP      {r7,pc}
        0x00004086:    f3ef8314    ....    MRS      r3,CONTROL
        0x0000408a:    07db        ..      LSLS     r3,r3,#31
        0x0000408c:    d103        ..      BNE      0x4096 ; osTimerCreate + 30
        0x0000408e:    4b05        .K      LDR      r3,[pc,#20] ; [0x40a4] = 0x20000124
        0x00004090:    785b        [x      LDRB     r3,[r3,#1]
        0x00004092:    2b00        .+      CMP      r3,#0
        0x00004094:    d003        ..      BEQ      0x409e ; osTimerCreate + 38
        0x00004096:    4f04        .O      LDR      r7,[pc,#16] ; [0x40a8] = 0x555d
        0x00004098:    46bc        .F      MOV      r12,r7
        0x0000409a:    df00        ..      SVC      #0x0 ; formerly SWI
        0x0000409c:    bd80        ..      POP      {r7,pc}
        0x0000409e:    f001fa5d    ..].    BL       svcTimerCreate ; 0x555c
        0x000040a2:    bd80        ..      POP      {r7,pc}
    $d
        0x000040a4:    20000124    $..     DCD    536871204
        0x000040a8:    0000555d    ]U..    DCD    21853
    $t
    i.osTimerStart
    osTimerStart
        0x000040ac:    b580        ..      PUSH     {r7,lr}
        0x000040ae:    f3ef8205    ....    MRS      r2,IPSR
        0x000040b2:    2a00        .*      CMP      r2,#0
        0x000040b4:    d001        ..      BEQ      0x40ba ; osTimerStart + 14
        0x000040b6:    2082        .       MOVS     r0,#0x82
        0x000040b8:    bd80        ..      POP      {r7,pc}
        0x000040ba:    4f02        .O      LDR      r7,[pc,#8] ; [0x40c4] = 0x559d
        0x000040bc:    46bc        .F      MOV      r12,r7
        0x000040be:    df00        ..      SVC      #0x0 ; formerly SWI
        0x000040c0:    bd80        ..      POP      {r7,pc}
    $d
        0x000040c2:    0000        ..      DCW    0
        0x000040c4:    0000559d    .U..    DCD    21917
    $t
    i.osTimerThread
    osTimerThread
        0x000040c8:    2500        .%      MOVS     r5,#0
        0x000040ca:    4c09        .L      LDR      r4,[pc,#36] ; [0x40f0] = 0x200000e4
        0x000040cc:    43ed        .C      MVNS     r5,r5
        0x000040ce:    4629        )F      MOV      r1,r5
        0x000040d0:    6820         h      LDR      r0,[r4,#0]
        0x000040d2:    f7ffff5f    .._.    BL       osMessageGet ; 0x3f94
        0x000040d6:    4602        .F      MOV      r2,r0
        0x000040d8:    4608        .F      MOV      r0,r1
        0x000040da:    2a10        .*      CMP      r2,#0x10
        0x000040dc:    d1f7        ..      BNE      0x40ce ; osTimerThread + 6
        0x000040de:    f7ffffc3    ....    BL       osTimerCall ; 0x4068
        0x000040e2:    2800        .(      CMP      r0,#0
        0x000040e4:    d0f3        ..      BEQ      0x40ce ; osTimerThread + 6
        0x000040e6:    4602        .F      MOV      r2,r0
        0x000040e8:    4608        .F      MOV      r0,r1
        0x000040ea:    4790        .G      BLX      r2
        0x000040ec:    e7ef        ..      B        0x40ce ; osTimerThread + 6
    $d
        0x000040ee:    0000        ..      DCW    0
        0x000040f0:    200000e4    ...     DCD    536871140
    $t
    i.os_error
    os_error
        0x000040f4:    2801        .(      CMP      r0,#1
        0x000040f6:    d006        ..      BEQ      0x4106 ; os_error + 18
        0x000040f8:    2802        .(      CMP      r0,#2
        0x000040fa:    d005        ..      BEQ      0x4108 ; os_error + 20
        0x000040fc:    2803        .(      CMP      r0,#3
        0x000040fe:    d004        ..      BEQ      0x410a ; os_error + 22
        0x00004100:    2804        .(      CMP      r0,#4
        0x00004102:    d104        ..      BNE      0x410e ; os_error + 26
        0x00004104:    e002        ..      B        0x410c ; os_error + 24
        0x00004106:    e003        ..      B        0x4110 ; os_error + 28
        0x00004108:    e002        ..      B        0x4110 ; os_error + 28
        0x0000410a:    e001        ..      B        0x4110 ; os_error + 28
        0x0000410c:    e000        ..      B        0x4110 ; os_error + 28
        0x0000410e:    bf00        ..      NOP      
        0x00004110:    bf00        ..      NOP      
        0x00004112:    bf00        ..      NOP      
        0x00004114:    e006        ..      B        0x4124 ; os_error + 48
        0x00004116:    4a08        .J      LDR      r2,[pc,#32] ; [0x4138] = 0x50000100
        0x00004118:    2159        Y!      MOVS     r1,#0x59
        0x0000411a:    6011        .`      STR      r1,[r2,#0]
        0x0000411c:    2116        .!      MOVS     r1,#0x16
        0x0000411e:    6011        .`      STR      r1,[r2,#0]
        0x00004120:    2188        .!      MOVS     r1,#0x88
        0x00004122:    6011        .`      STR      r1,[r2,#0]
        0x00004124:    4904        .I      LDR      r1,[pc,#16] ; [0x4138] = 0x50000100
        0x00004126:    6809        .h      LDR      r1,[r1,#0]
        0x00004128:    2901        .)      CMP      r1,#1
        0x0000412a:    d1f4        ..      BNE      0x4116 ; os_error + 34
        0x0000412c:    bf00        ..      NOP      
        0x0000412e:    2205        ."      MOVS     r2,#5
        0x00004130:    0712        ..      LSLS     r2,r2,#28
        0x00004132:    6091        .`      STR      r1,[r2,#8]
        0x00004134:    bf00        ..      NOP      
        0x00004136:    e7fe        ..      B        0x4136 ; os_error + 66
    $d
        0x00004138:    50000100    ...P    DCD    1342177536
    $t
    i.os_idle_demon
    os_idle_demon
        0x0000413c:    bf00        ..      NOP      
        0x0000413e:    e7fe        ..      B        0x413e ; os_idle_demon + 2
    i.os_tick_init
    os_tick_init
        0x00004140:    4807        .H      LDR      r0,[pc,#28] ; [0x4160] = 0x56b0
        0x00004142:    6801        .h      LDR      r1,[r0,#0]
        0x00004144:    4807        .H      LDR      r0,[pc,#28] ; [0x4164] = 0xe000e000
        0x00004146:    6141        Aa      STR      r1,[r0,#0x14]
        0x00004148:    2100        .!      MOVS     r1,#0
        0x0000414a:    6181        .a      STR      r1,[r0,#0x18]
        0x0000414c:    2107        .!      MOVS     r1,#7
        0x0000414e:    6101        .a      STR      r1,[r0,#0x10]
        0x00004150:    4805        .H      LDR      r0,[pc,#20] ; [0x4168] = 0xe000ed00
        0x00004152:    6a01        .j      LDR      r1,[r0,#0x20]
        0x00004154:    22ff        ."      MOVS     r2,#0xff
        0x00004156:    0612        ..      LSLS     r2,r2,#24
        0x00004158:    4311        .C      ORRS     r1,r1,r2
        0x0000415a:    6201        .b      STR      r1,[r0,#0x20]
        0x0000415c:    1740        @.      ASRS     r0,r0,#29
        0x0000415e:    4770        pG      BX       lr
    $d
        0x00004160:    000056b0    .V..    DCD    22192
        0x00004164:    e000e000    ....    DCD    3758153728
        0x00004168:    e000ed00    ....    DCD    3758157056
    $t
    i.os_tick_irqack
    os_tick_irqack
        0x0000416c:    4770        pG      BX       lr
        0x0000416e:    0000        ..      MOVS     r0,r0
    i.parse_g
    parse_g
        0x00004170:    b5ff        ..      PUSH     {r0-r7,lr}
        0x00004172:    b085        ..      SUB      sp,sp,#0x14
        0x00004174:    4606        .F      MOV      r6,r0
        0x00004176:    461f        .F      MOV      r7,r3
        0x00004178:    4639        9F      MOV      r1,r7
        0x0000417a:    4630        0F      MOV      r0,r6
        0x0000417c:    f7fffe9e    ....    BL       mystrstr ; 0x3ebc
        0x00004180:    2800        .(      CMP      r0,#0
        0x00004182:    d041        A.      BEQ      0x4208 ; parse_g + 152
        0x00004184:    4630        0F      MOV      r0,r6
        0x00004186:    990e        ..      LDR      r1,[sp,#0x38]
        0x00004188:    f7fffe98    ....    BL       mystrstr ; 0x3ebc
        0x0000418c:    2800        .(      CMP      r0,#0
        0x0000418e:    d03b        ;.      BEQ      0x4208 ; parse_g + 152
        0x00004190:    4630        0F      MOV      r0,r6
        0x00004192:    f7fcf919    ....    BL       strlen ; 0x3c8
        0x00004196:    9004        ..      STR      r0,[sp,#0x10]
        0x00004198:    980f        ..      LDR      r0,[sp,#0x3c]
        0x0000419a:    f7fcf915    ....    BL       strlen ; 0x3c8
        0x0000419e:    9003        ..      STR      r0,[sp,#0xc]
        0x000041a0:    9903        ..      LDR      r1,[sp,#0xc]
        0x000041a2:    980f        ..      LDR      r0,[sp,#0x3c]
        0x000041a4:    f7fcf8e5    ....    BL       __aeabi_memclr ; 0x372
        0x000041a8:    2400        .$      MOVS     r4,#0
        0x000041aa:    2500        .%      MOVS     r5,#0
        0x000041ac:    e00a        ..      B        0x41c4 ; parse_g + 84
        0x000041ae:    5d31        1]      LDRB     r1,[r6,r4]
        0x000041b0:    980e        ..      LDR      r0,[sp,#0x38]
        0x000041b2:    4281        .B      CMP      r1,r0
        0x000041b4:    d101        ..      BNE      0x41ba ; parse_g + 74
        0x000041b6:    1c6d        m.      ADDS     r5,r5,#1
        0x000041b8:    9402        ..      STR      r4,[sp,#8]
        0x000041ba:    9807        ..      LDR      r0,[sp,#0x1c]
        0x000041bc:    4285        .B      CMP      r5,r0
        0x000041be:    db00        ..      BLT      0x41c2 ; parse_g + 82
        0x000041c0:    4c12        .L      LDR      r4,[pc,#72] ; [0x420c] = 0x26ac
        0x000041c2:    1c64        d.      ADDS     r4,r4,#1
        0x000041c4:    9804        ..      LDR      r0,[sp,#0x10]
        0x000041c6:    4284        .B      CMP      r4,r0
        0x000041c8:    dbf1        ..      BLT      0x41ae ; parse_g + 62
        0x000041ca:    2400        .$      MOVS     r4,#0
        0x000041cc:    2500        .%      MOVS     r5,#0
        0x000041ce:    e009        ..      B        0x41e4 ; parse_g + 116
        0x000041d0:    5d30        0]      LDRB     r0,[r6,r4]
        0x000041d2:    42b8        .B      CMP      r0,r7
        0x000041d4:    d101        ..      BNE      0x41da ; parse_g + 106
        0x000041d6:    1c6d        m.      ADDS     r5,r5,#1
        0x000041d8:    9401        ..      STR      r4,[sp,#4]
        0x000041da:    9806        ..      LDR      r0,[sp,#0x18]
        0x000041dc:    4285        .B      CMP      r5,r0
        0x000041de:    db00        ..      BLT      0x41e2 ; parse_g + 114
        0x000041e0:    4c0a        .L      LDR      r4,[pc,#40] ; [0x420c] = 0x26ac
        0x000041e2:    1c64        d.      ADDS     r4,r4,#1
        0x000041e4:    9804        ..      LDR      r0,[sp,#0x10]
        0x000041e6:    4284        .B      CMP      r4,r0
        0x000041e8:    dbf2        ..      BLT      0x41d0 ; parse_g + 96
        0x000041ea:    2400        .$      MOVS     r4,#0
        0x000041ec:    e006        ..      B        0x41fc ; parse_g + 140
        0x000041ee:    9801        ..      LDR      r0,[sp,#4]
        0x000041f0:    1900        ..      ADDS     r0,r0,r4
        0x000041f2:    1c40        @.      ADDS     r0,r0,#1
        0x000041f4:    5c31        1\      LDRB     r1,[r6,r0]
        0x000041f6:    980f        ..      LDR      r0,[sp,#0x3c]
        0x000041f8:    5501        .U      STRB     r1,[r0,r4]
        0x000041fa:    1c64        d.      ADDS     r4,r4,#1
        0x000041fc:    9901        ..      LDR      r1,[sp,#4]
        0x000041fe:    9802        ..      LDR      r0,[sp,#8]
        0x00004200:    1a40        @.      SUBS     r0,r0,r1
        0x00004202:    1e40        @.      SUBS     r0,r0,#1
        0x00004204:    42a0        .B      CMP      r0,r4
        0x00004206:    dcf2        ..      BGT      0x41ee ; parse_g + 126
        0x00004208:    b009        ..      ADD      sp,sp,#0x24
        0x0000420a:    bdf0        ..      POP      {r4-r7,pc}
    $d
        0x0000420c:    000026ac    .&..    DCD    9900
    $t
    i.remove_all_chars
    remove_all_chars
        0x00004210:    b530        0.      PUSH     {r4,r5,lr}
        0x00004212:    4603        .F      MOV      r3,r0
        0x00004214:    460c        .F      MOV      r4,r1
        0x00004216:    4619        .F      MOV      r1,r3
        0x00004218:    4618        .F      MOV      r0,r3
        0x0000421a:    e015        ..      B        0x4248 ; remove_all_chars + 56
        0x0000421c:    780d        .x      LDRB     r5,[r1,#0]
        0x0000421e:    7005        .p      STRB     r5,[r0,#0]
        0x00004220:    1c49        I.      ADDS     r1,r1,#1
        0x00004222:    7805        .x      LDRB     r5,[r0,#0]
        0x00004224:    42a5        .B      CMP      r5,r4
        0x00004226:    d00d        ..      BEQ      0x4244 ; remove_all_chars + 52
        0x00004228:    7805        .x      LDRB     r5,[r0,#0]
        0x0000422a:    4295        .B      CMP      r5,r2
        0x0000422c:    d00a        ..      BEQ      0x4244 ; remove_all_chars + 52
        0x0000422e:    7805        .x      LDRB     r5,[r0,#0]
        0x00004230:    2d20         -      CMP      r5,#0x20
        0x00004232:    d007        ..      BEQ      0x4244 ; remove_all_chars + 52
        0x00004234:    7805        .x      LDRB     r5,[r0,#0]
        0x00004236:    2d2f        /-      CMP      r5,#0x2f
        0x00004238:    d004        ..      BEQ      0x4244 ; remove_all_chars + 52
        0x0000423a:    7805        .x      LDRB     r5,[r0,#0]
        0x0000423c:    2d3a        :-      CMP      r5,#0x3a
        0x0000423e:    d001        ..      BEQ      0x4244 ; remove_all_chars + 52
        0x00004240:    2501        .%      MOVS     r5,#1
        0x00004242:    e000        ..      B        0x4246 ; remove_all_chars + 54
        0x00004244:    2500        .%      MOVS     r5,#0
        0x00004246:    1828        (.      ADDS     r0,r5,r0
        0x00004248:    780d        .x      LDRB     r5,[r1,#0]
        0x0000424a:    2d00        .-      CMP      r5,#0
        0x0000424c:    d1e6        ..      BNE      0x421c ; remove_all_chars + 12
        0x0000424e:    7005        .p      STRB     r5,[r0,#0]
        0x00004250:    bd30        0.      POP      {r4,r5,pc}
    i.rt_alloc_box
    rt_alloc_box
        0x00004252:    4601        .F      MOV      r1,r0
        0x00004254:    f3ef8010    ....    MRS      r0,PRIMASK
        0x00004258:    07c2        ..      LSLS     r2,r0,#31
        0x0000425a:    0fd2        ..      LSRS     r2,r2,#31
        0x0000425c:    b672        r.      CPSID    i
        0x0000425e:    6808        .h      LDR      r0,[r1,#0]
        0x00004260:    2800        .(      CMP      r0,#0
        0x00004262:    d001        ..      BEQ      0x4268 ; rt_alloc_box + 22
        0x00004264:    6803        .h      LDR      r3,[r0,#0]
        0x00004266:    600b        .`      STR      r3,[r1,#0]
        0x00004268:    2a00        .*      CMP      r2,#0
        0x0000426a:    d100        ..      BNE      0x426e ; rt_alloc_box + 28
        0x0000426c:    b662        b.      CPSIE    i
        0x0000426e:    4770        pG      BX       lr
    i.rt_alloc_mem
    rt_alloc_mem
        0x00004270:    b510        ..      PUSH     {r4,lr}
        0x00004272:    2800        .(      CMP      r0,#0
        0x00004274:    d00e        ..      BEQ      0x4294 ; rt_alloc_mem + 36
        0x00004276:    2900        .)      CMP      r1,#0
        0x00004278:    d00c        ..      BEQ      0x4294 ; rt_alloc_mem + 36
        0x0000427a:    310b        .1      ADDS     r1,r1,#0xb
        0x0000427c:    088a        ..      LSRS     r2,r1,#2
        0x0000427e:    0092        ..      LSLS     r2,r2,#2
        0x00004280:    6801        .h      LDR      r1,[r0,#0]
        0x00004282:    6844        Dh      LDR      r4,[r0,#4]
        0x00004284:    1a0b        ..      SUBS     r3,r1,r0
        0x00004286:    1b1b        ..      SUBS     r3,r3,r4
        0x00004288:    4293        .B      CMP      r3,r2
        0x0000428a:    d205        ..      BCS      0x4298 ; rt_alloc_mem + 40
        0x0000428c:    4608        .F      MOV      r0,r1
        0x0000428e:    6809        .h      LDR      r1,[r1,#0]
        0x00004290:    2900        .)      CMP      r1,#0
        0x00004292:    d1f5        ..      BNE      0x4280 ; rt_alloc_mem + 16
        0x00004294:    2000        .       MOVS     r0,#0
        0x00004296:    bd10        ..      POP      {r4,pc}
        0x00004298:    0021        !.      MOVS     r1,r4
        0x0000429a:    d007        ..      BEQ      0x42ac ; rt_alloc_mem + 60
        0x0000429c:    1821        !.      ADDS     r1,r4,r0
        0x0000429e:    6803        .h      LDR      r3,[r0,#0]
        0x000042a0:    600b        .`      STR      r3,[r1,#0]
        0x000042a2:    604a        J`      STR      r2,[r1,#4]
        0x000042a4:    6001        .`      STR      r1,[r0,#0]
        0x000042a6:    4608        .F      MOV      r0,r1
        0x000042a8:    3008        .0      ADDS     r0,r0,#8
        0x000042aa:    bd10        ..      POP      {r4,pc}
        0x000042ac:    6042        B`      STR      r2,[r0,#4]
        0x000042ae:    3008        .0      ADDS     r0,r0,#8
        0x000042b0:    bd10        ..      POP      {r4,pc}
        0x000042b2:    0000        ..      MOVS     r0,r0
    i.rt_block
    rt_block
        0x000042b4:    b570        p.      PUSH     {r4-r6,lr}
        0x000042b6:    460d        .F      MOV      r5,r1
        0x000042b8:    2800        .(      CMP      r0,#0
        0x000042ba:    d00f        ..      BEQ      0x42dc ; rt_block + 40
        0x000042bc:    4908        .I      LDR      r1,[pc,#32] ; [0x42e0] = 0xffff
        0x000042be:    4c09        .L      LDR      r4,[pc,#36] ; [0x42e4] = 0x2000012c
        0x000042c0:    4288        .B      CMP      r0,r1
        0x000042c2:    d204        ..      BCS      0x42ce ; rt_block + 26
        0x000042c4:    6822        "h      LDR      r2,[r4,#0]
        0x000042c6:    4601        .F      MOV      r1,r0
        0x000042c8:    4610        .F      MOV      r0,r2
        0x000042ca:    f000fb8b    ....    BL       rt_put_dly ; 0x49e4
        0x000042ce:    6820         h      LDR      r0,[r4,#0]
        0x000042d0:    7045        Ep      STRB     r5,[r0,#1]
        0x000042d2:    4805        .H      LDR      r0,[pc,#20] ; [0x42e8] = 0x20003838
        0x000042d4:    f000f8df    ....    BL       rt_get_first ; 0x4496
        0x000042d8:    f000fc50    ..P.    BL       rt_switch_req ; 0x4b7c
        0x000042dc:    bd70        p.      POP      {r4-r6,pc}
    $d
        0x000042de:    0000        ..      DCW    0
        0x000042e0:    0000ffff    ....    DCD    65535
        0x000042e4:    2000012c    ,..     DCD    536871212
        0x000042e8:    20003838    88.     DCD    536885304
    $t
    i.rt_chk_robin
    rt_chk_robin
        0x000042ec:    b510        ..      PUSH     {r4,lr}
        0x000042ee:    480e        .H      LDR      r0,[pc,#56] ; [0x4328] = 0x20003838
        0x000042f0:    490c        .I      LDR      r1,[pc,#48] ; [0x4324] = 0x20000140
        0x000042f2:    6842        Bh      LDR      r2,[r0,#4]
        0x000042f4:    480d        .H      LDR      r0,[pc,#52] ; [0x432c] = 0x2000013c
        0x000042f6:    680b        .h      LDR      r3,[r1,#0]
        0x000042f8:    6800        .h      LDR      r0,[r0,#0]
        0x000042fa:    4293        .B      CMP      r3,r2
        0x000042fc:    d004        ..      BEQ      0x4308 ; rt_chk_robin + 28
        0x000042fe:    600a        .`      STR      r2,[r1,#0]
        0x00004300:    88cb        ..      LDRH     r3,[r1,#6]
        0x00004302:    1e42        B.      SUBS     r2,r0,#1
        0x00004304:    189a        ..      ADDS     r2,r3,r2
        0x00004306:    808a        ..      STRH     r2,[r1,#4]
        0x00004308:    888a        ..      LDRH     r2,[r1,#4]
        0x0000430a:    b280        ..      UXTH     r0,r0
        0x0000430c:    4282        .B      CMP      r2,r0
        0x0000430e:    d108        ..      BNE      0x4322 ; rt_chk_robin + 54
        0x00004310:    2000        .       MOVS     r0,#0
        0x00004312:    6008        .`      STR      r0,[r1,#0]
        0x00004314:    4804        .H      LDR      r0,[pc,#16] ; [0x4328] = 0x20003838
        0x00004316:    f000f8be    ....    BL       rt_get_first ; 0x4496
        0x0000431a:    4601        .F      MOV      r1,r0
        0x0000431c:    4802        .H      LDR      r0,[pc,#8] ; [0x4328] = 0x20003838
        0x0000431e:    f000fb89    ....    BL       rt_put_prio ; 0x4a34
        0x00004322:    bd10        ..      POP      {r4,pc}
    $d
        0x00004324:    20000140    @..     DCD    536871232
        0x00004328:    20003838    88.     DCD    536885304
        0x0000432c:    2000013c    <..     DCD    536871228
    $t
    i.rt_dec_dly
    rt_dec_dly
        0x00004330:    b570        p.      PUSH     {r4-r6,lr}
        0x00004332:    4d1a        .M      LDR      r5,[pc,#104] ; [0x439c] = 0x20003850
        0x00004334:    68e8        .h      LDR      r0,[r5,#0xc]
        0x00004336:    2800        .(      CMP      r0,#0
        0x00004338:    d02f        /.      BEQ      0x439a ; rt_dec_dly + 106
        0x0000433a:    8aa8        ..      LDRH     r0,[r5,#0x14]
        0x0000433c:    1e40        @.      SUBS     r0,r0,#1
        0x0000433e:    82a8        ..      STRH     r0,[r5,#0x14]
        0x00004340:    2600        .&      MOVS     r6,#0
        0x00004342:    e024        $.      B        0x438e ; rt_dec_dly + 94
        0x00004344:    68a0        .h      LDR      r0,[r4,#8]
        0x00004346:    2800        .(      CMP      r0,#0
        0x00004348:    d008        ..      BEQ      0x435c ; rt_dec_dly + 44
        0x0000434a:    6861        ah      LDR      r1,[r4,#4]
        0x0000434c:    6041        A`      STR      r1,[r0,#4]
        0x0000434e:    6860        `h      LDR      r0,[r4,#4]
        0x00004350:    2800        .(      CMP      r0,#0
        0x00004352:    d002        ..      BEQ      0x435a ; rt_dec_dly + 42
        0x00004354:    68a1        .h      LDR      r1,[r4,#8]
        0x00004356:    6081        .`      STR      r1,[r0,#8]
        0x00004358:    6066        f`      STR      r6,[r4,#4]
        0x0000435a:    60a6        .`      STR      r6,[r4,#8]
        0x0000435c:    480f        .H      LDR      r0,[pc,#60] ; [0x439c] = 0x20003850
        0x0000435e:    4621        !F      MOV      r1,r4
        0x00004360:    3818        .8      SUBS     r0,r0,#0x18
        0x00004362:    f000fb67    ..g.    BL       rt_put_prio ; 0x4a34
        0x00004366:    8aa0        ..      LDRH     r0,[r4,#0x14]
        0x00004368:    82a8        ..      STRH     r0,[r5,#0x14]
        0x0000436a:    7860        `x      LDRB     r0,[r4,#1]
        0x0000436c:    2804        .(      CMP      r0,#4
        0x0000436e:    d104        ..      BNE      0x437a ; rt_dec_dly + 74
        0x00004370:    490b        .I      LDR      r1,[pc,#44] ; [0x43a0] = 0x2000013c
        0x00004372:    8ae0        ..      LDRH     r0,[r4,#0x16]
        0x00004374:    8809        ..      LDRH     r1,[r1,#0]
        0x00004376:    1840        @.      ADDS     r0,r0,r1
        0x00004378:    82a0        ..      STRH     r0,[r4,#0x14]
        0x0000437a:    2001        .       MOVS     r0,#1
        0x0000437c:    7060        `p      STRB     r0,[r4,#1]
        0x0000437e:    68e0        .h      LDR      r0,[r4,#0xc]
        0x00004380:    60e8        .`      STR      r0,[r5,#0xc]
        0x00004382:    68e0        .h      LDR      r0,[r4,#0xc]
        0x00004384:    2800        .(      CMP      r0,#0
        0x00004386:    d001        ..      BEQ      0x438c ; rt_dec_dly + 92
        0x00004388:    6105        .a      STR      r5,[r0,#0x10]
        0x0000438a:    60e6        .`      STR      r6,[r4,#0xc]
        0x0000438c:    6126        &a      STR      r6,[r4,#0x10]
        0x0000438e:    8aa8        ..      LDRH     r0,[r5,#0x14]
        0x00004390:    2800        .(      CMP      r0,#0
        0x00004392:    d102        ..      BNE      0x439a ; rt_dec_dly + 106
        0x00004394:    68ec        .h      LDR      r4,[r5,#0xc]
        0x00004396:    2c00        .,      CMP      r4,#0
        0x00004398:    d1d4        ..      BNE      0x4344 ; rt_dec_dly + 20
        0x0000439a:    bd70        p.      POP      {r4-r6,pc}
    $d
        0x0000439c:    20003850    P8.     DCD    536885328
        0x000043a0:    2000013c    <..     DCD    536871228
    $t
    i.rt_dispatch
    rt_dispatch
        0x000043a4:    b570        p.      PUSH     {r4-r6,lr}
        0x000043a6:    0004        ..      MOVS     r4,r0
        0x000043a8:    d00e        ..      BEQ      0x43c8 ; rt_dispatch + 36
        0x000043aa:    4d0c        .M      LDR      r5,[pc,#48] ; [0x43dc] = 0x2000012c
        0x000043ac:    78a1        .x      LDRB     r1,[r4,#2]
        0x000043ae:    6828        (h      LDR      r0,[r5,#0]
        0x000043b0:    2601        .&      MOVS     r6,#1
        0x000043b2:    7882        .x      LDRB     r2,[r0,#2]
        0x000043b4:    4291        .B      CMP      r1,r2
        0x000043b6:    d90b        ..      BLS      0x43d0 ; rt_dispatch + 44
        0x000043b8:    f000fb5a    ..Z.    BL       rt_put_rdy_first ; 0x4a70
        0x000043bc:    6828        (h      LDR      r0,[r5,#0]
        0x000043be:    7046        Fp      STRB     r6,[r0,#1]
        0x000043c0:    4620         F      MOV      r0,r4
        0x000043c2:    f000fbdb    ....    BL       rt_switch_req ; 0x4b7c
        0x000043c6:    bd70        p.      POP      {r4-r6,pc}
        0x000043c8:    4805        .H      LDR      r0,[pc,#20] ; [0x43e0] = 0x20003838
        0x000043ca:    f000f864    ..d.    BL       rt_get_first ; 0x4496
        0x000043ce:    e7f8        ..      B        0x43c2 ; rt_dispatch + 30
        0x000043d0:    7066        fp      STRB     r6,[r4,#1]
        0x000043d2:    4621        !F      MOV      r1,r4
        0x000043d4:    4802        .H      LDR      r0,[pc,#8] ; [0x43e0] = 0x20003838
        0x000043d6:    f000fb2d    ..-.    BL       rt_put_prio ; 0x4a34
        0x000043da:    bd70        p.      POP      {r4-r6,pc}
    $d
        0x000043dc:    2000012c    ,..     DCD    536871212
        0x000043e0:    20003838    88.     DCD    536885304
    $t
    i.rt_dly_wait
    rt_dly_wait
        0x000043e4:    b510        ..      PUSH     {r4,lr}
        0x000043e6:    2103        .!      MOVS     r1,#3
        0x000043e8:    f7ffff64    ..d.    BL       rt_block ; 0x42b4
        0x000043ec:    bd10        ..      POP      {r4,pc}
        0x000043ee:    0000        ..      MOVS     r0,r0
    i.rt_evt_psh
    rt_evt_psh
        0x000043f0:    b510        ..      PUSH     {r4,lr}
        0x000043f2:    4604        .F      MOV      r4,r0
        0x000043f4:    8b00        ..      LDRH     r0,[r0,#0x18]
        0x000043f6:    4308        .C      ORRS     r0,r0,r1
        0x000043f8:    8320         .      STRH     r0,[r4,#0x18]
        0x000043fa:    7862        bx      LDRB     r2,[r4,#1]
        0x000043fc:    8b61        a.      LDRH     r1,[r4,#0x1a]
        0x000043fe:    2a06        .*      CMP      r2,#6
        0x00004400:    d017        ..      BEQ      0x4432 ; rt_evt_psh + 66
        0x00004402:    2a05        .*      CMP      r2,#5
        0x00004404:    d114        ..      BNE      0x4430 ; rt_evt_psh + 64
        0x00004406:    4208        .B      TST      r0,r1
        0x00004408:    d012        ..      BEQ      0x4430 ; rt_evt_psh + 64
        0x0000440a:    460a        .F      MOV      r2,r1
        0x0000440c:    4002        .@      ANDS     r2,r2,r0
        0x0000440e:    8362        b.      STRH     r2,[r4,#0x1a]
        0x00004410:    4388        .C      BICS     r0,r0,r1
        0x00004412:    8320         .      STRH     r0,[r4,#0x18]
        0x00004414:    4620         F      MOV      r0,r4
        0x00004416:    f000fb54    ..T.    BL       rt_rmv_dly ; 0x4ac2
        0x0000441a:    2001        .       MOVS     r0,#1
        0x0000441c:    7060        `p      STRB     r0,[r4,#1]
        0x0000441e:    8b62        b.      LDRH     r2,[r4,#0x1a]
        0x00004420:    2108        .!      MOVS     r1,#8
        0x00004422:    4620         F      MOV      r0,r4
        0x00004424:    f000fb49    ..I.    BL       rt_ret_val2 ; 0x4aba
        0x00004428:    4621        !F      MOV      r1,r4
        0x0000442a:    4804        .H      LDR      r0,[pc,#16] ; [0x443c] = 0x20003838
        0x0000442c:    f000fb02    ....    BL       rt_put_prio ; 0x4a34
        0x00004430:    bd10        ..      POP      {r4,pc}
        0x00004432:    460a        .F      MOV      r2,r1
        0x00004434:    4382        .C      BICS     r2,r2,r0
        0x00004436:    d0eb        ..      BEQ      0x4410 ; rt_evt_psh + 32
        0x00004438:    bd10        ..      POP      {r4,pc}
    $d
        0x0000443a:    0000        ..      DCW    0
        0x0000443c:    20003838    88.     DCD    536885304
    $t
    i.rt_free_box
    rt_free_box
        0x00004440:    4281        .B      CMP      r1,r0
        0x00004442:    d302        ..      BCC      0x444a ; rt_free_box + 10
        0x00004444:    6842        Bh      LDR      r2,[r0,#4]
        0x00004446:    428a        .B      CMP      r2,r1
        0x00004448:    d801        ..      BHI      0x444e ; rt_free_box + 14
        0x0000444a:    2001        .       MOVS     r0,#1
        0x0000444c:    4770        pG      BX       lr
        0x0000444e:    f3ef8210    ....    MRS      r2,PRIMASK
        0x00004452:    07d2        ..      LSLS     r2,r2,#31
        0x00004454:    0fd2        ..      LSRS     r2,r2,#31
        0x00004456:    b672        r.      CPSID    i
        0x00004458:    6803        .h      LDR      r3,[r0,#0]
        0x0000445a:    600b        .`      STR      r3,[r1,#0]
        0x0000445c:    6001        .`      STR      r1,[r0,#0]
        0x0000445e:    d100        ..      BNE      0x4462 ; rt_free_box + 34
        0x00004460:    b662        b.      CPSIE    i
        0x00004462:    2000        .       MOVS     r0,#0
        0x00004464:    4770        pG      BX       lr
    i.rt_free_mem
    rt_free_mem
        0x00004466:    2800        .(      CMP      r0,#0
        0x00004468:    d010        ..      BEQ      0x448c ; rt_free_mem + 38
        0x0000446a:    2900        .)      CMP      r1,#0
        0x0000446c:    d00e        ..      BEQ      0x448c ; rt_free_mem + 38
        0x0000446e:    2200        ."      MOVS     r2,#0
        0x00004470:    3908        .9      SUBS     r1,r1,#8
        0x00004472:    e003        ..      B        0x447c ; rt_free_mem + 22
        0x00004474:    4602        .F      MOV      r2,r0
        0x00004476:    6800        .h      LDR      r0,[r0,#0]
        0x00004478:    2800        .(      CMP      r0,#0
        0x0000447a:    d007        ..      BEQ      0x448c ; rt_free_mem + 38
        0x0000447c:    4288        .B      CMP      r0,r1
        0x0000447e:    d1f9        ..      BNE      0x4474 ; rt_free_mem + 14
        0x00004480:    2a00        .*      CMP      r2,#0
        0x00004482:    d005        ..      BEQ      0x4490 ; rt_free_mem + 42
        0x00004484:    6800        .h      LDR      r0,[r0,#0]
        0x00004486:    6010        .`      STR      r0,[r2,#0]
        0x00004488:    2000        .       MOVS     r0,#0
        0x0000448a:    4770        pG      BX       lr
        0x0000448c:    2001        .       MOVS     r0,#1
        0x0000448e:    4770        pG      BX       lr
        0x00004490:    2100        .!      MOVS     r1,#0
        0x00004492:    6041        A`      STR      r1,[r0,#4]
        0x00004494:    e7f8        ..      B        0x4488 ; rt_free_mem + 34
    i.rt_get_first
    rt_get_first
        0x00004496:    4601        .F      MOV      r1,r0
        0x00004498:    6840        @h      LDR      r0,[r0,#4]
        0x0000449a:    6842        Bh      LDR      r2,[r0,#4]
        0x0000449c:    604a        J`      STR      r2,[r1,#4]
        0x0000449e:    780b        .x      LDRB     r3,[r1,#0]
        0x000044a0:    2200        ."      MOVS     r2,#0
        0x000044a2:    2b02        .+      CMP      r3,#2
        0x000044a4:    d005        ..      BEQ      0x44b2 ; rt_get_first + 28
        0x000044a6:    2b01        .+      CMP      r3,#1
        0x000044a8:    d003        ..      BEQ      0x44b2 ; rt_get_first + 28
        0x000044aa:    2b03        .+      CMP      r3,#3
        0x000044ac:    d001        ..      BEQ      0x44b2 ; rt_get_first + 28
        0x000044ae:    6042        B`      STR      r2,[r0,#4]
        0x000044b0:    4770        pG      BX       lr
        0x000044b2:    6843        Ch      LDR      r3,[r0,#4]
        0x000044b4:    2b00        .+      CMP      r3,#0
        0x000044b6:    d001        ..      BEQ      0x44bc ; rt_get_first + 38
        0x000044b8:    6099        .`      STR      r1,[r3,#8]
        0x000044ba:    6042        B`      STR      r2,[r0,#4]
        0x000044bc:    6082        .`      STR      r2,[r0,#8]
        0x000044be:    4770        pG      BX       lr
    i.rt_id2obj
    rt_id2obj
        0x000044c0:    0781        ..      LSLS     r1,r0,#30
        0x000044c2:    d000        ..      BEQ      0x44c6 ; rt_id2obj + 6
        0x000044c4:    2000        .       MOVS     r0,#0
        0x000044c6:    4770        pG      BX       lr
    i.rt_init_context
    rt_init_context
        0x000044c8:    b570        p.      PUSH     {r4-r6,lr}
        0x000044ca:    4604        .F      MOV      r4,r0
        0x000044cc:    4615        .F      MOV      r5,r2
        0x000044ce:    2000        .       MOVS     r0,#0
        0x000044d0:    7020         p      STRB     r0,[r4,#0]
        0x000044d2:    2201        ."      MOVS     r2,#1
        0x000044d4:    7062        bp      STRB     r2,[r4,#1]
        0x000044d6:    4622        "F      MOV      r2,r4
        0x000044d8:    70a1        .p      STRB     r1,[r4,#2]
        0x000044da:    3220         2      ADDS     r2,r2,#0x20
        0x000044dc:    7111        .q      STRB     r1,[r2,#4]
        0x000044de:    6060        ``      STR      r0,[r4,#4]
        0x000044e0:    60a0        .`      STR      r0,[r4,#8]
        0x000044e2:    60e0        .`      STR      r0,[r4,#0xc]
        0x000044e4:    6120         a      STR      r0,[r4,#0x10]
        0x000044e6:    6220         b      STR      r0,[r4,#0x20]
        0x000044e8:    82a0        ..      STRH     r0,[r4,#0x14]
        0x000044ea:    82e0        ..      STRH     r0,[r4,#0x16]
        0x000044ec:    8320         .      STRH     r0,[r4,#0x18]
        0x000044ee:    8360        `.      STRH     r0,[r4,#0x1a]
        0x000044f0:    7150        Pq      STRB     r0,[r2,#5]
        0x000044f2:    8ce0        ..      LDRH     r0,[r4,#0x26]
        0x000044f4:    2800        .(      CMP      r0,#0
        0x000044f6:    d103        ..      BNE      0x4500 ; rt_init_context + 56
        0x000044f8:    4804        .H      LDR      r0,[pc,#16] ; [0x450c] = 0x200014b0
        0x000044fa:    f7fffeaa    ....    BL       rt_alloc_box ; 0x4252
        0x000044fe:    62e0        .b      STR      r0,[r4,#0x2c]
        0x00004500:    4629        )F      MOV      r1,r5
        0x00004502:    4620         F      MOV      r0,r4
        0x00004504:    f000f81e    ....    BL       rt_init_stack ; 0x4544
        0x00004508:    bd70        p.      POP      {r4-r6,pc}
    $d
        0x0000450a:    0000        ..      DCW    0
        0x0000450c:    200014b0    ...     DCD    536876208
    $t
    i.rt_init_mem
    rt_init_mem
        0x00004510:    2800        .(      CMP      r0,#0
        0x00004512:    d001        ..      BEQ      0x4518 ; rt_init_mem + 8
        0x00004514:    2908        .)      CMP      r1,#8
        0x00004516:    d201        ..      BCS      0x451c ; rt_init_mem + 12
        0x00004518:    2001        .       MOVS     r0,#1
        0x0000451a:    4770        pG      BX       lr
        0x0000451c:    1841        A.      ADDS     r1,r0,r1
        0x0000451e:    1f09        ..      SUBS     r1,r1,#4
        0x00004520:    2200        ."      MOVS     r2,#0
        0x00004522:    6001        .`      STR      r1,[r0,#0]
        0x00004524:    600a        .`      STR      r2,[r1,#0]
        0x00004526:    6042        B`      STR      r2,[r0,#4]
        0x00004528:    4610        .F      MOV      r0,r2
        0x0000452a:    4770        pG      BX       lr
    i.rt_init_robin
    rt_init_robin
        0x0000452c:    4803        .H      LDR      r0,[pc,#12] ; [0x453c] = 0x20000140
        0x0000452e:    2100        .!      MOVS     r1,#0
        0x00004530:    6001        .`      STR      r1,[r0,#0]
        0x00004532:    4903        .I      LDR      r1,[pc,#12] ; [0x4540] = 0x56a4
        0x00004534:    8809        ..      LDRH     r1,[r1,#0]
        0x00004536:    80c1        ..      STRH     r1,[r0,#6]
        0x00004538:    4770        pG      BX       lr
    $d
        0x0000453a:    0000        ..      DCW    0
        0x0000453c:    20000140    @..     DCD    536871232
        0x00004540:    000056a4    .V..    DCD    22180
    $t
    i.rt_init_stack
    rt_init_stack
        0x00004544:    b5f0        ..      PUSH     {r4-r7,lr}
        0x00004546:    8cc2        ..      LDRH     r2,[r0,#0x26]
        0x00004548:    4d19        .M      LDR      r5,[pc,#100] ; [0x45b0] = 0x56a0
        0x0000454a:    0893        ..      LSRS     r3,r2,#2
        0x0000454c:    d102        ..      BNE      0x4554 ; rt_init_stack + 16
        0x0000454e:    882a        *.      LDRH     r2,[r5,#0]
        0x00004550:    0412        ..      LSLS     r2,r2,#16
        0x00004552:    0c93        ..      LSRS     r3,r2,#18
        0x00004554:    6ac2        .j      LDR      r2,[r0,#0x2c]
        0x00004556:    009c        ..      LSLS     r4,r3,#2
        0x00004558:    1912        ..      ADDS     r2,r2,r4
        0x0000455a:    0754        T.      LSLS     r4,r2,#29
        0x0000455c:    d500        ..      BPL      0x4560 ; rt_init_stack + 28
        0x0000455e:    1f12        ..      SUBS     r2,r2,#4
        0x00004560:    2401        .$      MOVS     r4,#1
        0x00004562:    0624        $.      LSLS     r4,r4,#24
        0x00004564:    3a40        @:      SUBS     r2,r2,#0x40
        0x00004566:    63d4        .c      STR      r4,[r2,#0x3c]
        0x00004568:    2400        .$      MOVS     r4,#0
        0x0000456a:    6391        .c      STR      r1,[r2,#0x38]
        0x0000456c:    4626        &F      MOV      r6,r4
        0x0000456e:    00a7        ..      LSLS     r7,r4,#2
        0x00004570:    1c64        d.      ADDS     r4,r4,#1
        0x00004572:    51d6        .Q      STR      r6,[r2,r7]
        0x00004574:    2c0e        .,      CMP      r4,#0xe
        0x00004576:    d3fa        ..      BCC      0x456e ; rt_init_stack + 42
        0x00004578:    69c4        .i      LDR      r4,[r0,#0x1c]
        0x0000457a:    6214        .b      STR      r4,[r2,#0x20]
        0x0000457c:    6282        .b      STR      r2,[r0,#0x28]
        0x0000457e:    6301        .c      STR      r1,[r0,#0x30]
        0x00004580:    6829        )h      LDR      r1,[r5,#0]
        0x00004582:    00c9        ..      LSLS     r1,r1,#3
        0x00004584:    d50f        ..      BPL      0x45a6 ; rt_init_stack + 98
        0x00004586:    2b11        .+      CMP      r3,#0x11
        0x00004588:    d90d        ..      BLS      0x45a6 ; rt_init_stack + 98
        0x0000458a:    3b10        .;      SUBS     r3,r3,#0x10
        0x0000458c:    0859        Y.      LSRS     r1,r3,#1
        0x0000458e:    4b09        .K      LDR      r3,[pc,#36] ; [0x45b4] = 0xcccccccc
        0x00004590:    e002        ..      B        0x4598 ; rt_init_stack + 84
        0x00004592:    3a08        .:      SUBS     r2,r2,#8
        0x00004594:    6053        S`      STR      r3,[r2,#4]
        0x00004596:    6013        .`      STR      r3,[r2,#0]
        0x00004598:    1e49        I.      SUBS     r1,r1,#1
        0x0000459a:    d1fa        ..      BNE      0x4592 ; rt_init_stack + 78
        0x0000459c:    6ac1        .j      LDR      r1,[r0,#0x2c]
        0x0000459e:    1f12        ..      SUBS     r2,r2,#4
        0x000045a0:    428a        .B      CMP      r2,r1
        0x000045a2:    d900        ..      BLS      0x45a6 ; rt_init_stack + 98
        0x000045a4:    6013        .`      STR      r3,[r2,#0]
        0x000045a6:    6ac0        .j      LDR      r0,[r0,#0x2c]
        0x000045a8:    4903        .I      LDR      r1,[pc,#12] ; [0x45b8] = 0xe25a2ea5
        0x000045aa:    6001        .`      STR      r1,[r0,#0]
        0x000045ac:    bdf0        ..      POP      {r4-r7,pc}
    $d
        0x000045ae:    0000        ..      DCW    0
        0x000045b0:    000056a0    .V..    DCD    22176
        0x000045b4:    cccccccc    ....    DCD    3435973836
        0x000045b8:    e25a2ea5    ..Z.    DCD    3797560997
    $t
    i.rt_mbx_check
    rt_mbx_check
        0x000045bc:    89c1        ..      LDRH     r1,[r0,#0xe]
        0x000045be:    8980        ..      LDRH     r0,[r0,#0xc]
        0x000045c0:    1a08        ..      SUBS     r0,r1,r0
        0x000045c2:    4770        pG      BX       lr
    i.rt_mbx_init
    rt_mbx_init
        0x000045c4:    2201        ."      MOVS     r2,#1
        0x000045c6:    7002        .p      STRB     r2,[r0,#0]
        0x000045c8:    2200        ."      MOVS     r2,#0
        0x000045ca:    7042        Bp      STRB     r2,[r0,#1]
        0x000045cc:    7082        .p      STRB     r2,[r0,#2]
        0x000045ce:    6042        B`      STR      r2,[r0,#4]
        0x000045d0:    8102        ..      STRH     r2,[r0,#8]
        0x000045d2:    8142        B.      STRH     r2,[r0,#0xa]
        0x000045d4:    8182        ..      STRH     r2,[r0,#0xc]
        0x000045d6:    4a03        .J      LDR      r2,[pc,#12] ; [0x45e4] = 0xfffc0000
        0x000045d8:    0389        ..      LSLS     r1,r1,#14
        0x000045da:    1889        ..      ADDS     r1,r1,r2
        0x000045dc:    0c09        ..      LSRS     r1,r1,#16
        0x000045de:    81c1        ..      STRH     r1,[r0,#0xe]
        0x000045e0:    4770        pG      BX       lr
    $d
        0x000045e2:    0000        ..      DCW    0
        0x000045e4:    fffc0000    ....    DCD    4294705152
    $t
    i.rt_mbx_psh
    rt_mbx_psh
        0x000045e8:    b5f8        ..      PUSH     {r3-r7,lr}
        0x000045ea:    4604        .F      MOV      r4,r0
        0x000045ec:    6840        @h      LDR      r0,[r0,#4]
        0x000045ee:    2700        .'      MOVS     r7,#0
        0x000045f0:    460d        .F      MOV      r5,r1
        0x000045f2:    2800        .(      CMP      r0,#0
        0x000045f4:    d044        D.      BEQ      0x4680 ; rt_mbx_psh + 152
        0x000045f6:    7860        `x      LDRB     r0,[r4,#1]
        0x000045f8:    2601        .&      MOVS     r6,#1
        0x000045fa:    2801        .(      CMP      r0,#1
        0x000045fc:    d037        7.      BEQ      0x466e ; rt_mbx_psh + 134
        0x000045fe:    2802        .(      CMP      r0,#2
        0x00004600:    d013        ..      BEQ      0x462a ; rt_mbx_psh + 66
        0x00004602:    2803        .(      CMP      r0,#3
        0x00004604:    d132        2.      BNE      0x466c ; rt_mbx_psh + 132
        0x00004606:    4608        .F      MOV      r0,r1
        0x00004608:    f7fffe23    ..#.    BL       rt_alloc_box ; 0x4252
        0x0000460c:    0005        ..      MOVS     r5,r0
        0x0000460e:    d02d        -.      BEQ      0x466c ; rt_mbx_psh + 132
        0x00004610:    4620         F      MOV      r0,r4
        0x00004612:    f7ffff40    ..@.    BL       rt_get_first ; 0x4496
        0x00004616:    4604        .F      MOV      r4,r0
        0x00004618:    4629        )F      MOV      r1,r5
        0x0000461a:    f000fa4b    ..K.    BL       rt_ret_val ; 0x4ab4
        0x0000461e:    7066        fp      STRB     r6,[r4,#1]
        0x00004620:    4620         F      MOV      r0,r4
        0x00004622:    f000fa4e    ..N.    BL       rt_rmv_dly ; 0x4ac2
        0x00004626:    4621        !F      MOV      r1,r4
        0x00004628:    e01d        ..      B        0x4666 ; rt_mbx_psh + 126
        0x0000462a:    4620         F      MOV      r0,r4
        0x0000462c:    f7ffff33    ..3.    BL       rt_get_first ; 0x4496
        0x00004630:    4605        .F      MOV      r5,r0
        0x00004632:    2100        .!      MOVS     r1,#0
        0x00004634:    f000fa3e    ..>.    BL       rt_ret_val ; 0x4ab4
        0x00004638:    8921        !.      LDRH     r1,[r4,#8]
        0x0000463a:    69e8        .i      LDR      r0,[r5,#0x1c]
        0x0000463c:    0089        ..      LSLS     r1,r1,#2
        0x0000463e:    1909        ..      ADDS     r1,r1,r4
        0x00004640:    6108        .a      STR      r0,[r1,#0x10]
        0x00004642:    b672        r.      CPSID    i
        0x00004644:    89a0        ..      LDRH     r0,[r4,#0xc]
        0x00004646:    1c40        @.      ADDS     r0,r0,#1
        0x00004648:    81a0        ..      STRH     r0,[r4,#0xc]
        0x0000464a:    b662        b.      CPSIE    i
        0x0000464c:    8920         .      LDRH     r0,[r4,#8]
        0x0000464e:    1c40        @.      ADDS     r0,r0,#1
        0x00004650:    b280        ..      UXTH     r0,r0
        0x00004652:    8120         .      STRH     r0,[r4,#8]
        0x00004654:    89e1        ..      LDRH     r1,[r4,#0xe]
        0x00004656:    4288        .B      CMP      r0,r1
        0x00004658:    d100        ..      BNE      0x465c ; rt_mbx_psh + 116
        0x0000465a:    8127        '.      STRH     r7,[r4,#8]
        0x0000465c:    706e        np      STRB     r6,[r5,#1]
        0x0000465e:    4628        (F      MOV      r0,r5
        0x00004660:    f000fa2f    ../.    BL       rt_rmv_dly ; 0x4ac2
        0x00004664:    4629        )F      MOV      r1,r5
        0x00004666:    4813        .H      LDR      r0,[pc,#76] ; [0x46b4] = 0x20003838
        0x00004668:    f000f9e4    ....    BL       rt_put_prio ; 0x4a34
        0x0000466c:    bdf8        ..      POP      {r3-r7,pc}
        0x0000466e:    4620         F      MOV      r0,r4
        0x00004670:    f7ffff11    ....    BL       rt_get_first ; 0x4496
        0x00004674:    4604        .F      MOV      r4,r0
        0x00004676:    462a        *F      MOV      r2,r5
        0x00004678:    2110        .!      MOVS     r1,#0x10
        0x0000467a:    f000fa1e    ....    BL       rt_ret_val2 ; 0x4aba
        0x0000467e:    e7ce        ..      B        0x461e ; rt_mbx_psh + 54
        0x00004680:    89a0        ..      LDRH     r0,[r4,#0xc]
        0x00004682:    89e1        ..      LDRH     r1,[r4,#0xe]
        0x00004684:    4288        .B      CMP      r0,r1
        0x00004686:    d211        ..      BCS      0x46ac ; rt_mbx_psh + 196
        0x00004688:    8920         .      LDRH     r0,[r4,#8]
        0x0000468a:    0080        ..      LSLS     r0,r0,#2
        0x0000468c:    1900        ..      ADDS     r0,r0,r4
        0x0000468e:    6105        .a      STR      r5,[r0,#0x10]
        0x00004690:    b672        r.      CPSID    i
        0x00004692:    89a0        ..      LDRH     r0,[r4,#0xc]
        0x00004694:    1c40        @.      ADDS     r0,r0,#1
        0x00004696:    81a0        ..      STRH     r0,[r4,#0xc]
        0x00004698:    b662        b.      CPSIE    i
        0x0000469a:    8920         .      LDRH     r0,[r4,#8]
        0x0000469c:    1c40        @.      ADDS     r0,r0,#1
        0x0000469e:    b280        ..      UXTH     r0,r0
        0x000046a0:    8120         .      STRH     r0,[r4,#8]
        0x000046a2:    89e1        ..      LDRH     r1,[r4,#0xe]
        0x000046a4:    4288        .B      CMP      r0,r1
        0x000046a6:    d1e1        ..      BNE      0x466c ; rt_mbx_psh + 132
        0x000046a8:    8127        '.      STRH     r7,[r4,#8]
        0x000046aa:    bdf8        ..      POP      {r3-r7,pc}
        0x000046ac:    2003        .       MOVS     r0,#3
        0x000046ae:    f7fffd21    ..!.    BL       os_error ; 0x40f4
        0x000046b2:    bdf8        ..      POP      {r3-r7,pc}
    $d
        0x000046b4:    20003838    88.     DCD    536885304
    $t
    i.rt_mbx_wait
    rt_mbx_wait
        0x000046b8:    b570        p.      PUSH     {r4-r6,lr}
        0x000046ba:    4604        .F      MOV      r4,r0
        0x000046bc:    8980        ..      LDRH     r0,[r0,#0xc]
        0x000046be:    2600        .&      MOVS     r6,#0
        0x000046c0:    4615        .F      MOV      r5,r2
        0x000046c2:    2800        .(      CMP      r0,#0
        0x000046c4:    d034        4.      BEQ      0x4730 ; rt_mbx_wait + 120
        0x000046c6:    8960        `.      LDRH     r0,[r4,#0xa]
        0x000046c8:    0080        ..      LSLS     r0,r0,#2
        0x000046ca:    1900        ..      ADDS     r0,r0,r4
        0x000046cc:    6900        .i      LDR      r0,[r0,#0x10]
        0x000046ce:    6008        .`      STR      r0,[r1,#0]
        0x000046d0:    8960        `.      LDRH     r0,[r4,#0xa]
        0x000046d2:    1c40        @.      ADDS     r0,r0,#1
        0x000046d4:    b280        ..      UXTH     r0,r0
        0x000046d6:    8160        `.      STRH     r0,[r4,#0xa]
        0x000046d8:    89e1        ..      LDRH     r1,[r4,#0xe]
        0x000046da:    4288        .B      CMP      r0,r1
        0x000046dc:    d100        ..      BNE      0x46e0 ; rt_mbx_wait + 40
        0x000046de:    8166        f.      STRH     r6,[r4,#0xa]
        0x000046e0:    6860        `h      LDR      r0,[r4,#4]
        0x000046e2:    2800        .(      CMP      r0,#0
        0x000046e4:    d002        ..      BEQ      0x46ec ; rt_mbx_wait + 52
        0x000046e6:    7860        `x      LDRB     r0,[r4,#1]
        0x000046e8:    2802        .(      CMP      r0,#2
        0x000046ea:    d006        ..      BEQ      0x46fa ; rt_mbx_wait + 66
        0x000046ec:    b672        r.      CPSID    i
        0x000046ee:    89a0        ..      LDRH     r0,[r4,#0xc]
        0x000046f0:    1e40        @.      SUBS     r0,r0,#1
        0x000046f2:    81a0        ..      STRH     r0,[r4,#0xc]
        0x000046f4:    b662        b.      CPSIE    i
        0x000046f6:    2000        .       MOVS     r0,#0
        0x000046f8:    bd70        p.      POP      {r4-r6,pc}
        0x000046fa:    4620         F      MOV      r0,r4
        0x000046fc:    f7fffecb    ....    BL       rt_get_first ; 0x4496
        0x00004700:    4605        .F      MOV      r5,r0
        0x00004702:    2100        .!      MOVS     r1,#0
        0x00004704:    f000f9d6    ....    BL       rt_ret_val ; 0x4ab4
        0x00004708:    8921        !.      LDRH     r1,[r4,#8]
        0x0000470a:    69e8        .i      LDR      r0,[r5,#0x1c]
        0x0000470c:    0089        ..      LSLS     r1,r1,#2
        0x0000470e:    1909        ..      ADDS     r1,r1,r4
        0x00004710:    6108        .a      STR      r0,[r1,#0x10]
        0x00004712:    8920         .      LDRH     r0,[r4,#8]
        0x00004714:    1c40        @.      ADDS     r0,r0,#1
        0x00004716:    b280        ..      UXTH     r0,r0
        0x00004718:    8120         .      STRH     r0,[r4,#8]
        0x0000471a:    89e1        ..      LDRH     r1,[r4,#0xe]
        0x0000471c:    4288        .B      CMP      r0,r1
        0x0000471e:    d100        ..      BNE      0x4722 ; rt_mbx_wait + 106
        0x00004720:    8126        &.      STRH     r6,[r4,#8]
        0x00004722:    4628        (F      MOV      r0,r5
        0x00004724:    f000f9cd    ....    BL       rt_rmv_dly ; 0x4ac2
        0x00004728:    4628        (F      MOV      r0,r5
        0x0000472a:    f7fffe3b    ..;.    BL       rt_dispatch ; 0x43a4
        0x0000472e:    e7e2        ..      B        0x46f6 ; rt_mbx_wait + 62
        0x00004730:    2d00        .-      CMP      r5,#0
        0x00004732:    d008        ..      BEQ      0x4746 ; rt_mbx_wait + 142
        0x00004734:    480b        .H      LDR      r0,[pc,#44] ; [0x4764] = 0x2000012c
        0x00004736:    6862        bh      LDR      r2,[r4,#4]
        0x00004738:    6801        .h      LDR      r1,[r0,#0]
        0x0000473a:    2a00        .*      CMP      r2,#0
        0x0000473c:    d005        ..      BEQ      0x474a ; rt_mbx_wait + 146
        0x0000473e:    4620         F      MOV      r0,r4
        0x00004740:    f000f978    ..x.    BL       rt_put_prio ; 0x4a34
        0x00004744:    e008        ..      B        0x4758 ; rt_mbx_wait + 160
        0x00004746:    2001        .       MOVS     r0,#1
        0x00004748:    bd70        p.      POP      {r4-r6,pc}
        0x0000474a:    6061        a`      STR      r1,[r4,#4]
        0x0000474c:    6801        .h      LDR      r1,[r0,#0]
        0x0000474e:    604e        N`      STR      r6,[r1,#4]
        0x00004750:    6800        .h      LDR      r0,[r0,#0]
        0x00004752:    6084        .`      STR      r4,[r0,#8]
        0x00004754:    2001        .       MOVS     r0,#1
        0x00004756:    7060        `p      STRB     r0,[r4,#1]
        0x00004758:    2108        .!      MOVS     r1,#8
        0x0000475a:    4628        (F      MOV      r0,r5
        0x0000475c:    f7fffdaa    ....    BL       rt_block ; 0x42b4
        0x00004760:    e7f1        ..      B        0x4746 ; rt_mbx_wait + 142
    $d
        0x00004762:    0000        ..      DCW    0
        0x00004764:    2000012c    ,..     DCD    536871212
    $t
    i.rt_ms2tick
    rt_ms2tick
        0x00004768:    b510        ..      PUSH     {r4,lr}
        0x0000476a:    2800        .(      CMP      r0,#0
        0x0000476c:    d012        ..      BEQ      0x4794 ; rt_ms2tick + 44
        0x0000476e:    1c41        A.      ADDS     r1,r0,#1
        0x00004770:    d011        ..      BEQ      0x4796 ; rt_ms2tick + 46
        0x00004772:    490b        .I      LDR      r1,[pc,#44] ; [0x47a0] = 0x3d0900
        0x00004774:    4c0b        .L      LDR      r4,[pc,#44] ; [0x47a4] = 0xfffe
        0x00004776:    4288        .B      CMP      r0,r1
        0x00004778:    d80b        ..      BHI      0x4792 ; rt_ms2tick + 42
        0x0000477a:    217d        }!      MOVS     r1,#0x7d
        0x0000477c:    00c9        ..      LSLS     r1,r1,#3
        0x0000477e:    4348        HC      MULS     r0,r1,r0
        0x00004780:    4909        .I      LDR      r1,[pc,#36] ; [0x47a8] = 0x56c0
        0x00004782:    680a        .h      LDR      r2,[r1,#0]
        0x00004784:    1880        ..      ADDS     r0,r0,r2
        0x00004786:    4611        .F      MOV      r1,r2
        0x00004788:    1e40        @.      SUBS     r0,r0,#1
        0x0000478a:    f7fbfd91    ....    BL       __aeabi_uidiv ; 0x2b0
        0x0000478e:    42a0        .B      CMP      r0,r4
        0x00004790:    d904        ..      BLS      0x479c ; rt_ms2tick + 52
        0x00004792:    4620         F      MOV      r0,r4
        0x00004794:    bd10        ..      POP      {r4,pc}
        0x00004796:    4803        .H      LDR      r0,[pc,#12] ; [0x47a4] = 0xfffe
        0x00004798:    1c40        @.      ADDS     r0,r0,#1
        0x0000479a:    bd10        ..      POP      {r4,pc}
        0x0000479c:    b280        ..      UXTH     r0,r0
        0x0000479e:    bd10        ..      POP      {r4,pc}
    $d
        0x000047a0:    003d0900    ..=.    DCD    4000000
        0x000047a4:    0000fffe    ....    DCD    65534
        0x000047a8:    000056c0    .V..    DCD    22208
    $t
    i.rt_mut_init
    rt_mut_init
        0x000047ac:    2103        .!      MOVS     r1,#3
        0x000047ae:    7001        .p      STRB     r1,[r0,#0]
        0x000047b0:    2100        .!      MOVS     r1,#0
        0x000047b2:    8041        A.      STRH     r1,[r0,#2]
        0x000047b4:    6041        A`      STR      r1,[r0,#4]
        0x000047b6:    6081        .`      STR      r1,[r0,#8]
        0x000047b8:    60c1        .`      STR      r1,[r0,#0xc]
        0x000047ba:    4770        pG      BX       lr
    i.rt_mut_release
    rt_mut_release
        0x000047bc:    b5f8        ..      PUSH     {r3-r7,lr}
        0x000047be:    4604        .F      MOV      r4,r0
        0x000047c0:    8840        @.      LDRH     r0,[r0,#2]
        0x000047c2:    2800        .(      CMP      r0,#0
        0x000047c4:    d004        ..      BEQ      0x47d0 ; rt_mut_release + 20
        0x000047c6:    4d31        1M      LDR      r5,[pc,#196] ; [0x488c] = 0x2000012c
        0x000047c8:    68a1        .h      LDR      r1,[r4,#8]
        0x000047ca:    682a        *h      LDR      r2,[r5,#0]
        0x000047cc:    4291        .B      CMP      r1,r2
        0x000047ce:    d001        ..      BEQ      0x47d4 ; rt_mut_release + 24
        0x000047d0:    20ff        .       MOVS     r0,#0xff
        0x000047d2:    bdf8        ..      POP      {r3-r7,pc}
        0x000047d4:    1e40        @.      SUBS     r0,r0,#1
        0x000047d6:    0400        ..      LSLS     r0,r0,#16
        0x000047d8:    0c00        ..      LSRS     r0,r0,#16
        0x000047da:    8060        `.      STRH     r0,[r4,#2]
        0x000047dc:    d153        S.      BNE      0x4886 ; rt_mut_release + 202
        0x000047de:    6829        )h      LDR      r1,[r5,#0]
        0x000047e0:    6a08        .j      LDR      r0,[r1,#0x20]
        0x000047e2:    42a0        .B      CMP      r0,r4
        0x000047e4:    d109        ..      BNE      0x47fa ; rt_mut_release + 62
        0x000047e6:    68e0        .h      LDR      r0,[r4,#0xc]
        0x000047e8:    6208        .b      STR      r0,[r1,#0x20]
        0x000047ea:    e008        ..      B        0x47fe ; rt_mut_release + 66
        0x000047ec:    68c2        .h      LDR      r2,[r0,#0xc]
        0x000047ee:    42a2        .B      CMP      r2,r4
        0x000047f0:    d102        ..      BNE      0x47f8 ; rt_mut_release + 60
        0x000047f2:    68e2        .h      LDR      r2,[r4,#0xc]
        0x000047f4:    60c2        .`      STR      r2,[r0,#0xc]
        0x000047f6:    e002        ..      B        0x47fe ; rt_mut_release + 66
        0x000047f8:    4610        .F      MOV      r0,r2
        0x000047fa:    2800        .(      CMP      r0,#0
        0x000047fc:    d1f6        ..      BNE      0x47ec ; rt_mut_release + 48
        0x000047fe:    2024        $       MOVS     r0,#0x24
        0x00004800:    5c40        @\      LDRB     r0,[r0,r1]
        0x00004802:    6a0a        .j      LDR      r2,[r1,#0x20]
        0x00004804:    e007        ..      B        0x4816 ; rt_mut_release + 90
        0x00004806:    6853        Sh      LDR      r3,[r2,#4]
        0x00004808:    2b00        .+      CMP      r3,#0
        0x0000480a:    d003        ..      BEQ      0x4814 ; rt_mut_release + 88
        0x0000480c:    789b        .x      LDRB     r3,[r3,#2]
        0x0000480e:    4283        .B      CMP      r3,r0
        0x00004810:    d900        ..      BLS      0x4814 ; rt_mut_release + 88
        0x00004812:    4618        .F      MOV      r0,r3
        0x00004814:    68d2        .h      LDR      r2,[r2,#0xc]
        0x00004816:    2a00        .*      CMP      r2,#0
        0x00004818:    d1f5        ..      BNE      0x4806 ; rt_mut_release + 74
        0x0000481a:    7088        .p      STRB     r0,[r1,#2]
        0x0000481c:    6861        ah      LDR      r1,[r4,#4]
        0x0000481e:    2601        .&      MOVS     r6,#1
        0x00004820:    2900        .)      CMP      r1,#0
        0x00004822:    d022        ".      BEQ      0x486a ; rt_mut_release + 174
        0x00004824:    4620         F      MOV      r0,r4
        0x00004826:    f7fffe36    ..6.    BL       rt_get_first ; 0x4496
        0x0000482a:    4607        .F      MOV      r7,r0
        0x0000482c:    2100        .!      MOVS     r1,#0
        0x0000482e:    f000f941    ..A.    BL       rt_ret_val ; 0x4ab4
        0x00004832:    4638        8F      MOV      r0,r7
        0x00004834:    f000f945    ..E.    BL       rt_rmv_dly ; 0x4ac2
        0x00004838:    8066        f.      STRH     r6,[r4,#2]
        0x0000483a:    60a7        .`      STR      r7,[r4,#8]
        0x0000483c:    6a38        8j      LDR      r0,[r7,#0x20]
        0x0000483e:    60e0        .`      STR      r0,[r4,#0xc]
        0x00004840:    623c        <b      STR      r4,[r7,#0x20]
        0x00004842:    4813        .H      LDR      r0,[pc,#76] ; [0x4890] = 0x20003838
        0x00004844:    6829        )h      LDR      r1,[r5,#0]
        0x00004846:    6840        @h      LDR      r0,[r0,#4]
        0x00004848:    788a        .x      LDRB     r2,[r1,#2]
        0x0000484a:    7880        .x      LDRB     r0,[r0,#2]
        0x0000484c:    4282        .B      CMP      r2,r0
        0x0000484e:    d301        ..      BCC      0x4854 ; rt_mut_release + 152
        0x00004850:    4638        8F      MOV      r0,r7
        0x00004852:    e016        ..      B        0x4882 ; rt_mut_release + 198
        0x00004854:    480e        .H      LDR      r0,[pc,#56] ; [0x4890] = 0x20003838
        0x00004856:    f000f8ed    ....    BL       rt_put_prio ; 0x4a34
        0x0000485a:    4639        9F      MOV      r1,r7
        0x0000485c:    480c        .H      LDR      r0,[pc,#48] ; [0x4890] = 0x20003838
        0x0000485e:    f000f8e9    ....    BL       rt_put_prio ; 0x4a34
        0x00004862:    6828        (h      LDR      r0,[r5,#0]
        0x00004864:    7046        Fp      STRB     r6,[r0,#1]
        0x00004866:    707e        ~p      STRB     r6,[r7,#1]
        0x00004868:    e00a        ..      B        0x4880 ; rt_mut_release + 196
        0x0000486a:    4909        .I      LDR      r1,[pc,#36] ; [0x4890] = 0x20003838
        0x0000486c:    6849        Ih      LDR      r1,[r1,#4]
        0x0000486e:    788a        .x      LDRB     r2,[r1,#2]
        0x00004870:    6829        )h      LDR      r1,[r5,#0]
        0x00004872:    4282        .B      CMP      r2,r0
        0x00004874:    d907        ..      BLS      0x4886 ; rt_mut_release + 202
        0x00004876:    4806        .H      LDR      r0,[pc,#24] ; [0x4890] = 0x20003838
        0x00004878:    f000f8dc    ....    BL       rt_put_prio ; 0x4a34
        0x0000487c:    6828        (h      LDR      r0,[r5,#0]
        0x0000487e:    7046        Fp      STRB     r6,[r0,#1]
        0x00004880:    2000        .       MOVS     r0,#0
        0x00004882:    f7fffd8f    ....    BL       rt_dispatch ; 0x43a4
        0x00004886:    2000        .       MOVS     r0,#0
        0x00004888:    bdf8        ..      POP      {r3-r7,pc}
    $d
        0x0000488a:    0000        ..      DCW    0
        0x0000488c:    2000012c    ,..     DCD    536871212
        0x00004890:    20003838    88.     DCD    536885304
    $t
    i.rt_mut_wait
    rt_mut_wait
        0x00004894:    b570        p.      PUSH     {r4-r6,lr}
        0x00004896:    460e        .F      MOV      r6,r1
        0x00004898:    4d1c        .M      LDR      r5,[pc,#112] ; [0x490c] = 0x2000012c
        0x0000489a:    4604        .F      MOV      r4,r0
        0x0000489c:    8841        A.      LDRH     r1,[r0,#2]
        0x0000489e:    6828        (h      LDR      r0,[r5,#0]
        0x000048a0:    2900        .)      CMP      r1,#0
        0x000048a2:    d007        ..      BEQ      0x48b4 ; rt_mut_wait + 32
        0x000048a4:    68a2        .h      LDR      r2,[r4,#8]
        0x000048a6:    4282        .B      CMP      r2,r0
        0x000048a8:    d10f        ..      BNE      0x48ca ; rt_mut_wait + 54
        0x000048aa:    4819        .H      LDR      r0,[pc,#100] ; [0x4910] = 0xffff
        0x000048ac:    4281        .B      CMP      r1,r0
        0x000048ae:    d108        ..      BNE      0x48c2 ; rt_mut_wait + 46
        0x000048b0:    20ff        .       MOVS     r0,#0xff
        0x000048b2:    bd70        p.      POP      {r4-r6,pc}
        0x000048b4:    60a0        .`      STR      r0,[r4,#8]
        0x000048b6:    6a01        .j      LDR      r1,[r0,#0x20]
        0x000048b8:    60e1        .`      STR      r1,[r4,#0xc]
        0x000048ba:    6204        .b      STR      r4,[r0,#0x20]
        0x000048bc:    2001        .       MOVS     r0,#1
        0x000048be:    8060        `.      STRH     r0,[r4,#2]
        0x000048c0:    e001        ..      B        0x48c6 ; rt_mut_wait + 50
        0x000048c2:    1c49        I.      ADDS     r1,r1,#1
        0x000048c4:    8061        a.      STRH     r1,[r4,#2]
        0x000048c6:    2000        .       MOVS     r0,#0
        0x000048c8:    bd70        p.      POP      {r4-r6,pc}
        0x000048ca:    2e00        ..      CMP      r6,#0
        0x000048cc:    d00f        ..      BEQ      0x48ee ; rt_mut_wait + 90
        0x000048ce:    7891        .x      LDRB     r1,[r2,#2]
        0x000048d0:    7880        .x      LDRB     r0,[r0,#2]
        0x000048d2:    4281        .B      CMP      r1,r0
        0x000048d4:    d203        ..      BCS      0x48de ; rt_mut_wait + 74
        0x000048d6:    7090        .p      STRB     r0,[r2,#2]
        0x000048d8:    68a0        .h      LDR      r0,[r4,#8]
        0x000048da:    f000f8d3    ....    BL       rt_resort_prio ; 0x4a84
        0x000048de:    6860        `h      LDR      r0,[r4,#4]
        0x000048e0:    2800        .(      CMP      r0,#0
        0x000048e2:    d006        ..      BEQ      0x48f2 ; rt_mut_wait + 94
        0x000048e4:    4620         F      MOV      r0,r4
        0x000048e6:    6829        )h      LDR      r1,[r5,#0]
        0x000048e8:    f000f8a4    ....    BL       rt_put_prio ; 0x4a34
        0x000048ec:    e008        ..      B        0x4900 ; rt_mut_wait + 108
        0x000048ee:    2001        .       MOVS     r0,#1
        0x000048f0:    bd70        p.      POP      {r4-r6,pc}
        0x000048f2:    6828        (h      LDR      r0,[r5,#0]
        0x000048f4:    6060        ``      STR      r0,[r4,#4]
        0x000048f6:    6829        )h      LDR      r1,[r5,#0]
        0x000048f8:    2000        .       MOVS     r0,#0
        0x000048fa:    6048        H`      STR      r0,[r1,#4]
        0x000048fc:    6828        (h      LDR      r0,[r5,#0]
        0x000048fe:    6084        .`      STR      r4,[r0,#8]
        0x00004900:    2109        .!      MOVS     r1,#9
        0x00004902:    4630        0F      MOV      r0,r6
        0x00004904:    f7fffcd6    ....    BL       rt_block ; 0x42b4
        0x00004908:    e7f1        ..      B        0x48ee ; rt_mut_wait + 90
    $d
        0x0000490a:    0000        ..      DCW    0
        0x0000490c:    2000012c    ,..     DCD    536871212
        0x00004910:    0000ffff    ....    DCD    65535
    $t
    i.rt_pop_req
    rt_pop_req
        0x00004914:    b570        p.      PUSH     {r4-r6,lr}
        0x00004916:    4818        .H      LDR      r0,[pc,#96] ; [0x4978] = 0x2000012c
        0x00004918:    2101        .!      MOVS     r1,#1
        0x0000491a:    6802        .h      LDR      r2,[r0,#0]
        0x0000491c:    7051        Qp      STRB     r1,[r2,#1]
        0x0000491e:    6800        .h      LDR      r0,[r0,#0]
        0x00004920:    f000f8a6    ....    BL       rt_put_rdy_first ; 0x4a70
        0x00004924:    4c15        .L      LDR      r4,[pc,#84] ; [0x497c] = 0x20003750
        0x00004926:    7865        ex      LDRB     r5,[r4,#1]
        0x00004928:    e013        ..      B        0x4952 ; rt_pop_req + 62
        0x0000492a:    00e8        ..      LSLS     r0,r5,#3
        0x0000492c:    1901        ..      ADDS     r1,r0,r4
        0x0000492e:    6848        Hh      LDR      r0,[r1,#4]
        0x00004930:    7802        .x      LDRB     r2,[r0,#0]
        0x00004932:    2a00        .*      CMP      r2,#0
        0x00004934:    d017        ..      BEQ      0x4966 ; rt_pop_req + 82
        0x00004936:    2a01        .*      CMP      r2,#1
        0x00004938:    d01a        ..      BEQ      0x4970 ; rt_pop_req + 92
        0x0000493a:    f000f8f1    ....    BL       rt_sem_psh ; 0x4b20
        0x0000493e:    78e0        .x      LDRB     r0,[r4,#3]
        0x00004940:    1c6d        m.      ADDS     r5,r5,#1
        0x00004942:    4285        .B      CMP      r5,r0
        0x00004944:    d100        ..      BNE      0x4948 ; rt_pop_req + 52
        0x00004946:    2500        .%      MOVS     r5,#0
        0x00004948:    b672        r.      CPSID    i
        0x0000494a:    78a0        .x      LDRB     r0,[r4,#2]
        0x0000494c:    1e40        @.      SUBS     r0,r0,#1
        0x0000494e:    70a0        .p      STRB     r0,[r4,#2]
        0x00004950:    b662        b.      CPSIE    i
        0x00004952:    78a0        .x      LDRB     r0,[r4,#2]
        0x00004954:    2800        .(      CMP      r0,#0
        0x00004956:    d1e8        ..      BNE      0x492a ; rt_pop_req + 22
        0x00004958:    7065        ep      STRB     r5,[r4,#1]
        0x0000495a:    4809        .H      LDR      r0,[pc,#36] ; [0x4980] = 0x20003838
        0x0000495c:    f7fffd9b    ....    BL       rt_get_first ; 0x4496
        0x00004960:    f000f90c    ....    BL       rt_switch_req ; 0x4b7c
        0x00004964:    bd70        p.      POP      {r4-r6,pc}
        0x00004966:    8909        ..      LDRH     r1,[r1,#8]
        0x00004968:    b289        ..      UXTH     r1,r1
        0x0000496a:    f7fffd41    ..A.    BL       rt_evt_psh ; 0x43f0
        0x0000496e:    e7e6        ..      B        0x493e ; rt_pop_req + 42
        0x00004970:    6889        .h      LDR      r1,[r1,#8]
        0x00004972:    f7fffe39    ..9.    BL       rt_mbx_psh ; 0x45e8
        0x00004976:    e7e2        ..      B        0x493e ; rt_pop_req + 42
    $d
        0x00004978:    2000012c    ,..     DCD    536871212
        0x0000497c:    20003750    P7.     DCD    536885072
        0x00004980:    20003838    88.     DCD    536885304
    $t
    i.rt_psh_req
    rt_psh_req
        0x00004984:    4805        .H      LDR      r0,[pc,#20] ; [0x499c] = 0x20000134
        0x00004986:    7801        .x      LDRB     r1,[r0,#0]
        0x00004988:    2900        .)      CMP      r1,#0
        0x0000498a:    d002        ..      BEQ      0x4992 ; rt_psh_req + 14
        0x0000498c:    2101        .!      MOVS     r1,#1
        0x0000498e:    7041        Ap      STRB     r1,[r0,#1]
        0x00004990:    4770        pG      BX       lr
        0x00004992:    2001        .       MOVS     r0,#1
        0x00004994:    4902        .I      LDR      r1,[pc,#8] ; [0x49a0] = 0xe000ed00
        0x00004996:    0700        ..      LSLS     r0,r0,#28
        0x00004998:    6048        H`      STR      r0,[r1,#4]
        0x0000499a:    4770        pG      BX       lr
    $d
        0x0000499c:    20000134    4..     DCD    536871220
        0x000049a0:    e000ed00    ....    DCD    3758157056
    $t
    i.rt_psq_enq
    rt_psq_enq
        0x000049a4:    b570        p.      PUSH     {r4-r6,lr}
        0x000049a6:    4b0e        .K      LDR      r3,[pc,#56] ; [0x49e0] = 0x20003750
        0x000049a8:    78dd        .x      LDRB     r5,[r3,#3]
        0x000049aa:    1c9c        ..      ADDS     r4,r3,#2
        0x000049ac:    461e        .F      MOV      r6,r3
        0x000049ae:    b672        r.      CPSID    i
        0x000049b0:    789a        .x      LDRB     r2,[r3,#2]
        0x000049b2:    42aa        .B      CMP      r2,r5
        0x000049b4:    d207        ..      BCS      0x49c6 ; rt_psq_enq + 34
        0x000049b6:    1c52        R.      ADDS     r2,r2,#1
        0x000049b8:    7022        "p      STRB     r2,[r4,#0]
        0x000049ba:    7832        2x      LDRB     r2,[r6,#0]
        0x000049bc:    1c54        T.      ADDS     r4,r2,#1
        0x000049be:    42ac        .B      CMP      r4,r5
        0x000049c0:    d100        ..      BNE      0x49c4 ; rt_psq_enq + 32
        0x000049c2:    2400        .$      MOVS     r4,#0
        0x000049c4:    7034        4p      STRB     r4,[r6,#0]
        0x000049c6:    b662        b.      CPSIE    i
        0x000049c8:    78dc        .x      LDRB     r4,[r3,#3]
        0x000049ca:    4294        .B      CMP      r4,r2
        0x000049cc:    d904        ..      BLS      0x49d8 ; rt_psq_enq + 52
        0x000049ce:    00d2        ..      LSLS     r2,r2,#3
        0x000049d0:    18d2        ..      ADDS     r2,r2,r3
        0x000049d2:    6091        .`      STR      r1,[r2,#8]
        0x000049d4:    6050        P`      STR      r0,[r2,#4]
        0x000049d6:    bd70        p.      POP      {r4-r6,pc}
        0x000049d8:    2002        .       MOVS     r0,#2
        0x000049da:    f7fffb8b    ....    BL       os_error ; 0x40f4
        0x000049de:    bd70        p.      POP      {r4-r6,pc}
    $d
        0x000049e0:    20003750    P7.     DCD    536885072
    $t
    i.rt_put_dly
    rt_put_dly
        0x000049e4:    b510        ..      PUSH     {r4,lr}
        0x000049e6:    4a12        .J      LDR      r2,[pc,#72] ; [0x4a30] = 0x20003850
        0x000049e8:    68d3        .h      LDR      r3,[r2,#0xc]
        0x000049ea:    2b00        .+      CMP      r3,#0
        0x000049ec:    d017        ..      BEQ      0x4a1e ; rt_put_dly + 58
        0x000049ee:    4613        .F      MOV      r3,r2
        0x000049f0:    8a9b        ..      LDRH     r3,[r3,#0x14]
        0x000049f2:    e004        ..      B        0x49fe ; rt_put_dly + 26
        0x000049f4:    2c00        .,      CMP      r4,#0
        0x000049f6:    d012        ..      BEQ      0x4a1e ; rt_put_dly + 58
        0x000049f8:    4622        "F      MOV      r2,r4
        0x000049fa:    8aa4        ..      LDRH     r4,[r4,#0x14]
        0x000049fc:    18e3        ..      ADDS     r3,r4,r3
        0x000049fe:    68d4        .h      LDR      r4,[r2,#0xc]
        0x00004a00:    428b        .B      CMP      r3,r1
        0x00004a02:    d3f7        ..      BCC      0x49f4 ; rt_put_dly + 16
        0x00004a04:    60c4        .`      STR      r4,[r0,#0xc]
        0x00004a06:    60d0        .`      STR      r0,[r2,#0xc]
        0x00004a08:    6102        .a      STR      r2,[r0,#0x10]
        0x00004a0a:    68c4        .h      LDR      r4,[r0,#0xc]
        0x00004a0c:    2c00        .,      CMP      r4,#0
        0x00004a0e:    d000        ..      BEQ      0x4a12 ; rt_put_dly + 46
        0x00004a10:    6120         a      STR      r0,[r4,#0x10]
        0x00004a12:    1a59        Y.      SUBS     r1,r3,r1
        0x00004a14:    8281        ..      STRH     r1,[r0,#0x14]
        0x00004a16:    8a90        ..      LDRH     r0,[r2,#0x14]
        0x00004a18:    1a40        @.      SUBS     r0,r0,r1
        0x00004a1a:    8290        ..      STRH     r0,[r2,#0x14]
        0x00004a1c:    bd10        ..      POP      {r4,pc}
        0x00004a1e:    2400        .$      MOVS     r4,#0
        0x00004a20:    60c4        .`      STR      r4,[r0,#0xc]
        0x00004a22:    60d0        .`      STR      r0,[r2,#0xc]
        0x00004a24:    1ac9        ..      SUBS     r1,r1,r3
        0x00004a26:    6102        .a      STR      r2,[r0,#0x10]
        0x00004a28:    8291        ..      STRH     r1,[r2,#0x14]
        0x00004a2a:    8284        ..      STRH     r4,[r0,#0x14]
        0x00004a2c:    bd10        ..      POP      {r4,pc}
    $d
        0x00004a2e:    0000        ..      DCW    0
        0x00004a30:    20003850    P8.     DCD    536885328
    $t
    i.rt_put_prio
    rt_put_prio
        0x00004a34:    b530        0.      PUSH     {r4,r5,lr}
        0x00004a36:    7802        .x      LDRB     r2,[r0,#0]
        0x00004a38:    2300        .#      MOVS     r3,#0
        0x00004a3a:    2a02        .*      CMP      r2,#2
        0x00004a3c:    d003        ..      BEQ      0x4a46 ; rt_put_prio + 18
        0x00004a3e:    2a01        .*      CMP      r2,#1
        0x00004a40:    d001        ..      BEQ      0x4a46 ; rt_put_prio + 18
        0x00004a42:    2a03        .*      CMP      r2,#3
        0x00004a44:    d100        ..      BNE      0x4a48 ; rt_put_prio + 20
        0x00004a46:    2301        .#      MOVS     r3,#1
        0x00004a48:    788c        .x      LDRB     r4,[r1,#2]
        0x00004a4a:    e000        ..      B        0x4a4e ; rt_put_prio + 26
        0x00004a4c:    4610        .F      MOV      r0,r2
        0x00004a4e:    6842        Bh      LDR      r2,[r0,#4]
        0x00004a50:    2a00        .*      CMP      r2,#0
        0x00004a52:    d002        ..      BEQ      0x4a5a ; rt_put_prio + 38
        0x00004a54:    7895        .x      LDRB     r5,[r2,#2]
        0x00004a56:    42a5        .B      CMP      r5,r4
        0x00004a58:    d2f8        ..      BCS      0x4a4c ; rt_put_prio + 24
        0x00004a5a:    604a        J`      STR      r2,[r1,#4]
        0x00004a5c:    6041        A`      STR      r1,[r0,#4]
        0x00004a5e:    2b00        .+      CMP      r3,#0
        0x00004a60:    d004        ..      BEQ      0x4a6c ; rt_put_prio + 56
        0x00004a62:    2a00        .*      CMP      r2,#0
        0x00004a64:    d000        ..      BEQ      0x4a68 ; rt_put_prio + 52
        0x00004a66:    6091        .`      STR      r1,[r2,#8]
        0x00004a68:    6088        .`      STR      r0,[r1,#8]
        0x00004a6a:    bd30        0.      POP      {r4,r5,pc}
        0x00004a6c:    2000        .       MOVS     r0,#0
        0x00004a6e:    e7fb        ..      B        0x4a68 ; rt_put_prio + 52
    i.rt_put_rdy_first
    rt_put_rdy_first
        0x00004a70:    4903        .I      LDR      r1,[pc,#12] ; [0x4a80] = 0x20003838
        0x00004a72:    684a        Jh      LDR      r2,[r1,#4]
        0x00004a74:    6042        B`      STR      r2,[r0,#4]
        0x00004a76:    2200        ."      MOVS     r2,#0
        0x00004a78:    6082        .`      STR      r2,[r0,#8]
        0x00004a7a:    6048        H`      STR      r0,[r1,#4]
        0x00004a7c:    4770        pG      BX       lr
    $d
        0x00004a7e:    0000        ..      DCW    0
        0x00004a80:    20003838    88.     DCD    536885304
    $t
    i.rt_resort_prio
    rt_resort_prio
        0x00004a84:    b510        ..      PUSH     {r4,lr}
        0x00004a86:    6883        .h      LDR      r3,[r0,#8]
        0x00004a88:    4604        .F      MOV      r4,r0
        0x00004a8a:    2b00        .+      CMP      r3,#0
        0x00004a8c:    d105        ..      BNE      0x4a9a ; rt_resort_prio + 22
        0x00004a8e:    7860        `x      LDRB     r0,[r4,#1]
        0x00004a90:    2801        .(      CMP      r0,#1
        0x00004a92:    d10c        ..      BNE      0x4aae ; rt_resort_prio + 42
        0x00004a94:    4b06        .K      LDR      r3,[pc,#24] ; [0x4ab0] = 0x20003838
        0x00004a96:    e003        ..      B        0x4aa0 ; rt_resort_prio + 28
        0x00004a98:    689b        .h      LDR      r3,[r3,#8]
        0x00004a9a:    7818        .x      LDRB     r0,[r3,#0]
        0x00004a9c:    2800        .(      CMP      r0,#0
        0x00004a9e:    d0fb        ..      BEQ      0x4a98 ; rt_resort_prio + 20
        0x00004aa0:    4620         F      MOV      r0,r4
        0x00004aa2:    f000f823    ..#.    BL       rt_rmv_list ; 0x4aec
        0x00004aa6:    4621        !F      MOV      r1,r4
        0x00004aa8:    4618        .F      MOV      r0,r3
        0x00004aaa:    f7ffffc3    ....    BL       rt_put_prio ; 0x4a34
        0x00004aae:    bd10        ..      POP      {r4,pc}
    $d
        0x00004ab0:    20003838    88.     DCD    536885304
    $t
    i.rt_ret_val
    rt_ret_val
        0x00004ab4:    6a80        .j      LDR      r0,[r0,#0x28]
        0x00004ab6:    6201        .b      STR      r1,[r0,#0x20]
        0x00004ab8:    4770        pG      BX       lr
    i.rt_ret_val2
    rt_ret_val2
        0x00004aba:    6a80        .j      LDR      r0,[r0,#0x28]
        0x00004abc:    6242        Bb      STR      r2,[r0,#0x24]
        0x00004abe:    6201        .b      STR      r1,[r0,#0x20]
        0x00004ac0:    4770        pG      BX       lr
    i.rt_rmv_dly
    rt_rmv_dly
        0x00004ac2:    b510        ..      PUSH     {r4,lr}
        0x00004ac4:    6901        .i      LDR      r1,[r0,#0x10]
        0x00004ac6:    2900        .)      CMP      r1,#0
        0x00004ac8:    d00f        ..      BEQ      0x4aea ; rt_rmv_dly + 40
        0x00004aca:    68c2        .h      LDR      r2,[r0,#0xc]
        0x00004acc:    60ca        .`      STR      r2,[r1,#0xc]
        0x00004ace:    68c3        .h      LDR      r3,[r0,#0xc]
        0x00004ad0:    2200        ."      MOVS     r2,#0
        0x00004ad2:    2b00        .+      CMP      r3,#0
        0x00004ad4:    d007        ..      BEQ      0x4ae6 ; rt_rmv_dly + 36
        0x00004ad6:    8a8b        ..      LDRH     r3,[r1,#0x14]
        0x00004ad8:    8a84        ..      LDRH     r4,[r0,#0x14]
        0x00004ada:    191b        ..      ADDS     r3,r3,r4
        0x00004adc:    828b        ..      STRH     r3,[r1,#0x14]
        0x00004ade:    68c3        .h      LDR      r3,[r0,#0xc]
        0x00004ae0:    6119        .a      STR      r1,[r3,#0x10]
        0x00004ae2:    60c2        .`      STR      r2,[r0,#0xc]
        0x00004ae4:    e000        ..      B        0x4ae8 ; rt_rmv_dly + 38
        0x00004ae6:    828a        ..      STRH     r2,[r1,#0x14]
        0x00004ae8:    6102        .a      STR      r2,[r0,#0x10]
        0x00004aea:    bd10        ..      POP      {r4,pc}
    i.rt_rmv_list
    rt_rmv_list
        0x00004aec:    6881        .h      LDR      r1,[r0,#8]
        0x00004aee:    2900        .)      CMP      r1,#0
        0x00004af0:    d007        ..      BEQ      0x4b02 ; rt_rmv_list + 22
        0x00004af2:    6842        Bh      LDR      r2,[r0,#4]
        0x00004af4:    604a        J`      STR      r2,[r1,#4]
        0x00004af6:    6841        Ah      LDR      r1,[r0,#4]
        0x00004af8:    2900        .)      CMP      r1,#0
        0x00004afa:    d001        ..      BEQ      0x4b00 ; rt_rmv_list + 20
        0x00004afc:    6880        .h      LDR      r0,[r0,#8]
        0x00004afe:    6088        .`      STR      r0,[r1,#8]
        0x00004b00:    4770        pG      BX       lr
        0x00004b02:    4906        .I      LDR      r1,[pc,#24] ; [0x4b1c] = 0x20003838
        0x00004b04:    e006        ..      B        0x4b14 ; rt_rmv_list + 40
        0x00004b06:    684a        Jh      LDR      r2,[r1,#4]
        0x00004b08:    4282        .B      CMP      r2,r0
        0x00004b0a:    d102        ..      BNE      0x4b12 ; rt_rmv_list + 38
        0x00004b0c:    6840        @h      LDR      r0,[r0,#4]
        0x00004b0e:    6048        H`      STR      r0,[r1,#4]
        0x00004b10:    4770        pG      BX       lr
        0x00004b12:    4611        .F      MOV      r1,r2
        0x00004b14:    2900        .)      CMP      r1,#0
        0x00004b16:    d1f6        ..      BNE      0x4b06 ; rt_rmv_list + 26
        0x00004b18:    4770        pG      BX       lr
    $d
        0x00004b1a:    0000        ..      DCW    0
        0x00004b1c:    20003838    88.     DCD    536885304
    $t
    i.rt_sem_psh
    rt_sem_psh
        0x00004b20:    b510        ..      PUSH     {r4,lr}
        0x00004b22:    6841        Ah      LDR      r1,[r0,#4]
        0x00004b24:    2900        .)      CMP      r1,#0
        0x00004b26:    d00f        ..      BEQ      0x4b48 ; rt_sem_psh + 40
        0x00004b28:    f7fffcb5    ....    BL       rt_get_first ; 0x4496
        0x00004b2c:    4604        .F      MOV      r4,r0
        0x00004b2e:    f7ffffc8    ....    BL       rt_rmv_dly ; 0x4ac2
        0x00004b32:    2001        .       MOVS     r0,#1
        0x00004b34:    7060        `p      STRB     r0,[r4,#1]
        0x00004b36:    4601        .F      MOV      r1,r0
        0x00004b38:    4620         F      MOV      r0,r4
        0x00004b3a:    f7ffffbb    ....    BL       rt_ret_val ; 0x4ab4
        0x00004b3e:    4621        !F      MOV      r1,r4
        0x00004b40:    4803        .H      LDR      r0,[pc,#12] ; [0x4b50] = 0x20003838
        0x00004b42:    f7ffff77    ..w.    BL       rt_put_prio ; 0x4a34
        0x00004b46:    bd10        ..      POP      {r4,pc}
        0x00004b48:    8841        A.      LDRH     r1,[r0,#2]
        0x00004b4a:    1c49        I.      ADDS     r1,r1,#1
        0x00004b4c:    8041        A.      STRH     r1,[r0,#2]
        0x00004b4e:    bd10        ..      POP      {r4,pc}
    $d
        0x00004b50:    20003838    88.     DCD    536885304
    $t
    i.rt_stk_check
    rt_stk_check
        0x00004b54:    b510        ..      PUSH     {r4,lr}
        0x00004b56:    4807        .H      LDR      r0,[pc,#28] ; [0x4b74] = 0x2000012c
        0x00004b58:    6800        .h      LDR      r0,[r0,#0]
        0x00004b5a:    6a81        .j      LDR      r1,[r0,#0x28]
        0x00004b5c:    6ac0        .j      LDR      r0,[r0,#0x2c]
        0x00004b5e:    4281        .B      CMP      r1,r0
        0x00004b60:    d303        ..      BCC      0x4b6a ; rt_stk_check + 22
        0x00004b62:    6800        .h      LDR      r0,[r0,#0]
        0x00004b64:    4904        .I      LDR      r1,[pc,#16] ; [0x4b78] = 0xe25a2ea5
        0x00004b66:    4288        .B      CMP      r0,r1
        0x00004b68:    d002        ..      BEQ      0x4b70 ; rt_stk_check + 28
        0x00004b6a:    2001        .       MOVS     r0,#1
        0x00004b6c:    f7fffac2    ....    BL       os_error ; 0x40f4
        0x00004b70:    bd10        ..      POP      {r4,pc}
    $d
        0x00004b72:    0000        ..      DCW    0
        0x00004b74:    2000012c    ,..     DCD    536871212
        0x00004b78:    e25a2ea5    ..Z.    DCD    3797560997
    $t
    i.rt_switch_req
    rt_switch_req
        0x00004b7c:    4902        .I      LDR      r1,[pc,#8] ; [0x4b88] = 0x2000012c
        0x00004b7e:    6048        H`      STR      r0,[r1,#4]
        0x00004b80:    2102        .!      MOVS     r1,#2
        0x00004b82:    7041        Ap      STRB     r1,[r0,#1]
        0x00004b84:    4770        pG      BX       lr
    $d
        0x00004b86:    0000        ..      DCW    0
        0x00004b88:    2000012c    ,..     DCD    536871212
    $t
    i.rt_sys_init
    rt_sys_init
        0x00004b8c:    b570        p.      PUSH     {r4-r6,lr}
        0x00004b8e:    2000        .       MOVS     r0,#0
        0x00004b90:    4604        .F      MOV      r4,r0
        0x00004b92:    4920         I      LDR      r1,[pc,#128] ; [0x4c14] = 0x200037d4
        0x00004b94:    4a20         J      LDR      r2,[pc,#128] ; [0x4c18] = 0x569c
        0x00004b96:    e002        ..      B        0x4b9e ; rt_sys_init + 18
        0x00004b98:    0083        ..      LSLS     r3,r0,#2
        0x00004b9a:    50cc        .P      STR      r4,[r1,r3]
        0x00004b9c:    1c40        @.      ADDS     r0,r0,#1
        0x00004b9e:    8813        ..      LDRH     r3,[r2,#0]
        0x00004ba0:    4298        .B      CMP      r0,r3
        0x00004ba2:    d3f9        ..      BCC      0x4b98 ; rt_sys_init + 12
        0x00004ba4:    481d        .H      LDR      r0,[pc,#116] ; [0x4c1c] = 0x56c8
        0x00004ba6:    2234        4"      MOVS     r2,#0x34
        0x00004ba8:    8801        ..      LDRH     r1,[r0,#0]
        0x00004baa:    481d        .H      LDR      r0,[pc,#116] ; [0x4c20] = 0x200013d0
        0x00004bac:    f7fef90e    ....    BL       _init_box ; 0x2dcc
        0x00004bb0:    481c        .H      LDR      r0,[pc,#112] ; [0x4c24] = 0x56a0
        0x00004bb2:    2101        .!      MOVS     r1,#1
        0x00004bb4:    8800        ..      LDRH     r0,[r0,#0]
        0x00004bb6:    07c9        ..      LSLS     r1,r1,#31
        0x00004bb8:    b280        ..      UXTH     r0,r0
        0x00004bba:    1842        B.      ADDS     r2,r0,r1
        0x00004bbc:    481a        .H      LDR      r0,[pc,#104] ; [0x4c28] = 0x56cc
        0x00004bbe:    6801        .h      LDR      r1,[r0,#0]
        0x00004bc0:    481a        .H      LDR      r0,[pc,#104] ; [0x4c2c] = 0x200014b0
        0x00004bc2:    f7fef903    ....    BL       _init_box ; 0x2dcc
        0x00004bc6:    481a        .H      LDR      r0,[pc,#104] ; [0x4c30] = 0x56f0
        0x00004bc8:    2208        ."      MOVS     r2,#8
        0x00004bca:    8801        ..      LDRH     r1,[r0,#0]
        0x00004bcc:    4819        .H      LDR      r0,[pc,#100] ; [0x4c34] = 0x200000ec
        0x00004bce:    6800        .h      LDR      r0,[r0,#0]
        0x00004bd0:    f7fef8fc    ....    BL       _init_box ; 0x2dcc
        0x00004bd4:    4d18        .M      LDR      r5,[pc,#96] ; [0x4c38] = 0x20003804
        0x00004bd6:    20ff        .       MOVS     r0,#0xff
        0x00004bd8:    70e8        .p      STRB     r0,[r5,#3]
        0x00004bda:    84ec        ..      STRH     r4,[r5,#0x26]
        0x00004bdc:    4a17        .J      LDR      r2,[pc,#92] ; [0x4c3c] = 0x413d
        0x00004bde:    2100        .!      MOVS     r1,#0
        0x00004be0:    4628        (F      MOV      r0,r5
        0x00004be2:    f7fffc71    ..q.    BL       rt_init_context ; 0x44c8
        0x00004be6:    4816        .H      LDR      r0,[pc,#88] ; [0x4c40] = 0x20003838
        0x00004be8:    2104        .!      MOVS     r1,#4
        0x00004bea:    7001        .p      STRB     r1,[r0,#0]
        0x00004bec:    6044        D`      STR      r4,[r0,#4]
        0x00004bee:    4815        .H      LDR      r0,[pc,#84] ; [0x4c44] = 0x20003850
        0x00004bf0:    7001        .p      STRB     r1,[r0,#0]
        0x00004bf2:    60c4        .`      STR      r4,[r0,#0xc]
        0x00004bf4:    6104        .a      STR      r4,[r0,#0x10]
        0x00004bf6:    8284        ..      STRH     r4,[r0,#0x14]
        0x00004bf8:    4813        .H      LDR      r0,[pc,#76] ; [0x4c48] = 0x2000012c
        0x00004bfa:    4915        .I      LDR      r1,[pc,#84] ; [0x4c50] = 0x56d4
        0x00004bfc:    6005        .`      STR      r5,[r0,#0]
        0x00004bfe:    2002        .       MOVS     r0,#2
        0x00004c00:    7068        hp      STRB     r0,[r5,#1]
        0x00004c02:    4812        .H      LDR      r0,[pc,#72] ; [0x4c4c] = 0x20003750
        0x00004c04:    7004        .p      STRB     r4,[r0,#0]
        0x00004c06:    7044        Dp      STRB     r4,[r0,#1]
        0x00004c08:    7809        .x      LDRB     r1,[r1,#0]
        0x00004c0a:    70c1        .p      STRB     r1,[r0,#3]
        0x00004c0c:    f7fffc8e    ....    BL       rt_init_robin ; 0x452c
        0x00004c10:    bd70        p.      POP      {r4-r6,pc}
    $d
        0x00004c12:    0000        ..      DCW    0
        0x00004c14:    200037d4    .7.     DCD    536885204
        0x00004c18:    0000569c    .V..    DCD    22172
        0x00004c1c:    000056c8    .V..    DCD    22216
        0x00004c20:    200013d0    ...     DCD    536875984
        0x00004c24:    000056a0    .V..    DCD    22176
        0x00004c28:    000056cc    .V..    DCD    22220
        0x00004c2c:    200014b0    ...     DCD    536876208
        0x00004c30:    000056f0    .V..    DCD    22256
        0x00004c34:    200000ec    ...     DCD    536871148
        0x00004c38:    20003804    .8.     DCD    536885252
        0x00004c3c:    0000413d    =A..    DCD    16701
        0x00004c40:    20003838    88.     DCD    536885304
        0x00004c44:    20003850    P8.     DCD    536885328
        0x00004c48:    2000012c    ,..     DCD    536871212
        0x00004c4c:    20003750    P7.     DCD    536885072
        0x00004c50:    000056d4    .V..    DCD    22228
    $t
    i.rt_sys_start
    rt_sys_start
        0x00004c54:    b510        ..      PUSH     {r4,lr}
        0x00004c56:    4814        .H      LDR      r0,[pc,#80] ; [0x4ca8] = 0xe000ed00
        0x00004c58:    6a01        .j      LDR      r1,[r0,#0x20]
        0x00004c5a:    22ff        ."      MOVS     r2,#0xff
        0x00004c5c:    0412        ..      LSLS     r2,r2,#16
        0x00004c5e:    4311        .C      ORRS     r1,r1,r2
        0x00004c60:    6201        .b      STR      r1,[r0,#0x20]
        0x00004c62:    69c1        .i      LDR      r1,[r0,#0x1c]
        0x00004c64:    6a02        .j      LDR      r2,[r0,#0x20]
        0x00004c66:    0252        R.      LSLS     r2,r2,#9
        0x00004c68:    0e92        ..      LSRS     r2,r2,#26
        0x00004c6a:    0692        ..      LSLS     r2,r2,#26
        0x00004c6c:    4311        .C      ORRS     r1,r1,r2
        0x00004c6e:    61c1        .a      STR      r1,[r0,#0x1c]
        0x00004c70:    f7fffa66    ..f.    BL       os_tick_init ; 0x4140
        0x00004c74:    490d        .I      LDR      r1,[pc,#52] ; [0x4cac] = 0x20000138
        0x00004c76:    2800        .(      CMP      r0,#0
        0x00004c78:    6008        .`      STR      r0,[r1,#0]
        0x00004c7a:    db13        ..      BLT      0x4ca4 ; rt_sys_start + 80
        0x00004c7c:    0882        ..      LSRS     r2,r0,#2
        0x00004c7e:    490c        .I      LDR      r1,[pc,#48] ; [0x4cb0] = 0xe000e400
        0x00004c80:    0092        ..      LSLS     r2,r2,#2
        0x00004c82:    1851        Q.      ADDS     r1,r2,r1
        0x00004c84:    680a        .h      LDR      r2,[r1,#0]
        0x00004c86:    0783        ..      LSLS     r3,r0,#30
        0x00004c88:    0edc        ..      LSRS     r4,r3,#27
        0x00004c8a:    23ff        .#      MOVS     r3,#0xff
        0x00004c8c:    40a3        .@      LSLS     r3,r3,r4
        0x00004c8e:    431a        .C      ORRS     r2,r2,r3
        0x00004c90:    600a        .`      STR      r2,[r1,#0]
        0x00004c92:    06c2        ..      LSLS     r2,r0,#27
        0x00004c94:    0ed2        ..      LSRS     r2,r2,#27
        0x00004c96:    2101        .!      MOVS     r1,#1
        0x00004c98:    4091        .@      LSLS     r1,r1,r2
        0x00004c9a:    0940        @.      LSRS     r0,r0,#5
        0x00004c9c:    4a05        .J      LDR      r2,[pc,#20] ; [0x4cb4] = 0xe000e100
        0x00004c9e:    0080        ..      LSLS     r0,r0,#2
        0x00004ca0:    1880        ..      ADDS     r0,r0,r2
        0x00004ca2:    6001        .`      STR      r1,[r0,#0]
        0x00004ca4:    bd10        ..      POP      {r4,pc}
    $d
        0x00004ca6:    0000        ..      DCW    0
        0x00004ca8:    e000ed00    ....    DCD    3758157056
        0x00004cac:    20000138    8..     DCD    536871224
        0x00004cb0:    e000e400    ....    DCD    3758154752
        0x00004cb4:    e000e100    ....    DCD    3758153984
    $t
    i.rt_systick
    rt_systick
        0x00004cb8:    b510        ..      PUSH     {r4,lr}
        0x00004cba:    480b        .H      LDR      r0,[pc,#44] ; [0x4ce8] = 0x2000012c
        0x00004cbc:    2101        .!      MOVS     r1,#1
        0x00004cbe:    6802        .h      LDR      r2,[r0,#0]
        0x00004cc0:    7051        Qp      STRB     r1,[r2,#1]
        0x00004cc2:    6800        .h      LDR      r0,[r0,#0]
        0x00004cc4:    f7fffed4    ....    BL       rt_put_rdy_first ; 0x4a70
        0x00004cc8:    f7fffb10    ....    BL       rt_chk_robin ; 0x42ec
        0x00004ccc:    4807        .H      LDR      r0,[pc,#28] ; [0x4cec] = 0x2000013c
        0x00004cce:    6801        .h      LDR      r1,[r0,#0]
        0x00004cd0:    1c49        I.      ADDS     r1,r1,#1
        0x00004cd2:    6001        .`      STR      r1,[r0,#0]
        0x00004cd4:    f7fffb2c    ..,.    BL       rt_dec_dly ; 0x4330
        0x00004cd8:    f000fc96    ....    BL       sysTimerTick ; 0x5608
        0x00004cdc:    4804        .H      LDR      r0,[pc,#16] ; [0x4cf0] = 0x20003838
        0x00004cde:    f7fffbda    ....    BL       rt_get_first ; 0x4496
        0x00004ce2:    f7ffff4b    ..K.    BL       rt_switch_req ; 0x4b7c
        0x00004ce6:    bd10        ..      POP      {r4,pc}
    $d
        0x00004ce8:    2000012c    ,..     DCD    536871212
        0x00004cec:    2000013c    <..     DCD    536871228
        0x00004cf0:    20003838    88.     DCD    536885304
    $t
    i.rt_tid2ptcb
    rt_tid2ptcb
        0x00004cf4:    2800        .(      CMP      r0,#0
        0x00004cf6:    d005        ..      BEQ      0x4d04 ; rt_tid2ptcb + 16
        0x00004cf8:    0781        ..      LSLS     r1,r0,#30
        0x00004cfa:    d102        ..      BNE      0x4d02 ; rt_tid2ptcb + 14
        0x00004cfc:    7801        .x      LDRB     r1,[r0,#0]
        0x00004cfe:    2900        .)      CMP      r1,#0
        0x00004d00:    d000        ..      BEQ      0x4d04 ; rt_tid2ptcb + 16
        0x00004d02:    2000        .       MOVS     r0,#0
        0x00004d04:    4770        pG      BX       lr
        0x00004d06:    0000        ..      MOVS     r0,r0
    i.rt_timer_insert
    rt_timer_insert
        0x00004d08:    b530        0.      PUSH     {r4,r5,lr}
        0x00004d0a:    4c0c        .L      LDR      r4,[pc,#48] ; [0x4d3c] = 0x20000124
        0x00004d0c:    2300        .#      MOVS     r3,#0
        0x00004d0e:    6862        bh      LDR      r2,[r4,#4]
        0x00004d10:    e005        ..      B        0x4d1e ; rt_timer_insert + 22
        0x00004d12:    6895        .h      LDR      r5,[r2,#8]
        0x00004d14:    428d        .B      CMP      r5,r1
        0x00004d16:    d804        ..      BHI      0x4d22 ; rt_timer_insert + 26
        0x00004d18:    4613        .F      MOV      r3,r2
        0x00004d1a:    6812        .h      LDR      r2,[r2,#0]
        0x00004d1c:    1b49        I.      SUBS     r1,r1,r5
        0x00004d1e:    2a00        .*      CMP      r2,#0
        0x00004d20:    d1f7        ..      BNE      0x4d12 ; rt_timer_insert + 10
        0x00004d22:    6002        .`      STR      r2,[r0,#0]
        0x00004d24:    6081        .`      STR      r1,[r0,#8]
        0x00004d26:    2a00        .*      CMP      r2,#0
        0x00004d28:    d002        ..      BEQ      0x4d30 ; rt_timer_insert + 40
        0x00004d2a:    6895        .h      LDR      r5,[r2,#8]
        0x00004d2c:    1a69        i.      SUBS     r1,r5,r1
        0x00004d2e:    6091        .`      STR      r1,[r2,#8]
        0x00004d30:    2b00        .+      CMP      r3,#0
        0x00004d32:    d001        ..      BEQ      0x4d38 ; rt_timer_insert + 48
        0x00004d34:    6018        .`      STR      r0,[r3,#0]
        0x00004d36:    bd30        0.      POP      {r4,r5,pc}
        0x00004d38:    6060        ``      STR      r0,[r4,#4]
        0x00004d3a:    bd30        0.      POP      {r4,r5,pc}
    $d
        0x00004d3c:    20000124    $..     DCD    536871204
    $t
    i.rt_timer_remove
    rt_timer_remove
        0x00004d40:    4b0f        .K      LDR      r3,[pc,#60] ; [0x4d80] = 0x20000124
        0x00004d42:    2200        ."      MOVS     r2,#0
        0x00004d44:    6859        Yh      LDR      r1,[r3,#4]
        0x00004d46:    e003        ..      B        0x4d50 ; rt_timer_remove + 16
        0x00004d48:    4281        .B      CMP      r1,r0
        0x00004d4a:    d004        ..      BEQ      0x4d56 ; rt_timer_remove + 22
        0x00004d4c:    460a        .F      MOV      r2,r1
        0x00004d4e:    6809        .h      LDR      r1,[r1,#0]
        0x00004d50:    2900        .)      CMP      r1,#0
        0x00004d52:    d1f9        ..      BNE      0x4d48 ; rt_timer_remove + 8
        0x00004d54:    e006        ..      B        0x4d64 ; rt_timer_remove + 36
        0x00004d56:    2900        .)      CMP      r1,#0
        0x00004d58:    d004        ..      BEQ      0x4d64 ; rt_timer_remove + 36
        0x00004d5a:    6801        .h      LDR      r1,[r0,#0]
        0x00004d5c:    2a00        .*      CMP      r2,#0
        0x00004d5e:    d004        ..      BEQ      0x4d6a ; rt_timer_remove + 42
        0x00004d60:    6011        .`      STR      r1,[r2,#0]
        0x00004d62:    e003        ..      B        0x4d6c ; rt_timer_remove + 44
        0x00004d64:    2000        .       MOVS     r0,#0
        0x00004d66:    43c0        .C      MVNS     r0,r0
        0x00004d68:    4770        pG      BX       lr
        0x00004d6a:    6059        Y`      STR      r1,[r3,#4]
        0x00004d6c:    6801        .h      LDR      r1,[r0,#0]
        0x00004d6e:    2900        .)      CMP      r1,#0
        0x00004d70:    d003        ..      BEQ      0x4d7a ; rt_timer_remove + 58
        0x00004d72:    688a        .h      LDR      r2,[r1,#8]
        0x00004d74:    6880        .h      LDR      r0,[r0,#8]
        0x00004d76:    1810        ..      ADDS     r0,r2,r0
        0x00004d78:    6088        .`      STR      r0,[r1,#8]
        0x00004d7a:    2000        .       MOVS     r0,#0
        0x00004d7c:    4770        pG      BX       lr
    $d
        0x00004d7e:    0000        ..      DCW    0
        0x00004d80:    20000124    $..     DCD    536871204
    $t
    i.rt_tsk_create
    rt_tsk_create
        0x00004d84:    b5ff        ..      PUSH     {r0-r7,lr}
        0x00004d86:    0608        ..      LSLS     r0,r1,#24
        0x00004d88:    b081        ..      SUB      sp,sp,#4
        0x00004d8a:    461e        .F      MOV      r6,r3
        0x00004d8c:    4617        .F      MOV      r7,r2
        0x00004d8e:    460d        .F      MOV      r5,r1
        0x00004d90:    0e00        ..      LSRS     r0,r0,#24
        0x00004d92:    d100        ..      BNE      0x4d96 ; rt_tsk_create + 18
        0x00004d94:    1c4d        M.      ADDS     r5,r1,#1
        0x00004d96:    4816        .H      LDR      r0,[pc,#88] ; [0x4df0] = 0x200013d0
        0x00004d98:    f7fffa5b    ..[.    BL       rt_alloc_box ; 0x4252
        0x00004d9c:    1e04        ..      SUBS     r4,r0,#0
        0x00004d9e:    d018        ..      BEQ      0x4dd2 ; rt_tsk_create + 78
        0x00004da0:    0228        (.      LSLS     r0,r5,#8
        0x00004da2:    0c00        ..      LSRS     r0,r0,#16
        0x00004da4:    62e7        .b      STR      r7,[r4,#0x2c]
        0x00004da6:    84e0        ..      STRH     r0,[r4,#0x26]
        0x00004da8:    61e6        .a      STR      r6,[r4,#0x1c]
        0x00004daa:    b2e9        ..      UXTB     r1,r5
        0x00004dac:    4620         F      MOV      r0,r4
        0x00004dae:    9a01        ..      LDR      r2,[sp,#4]
        0x00004db0:    f7fffb8a    ....    BL       rt_init_context ; 0x44c8
        0x00004db4:    2501        .%      MOVS     r5,#1
        0x00004db6:    480f        .H      LDR      r0,[pc,#60] ; [0x4df4] = 0x200037d4
        0x00004db8:    490f        .I      LDR      r1,[pc,#60] ; [0x4df8] = 0x569c
        0x00004dba:    e006        ..      B        0x4dca ; rt_tsk_create + 70
        0x00004dbc:    00aa        ..      LSLS     r2,r5,#2
        0x00004dbe:    1812        ..      ADDS     r2,r2,r0
        0x00004dc0:    3a80        .:      SUBS     r2,r2,#0x80
        0x00004dc2:    6fd2        .o      LDR      r2,[r2,#0x7c]
        0x00004dc4:    2a00        .*      CMP      r2,#0
        0x00004dc6:    d006        ..      BEQ      0x4dd6 ; rt_tsk_create + 82
        0x00004dc8:    1c6d        m.      ADDS     r5,r5,#1
        0x00004dca:    880a        ..      LDRH     r2,[r1,#0]
        0x00004dcc:    4295        .B      CMP      r5,r2
        0x00004dce:    d9f5        ..      BLS      0x4dbc ; rt_tsk_create + 56
        0x00004dd0:    2000        .       MOVS     r0,#0
        0x00004dd2:    b005        ..      ADD      sp,sp,#0x14
        0x00004dd4:    bdf0        ..      POP      {r4-r7,pc}
        0x00004dd6:    2d00        .-      CMP      r5,#0
        0x00004dd8:    d0fa        ..      BEQ      0x4dd0 ; rt_tsk_create + 76
        0x00004dda:    00a9        ..      LSLS     r1,r5,#2
        0x00004ddc:    1808        ..      ADDS     r0,r1,r0
        0x00004dde:    3880        .8      SUBS     r0,r0,#0x80
        0x00004de0:    67c4        .g      STR      r4,[r0,#0x7c]
        0x00004de2:    70e5        .p      STRB     r5,[r4,#3]
        0x00004de4:    4620         F      MOV      r0,r4
        0x00004de6:    f7fffadd    ....    BL       rt_dispatch ; 0x43a4
        0x00004dea:    4628        (F      MOV      r0,r5
        0x00004dec:    e7f1        ..      B        0x4dd2 ; rt_tsk_create + 78
    $d
        0x00004dee:    0000        ..      DCW    0
        0x00004df0:    200013d0    ...     DCD    536875984
        0x00004df4:    200037d4    .7.     DCD    536885204
        0x00004df8:    0000569c    .V..    DCD    22172
    $t
    i.rt_tsk_delete
    rt_tsk_delete
        0x00004dfc:    b5f8        ..      PUSH     {r3-r7,lr}
        0x00004dfe:    4d4f        OM      LDR      r5,[pc,#316] ; [0x4f3c] = 0x2000012c
        0x00004e00:    2600        .&      MOVS     r6,#0
        0x00004e02:    6829        )h      LDR      r1,[r5,#0]
        0x00004e04:    2800        .(      CMP      r0,#0
        0x00004e06:    d002        ..      BEQ      0x4e0e ; rt_tsk_delete + 18
        0x00004e08:    78ca        .x      LDRB     r2,[r1,#3]
        0x00004e0a:    4282        .B      CMP      r2,r0
        0x00004e0c:    d13e        >.      BNE      0x4e8c ; rt_tsk_delete + 144
        0x00004e0e:    704e        Np      STRB     r6,[r1,#1]
        0x00004e10:    f7fbf979    ..y.    BL       rt_get_PSP ; 0x106
        0x00004e14:    6829        )h      LDR      r1,[r5,#0]
        0x00004e16:    6288        .b      STR      r0,[r1,#0x28]
        0x00004e18:    f7fffe9c    ....    BL       rt_stk_check ; 0x4b54
        0x00004e1c:    6828        (h      LDR      r0,[r5,#0]
        0x00004e1e:    6a04        .j      LDR      r4,[r0,#0x20]
        0x00004e20:    e020         .      B        0x4e64 ; rt_tsk_delete + 104
        0x00004e22:    6860        `h      LDR      r0,[r4,#4]
        0x00004e24:    2800        .(      CMP      r0,#0
        0x00004e26:    d018        ..      BEQ      0x4e5a ; rt_tsk_delete + 94
        0x00004e28:    4620         F      MOV      r0,r4
        0x00004e2a:    f7fffb34    ..4.    BL       rt_get_first ; 0x4496
        0x00004e2e:    4607        .F      MOV      r7,r0
        0x00004e30:    2100        .!      MOVS     r1,#0
        0x00004e32:    f7fffe3f    ..?.    BL       rt_ret_val ; 0x4ab4
        0x00004e36:    4638        8F      MOV      r0,r7
        0x00004e38:    f7fffe43    ..C.    BL       rt_rmv_dly ; 0x4ac2
        0x00004e3c:    2001        .       MOVS     r0,#1
        0x00004e3e:    7078        xp      STRB     r0,[r7,#1]
        0x00004e40:    4639        9F      MOV      r1,r7
        0x00004e42:    483f        ?H      LDR      r0,[pc,#252] ; [0x4f40] = 0x20003838
        0x00004e44:    f7fffdf6    ....    BL       rt_put_prio ; 0x4a34
        0x00004e48:    2001        .       MOVS     r0,#1
        0x00004e4a:    68e1        .h      LDR      r1,[r4,#0xc]
        0x00004e4c:    8060        `.      STRH     r0,[r4,#2]
        0x00004e4e:    60a7        .`      STR      r7,[r4,#8]
        0x00004e50:    6a38        8j      LDR      r0,[r7,#0x20]
        0x00004e52:    60e0        .`      STR      r0,[r4,#0xc]
        0x00004e54:    623c        <b      STR      r4,[r7,#0x20]
        0x00004e56:    460c        .F      MOV      r4,r1
        0x00004e58:    e004        ..      B        0x4e64 ; rt_tsk_delete + 104
        0x00004e5a:    68e0        .h      LDR      r0,[r4,#0xc]
        0x00004e5c:    8066        f.      STRH     r6,[r4,#2]
        0x00004e5e:    60a6        .`      STR      r6,[r4,#8]
        0x00004e60:    60e6        .`      STR      r6,[r4,#0xc]
        0x00004e62:    4604        .F      MOV      r4,r0
        0x00004e64:    2c00        .,      CMP      r4,#0
        0x00004e66:    d1dc        ..      BNE      0x4e22 ; rt_tsk_delete + 38
        0x00004e68:    6828        (h      LDR      r0,[r5,#0]
        0x00004e6a:    78c1        .x      LDRB     r1,[r0,#3]
        0x00004e6c:    008a        ..      LSLS     r2,r1,#2
        0x00004e6e:    4935        5I      LDR      r1,[pc,#212] ; [0x4f44] = 0x200037d4
        0x00004e70:    1851        Q.      ADDS     r1,r2,r1
        0x00004e72:    3980        .9      SUBS     r1,r1,#0x80
        0x00004e74:    67ce        .g      STR      r6,[r1,#0x7c]
        0x00004e76:    6ac1        .j      LDR      r1,[r0,#0x2c]
        0x00004e78:    4833        3H      LDR      r0,[pc,#204] ; [0x4f48] = 0x200014b0
        0x00004e7a:    f7fffae1    ....    BL       rt_free_box ; 0x4440
        0x00004e7e:    6829        )h      LDR      r1,[r5,#0]
        0x00004e80:    4832        2H      LDR      r0,[pc,#200] ; [0x4f4c] = 0x200013d0
        0x00004e82:    62ce        .b      STR      r6,[r1,#0x2c]
        0x00004e84:    f7fffadc    ....    BL       rt_free_box ; 0x4440
        0x00004e88:    602e        .`      STR      r6,[r5,#0]
        0x00004e8a:    e051        Q.      B        0x4f30 ; rt_tsk_delete + 308
        0x00004e8c:    4930        0I      LDR      r1,[pc,#192] ; [0x4f50] = 0x569c
        0x00004e8e:    8809        ..      LDRH     r1,[r1,#0]
        0x00004e90:    4288        .B      CMP      r0,r1
        0x00004e92:    d80f        ..      BHI      0x4eb4 ; rt_tsk_delete + 184
        0x00004e94:    0081        ..      LSLS     r1,r0,#2
        0x00004e96:    482b        +H      LDR      r0,[pc,#172] ; [0x4f44] = 0x200037d4
        0x00004e98:    1808        ..      ADDS     r0,r1,r0
        0x00004e9a:    3880        .8      SUBS     r0,r0,#0x80
        0x00004e9c:    9000        ..      STR      r0,[sp,#0]
        0x00004e9e:    6fc5        .o      LDR      r5,[r0,#0x7c]
        0x00004ea0:    2d00        .-      CMP      r5,#0
        0x00004ea2:    d007        ..      BEQ      0x4eb4 ; rt_tsk_delete + 184
        0x00004ea4:    4628        (F      MOV      r0,r5
        0x00004ea6:    f7fffe21    ..!.    BL       rt_rmv_list ; 0x4aec
        0x00004eaa:    4628        (F      MOV      r0,r5
        0x00004eac:    f7fffe09    ....    BL       rt_rmv_dly ; 0x4ac2
        0x00004eb0:    6a2c        ,j      LDR      r4,[r5,#0x20]
        0x00004eb2:    e022        ".      B        0x4efa ; rt_tsk_delete + 254
        0x00004eb4:    20ff        .       MOVS     r0,#0xff
        0x00004eb6:    bdf8        ..      POP      {r3-r7,pc}
        0x00004eb8:    6860        `h      LDR      r0,[r4,#4]
        0x00004eba:    2800        .(      CMP      r0,#0
        0x00004ebc:    d018        ..      BEQ      0x4ef0 ; rt_tsk_delete + 244
        0x00004ebe:    4620         F      MOV      r0,r4
        0x00004ec0:    f7fffae9    ....    BL       rt_get_first ; 0x4496
        0x00004ec4:    4607        .F      MOV      r7,r0
        0x00004ec6:    2100        .!      MOVS     r1,#0
        0x00004ec8:    f7fffdf4    ....    BL       rt_ret_val ; 0x4ab4
        0x00004ecc:    4638        8F      MOV      r0,r7
        0x00004ece:    f7fffdf8    ....    BL       rt_rmv_dly ; 0x4ac2
        0x00004ed2:    2001        .       MOVS     r0,#1
        0x00004ed4:    7078        xp      STRB     r0,[r7,#1]
        0x00004ed6:    4639        9F      MOV      r1,r7
        0x00004ed8:    4819        .H      LDR      r0,[pc,#100] ; [0x4f40] = 0x20003838
        0x00004eda:    f7fffdab    ....    BL       rt_put_prio ; 0x4a34
        0x00004ede:    2001        .       MOVS     r0,#1
        0x00004ee0:    68e1        .h      LDR      r1,[r4,#0xc]
        0x00004ee2:    8060        `.      STRH     r0,[r4,#2]
        0x00004ee4:    60a7        .`      STR      r7,[r4,#8]
        0x00004ee6:    6a38        8j      LDR      r0,[r7,#0x20]
        0x00004ee8:    60e0        .`      STR      r0,[r4,#0xc]
        0x00004eea:    623c        <b      STR      r4,[r7,#0x20]
        0x00004eec:    460c        .F      MOV      r4,r1
        0x00004eee:    e004        ..      B        0x4efa ; rt_tsk_delete + 254
        0x00004ef0:    68e0        .h      LDR      r0,[r4,#0xc]
        0x00004ef2:    8066        f.      STRH     r6,[r4,#2]
        0x00004ef4:    60a6        .`      STR      r6,[r4,#8]
        0x00004ef6:    60e6        .`      STR      r6,[r4,#0xc]
        0x00004ef8:    4604        .F      MOV      r4,r0
        0x00004efa:    2c00        .,      CMP      r4,#0
        0x00004efc:    d1dc        ..      BNE      0x4eb8 ; rt_tsk_delete + 188
        0x00004efe:    9800        ..      LDR      r0,[sp,#0]
        0x00004f00:    67c6        .g      STR      r6,[r0,#0x7c]
        0x00004f02:    4811        .H      LDR      r0,[pc,#68] ; [0x4f48] = 0x200014b0
        0x00004f04:    6ae9        .j      LDR      r1,[r5,#0x2c]
        0x00004f06:    f7fffa9b    ....    BL       rt_free_box ; 0x4440
        0x00004f0a:    4629        )F      MOV      r1,r5
        0x00004f0c:    480f        .H      LDR      r0,[pc,#60] ; [0x4f4c] = 0x200013d0
        0x00004f0e:    62ee        .b      STR      r6,[r5,#0x2c]
        0x00004f10:    f7fffa96    ....    BL       rt_free_box ; 0x4440
        0x00004f14:    480a        .H      LDR      r0,[pc,#40] ; [0x4f40] = 0x20003838
        0x00004f16:    6840        @h      LDR      r0,[r0,#4]
        0x00004f18:    7881        .x      LDRB     r1,[r0,#2]
        0x00004f1a:    4808        .H      LDR      r0,[pc,#32] ; [0x4f3c] = 0x2000012c
        0x00004f1c:    6802        .h      LDR      r2,[r0,#0]
        0x00004f1e:    7893        .x      LDRB     r3,[r2,#2]
        0x00004f20:    4299        .B      CMP      r1,r3
        0x00004f22:    d908        ..      BLS      0x4f36 ; rt_tsk_delete + 314
        0x00004f24:    2101        .!      MOVS     r1,#1
        0x00004f26:    7051        Qp      STRB     r1,[r2,#1]
        0x00004f28:    6801        .h      LDR      r1,[r0,#0]
        0x00004f2a:    4805        .H      LDR      r0,[pc,#20] ; [0x4f40] = 0x20003838
        0x00004f2c:    f7fffd82    ....    BL       rt_put_prio ; 0x4a34
        0x00004f30:    2000        .       MOVS     r0,#0
        0x00004f32:    f7fffa37    ..7.    BL       rt_dispatch ; 0x43a4
        0x00004f36:    2000        .       MOVS     r0,#0
        0x00004f38:    bdf8        ..      POP      {r3-r7,pc}
    $d
        0x00004f3a:    0000        ..      DCW    0
        0x00004f3c:    2000012c    ,..     DCD    536871212
        0x00004f40:    20003838    88.     DCD    536885304
        0x00004f44:    200037d4    .7.     DCD    536885204
        0x00004f48:    200014b0    ...     DCD    536876208
        0x00004f4c:    200013d0    ...     DCD    536875984
        0x00004f50:    0000569c    .V..    DCD    22172
    $t
    i.rt_tsk_prio
    rt_tsk_prio
        0x00004f54:    b570        p.      PUSH     {r4-r6,lr}
        0x00004f56:    4d1b        .M      LDR      r5,[pc,#108] ; [0x4fc4] = 0x2000012c
        0x00004f58:    2800        .(      CMP      r0,#0
        0x00004f5a:    d011        ..      BEQ      0x4f80 ; rt_tsk_prio + 44
        0x00004f5c:    4a1a        .J      LDR      r2,[pc,#104] ; [0x4fc8] = 0x569c
        0x00004f5e:    8812        ..      LDRH     r2,[r2,#0]
        0x00004f60:    4290        .B      CMP      r0,r2
        0x00004f62:    d820         .      BHI      0x4fa6 ; rt_tsk_prio + 82
        0x00004f64:    0082        ..      LSLS     r2,r0,#2
        0x00004f66:    4819        .H      LDR      r0,[pc,#100] ; [0x4fcc] = 0x200037d4
        0x00004f68:    1810        ..      ADDS     r0,r2,r0
        0x00004f6a:    3880        .8      SUBS     r0,r0,#0x80
        0x00004f6c:    6fc4        .o      LDR      r4,[r0,#0x7c]
        0x00004f6e:    2c00        .,      CMP      r4,#0
        0x00004f70:    d019        ..      BEQ      0x4fa6 ; rt_tsk_prio + 82
        0x00004f72:    70a1        .p      STRB     r1,[r4,#2]
        0x00004f74:    2024        $       MOVS     r0,#0x24
        0x00004f76:    5501        .U      STRB     r1,[r0,r4]
        0x00004f78:    6828        (h      LDR      r0,[r5,#0]
        0x00004f7a:    42a0        .B      CMP      r0,r4
        0x00004f7c:    d005        ..      BEQ      0x4f8a ; rt_tsk_prio + 54
        0x00004f7e:    e014        ..      B        0x4faa ; rt_tsk_prio + 86
        0x00004f80:    6828        (h      LDR      r0,[r5,#0]
        0x00004f82:    7081        .p      STRB     r1,[r0,#2]
        0x00004f84:    6828        (h      LDR      r0,[r5,#0]
        0x00004f86:    3020         0      ADDS     r0,r0,#0x20
        0x00004f88:    7101        .q      STRB     r1,[r0,#4]
        0x00004f8a:    4811        .H      LDR      r0,[pc,#68] ; [0x4fd0] = 0x20003838
        0x00004f8c:    6840        @h      LDR      r0,[r0,#4]
        0x00004f8e:    7880        .x      LDRB     r0,[r0,#2]
        0x00004f90:    4288        .B      CMP      r0,r1
        0x00004f92:    d915        ..      BLS      0x4fc0 ; rt_tsk_prio + 108
        0x00004f94:    480e        .H      LDR      r0,[pc,#56] ; [0x4fd0] = 0x20003838
        0x00004f96:    6829        )h      LDR      r1,[r5,#0]
        0x00004f98:    f7fffd4c    ..L.    BL       rt_put_prio ; 0x4a34
        0x00004f9c:    6829        )h      LDR      r1,[r5,#0]
        0x00004f9e:    2001        .       MOVS     r0,#1
        0x00004fa0:    7048        Hp      STRB     r0,[r1,#1]
        0x00004fa2:    2000        .       MOVS     r0,#0
        0x00004fa4:    e00a        ..      B        0x4fbc ; rt_tsk_prio + 104
        0x00004fa6:    20ff        .       MOVS     r0,#0xff
        0x00004fa8:    bd70        p.      POP      {r4-r6,pc}
        0x00004faa:    4620         F      MOV      r0,r4
        0x00004fac:    f7fffd6a    ..j.    BL       rt_resort_prio ; 0x4a84
        0x00004fb0:    7860        `x      LDRB     r0,[r4,#1]
        0x00004fb2:    2801        .(      CMP      r0,#1
        0x00004fb4:    d104        ..      BNE      0x4fc0 ; rt_tsk_prio + 108
        0x00004fb6:    4806        .H      LDR      r0,[pc,#24] ; [0x4fd0] = 0x20003838
        0x00004fb8:    f7fffa6d    ..m.    BL       rt_get_first ; 0x4496
        0x00004fbc:    f7fff9f2    ....    BL       rt_dispatch ; 0x43a4
        0x00004fc0:    2000        .       MOVS     r0,#0
        0x00004fc2:    bd70        p.      POP      {r4-r6,pc}
    $d
        0x00004fc4:    2000012c    ,..     DCD    536871212
        0x00004fc8:    0000569c    .V..    DCD    22172
        0x00004fcc:    200037d4    .7.     DCD    536885204
        0x00004fd0:    20003838    88.     DCD    536885304
    $t
    i.rt_tsk_self
    rt_tsk_self
        0x00004fd4:    4802        .H      LDR      r0,[pc,#8] ; [0x4fe0] = 0x2000012c
        0x00004fd6:    6800        .h      LDR      r0,[r0,#0]
        0x00004fd8:    2800        .(      CMP      r0,#0
        0x00004fda:    d000        ..      BEQ      0x4fde ; rt_tsk_self + 10
        0x00004fdc:    78c0        .x      LDRB     r0,[r0,#3]
        0x00004fde:    4770        pG      BX       lr
    $d
        0x00004fe0:    2000012c    ,..     DCD    536871212
    $t
    i.sms_mc60
    sms_mc60
        0x00004fe4:    b51c        ..      PUSH     {r2-r4,lr}
        0x00004fe6:    4868        hH      LDR      r0,[pc,#416] ; [0x5188] = 0x20000080
        0x00004fe8:    7800        .x      LDRB     r0,[r0,#0]
        0x00004fea:    2801        .(      CMP      r0,#1
        0x00004fec:    d177        w.      BNE      0x50de ; sms_mc60 + 250
        0x00004fee:    2064        d       MOVS     r0,#0x64
        0x00004ff0:    f7feff78    ..x.    BL       osDelay ; 0x3ee4
        0x00004ff4:    200a        .       MOVS     r0,#0xa
        0x00004ff6:    4b65        eK      LDR      r3,[pc,#404] ; [0x518c] = 0x58dc
        0x00004ff8:    4a65        eJ      LDR      r2,[pc,#404] ; [0x5190] = 0x58c4
        0x00004ffa:    4966        fI      LDR      r1,[pc,#408] ; [0x5194] = 0x58e8
        0x00004ffc:    9000        ..      STR      r0,[sp,#0]
        0x00004ffe:    4866        fH      LDR      r0,[pc,#408] ; [0x5198] = 0x5838
        0x00005000:    f7fcfac2    ....    BL       SendAT ; 0x1588
        0x00005004:    2100        .!      MOVS     r1,#0
        0x00005006:    43c9        .C      MVNS     r1,r1
        0x00005008:    4864        dH      LDR      r0,[pc,#400] ; [0x519c] = 0x20000000
        0x0000500a:    6800        .h      LDR      r0,[r0,#0]
        0x0000500c:    f7fefff8    ....    BL       osMutexWait ; 0x4000
        0x00005010:    2000        .       MOVS     r0,#0
        0x00005012:    4963        cI      LDR      r1,[pc,#396] ; [0x51a0] = 0x20000030
        0x00005014:    6008        .`      STR      r0,[r1,#0]
        0x00005016:    4963        cI      LDR      r1,[pc,#396] ; [0x51a4] = 0x20000054
        0x00005018:    6008        .`      STR      r0,[r1,#0]
        0x0000501a:    4963        cI      LDR      r1,[pc,#396] ; [0x51a8] = 0x20000058
        0x0000501c:    6008        .`      STR      r0,[r1,#0]
        0x0000501e:    4963        cI      LDR      r1,[pc,#396] ; [0x51ac] = 0x2000005c
        0x00005020:    6008        .`      STR      r0,[r1,#0]
        0x00005022:    4963        cI      LDR      r1,[pc,#396] ; [0x51b0] = 0x20000028
        0x00005024:    6008        .`      STR      r0,[r1,#0]
        0x00005026:    21af        .!      MOVS     r1,#0xaf
        0x00005028:    0089        ..      LSLS     r1,r1,#2
        0x0000502a:    4862        bH      LDR      r0,[pc,#392] ; [0x51b4] = 0x20000f2c
        0x0000502c:    f7fbf9a1    ....    BL       __aeabi_memclr ; 0x372
        0x00005030:    211a        .!      MOVS     r1,#0x1a
        0x00005032:    4861        aH      LDR      r0,[pc,#388] ; [0x51b8] = 0x58e4
        0x00005034:    f7fdfdaa    ....    BL       __0printf ; 0x2b8c
        0x00005038:    f7fefb4e    ..N.    BL       clear ; 0x36d8
        0x0000503c:    485f        _H      LDR      r0,[pc,#380] ; [0x51bc] = 0x5810
        0x0000503e:    f7fdfda5    ....    BL       __0printf ; 0x2b8c
        0x00005042:    bf00        ..      NOP      
        0x00005044:    4952        RI      LDR      r1,[pc,#328] ; [0x5190] = 0x58c4
        0x00005046:    485b        [H      LDR      r0,[pc,#364] ; [0x51b4] = 0x20000f2c
        0x00005048:    f7fbf9aa    ....    BL       strstr ; 0x3a0
        0x0000504c:    4955        UI      LDR      r1,[pc,#340] ; [0x51a4] = 0x20000054
        0x0000504e:    6008        .`      STR      r0,[r1,#0]
        0x00005050:    494e        NI      LDR      r1,[pc,#312] ; [0x518c] = 0x58dc
        0x00005052:    4858        XH      LDR      r0,[pc,#352] ; [0x51b4] = 0x20000f2c
        0x00005054:    f7fbf9a4    ....    BL       strstr ; 0x3a0
        0x00005058:    4953        SI      LDR      r1,[pc,#332] ; [0x51a8] = 0x20000058
        0x0000505a:    6008        .`      STR      r0,[r1,#0]
        0x0000505c:    4958        XI      LDR      r1,[pc,#352] ; [0x51c0] = 0x58a0
        0x0000505e:    4855        UH      LDR      r0,[pc,#340] ; [0x51b4] = 0x20000f2c
        0x00005060:    f7fbf99e    ....    BL       strstr ; 0x3a0
        0x00005064:    4951        QI      LDR      r1,[pc,#324] ; [0x51ac] = 0x2000005c
        0x00005066:    6008        .`      STR      r0,[r1,#0]
        0x00005068:    484e        NH      LDR      r0,[pc,#312] ; [0x51a4] = 0x20000054
        0x0000506a:    6800        .h      LDR      r0,[r0,#0]
        0x0000506c:    2800        .(      CMP      r0,#0
        0x0000506e:    d10b        ..      BNE      0x5088 ; sms_mc60 + 164
        0x00005070:    484d        MH      LDR      r0,[pc,#308] ; [0x51a8] = 0x20000058
        0x00005072:    6800        .h      LDR      r0,[r0,#0]
        0x00005074:    2800        .(      CMP      r0,#0
        0x00005076:    d107        ..      BNE      0x5088 ; sms_mc60 + 164
        0x00005078:    4608        .F      MOV      r0,r1
        0x0000507a:    6800        .h      LDR      r0,[r0,#0]
        0x0000507c:    2800        .(      CMP      r0,#0
        0x0000507e:    d103        ..      BNE      0x5088 ; sms_mc60 + 164
        0x00005080:    4847        GH      LDR      r0,[pc,#284] ; [0x51a0] = 0x20000030
        0x00005082:    6800        .h      LDR      r0,[r0,#0]
        0x00005084:    2805        .(      CMP      r0,#5
        0x00005086:    dbdd        ..      BLT      0x5044 ; sms_mc60 + 96
        0x00005088:    4846        FH      LDR      r0,[pc,#280] ; [0x51a4] = 0x20000054
        0x0000508a:    6800        .h      LDR      r0,[r0,#0]
        0x0000508c:    2800        .(      CMP      r0,#0
        0x0000508e:    d127        '.      BNE      0x50e0 ; sms_mc60 + 252
        0x00005090:    4845        EH      LDR      r0,[pc,#276] ; [0x51a8] = 0x20000058
        0x00005092:    6800        .h      LDR      r0,[r0,#0]
        0x00005094:    2800        .(      CMP      r0,#0
        0x00005096:    d123        #.      BNE      0x50e0 ; sms_mc60 + 252
        0x00005098:    4844        DH      LDR      r0,[pc,#272] ; [0x51ac] = 0x2000005c
        0x0000509a:    6800        .h      LDR      r0,[r0,#0]
        0x0000509c:    2800        .(      CMP      r0,#0
        0x0000509e:    d11f        ..      BNE      0x50e0 ; sms_mc60 + 252
        0x000050a0:    2001        .       MOVS     r0,#1
        0x000050a2:    4948        HI      LDR      r1,[pc,#288] ; [0x51c4] = 0x50004200
        0x000050a4:    6348        Hc      STR      r0,[r1,#0x34]
        0x000050a6:    4848        HH      LDR      r0,[pc,#288] ; [0x51c8] = 0x2000014c
        0x000050a8:    6800        .h      LDR      r0,[r0,#0]
        0x000050aa:    1c40        @.      ADDS     r0,r0,#1
        0x000050ac:    4946        FI      LDR      r1,[pc,#280] ; [0x51c8] = 0x2000014c
        0x000050ae:    6008        .`      STR      r0,[r1,#0]
        0x000050b0:    4608        .F      MOV      r0,r1
        0x000050b2:    6800        .h      LDR      r0,[r0,#0]
        0x000050b4:    2803        .(      CMP      r0,#3
        0x000050b6:    dd0e        ..      BLE      0x50d6 ; sms_mc60 + 242
        0x000050b8:    4844        DH      LDR      r0,[pc,#272] ; [0x51cc] = 0x5888
        0x000050ba:    f7fdfd67    ..g.    BL       __0printf ; 0x2b8c
        0x000050be:    f7fefc47    ..G.    BL       fileclose ; 0x3950
        0x000050c2:    f7fefc77    ..w.    BL       fileopen ; 0x39b4
        0x000050c6:    200a        .       MOVS     r0,#0xa
        0x000050c8:    4b41        AK      LDR      r3,[pc,#260] ; [0x51d0] = 0x5898
        0x000050ca:    4a30        0J      LDR      r2,[pc,#192] ; [0x518c] = 0x58dc
        0x000050cc:    4930        0I      LDR      r1,[pc,#192] ; [0x5190] = 0x58c4
        0x000050ce:    9000        ..      STR      r0,[sp,#0]
        0x000050d0:    4840        @H      LDR      r0,[pc,#256] ; [0x51d4] = 0x5824
        0x000050d2:    f7fcfa59    ..Y.    BL       SendAT ; 0x1588
        0x000050d6:    2000        .       MOVS     r0,#0
        0x000050d8:    493a        :I      LDR      r1,[pc,#232] ; [0x51c4] = 0x50004200
        0x000050da:    6348        Hc      STR      r0,[r1,#0x34]
        0x000050dc:    e003        ..      B        0x50e6 ; sms_mc60 + 258
        0x000050de:    e051        Q.      B        0x5184 ; sms_mc60 + 416
        0x000050e0:    2000        .       MOVS     r0,#0
        0x000050e2:    4939        9I      LDR      r1,[pc,#228] ; [0x51c8] = 0x2000014c
        0x000050e4:    6008        .`      STR      r0,[r1,#0]
        0x000050e6:    2000        .       MOVS     r0,#0
        0x000050e8:    4930        0I      LDR      r1,[pc,#192] ; [0x51ac] = 0x2000005c
        0x000050ea:    6008        .`      STR      r0,[r1,#0]
        0x000050ec:    492e        .I      LDR      r1,[pc,#184] ; [0x51a8] = 0x20000058
        0x000050ee:    6008        .`      STR      r0,[r1,#0]
        0x000050f0:    492c        ,I      LDR      r1,[pc,#176] ; [0x51a4] = 0x20000054
        0x000050f2:    6008        .`      STR      r0,[r1,#0]
        0x000050f4:    4938        8I      LDR      r1,[pc,#224] ; [0x51d8] = 0x58d4
        0x000050f6:    482f        /H      LDR      r0,[pc,#188] ; [0x51b4] = 0x20000f2c
        0x000050f8:    f7fbf952    ..R.    BL       strstr ; 0x3a0
        0x000050fc:    2800        .(      CMP      r0,#0
        0x000050fe:    d01c        ..      BEQ      0x513a ; sms_mc60 + 342
        0x00005100:    2164        d!      MOVS     r1,#0x64
        0x00005102:    4836        6H      LDR      r0,[pc,#216] ; [0x51dc] = 0x20001326
        0x00005104:    f7fbf935    ..5.    BL       __aeabi_memclr ; 0x372
        0x00005108:    4834        4H      LDR      r0,[pc,#208] ; [0x51dc] = 0x20001326
        0x0000510a:    2129        )!      MOVS     r1,#0x29
        0x0000510c:    2328        (#      MOVS     r3,#0x28
        0x0000510e:    2201        ."      MOVS     r2,#1
        0x00005110:    9100        ..      STR      r1,[sp,#0]
        0x00005112:    9001        ..      STR      r0,[sp,#4]
        0x00005114:    4611        .F      MOV      r1,r2
        0x00005116:    4827        'H      LDR      r0,[pc,#156] ; [0x51b4] = 0x20000f2c
        0x00005118:    f7fff82a    ..*.    BL       parse_g ; 0x4170
        0x0000511c:    2106        .!      MOVS     r1,#6
        0x0000511e:    4830        0H      LDR      r0,[pc,#192] ; [0x51e0] = 0x200000ac
        0x00005120:    f7fbf927    ..'.    BL       __aeabi_memclr ; 0x372
        0x00005124:    482e        .H      LDR      r0,[pc,#184] ; [0x51e0] = 0x200000ac
        0x00005126:    2129        )!      MOVS     r1,#0x29
        0x00005128:    2328        (#      MOVS     r3,#0x28
        0x0000512a:    2202        ."      MOVS     r2,#2
        0x0000512c:    9100        ..      STR      r1,[sp,#0]
        0x0000512e:    9001        ..      STR      r0,[sp,#4]
        0x00005130:    4611        .F      MOV      r1,r2
        0x00005132:    4820         H      LDR      r0,[pc,#128] ; [0x51b4] = 0x20000f2c
        0x00005134:    f7fff81c    ....    BL       parse_g ; 0x4170
        0x00005138:    e012        ..      B        0x5160 ; sms_mc60 + 380
        0x0000513a:    492a        *I      LDR      r1,[pc,#168] ; [0x51e4] = 0x58b4
        0x0000513c:    481d        .H      LDR      r0,[pc,#116] ; [0x51b4] = 0x20000f2c
        0x0000513e:    f7fbf92f    ../.    BL       strstr ; 0x3a0
        0x00005142:    2800        .(      CMP      r0,#0
        0x00005144:    d003        ..      BEQ      0x514e ; sms_mc60 + 362
        0x00005146:    2000        .       MOVS     r0,#0
        0x00005148:    4927        'I      LDR      r1,[pc,#156] ; [0x51e8] = 0x50004300
        0x0000514a:    6148        Ha      STR      r0,[r1,#0x14]
        0x0000514c:    e008        ..      B        0x5160 ; sms_mc60 + 380
        0x0000514e:    4927        'I      LDR      r1,[pc,#156] ; [0x51ec] = 0x58c8
        0x00005150:    4818        .H      LDR      r0,[pc,#96] ; [0x51b4] = 0x20000f2c
        0x00005152:    f7fbf925    ..%.    BL       strstr ; 0x3a0
        0x00005156:    2800        .(      CMP      r0,#0
        0x00005158:    d002        ..      BEQ      0x5160 ; sms_mc60 + 380
        0x0000515a:    2001        .       MOVS     r0,#1
        0x0000515c:    4922        "I      LDR      r1,[pc,#136] ; [0x51e8] = 0x50004300
        0x0000515e:    6148        Ha      STR      r0,[r1,#0x14]
        0x00005160:    2000        .       MOVS     r0,#0
        0x00005162:    4909        .I      LDR      r1,[pc,#36] ; [0x5188] = 0x20000080
        0x00005164:    7008        .p      STRB     r0,[r1,#0]
        0x00005166:    480d        .H      LDR      r0,[pc,#52] ; [0x519c] = 0x20000000
        0x00005168:    6800        .h      LDR      r0,[r0,#0]
        0x0000516a:    f7feff3b    ..;.    BL       osMutexRelease ; 0x3fe4
        0x0000516e:    200a        .       MOVS     r0,#0xa
        0x00005170:    4b17        .K      LDR      r3,[pc,#92] ; [0x51d0] = 0x5898
        0x00005172:    4a06        .J      LDR      r2,[pc,#24] ; [0x518c] = 0x58dc
        0x00005174:    4906        .I      LDR      r1,[pc,#24] ; [0x5190] = 0x58c4
        0x00005176:    9000        ..      STR      r0,[sp,#0]
        0x00005178:    481d        .H      LDR      r0,[pc,#116] ; [0x51f0] = 0x5848
        0x0000517a:    f7fcfa05    ....    BL       SendAT ; 0x1588
        0x0000517e:    200a        .       MOVS     r0,#0xa
        0x00005180:    f7fefeb0    ....    BL       osDelay ; 0x3ee4
        0x00005184:    bd1c        ..      POP      {r2-r4,pc}
    $d
        0x00005186:    0000        ..      DCW    0
        0x00005188:    20000080    ...     DCD    536871040
        0x0000518c:    000058dc    .X..    DCD    22748
        0x00005190:    000058c4    .X..    DCD    22724
        0x00005194:    000058e8    .X..    DCD    22760
        0x00005198:    00005838    8X..    DCD    22584
        0x0000519c:    20000000    ...     DCD    536870912
        0x000051a0:    20000030    0..     DCD    536870960
        0x000051a4:    20000054    T..     DCD    536870996
        0x000051a8:    20000058    X..     DCD    536871000
        0x000051ac:    2000005c    \..     DCD    536871004
        0x000051b0:    20000028    (..     DCD    536870952
        0x000051b4:    20000f2c    ,..     DCD    536874796
        0x000051b8:    000058e4    .X..    DCD    22756
        0x000051bc:    00005810    .X..    DCD    22544
        0x000051c0:    000058a0    .X..    DCD    22688
        0x000051c4:    50004200    .B.P    DCD    1342194176
        0x000051c8:    2000014c    L..     DCD    536871244
        0x000051cc:    00005888    .X..    DCD    22664
        0x000051d0:    00005898    .X..    DCD    22680
        0x000051d4:    00005824    $X..    DCD    22564
        0x000051d8:    000058d4    .X..    DCD    22740
        0x000051dc:    20001326    &..     DCD    536875814
        0x000051e0:    200000ac    ...     DCD    536871084
        0x000051e4:    000058b4    .X..    DCD    22708
        0x000051e8:    50004300    .C.P    DCD    1342194432
        0x000051ec:    000058c8    .X..    DCD    22728
        0x000051f0:    00005848    HX..    DCD    22600
    $t
    i.stackDump
    stackDump
        0x000051f4:    b510        ..      PUSH     {r4,lr}
        0x000051f6:    4604        .F      MOV      r4,r0
        0x000051f8:    a010        ..      ADR      r0,{pc}+0x44 ; 0x523c
        0x000051fa:    6821        !h      LDR      r1,[r4,#0]
        0x000051fc:    f7fdfcc6    ....    BL       __0printf ; 0x2b8c
        0x00005200:    a011        ..      ADR      r0,{pc}+0x48 ; 0x5248
        0x00005202:    6861        ah      LDR      r1,[r4,#4]
        0x00005204:    f7fdfcc2    ....    BL       __0printf ; 0x2b8c
        0x00005208:    a012        ..      ADR      r0,{pc}+0x4c ; 0x5254
        0x0000520a:    68a1        .h      LDR      r1,[r4,#8]
        0x0000520c:    f7fdfcbe    ....    BL       __0printf ; 0x2b8c
        0x00005210:    a013        ..      ADR      r0,{pc}+0x50 ; 0x5260
        0x00005212:    68e1        .h      LDR      r1,[r4,#0xc]
        0x00005214:    f7fdfcba    ....    BL       __0printf ; 0x2b8c
        0x00005218:    a014        ..      ADR      r0,{pc}+0x54 ; 0x526c
        0x0000521a:    6921        !i      LDR      r1,[r4,#0x10]
        0x0000521c:    f7fdfcb6    ....    BL       __0printf ; 0x2b8c
        0x00005220:    a015        ..      ADR      r0,{pc}+0x58 ; 0x5278
        0x00005222:    6961        ai      LDR      r1,[r4,#0x14]
        0x00005224:    f7fdfcb2    ....    BL       __0printf ; 0x2b8c
        0x00005228:    a016        ..      ADR      r0,{pc}+0x5c ; 0x5284
        0x0000522a:    69a1        .i      LDR      r1,[r4,#0x18]
        0x0000522c:    f7fdfcae    ....    BL       __0printf ; 0x2b8c
        0x00005230:    a017        ..      ADR      r0,{pc}+0x60 ; 0x5290
        0x00005232:    69e1        .i      LDR      r1,[r4,#0x1c]
        0x00005234:    f7fdfcaa    ....    BL       __0printf ; 0x2b8c
        0x00005238:    bd10        ..      POP      {r4,pc}
    $d
        0x0000523a:    0000        ..      DCW    0
        0x0000523c:    20203072    r0      DCD    538980466
        0x00005240:    7830203d    = 0x    DCD    2016419901
        0x00005244:    000a7825    %x..    DCD    686117
        0x00005248:    20203172    r1      DCD    538980722
        0x0000524c:    7830203d    = 0x    DCD    2016419901
        0x00005250:    000a7825    %x..    DCD    686117
        0x00005254:    20203272    r2      DCD    538980978
        0x00005258:    7830203d    = 0x    DCD    2016419901
        0x0000525c:    000a7825    %x..    DCD    686117
        0x00005260:    20203372    r3      DCD    538981234
        0x00005264:    7830203d    = 0x    DCD    2016419901
        0x00005268:    000a7825    %x..    DCD    686117
        0x0000526c:    20323172    r12     DCD    540160370
        0x00005270:    7830203d    = 0x    DCD    2016419901
        0x00005274:    000a7825    %x..    DCD    686117
        0x00005278:    2020726c    lr      DCD    538997356
        0x0000527c:    7830203d    = 0x    DCD    2016419901
        0x00005280:    000a7825    %x..    DCD    686117
        0x00005284:    20206370    pc      DCD    538993520
        0x00005288:    7830203d    = 0x    DCD    2016419901
        0x0000528c:    000a7825    %x..    DCD    686117
        0x00005290:    20727370    psr     DCD    544371568
        0x00005294:    7830203d    = 0x    DCD    2016419901
        0x00005298:    000a7825    %x..    DCD    686117
    $t
    i.strreplace
    strreplace
        0x0000529c:    b510        ..      PUSH     {r4,lr}
        0x0000529e:    460b        .F      MOV      r3,r1
        0x000052a0:    2100        .!      MOVS     r1,#0
        0x000052a2:    e004        ..      B        0x52ae ; strreplace + 18
        0x000052a4:    5c44        D\      LDRB     r4,[r0,r1]
        0x000052a6:    429c        .B      CMP      r4,r3
        0x000052a8:    d100        ..      BNE      0x52ac ; strreplace + 16
        0x000052aa:    5442        BT      STRB     r2,[r0,r1]
        0x000052ac:    1c49        I.      ADDS     r1,r1,#1
        0x000052ae:    5c44        D\      LDRB     r4,[r0,r1]
        0x000052b0:    2c00        .,      CMP      r4,#0
        0x000052b2:    d1f7        ..      BNE      0x52a4 ; strreplace + 8
        0x000052b4:    bd10        ..      POP      {r4,pc}
    i.svcDelay
    svcDelay
        0x000052b6:    b510        ..      PUSH     {r4,lr}
        0x000052b8:    2800        .(      CMP      r0,#0
        0x000052ba:    d004        ..      BEQ      0x52c6 ; svcDelay + 16
        0x000052bc:    f7fffa54    ..T.    BL       rt_ms2tick ; 0x4768
        0x000052c0:    f7fff890    ....    BL       rt_dly_wait ; 0x43e4
        0x000052c4:    2040        @       MOVS     r0,#0x40
        0x000052c6:    bd10        ..      POP      {r4,pc}
    i.svcKernelInitialize
    svcKernelInitialize
        0x000052c8:    b510        ..      PUSH     {r4,lr}
        0x000052ca:    4c15        .L      LDR      r4,[pc,#84] ; [0x5320] = 0x20000124
        0x000052cc:    7820         x      LDRB     r0,[r4,#0]
        0x000052ce:    2800        .(      CMP      r0,#0
        0x000052d0:    d10d        ..      BNE      0x52ee ; svcKernelInitialize + 38
        0x000052d2:    4814        .H      LDR      r0,[pc,#80] ; [0x5324] = 0x20001650
        0x000052d4:    0740        @.      LSLS     r0,r0,#29
        0x000052d6:    d106        ..      BNE      0x52e6 ; svcKernelInitialize + 30
        0x000052d8:    4813        .H      LDR      r0,[pc,#76] ; [0x5328] = 0x56d0
        0x000052da:    6801        .h      LDR      r1,[r0,#0]
        0x000052dc:    4811        .H      LDR      r0,[pc,#68] ; [0x5324] = 0x20001650
        0x000052de:    f7fff917    ....    BL       rt_init_mem ; 0x4510
        0x000052e2:    2800        .(      CMP      r0,#0
        0x000052e4:    d001        ..      BEQ      0x52ea ; svcKernelInitialize + 34
        0x000052e6:    2085        .       MOVS     r0,#0x85
        0x000052e8:    bd10        ..      POP      {r4,pc}
        0x000052ea:    f7fffc4f    ..O.    BL       rt_sys_init ; 0x4b8c
        0x000052ee:    490f        .I      LDR      r1,[pc,#60] ; [0x532c] = 0x2000012c
        0x000052f0:    20ff        .       MOVS     r0,#0xff
        0x000052f2:    6809        .h      LDR      r1,[r1,#0]
        0x000052f4:    7088        .p      STRB     r0,[r1,#2]
        0x000052f6:    7820         x      LDRB     r0,[r4,#0]
        0x000052f8:    2800        .(      CMP      r0,#0
        0x000052fa:    d10b        ..      BNE      0x5314 ; svcKernelInitialize + 76
        0x000052fc:    2100        .!      MOVS     r1,#0
        0x000052fe:    480c        .H      LDR      r0,[pc,#48] ; [0x5330] = 0x56e8
        0x00005300:    f000f844    ..D.    BL       svcMessageCreate ; 0x538c
        0x00005304:    490b        .I      LDR      r1,[pc,#44] ; [0x5334] = 0x200000e4
        0x00005306:    6008        .`      STR      r0,[r1,#0]
        0x00005308:    2100        .!      MOVS     r1,#0
        0x0000530a:    480b        .H      LDR      r0,[pc,#44] ; [0x5338] = 0x56d8
        0x0000530c:    f000f8b2    ....    BL       svcThreadCreate ; 0x5474
        0x00005310:    490a        .I      LDR      r1,[pc,#40] ; [0x533c] = 0x200000e0
        0x00005312:    6008        .`      STR      r0,[r1,#0]
        0x00005314:    2001        .       MOVS     r0,#1
        0x00005316:    7020         p      STRB     r0,[r4,#0]
        0x00005318:    2000        .       MOVS     r0,#0
        0x0000531a:    7060        `p      STRB     r0,[r4,#1]
        0x0000531c:    bd10        ..      POP      {r4,pc}
    $d
        0x0000531e:    0000        ..      DCW    0
        0x00005320:    20000124    $..     DCD    536871204
        0x00005324:    20001650    P..     DCD    536876624
        0x00005328:    000056d0    .V..    DCD    22224
        0x0000532c:    2000012c    ,..     DCD    536871212
        0x00005330:    000056e8    .V..    DCD    22248
        0x00005334:    200000e4    ...     DCD    536871140
        0x00005338:    000056d8    .V..    DCD    22232
        0x0000533c:    200000e0    ...     DCD    536871136
    $t
    i.svcKernelStart
    svcKernelStart
        0x00005340:    b570        p.      PUSH     {r4-r6,lr}
        0x00005342:    4d10        .M      LDR      r5,[pc,#64] ; [0x5384] = 0x20000124
        0x00005344:    7868        hx      LDRB     r0,[r5,#1]
        0x00005346:    2800        .(      CMP      r0,#0
        0x00005348:    d001        ..      BEQ      0x534e ; svcKernelStart + 14
        0x0000534a:    2000        .       MOVS     r0,#0
        0x0000534c:    bd70        p.      POP      {r4-r6,pc}
        0x0000534e:    4c0e        .L      LDR      r4,[pc,#56] ; [0x5388] = 0x2000012c
        0x00005350:    6820         h      LDR      r0,[r4,#0]
        0x00005352:    3020         0      ADDS     r0,r0,#0x20
        0x00005354:    7901        .y      LDRB     r1,[r0,#4]
        0x00005356:    2000        .       MOVS     r0,#0
        0x00005358:    f7fffdfc    ....    BL       rt_tsk_prio ; 0x4f54
        0x0000535c:    6820         h      LDR      r0,[r4,#0]
        0x0000535e:    78c1        .x      LDRB     r1,[r0,#3]
        0x00005360:    29ff        .)      CMP      r1,#0xff
        0x00005362:    d103        ..      BNE      0x536c ; svcKernelStart + 44
        0x00005364:    6a81        .j      LDR      r1,[r0,#0x28]
        0x00005366:    3120         1      ADDS     r1,r1,#0x20
        0x00005368:    f3818809    ....    MSR      PSP,r1
        0x0000536c:    6861        ah      LDR      r1,[r4,#4]
        0x0000536e:    2900        .)      CMP      r1,#0
        0x00005370:    d102        ..      BNE      0x5378 ; svcKernelStart + 56
        0x00005372:    6060        ``      STR      r0,[r4,#4]
        0x00005374:    2000        .       MOVS     r0,#0
        0x00005376:    6020         `      STR      r0,[r4,#0]
        0x00005378:    f7fffc6c    ..l.    BL       rt_sys_start ; 0x4c54
        0x0000537c:    2001        .       MOVS     r0,#1
        0x0000537e:    7068        hp      STRB     r0,[r5,#1]
        0x00005380:    e7e3        ..      B        0x534a ; svcKernelStart + 10
    $d
        0x00005382:    0000        ..      DCW    0
        0x00005384:    20000124    $..     DCD    536871204
        0x00005388:    2000012c    ,..     DCD    536871212
    $t
    i.svcMessageCreate
    svcMessageCreate
        0x0000538c:    b510        ..      PUSH     {r4,lr}
        0x0000538e:    0004        ..      MOVS     r4,r0
        0x00005390:    d008        ..      BEQ      0x53a4 ; svcMessageCreate + 24
        0x00005392:    6821        !h      LDR      r1,[r4,#0]
        0x00005394:    2900        .)      CMP      r1,#0
        0x00005396:    d005        ..      BEQ      0x53a4 ; svcMessageCreate + 24
        0x00005398:    6860        `h      LDR      r0,[r4,#4]
        0x0000539a:    2800        .(      CMP      r0,#0
        0x0000539c:    d002        ..      BEQ      0x53a4 ; svcMessageCreate + 24
        0x0000539e:    7802        .x      LDRB     r2,[r0,#0]
        0x000053a0:    2a00        .*      CMP      r2,#0
        0x000053a2:    d001        ..      BEQ      0x53a8 ; svcMessageCreate + 28
        0x000053a4:    2000        .       MOVS     r0,#0
        0x000053a6:    bd10        ..      POP      {r4,pc}
        0x000053a8:    0089        ..      LSLS     r1,r1,#2
        0x000053aa:    3110        .1      ADDS     r1,r1,#0x10
        0x000053ac:    b289        ..      UXTH     r1,r1
        0x000053ae:    f7fff909    ....    BL       rt_mbx_init ; 0x45c4
        0x000053b2:    6860        `h      LDR      r0,[r4,#4]
        0x000053b4:    bd10        ..      POP      {r4,pc}
    i.svcMessageGet
    svcMessageGet
        0x000053b6:    b53e        >.      PUSH     {r1-r5,lr}
        0x000053b8:    4604        .F      MOV      r4,r0
        0x000053ba:    2080        .       MOVS     r0,#0x80
        0x000053bc:    460d        .F      MOV      r5,r1
        0x000053be:    2c00        .,      CMP      r4,#0
        0x000053c0:    d013        ..      BEQ      0x53ea ; svcMessageGet + 52
        0x000053c2:    7821        !x      LDRB     r1,[r4,#0]
        0x000053c4:    2901        .)      CMP      r1,#1
        0x000053c6:    d110        ..      BNE      0x53ea ; svcMessageGet + 52
        0x000053c8:    4628        (F      MOV      r0,r5
        0x000053ca:    f7fff9cd    ....    BL       rt_ms2tick ; 0x4768
        0x000053ce:    4602        .F      MOV      r2,r0
        0x000053d0:    4620         F      MOV      r0,r4
        0x000053d2:    a901        ..      ADD      r1,sp,#4
        0x000053d4:    f7fff970    ..p.    BL       rt_mbx_wait ; 0x46b8
        0x000053d8:    2801        .(      CMP      r0,#1
        0x000053da:    d001        ..      BEQ      0x53e0 ; svcMessageGet + 42
        0x000053dc:    2010        .       MOVS     r0,#0x10
        0x000053de:    e004        ..      B        0x53ea ; svcMessageGet + 52
        0x000053e0:    2d00        .-      CMP      r5,#0
        0x000053e2:    d001        ..      BEQ      0x53e8 ; svcMessageGet + 50
        0x000053e4:    2040        @       MOVS     r0,#0x40
        0x000053e6:    e000        ..      B        0x53ea ; svcMessageGet + 52
        0x000053e8:    2000        .       MOVS     r0,#0
        0x000053ea:    9a02        ..      LDR      r2,[sp,#8]
        0x000053ec:    9901        ..      LDR      r1,[sp,#4]
        0x000053ee:    b003        ..      ADD      sp,sp,#0xc
        0x000053f0:    bd30        0.      POP      {r4,r5,pc}
    i.svcMutexCreate
    svcMutexCreate
        0x000053f2:    b510        ..      PUSH     {r4,lr}
        0x000053f4:    2800        .(      CMP      r0,#0
        0x000053f6:    d006        ..      BEQ      0x5406 ; svcMutexCreate + 20
        0x000053f8:    6804        .h      LDR      r4,[r0,#0]
        0x000053fa:    2c00        .,      CMP      r4,#0
        0x000053fc:    d002        ..      BEQ      0x5404 ; svcMutexCreate + 18
        0x000053fe:    7820         x      LDRB     r0,[r4,#0]
        0x00005400:    2800        .(      CMP      r0,#0
        0x00005402:    d001        ..      BEQ      0x5408 ; svcMutexCreate + 22
        0x00005404:    2000        .       MOVS     r0,#0
        0x00005406:    bd10        ..      POP      {r4,pc}
        0x00005408:    4620         F      MOV      r0,r4
        0x0000540a:    f7fff9cf    ....    BL       rt_mut_init ; 0x47ac
        0x0000540e:    4620         F      MOV      r0,r4
        0x00005410:    bd10        ..      POP      {r4,pc}
    i.svcMutexRelease
    svcMutexRelease
        0x00005412:    b510        ..      PUSH     {r4,lr}
        0x00005414:    f7fff854    ..T.    BL       rt_id2obj ; 0x44c0
        0x00005418:    2800        .(      CMP      r0,#0
        0x0000541a:    d002        ..      BEQ      0x5422 ; svcMutexRelease + 16
        0x0000541c:    7801        .x      LDRB     r1,[r0,#0]
        0x0000541e:    2903        .)      CMP      r1,#3
        0x00005420:    d001        ..      BEQ      0x5426 ; svcMutexRelease + 20
        0x00005422:    2080        .       MOVS     r0,#0x80
        0x00005424:    bd10        ..      POP      {r4,pc}
        0x00005426:    f7fff9c9    ....    BL       rt_mut_release ; 0x47bc
        0x0000542a:    28ff        .(      CMP      r0,#0xff
        0x0000542c:    d001        ..      BEQ      0x5432 ; svcMutexRelease + 32
        0x0000542e:    2000        .       MOVS     r0,#0
        0x00005430:    bd10        ..      POP      {r4,pc}
        0x00005432:    2081        .       MOVS     r0,#0x81
        0x00005434:    bd10        ..      POP      {r4,pc}
    i.svcMutexWait
    svcMutexWait
        0x00005436:    b570        p.      PUSH     {r4-r6,lr}
        0x00005438:    460d        .F      MOV      r5,r1
        0x0000543a:    f7fff841    ..A.    BL       rt_id2obj ; 0x44c0
        0x0000543e:    0004        ..      MOVS     r4,r0
        0x00005440:    d002        ..      BEQ      0x5448 ; svcMutexWait + 18
        0x00005442:    7820         x      LDRB     r0,[r4,#0]
        0x00005444:    2803        .(      CMP      r0,#3
        0x00005446:    d001        ..      BEQ      0x544c ; svcMutexWait + 22
        0x00005448:    2080        .       MOVS     r0,#0x80
        0x0000544a:    bd70        p.      POP      {r4-r6,pc}
        0x0000544c:    4628        (F      MOV      r0,r5
        0x0000544e:    f7fff98b    ....    BL       rt_ms2tick ; 0x4768
        0x00005452:    4601        .F      MOV      r1,r0
        0x00005454:    4620         F      MOV      r0,r4
        0x00005456:    f7fffa1d    ....    BL       rt_mut_wait ; 0x4894
        0x0000545a:    2801        .(      CMP      r0,#1
        0x0000545c:    d003        ..      BEQ      0x5466 ; svcMutexWait + 48
        0x0000545e:    28ff        .(      CMP      r0,#0xff
        0x00005460:    d005        ..      BEQ      0x546e ; svcMutexWait + 56
        0x00005462:    2000        .       MOVS     r0,#0
        0x00005464:    bd70        p.      POP      {r4-r6,pc}
        0x00005466:    2d00        .-      CMP      r5,#0
        0x00005468:    d001        ..      BEQ      0x546e ; svcMutexWait + 56
        0x0000546a:    20c1        .       MOVS     r0,#0xc1
        0x0000546c:    bd70        p.      POP      {r4-r6,pc}
        0x0000546e:    2081        .       MOVS     r0,#0x81
        0x00005470:    bd70        p.      POP      {r4-r6,pc}
        0x00005472:    0000        ..      MOVS     r0,r0
    i.svcThreadCreate
    svcThreadCreate
        0x00005474:    b570        p.      PUSH     {r4-r6,lr}
        0x00005476:    460e        .F      MOV      r6,r1
        0x00005478:    0004        ..      MOVS     r4,r0
        0x0000547a:    d02c        ,.      BEQ      0x54d6 ; svcThreadCreate + 98
        0x0000547c:    6820         h      LDR      r0,[r4,#0]
        0x0000547e:    2800        .(      CMP      r0,#0
        0x00005480:    d029        ).      BEQ      0x54d6 ; svcThreadCreate + 98
        0x00005482:    6860        `h      LDR      r0,[r4,#4]
        0x00005484:    1cc1        ..      ADDS     r1,r0,#3
        0x00005486:    db26        &.      BLT      0x54d6 ; svcThreadCreate + 98
        0x00005488:    2803        .(      CMP      r0,#3
        0x0000548a:    dc24        $.      BGT      0x54d6 ; svcThreadCreate + 98
        0x0000548c:    68e1        .h      LDR      r1,[r4,#0xc]
        0x0000548e:    2900        .)      CMP      r1,#0
        0x00005490:    d005        ..      BEQ      0x549e ; svcThreadCreate + 42
        0x00005492:    4812        .H      LDR      r0,[pc,#72] ; [0x54dc] = 0x20001650
        0x00005494:    f7fefeec    ....    BL       rt_alloc_mem ; 0x4270
        0x00005498:    1e05        ..      SUBS     r5,r0,#0
        0x0000549a:    d015        ..      BEQ      0x54c8 ; svcThreadCreate + 84
        0x0000549c:    e000        ..      B        0x54a0 ; svcThreadCreate + 44
        0x0000549e:    2500        .%      MOVS     r5,#0
        0x000054a0:    68e0        .h      LDR      r0,[r4,#0xc]
        0x000054a2:    6861        ah      LDR      r1,[r4,#4]
        0x000054a4:    0200        ..      LSLS     r0,r0,#8
        0x000054a6:    1d09        ..      ADDS     r1,r1,#4
        0x000054a8:    4301        .C      ORRS     r1,r1,r0
        0x000054aa:    4633        3F      MOV      r3,r6
        0x000054ac:    462a        *F      MOV      r2,r5
        0x000054ae:    6820         h      LDR      r0,[r4,#0]
        0x000054b0:    f7fffc68    ..h.    BL       rt_tsk_create ; 0x4d84
        0x000054b4:    2800        .(      CMP      r0,#0
        0x000054b6:    d008        ..      BEQ      0x54ca ; svcThreadCreate + 86
        0x000054b8:    4909        .I      LDR      r1,[pc,#36] ; [0x54e0] = 0x200037d4
        0x000054ba:    0080        ..      LSLS     r0,r0,#2
        0x000054bc:    1840        @.      ADDS     r0,r0,r1
        0x000054be:    3880        .8      SUBS     r0,r0,#0x80
        0x000054c0:    6fc0        .o      LDR      r0,[r0,#0x7c]
        0x000054c2:    4908        .I      LDR      r1,[pc,#32] ; [0x54e4] = 0x4051
        0x000054c4:    6a82        .j      LDR      r2,[r0,#0x28]
        0x000054c6:    6351        Qc      STR      r1,[r2,#0x34]
        0x000054c8:    bd70        p.      POP      {r4-r6,pc}
        0x000054ca:    2d00        .-      CMP      r5,#0
        0x000054cc:    d003        ..      BEQ      0x54d6 ; svcThreadCreate + 98
        0x000054ce:    4629        )F      MOV      r1,r5
        0x000054d0:    4802        .H      LDR      r0,[pc,#8] ; [0x54dc] = 0x20001650
        0x000054d2:    f7feffc8    ....    BL       rt_free_mem ; 0x4466
        0x000054d6:    2000        .       MOVS     r0,#0
        0x000054d8:    bd70        p.      POP      {r4-r6,pc}
    $d
        0x000054da:    0000        ..      DCW    0
        0x000054dc:    20001650    P..     DCD    536876624
        0x000054e0:    200037d4    .7.     DCD    536885204
        0x000054e4:    00004051    Q@..    DCD    16465
    $t
    i.svcThreadGetId
    svcThreadGetId
        0x000054e8:    b510        ..      PUSH     {r4,lr}
        0x000054ea:    f7fffd73    ..s.    BL       rt_tsk_self ; 0x4fd4
        0x000054ee:    2800        .(      CMP      r0,#0
        0x000054f0:    d004        ..      BEQ      0x54fc ; svcThreadGetId + 20
        0x000054f2:    4903        .I      LDR      r1,[pc,#12] ; [0x5500] = 0x200037d4
        0x000054f4:    0080        ..      LSLS     r0,r0,#2
        0x000054f6:    1840        @.      ADDS     r0,r0,r1
        0x000054f8:    3880        .8      SUBS     r0,r0,#0x80
        0x000054fa:    6fc0        .o      LDR      r0,[r0,#0x7c]
        0x000054fc:    bd10        ..      POP      {r4,pc}
    $d
        0x000054fe:    0000        ..      DCW    0
        0x00005500:    200037d4    .7.     DCD    536885204
    $t
    i.svcThreadTerminate
    svcThreadTerminate
        0x00005504:    b510        ..      PUSH     {r4,lr}
        0x00005506:    f7fffbf5    ....    BL       rt_tid2ptcb ; 0x4cf4
        0x0000550a:    2800        .(      CMP      r0,#0
        0x0000550c:    d004        ..      BEQ      0x5518 ; svcThreadTerminate + 20
        0x0000550e:    8cc1        ..      LDRH     r1,[r0,#0x26]
        0x00005510:    2900        .)      CMP      r1,#0
        0x00005512:    d003        ..      BEQ      0x551c ; svcThreadTerminate + 24
        0x00005514:    6ac4        .j      LDR      r4,[r0,#0x2c]
        0x00005516:    e002        ..      B        0x551e ; svcThreadTerminate + 26
        0x00005518:    2080        .       MOVS     r0,#0x80
        0x0000551a:    bd10        ..      POP      {r4,pc}
        0x0000551c:    2400        .$      MOVS     r4,#0
        0x0000551e:    78c0        .x      LDRB     r0,[r0,#3]
        0x00005520:    f7fffc6c    ..l.    BL       rt_tsk_delete ; 0x4dfc
        0x00005524:    28ff        .(      CMP      r0,#0xff
        0x00005526:    d007        ..      BEQ      0x5538 ; svcThreadTerminate + 52
        0x00005528:    2c00        .,      CMP      r4,#0
        0x0000552a:    d003        ..      BEQ      0x5534 ; svcThreadTerminate + 48
        0x0000552c:    4621        !F      MOV      r1,r4
        0x0000552e:    4803        .H      LDR      r0,[pc,#12] ; [0x553c] = 0x20001650
        0x00005530:    f7feff99    ....    BL       rt_free_mem ; 0x4466
        0x00005534:    2000        .       MOVS     r0,#0
        0x00005536:    bd10        ..      POP      {r4,pc}
        0x00005538:    2081        .       MOVS     r0,#0x81
        0x0000553a:    bd10        ..      POP      {r4,pc}
    $d
        0x0000553c:    20001650    P..     DCD    536876624
    $t
    i.svcTimerCall
    svcTimerCall
        0x00005540:    b510        ..      PUSH     {r4,lr}
        0x00005542:    f7feffbd    ....    BL       rt_id2obj ; 0x44c0
        0x00005546:    2800        .(      CMP      r0,#0
        0x00005548:    d005        ..      BEQ      0x5556 ; svcTimerCall + 22
        0x0000554a:    6941        Ai      LDR      r1,[r0,#0x14]
        0x0000554c:    6902        .i      LDR      r2,[r0,#0x10]
        0x0000554e:    6809        .h      LDR      r1,[r1,#0]
        0x00005550:    4608        .F      MOV      r0,r1
        0x00005552:    4611        .F      MOV      r1,r2
        0x00005554:    bd10        ..      POP      {r4,pc}
        0x00005556:    2000        .       MOVS     r0,#0
        0x00005558:    4601        .F      MOV      r1,r0
        0x0000555a:    bd10        ..      POP      {r4,pc}
    i.svcTimerCreate
    svcTimerCreate
        0x0000555c:    b510        ..      PUSH     {r4,lr}
        0x0000555e:    0003        ..      MOVS     r3,r0
        0x00005560:    d010        ..      BEQ      0x5584 ; svcTimerCreate + 40
        0x00005562:    6818        .h      LDR      r0,[r3,#0]
        0x00005564:    2800        .(      CMP      r0,#0
        0x00005566:    d00d        ..      BEQ      0x5584 ; svcTimerCreate + 40
        0x00005568:    6858        Xh      LDR      r0,[r3,#4]
        0x0000556a:    2800        .(      CMP      r0,#0
        0x0000556c:    d00b        ..      BEQ      0x5586 ; svcTimerCreate + 42
        0x0000556e:    2900        .)      CMP      r1,#0
        0x00005570:    d001        ..      BEQ      0x5576 ; svcTimerCreate + 26
        0x00005572:    2901        .)      CMP      r1,#1
        0x00005574:    d106        ..      BNE      0x5584 ; svcTimerCreate + 40
        0x00005576:    4c08        .L      LDR      r4,[pc,#32] ; [0x5598] = 0x200000e0
        0x00005578:    6824        $h      LDR      r4,[r4,#0]
        0x0000557a:    2c00        .,      CMP      r4,#0
        0x0000557c:    d002        ..      BEQ      0x5584 ; svcTimerCreate + 40
        0x0000557e:    7904        .y      LDRB     r4,[r0,#4]
        0x00005580:    2c00        .,      CMP      r4,#0
        0x00005582:    d001        ..      BEQ      0x5588 ; svcTimerCreate + 44
        0x00005584:    2000        .       MOVS     r0,#0
        0x00005586:    bd10        ..      POP      {r4,pc}
        0x00005588:    2400        .$      MOVS     r4,#0
        0x0000558a:    6004        .`      STR      r4,[r0,#0]
        0x0000558c:    2401        .$      MOVS     r4,#1
        0x0000558e:    7104        .q      STRB     r4,[r0,#4]
        0x00005590:    7141        Aq      STRB     r1,[r0,#5]
        0x00005592:    6143        Ca      STR      r3,[r0,#0x14]
        0x00005594:    6102        .a      STR      r2,[r0,#0x10]
        0x00005596:    bd10        ..      POP      {r4,pc}
    $d
        0x00005598:    200000e0    ...     DCD    536871136
    $t
    i.svcTimerStart
    svcTimerStart
        0x0000559c:    b570        p.      PUSH     {r4-r6,lr}
        0x0000559e:    460d        .F      MOV      r5,r1
        0x000055a0:    f7feff8e    ....    BL       rt_id2obj ; 0x44c0
        0x000055a4:    0004        ..      MOVS     r4,r0
        0x000055a6:    d019        ..      BEQ      0x55dc ; svcTimerStart + 64
        0x000055a8:    2d00        .-      CMP      r5,#0
        0x000055aa:    d019        ..      BEQ      0x55e0 ; svcTimerStart + 68
        0x000055ac:    217d        }!      MOVS     r1,#0x7d
        0x000055ae:    4628        (F      MOV      r0,r5
        0x000055b0:    00c9        ..      LSLS     r1,r1,#3
        0x000055b2:    f7fdfb26    ..&.    BL       __ARM_common_ll_muluu ; 0x2c02
        0x000055b6:    4b13        .K      LDR      r3,[pc,#76] ; [0x5604] = 0x56c0
        0x000055b8:    2200        ."      MOVS     r2,#0
        0x000055ba:    681d        .h      LDR      r5,[r3,#0]
        0x000055bc:    1e56        V.      SUBS     r6,r2,#1
        0x000055be:    1e6d        m.      SUBS     r5,r5,#1
        0x000055c0:    4172        rA      ADCS     r2,r2,r6
        0x000055c2:    1940        @.      ADDS     r0,r0,r5
        0x000055c4:    4151        QA      ADCS     r1,r1,r2
        0x000055c6:    681a        .h      LDR      r2,[r3,#0]
        0x000055c8:    2300        .#      MOVS     r3,#0
        0x000055ca:    f7fafe9b    ....    BL       __aeabi_uldivmod ; 0x304
        0x000055ce:    4605        .F      MOV      r5,r0
        0x000055d0:    7920         y      LDRB     r0,[r4,#4]
        0x000055d2:    2801        .(      CMP      r0,#1
        0x000055d4:    d00d        ..      BEQ      0x55f2 ; svcTimerStart + 86
        0x000055d6:    2802        .(      CMP      r0,#2
        0x000055d8:    d109        ..      BNE      0x55ee ; svcTimerStart + 82
        0x000055da:    e003        ..      B        0x55e4 ; svcTimerStart + 72
        0x000055dc:    2080        .       MOVS     r0,#0x80
        0x000055de:    bd70        p.      POP      {r4-r6,pc}
        0x000055e0:    2086        .       MOVS     r0,#0x86
        0x000055e2:    bd70        p.      POP      {r4-r6,pc}
        0x000055e4:    4620         F      MOV      r0,r4
        0x000055e6:    f7fffbab    ....    BL       rt_timer_remove ; 0x4d40
        0x000055ea:    2800        .(      CMP      r0,#0
        0x000055ec:    d004        ..      BEQ      0x55f8 ; svcTimerStart + 92
        0x000055ee:    2081        .       MOVS     r0,#0x81
        0x000055f0:    bd70        p.      POP      {r4-r6,pc}
        0x000055f2:    2002        .       MOVS     r0,#2
        0x000055f4:    7120         q      STRB     r0,[r4,#4]
        0x000055f6:    60e5        .`      STR      r5,[r4,#0xc]
        0x000055f8:    4629        )F      MOV      r1,r5
        0x000055fa:    4620         F      MOV      r0,r4
        0x000055fc:    f7fffb84    ....    BL       rt_timer_insert ; 0x4d08
        0x00005600:    2000        .       MOVS     r0,#0
        0x00005602:    bd70        p.      POP      {r4-r6,pc}
    $d
        0x00005604:    000056c0    .V..    DCD    22208
    $t
    i.sysTimerTick
    sysTimerTick
        0x00005608:    b5f8        ..      PUSH     {r3-r7,lr}
        0x0000560a:    4e13        .N      LDR      r6,[pc,#76] ; [0x5658] = 0x20000124
        0x0000560c:    6874        th      LDR      r4,[r6,#4]
        0x0000560e:    2c00        .,      CMP      r4,#0
        0x00005610:    d01b        ..      BEQ      0x564a ; sysTimerTick + 66
        0x00005612:    68a0        .h      LDR      r0,[r4,#8]
        0x00005614:    4f11        .O      LDR      r7,[pc,#68] ; [0x565c] = 0x200000e4
        0x00005616:    1e40        @.      SUBS     r0,r0,#1
        0x00005618:    60a0        .`      STR      r0,[r4,#8]
        0x0000561a:    e013        ..      B        0x5644 ; sysTimerTick + 60
        0x0000561c:    4625        %F      MOV      r5,r4
        0x0000561e:    6824        $h      LDR      r4,[r4,#0]
        0x00005620:    6074        t`      STR      r4,[r6,#4]
        0x00005622:    2200        ."      MOVS     r2,#0
        0x00005624:    4629        )F      MOV      r1,r5
        0x00005626:    6838        8h      LDR      r0,[r7,#0]
        0x00005628:    f7fefaf3    ....    BL       isrMessagePut ; 0x3c12
        0x0000562c:    2800        .(      CMP      r0,#0
        0x0000562e:    d002        ..      BEQ      0x5636 ; sysTimerTick + 46
        0x00005630:    2004        .       MOVS     r0,#4
        0x00005632:    f7fefd5f    .._.    BL       os_error ; 0x40f4
        0x00005636:    7968        hy      LDRB     r0,[r5,#5]
        0x00005638:    2801        .(      CMP      r0,#1
        0x0000563a:    d007        ..      BEQ      0x564c ; sysTimerTick + 68
        0x0000563c:    2001        .       MOVS     r0,#1
        0x0000563e:    7128        (q      STRB     r0,[r5,#4]
        0x00005640:    2c00        .,      CMP      r4,#0
        0x00005642:    d002        ..      BEQ      0x564a ; sysTimerTick + 66
        0x00005644:    68a0        .h      LDR      r0,[r4,#8]
        0x00005646:    2800        .(      CMP      r0,#0
        0x00005648:    d0e8        ..      BEQ      0x561c ; sysTimerTick + 20
        0x0000564a:    bdf8        ..      POP      {r3-r7,pc}
        0x0000564c:    4628        (F      MOV      r0,r5
        0x0000564e:    68e9        .h      LDR      r1,[r5,#0xc]
        0x00005650:    f7fffb5a    ..Z.    BL       rt_timer_insert ; 0x4d08
        0x00005654:    e7f4        ..      B        0x5640 ; sysTimerTick + 56
    $d
        0x00005656:    0000        ..      DCW    0
        0x00005658:    20000124    $..     DCD    536871204
        0x0000565c:    200000e4    ...     DCD    536871140
    $d.realdata
    .constdata
    os_mutex_def_uart_mutex
        0x00005660:    20000150    P..     DCD    536871248
    os_mutex_def_tcp_mutex
        0x00005664:    20000160    `..     DCD    536871264
    os_mutex_def_fs_mutex
        0x00005668:    20000170    p..     DCD    536871280
    .constdata
    os_thread_def_Thread
        0x0000566c:    00002691    .&..    DCD    9873
        0x00005670:    00000002    ....    DCD    2
        0x00005674:    00000001    ....    DCD    1
        0x00005678:    00000802    ....    DCD    2050
    os_thread_def_Thread1
        0x0000567c:    0000273d    ='..    DCD    10045
        0x00005680:    00000000    ....    DCD    0
        0x00005684:    00000001    ....    DCD    1
        0x00005688:    00000fd0    ....    DCD    4048
    .constdata
    os_timer_def_Timer1
        0x0000568c:    00002a21    !*..    DCD    10785
        0x00005690:    200013a0    ...     DCD    536875936
    os_timer_def_Timer2
        0x00005694:    00002a25    %*..    DCD    10789
        0x00005698:    200013b8    ...     DCD    536875960
    .constdata
    os_maxtaskrun
        0x0000569c:    00000004    ....    DCD    4
    os_stackinfo
        0x000056a0:    01040190    ....    DCD    17039760
    os_rrobin
        0x000056a4:    00010005    ....    DCD    65541
    os_tickfreq
        0x000056a8:    02faf080    ....    DCD    50000000
    os_tickus_i
        0x000056ac:    0032        2.      DCW    50
    os_tickus_f
        0x000056ae:    0000        ..      DCW    0
    os_trv
        0x000056b0:    0000c34f    O...    DCD    49999
    os_flags
        0x000056b4:    00000001    ....    DCD    1
    __tagsym$$used
    CMSIS_RTOS_API_Version
        0x000056b8:    00010002    ....    DCD    65538
    __tagsym$$used
    CMSIS_RTOS_RTX_Version
        0x000056bc:    00040052    R...    DCD    262226
    __tagsym$$used
    os_clockrate
        0x000056c0:    000003e8    ....    DCD    1000
    __tagsym$$used
    os_timernum
        0x000056c4:    00000000    ....    DCD    0
    mp_tcb_size
        0x000056c8:    000000dc    ....    DCD    220
    mp_stk_size
        0x000056cc:    000001a0    ....    DCD    416
    os_stack_sz
        0x000056d0:    00002100    .!..    DCD    8448
    os_fifo_size
        0x000056d4:    00000010    ....    DCD    16
    os_thread_def_osTimerThread
        0x000056d8:    000040c9    .@..    DCD    16585
        0x000056dc:    00000002    ....    DCD    2
        0x000056e0:    00000001    ....    DCD    1
        0x000056e4:    000000c8    ....    DCD    200
    os_messageQ_def_osTimerMessageQ
        0x000056e8:    00000004    ....    DCD    4
        0x000056ec:    200037e4    .7.     DCD    536885220
    mp_tmr_size
        0x000056f0:    00000000    ....    DCD    0
    os_thread_def_main
        0x000056f4:    00003c9d    .<..    DCD    15517
        0x000056f8:    00000000    ....    DCD    0
        0x000056fc:    00000001    ....    DCD    1
        0x00005700:    00000708    ....    DCD    1800
    .constdata
        0x00005704:    00000000    ....    DCD    0
        0x00005708:    00000004    ....    DCD    4
        0x0000570c:    0000000c    ....    DCD    12
        0x00005710:    00000024    $...    DCD    36
        0x00005714:    00000000    ....    DCD    0
        0x00005718:    00000020     ...    DCD    32
        0x0000571c:    00000000    ....    DCD    0
        0x00005720:    00000004    ....    DCD    4
        0x00005724:    0000002c    ,...    DCD    44
        0x00005728:    00000000    ....    DCD    0
        0x0000572c:    00000000    ....    DCD    0
        0x00005730:    00000004    ....    DCD    4
        0x00005734:    0000002c    ,...    DCD    44
        0x00005738:    00000000    ....    DCD    0
    .constdata
        0x0000573c:    00b71b00    ....    DCD    12000000
        0x00005740:    00000000    ....    DCD    0
        0x00005744:    00000000    ....    DCD    0
        0x00005748:    01518000    ..Q.    DCD    22118400
        0x0000574c:    00b71b00    ....    DCD    12000000
        0x00005750:    00000000    ....    DCD    0
        0x00005754:    00000000    ....    DCD    0
        0x00005758:    01518000    ..Q.    DCD    22118400
        0x0000575c:    00b71b00    ....    DCD    12000000
        0x00005760:    00000000    ....    DCD    0
        0x00005764:    00000000    ....    DCD    0
        0x00005768:    01518000    ..Q.    DCD    22118400
    .constdata
    __ctype_table
        0x0000576c:    40404000    .@@@    DCD    1077952512
        0x00005770:    40404040    @@@@    DCD    1077952576
        0x00005774:    41414040    @@AA    DCD    1094795328
        0x00005778:    40414141    AAA@    DCD    1078018369
        0x0000577c:    40404040    @@@@    DCD    1077952576
        0x00005780:    40404040    @@@@    DCD    1077952576
        0x00005784:    40404040    @@@@    DCD    1077952576
        0x00005788:    40404040    @@@@    DCD    1077952576
        0x0000578c:    02020540    @...    DCD    33686848
        0x00005790:    02020202    ....    DCD    33686018
        0x00005794:    02020202    ....    DCD    33686018
        0x00005798:    02020202    ....    DCD    33686018
        0x0000579c:    20202002    .       DCD    538976258
        0x000057a0:    20202020            DCD    538976288
        0x000057a4:    02202020       .    DCD    35659808
        0x000057a8:    02020202    ....    DCD    33686018
        0x000057ac:    90900202    ....    DCD    2425356802
        0x000057b0:    90909090    ....    DCD    2425393296
        0x000057b4:    10101010    ....    DCD    269488144
        0x000057b8:    10101010    ....    DCD    269488144
        0x000057bc:    10101010    ....    DCD    269488144
        0x000057c0:    10101010    ....    DCD    269488144
        0x000057c4:    10101010    ....    DCD    269488144
        0x000057c8:    02020202    ....    DCD    33686018
        0x000057cc:    88880202    ....    DCD    2290614786
        0x000057d0:    88888888    ....    DCD    2290649224
        0x000057d4:    08080808    ....    DCD    134744072
        0x000057d8:    08080808    ....    DCD    134744072
        0x000057dc:    08080808    ....    DCD    134744072
        0x000057e0:    08080808    ....    DCD    134744072
        0x000057e4:    08080808    ....    DCD    134744072
        0x000057e8:    02020202    ....    DCD    33686018
        0x000057ec:    00000040    @...    DCD    64
    .constdata
    table
        0x000057f0:    0000576d    mW..    DCD    22381
    .conststring
        0x000057f4:    54410a0d    ..AT    DCD    1413548557
        0x000057f8:    5349512b    +QIS    DCD    1397313835
        0x000057fc:    0d444e45    END.    DCD    222580293
        0x00005800:    000a0d0a    ....    DCD    658698
        0x00005804:    0000003e    >...    DCD    62
        0x00005808:    444e4553    SEND    DCD    1145980243
        0x0000580c:    004b4f20     OK.    DCD    4935456
    .conststring
        0x00005810:    54410a0d    ..AT    DCD    1413548557
        0x00005814:    474d432b    +CMG    DCD    1196245803
        0x00005818:    2c313d52    R=1,    DCD    741424466
        0x0000581c:    0d0a0d30    0...    DCD    218762544
        0x00005820:    0000000a    ....    DCD    10
        0x00005824:    54410a0d    ..AT    DCD    1413548557
        0x00005828:    4e47512b    +QGN    DCD    1313296683
        0x0000582c:    3d435353    SSC=    DCD    1027822419
        0x00005830:    0d0a0d31    1...    DCD    218762545
        0x00005834:    0000000a    ....    DCD    10
        0x00005838:    54410a0d    ..AT    DCD    1413548557
        0x0000583c:    474d432b    +CMG    DCD    1196245803
        0x00005840:    0d313d46    F=1.    DCD    221330758
        0x00005844:    000a0d0a    ....    DCD    658698
        0x00005848:    54410a0d    ..AT    DCD    1413548557
        0x0000584c:    474d432b    +CMG    DCD    1196245803
        0x00005850:    2c313d44    D=1,    DCD    741424452
        0x00005854:    0d0a0d34    4...    DCD    218762548
        0x00005858:    0000000a    ....    DCD    10
        0x0000585c:    0a0d0a0d    ....    DCD    168626701
        0x00005860:    472b5441    AT+G    DCD    1194021953
        0x00005864:    0a0d4e53    SN..    DCD    168644179
        0x00005868:    00000a0d    ....    DCD    2573
        0x0000586c:    54410a0d    ..AT    DCD    1413548557
        0x00005870:    4f46512b    +QFO    DCD    1330008363
        0x00005874:    3d4e4550    PEN=    DCD    1028539728
        0x00005878:    474f4c22    "LOG    DCD    1196379170
        0x0000587c:    5458542e    .TXT    DCD    1415074862
        0x00005880:    0d302c22    ",0.    DCD    221260834
        0x00005884:    0000000a    ....    DCD    10
        0x00005888:    54410a0d    ..AT    DCD    1413548557
        0x0000588c:    5546432b    +CFU    DCD    1430668075
        0x00005890:    2c313d4e    N=1,    DCD    741424462
        0x00005894:    000a0d31    1...    DCD    658737
        0x00005898:    33303137    7103    DCD    858796343
        0x0000589c:    00000000    ....    DCD    0
        0x000058a0:    20544f4e    NOT     DCD    542396238
        0x000058a4:    45534e49    INSE    DCD    1163087433
        0x000058a8:    44455452    RTED    DCD    1145394258
        0x000058ac:    00000000    ....    DCD    0
        0x000058b0:    00454d43    CME.    DCD    4541763
        0x000058b4:    494e4749    IGNI    DCD    1229866825
        0x000058b8:    4e4f4954    TION    DCD    1313818964
        0x000058bc:    46464f20     OFF    DCD    1179012896
        0x000058c0:    00000000    ....    DCD    0
        0x000058c4:    00004b4f    OK..    DCD    19279
        0x000058c8:    494e4749    IGNI    DCD    1229866825
        0x000058cc:    4e4f4954    TION    DCD    1313818964
        0x000058d0:    004e4f20     ON.    DCD    5132064
        0x000058d4:    00005049    IP..    DCD    20553
        0x000058d8:    20454d43    CME     DCD    541412675
        0x000058dc:    4f525245    ERRO    DCD    1330795077
        0x000058e0:    00000052    R...    DCD    82
        0x000058e4:    00006325    %c..    DCD    25381
        0x000058e8:    64616552    Read    DCD    1684104530
        0x000058ec:    00000079    y...    DCD    121
    Region$$Table$$Base
        0x000058f0:    00005910    .Y..    DCD    22800
        0x000058f4:    20000000    ...     DCD    536870912
        0x000058f8:    00000150    P...    DCD    336
        0x000058fc:    00002c54    T,..    DCD    11348
        0x00005900:    00005a60    `Z..    DCD    23136
        0x00005904:    20000150    P..     DCD    536871248
        0x00005908:    00003b18    .;..    DCD    15128
        0x0000590c:    00002c64    d,..    DCD    11364
    Region$$Table$$Limit

** Section #2 'ER_RW' (SHT_PROGBITS) [SHF_ALLOC + SHF_WRITE]
    Size   : 336 bytes (alignment 8)
    Address: 0x20000000


** Section #3 'ER_ZI' (SHT_NOBITS) [SHF_ALLOC + SHF_WRITE]
    Size   : 15128 bytes (alignment 8)
    Address: 0x20000150


** Section #4 '.debug_abbrev' (SHT_PROGBITS)
    Size   : 1476 bytes


** Section #5 '.debug_frame' (SHT_PROGBITS)
    Size   : 5648 bytes


** Section #6 '.debug_info' (SHT_PROGBITS)
    Size   : 78736 bytes


** Section #7 '.debug_line' (SHT_PROGBITS)
    Size   : 29272 bytes


** Section #8 '.debug_loc' (SHT_PROGBITS)
    Size   : 13784 bytes


** Section #9 '.debug_macinfo' (SHT_PROGBITS)
    Size   : 279328 bytes


** Section #10 '.debug_pubnames' (SHT_PROGBITS)
    Size   : 8093 bytes


** Section #11 '.symtab' (SHT_SYMTAB)
    Size   : 16992 bytes (alignment 4)
    String table #12 '.strtab'
    Last local symbol no. 647


** Section #12 '.strtab' (SHT_STRTAB)
    Size   : 10956 bytes


** Section #13 '.note' (SHT_NOTE)
    Size   : 28 bytes (alignment 4)


** Section #14 '.comment' (SHT_PROGBITS)
    Size   : 26716 bytes


** Section #15 '.shstrtab' (SHT_STRTAB)
    Size   : 156 bytes


