
========================================================================

** ELF Header Information

    File Name: .\obj\UART.axf

    Machine class: ELFCLASS32 (32-bit)
    Data encoding: ELFDATA2LSB (Little endian)
    Header version: EV_CURRENT (Current version)
    Operating System ABI: none
    ABI Version: 0
    File Type: ET_EXEC (Executable) (2)
    Machine: EM_ARM (ARM)

    Image Entry point: 0x00000359
    Flags: EF_ARM_HASENTRY + EF_ARM_ABI_FLOAT_SOFT (0x05000202)

    ARM ELF revision: 5 (ABI version 2)

    Conforms to Soft float procedure-call standard

    Built with
    Component: ARM Compiler 5.06 update 5 (build 528) Tool: armasm [4d35e1]
    Component: ARM Compiler 5.06 update 4 (build 422) Tool: armasm [4d35cf]
    Component: ARM Compiler 5.06 update 5 (build 528) Tool: armlink [4d35e2]
    Component: ARM Compiler 5.06 update 4 (build 422) Tool: armlink [4d35d2]

    Header size: 52 bytes (0x34)
    Program header entry size: 32 bytes (0x20)
    Section header entry size: 40 bytes (0x28)

    Program header entries: 1
    Section header entries: 16

    Program header offset: 630320 (0x00099e30)
    Section header offset: 630352 (0x00099e50)

    Section header string table index: 15

========================================================================

** Program header #0 (PT_LOAD) [PF_X + PF_W + PF_R + PF_ARM_ENTRY]
    Size : 41988 bytes (27784 bytes in file)
    Virtual address: 0x00000000 (Alignment 8)


========================================================================

** Section #1 'ER_RO' (SHT_PROGBITS) [SHF_ALLOC + SHF_EXECINSTR]
    Size   : 27428 bytes (alignment 4)
    Address: 0x00000000

    $d.realdata
    RESET
    __Vectors
        0x00000000:    200038e0    .8.     DCD    536885472
        0x00000004:    00000359    Y...    DCD    857
        0x00000008:    00000375    u...    DCD    885
        0x0000000c:    000000e5    ....    DCD    229
        0x00000010:    00000000    ....    DCD    0
        0x00000014:    00000000    ....    DCD    0
        0x00000018:    00000000    ....    DCD    0
        0x0000001c:    00000000    ....    DCD    0
        0x00000020:    00000000    ....    DCD    0
        0x00000024:    00000000    ....    DCD    0
        0x00000028:    00000000    ....    DCD    0
        0x0000002c:    00000171    q...    DCD    369
        0x00000030:    00000000    ....    DCD    0
        0x00000034:    00000000    ....    DCD    0
        0x00000038:    00000205    ....    DCD    517
        0x0000003c:    00000251    Q...    DCD    593
        0x00000040:    0000037f    ....    DCD    895
        0x00000044:    000016eb    ....    DCD    5867
        0x00000048:    0000037f    ....    DCD    895
        0x0000004c:    0000037f    ....    DCD    895
        0x00000050:    00001cc3    ....    DCD    7363
        0x00000054:    0000037f    ....    DCD    895
        0x00000058:    0000037f    ....    DCD    895
        0x0000005c:    0000037f    ....    DCD    895
        0x00000060:    0000037f    ....    DCD    895
        0x00000064:    0000037f    ....    DCD    895
        0x00000068:    0000037f    ....    DCD    895
        0x0000006c:    0000037f    ....    DCD    895
        0x00000070:    00001a01    ....    DCD    6657
        0x00000074:    000019ff    ....    DCD    6655
        0x00000078:    0000037f    ....    DCD    895
        0x0000007c:    0000037f    ....    DCD    895
        0x00000080:    0000037f    ....    DCD    895
        0x00000084:    0000037f    ....    DCD    895
        0x00000088:    0000037f    ....    DCD    895
        0x0000008c:    00002eb3    ....    DCD    11955
        0x00000090:    0000037f    ....    DCD    895
        0x00000094:    0000037f    ....    DCD    895
        0x00000098:    0000037f    ....    DCD    895
        0x0000009c:    0000037f    ....    DCD    895
        0x000000a0:    00000000    ....    DCD    0
        0x000000a4:    0000037f    ....    DCD    895
        0x000000a8:    0000037f    ....    DCD    895
        0x000000ac:    0000037f    ....    DCD    895
        0x000000b0:    0000037f    ....    DCD    895
        0x000000b4:    0000037f    ....    DCD    895
        0x000000b8:    0000037f    ....    DCD    895
        0x000000bc:    0000037f    ....    DCD    895
    $t
    .ARM.Collect$$$$00000000
    .ARM.Collect$$$$00000001
    __main
    _main_stk
        0x000000c0:    4807        .H      LDR      r0,__lit__00000000 ; [0xe0] = 0x200038e0
        0x000000c2:    4685        .F      MOV      sp,r0
    .ARM.Collect$$$$00000004
    _main_scatterload
        0x000000c4:    f004f970    ..p.    BL       __scatterload ; 0x43a8
    .ARM.Collect$$$$000000FF
    .ARM.Collect$$$$00000008
    .ARM.Collect$$$$0000000A
    .ARM.Collect$$$$0000000D
    .ARM.Collect$$$$0000000F
    __main_after_scatterload
    __rt_final_cpp
    __rt_final_exit
    _main_clock
    _main_cpp_init
    _main_init
        0x000000c8:    f005f948    ..H.    BL       osKernelInitialize ; 0x535c
        0x000000cc:    2100        .!      MOVS     r1,#0
        0x000000ce:    4803        .H      LDR      r0,[pc,#12] ; [0xdc] = 0x69ec
        0x000000d0:    f005f9fc    ....    BL       osThreadCreate ; 0x54cc
        0x000000d4:    f005f956    ..V.    BL       osKernelStart ; 0x5384
        0x000000d8:    e7fe        ..      B        0xd8 ; __main_after_scatterload + 16
    $d
        0x000000da:    0000        ..      DCW    0
        0x000000dc:    000069ec    .i..    DCD    27116
    .ARM.Collect$$$$00002712
    __lit__00000000
        0x000000e0:    200038e0    .8.     DCD    536885472
    $t
    .emb_text
    HardFault_Handler
        0x000000e4:    2004        .       MOVS     r0,#4
        0x000000e6:    4671        qF      MOV      r1,lr
        0x000000e8:    4208        .B      TST      r0,r1
        0x000000ea:    d002        ..      BEQ      0xf2 ; HardFault_Handler + 14
        0x000000ec:    f3ef8009    ....    MRS      r0,PSP
        0x000000f0:    e001        ..      B        0xf6 ; HardFault_Handler + 18
        0x000000f2:    f3ef8008    ....    MRS      r0,MSP
        0x000000f6:    4671        qF      MOV      r1,lr
        0x000000f8:    4a00        .J      LDR      r2,[pc,#0] ; [0xfc] = 0x373b
        0x000000fa:    4710        .G      BX       r2
    $d
        0x000000fc:    0000373b    ;7..    DCD    14139
    $t
    .emb_text
    rt_set_PSP
        0x00000100:    f3808809    ....    MSR      PSP,r0
        0x00000104:    4770        pG      BX       lr
    rt_get_PSP
        0x00000106:    f3ef8009    ....    MRS      r0,PSP
        0x0000010a:    4770        pG      BX       lr
    os_set_env
        0x0000010c:    4668        hF      MOV      r0,sp
        0x0000010e:    f3808809    ....    MSR      PSP,r0
        0x00000112:    4806        .H      LDR      r0,[pc,#24] ; [0x12c] = 0x69ac
        0x00000114:    7800        .x      LDRB     r0,[r0,#0]
        0x00000116:    07c0        ..      LSLS     r0,r0,#31
        0x00000118:    d103        ..      BNE      0x122 ; os_set_env + 22
        0x0000011a:    2003        .       MOVS     r0,#3
        0x0000011c:    f3808814    ....    MSR      CONTROL,r0
        0x00000120:    4770        pG      BX       lr
        0x00000122:    2002        .       MOVS     r0,#2
        0x00000124:    f3808814    ....    MSR      CONTROL,r0
        0x00000128:    4770        pG      BX       lr
    $d
        0x0000012a:    0000        ..      DCW    0
        0x0000012c:    000069ac    .i..    DCD    27052
    $t
    _alloc_box
        0x00000130:    4b06        .K      LDR      r3,[pc,#24] ; [0x14c] = 0x5675
        0x00000132:    469c        .F      MOV      r12,r3
        0x00000134:    f3ef8305    ....    MRS      r3,IPSR
        0x00000138:    061b        ..      LSLS     r3,r3,#24
        0x0000013a:    d105        ..      BNE      0x148 ; _alloc_box + 24
        0x0000013c:    f3ef8314    ....    MRS      r3,CONTROL
        0x00000140:    07db        ..      LSLS     r3,r3,#31
        0x00000142:    d001        ..      BEQ      0x148 ; _alloc_box + 24
        0x00000144:    df00        ..      SVC      #0x0 ; formerly SWI
        0x00000146:    4770        pG      BX       lr
        0x00000148:    4760        `G      BX       r12
    $d
        0x0000014a:    0000        ..      DCW    0
        0x0000014c:    00005675    uV..    DCD    22133
    $t
    _free_box
        0x00000150:    4b06        .K      LDR      r3,[pc,#24] ; [0x16c] = 0x5919
        0x00000152:    469c        .F      MOV      r12,r3
        0x00000154:    f3ef8305    ....    MRS      r3,IPSR
        0x00000158:    061b        ..      LSLS     r3,r3,#24
        0x0000015a:    d105        ..      BNE      0x168 ; _free_box + 24
        0x0000015c:    f3ef8314    ....    MRS      r3,CONTROL
        0x00000160:    07db        ..      LSLS     r3,r3,#31
        0x00000162:    d001        ..      BEQ      0x168 ; _free_box + 24
        0x00000164:    df00        ..      SVC      #0x0 ; formerly SWI
        0x00000166:    4770        pG      BX       lr
        0x00000168:    4760        `G      BX       r12
    $d
        0x0000016a:    0000        ..      DCW    0
        0x0000016c:    00005919    .Y..    DCD    22809
    $t
    SVC_Handler
        0x00000170:    f3ef8009    ....    MRS      r0,PSP
        0x00000174:    6981        .i      LDR      r1,[r0,#0x18]
        0x00000176:    1e89        ..      SUBS     r1,r1,#2
        0x00000178:    7809        .x      LDRB     r1,[r1,#0]
        0x0000017a:    2900        .)      CMP      r1,#0
        0x0000017c:    d12b        +.      BNE      0x1d6 ; SVC_Handler + 102
        0x0000017e:    46a6        .F      MOV      lr,r4
        0x00000180:    c81f        ..      LDM      r0,{r0-r4}
        0x00000182:    46a4        .F      MOV      r12,r4
        0x00000184:    4674        tF      MOV      r4,lr
        0x00000186:    47e0        .G      BLX      r12
        0x00000188:    f3ef8309    ....    MRS      r3,PSP
        0x0000018c:    c307        ..      STM      r3!,{r0-r2}
        0x0000018e:    4b1a        .K      LDR      r3,[pc,#104] ; [0x1f8] = 0x20000144
        0x00000190:    cb06        ..      LDM      r3!,{r1,r2}
        0x00000192:    4291        .B      CMP      r1,r2
        0x00000194:    d01c        ..      BEQ      0x1d0 ; SVC_Handler + 96
        0x00000196:    3b08        .;      SUBS     r3,r3,#8
        0x00000198:    2900        .)      CMP      r1,#0
        0x0000019a:    d00d        ..      BEQ      0x1b8 ; SVC_Handler + 72
        0x0000019c:    f3ef8009    ....    MRS      r0,PSP
        0x000001a0:    3820         8      SUBS     r0,r0,#0x20
        0x000001a2:    6288        .b      STR      r0,[r1,#0x28]
        0x000001a4:    c0f0        ..      STM      r0!,{r4-r7}
        0x000001a6:    4644        DF      MOV      r4,r8
        0x000001a8:    464d        MF      MOV      r5,r9
        0x000001aa:    4656        VF      MOV      r6,r10
        0x000001ac:    465f        _F      MOV      r7,r11
        0x000001ae:    c0f0        ..      STM      r0!,{r4-r7}
        0x000001b0:    b40c        ..      PUSH     {r2,r3}
        0x000001b2:    f005ff3b    ..;.    BL       rt_stk_check ; 0x602c
        0x000001b6:    bc0c        ..      POP      {r2,r3}
        0x000001b8:    601a        .`      STR      r2,[r3,#0]
        0x000001ba:    6a90        .j      LDR      r0,[r2,#0x28]
        0x000001bc:    3010        .0      ADDS     r0,r0,#0x10
        0x000001be:    c8f0        ..      LDM      r0!,{r4-r7}
        0x000001c0:    46a0        .F      MOV      r8,r4
        0x000001c2:    46a9        .F      MOV      r9,r5
        0x000001c4:    46b2        .F      MOV      r10,r6
        0x000001c6:    46bb        .F      MOV      r11,r7
        0x000001c8:    f3808809    ....    MSR      PSP,r0
        0x000001cc:    3820         8      SUBS     r0,r0,#0x20
        0x000001ce:    c8f0        ..      LDM      r0!,{r4-r7}
        0x000001d0:    2002        .       MOVS     r0,#2
        0x000001d2:    43c0        .C      MVNS     r0,r0
        0x000001d4:    4700        .G      BX       r0
        0x000001d6:    b510        ..      PUSH     {r4,lr}
        0x000001d8:    4a08        .J      LDR      r2,[pc,#32] ; [0x1fc] = 0x44c0
        0x000001da:    6812        .h      LDR      r2,[r2,#0]
        0x000001dc:    4291        .B      CMP      r1,r2
        0x000001de:    d809        ..      BHI      0x1f4 ; SVC_Handler + 132
        0x000001e0:    4c07        .L      LDR      r4,[pc,#28] ; [0x200] = 0x44c0
        0x000001e2:    0089        ..      LSLS     r1,r1,#2
        0x000001e4:    5864        dX      LDR      r4,[r4,r1]
        0x000001e6:    46a6        .F      MOV      lr,r4
        0x000001e8:    c81f        ..      LDM      r0,{r0-r4}
        0x000001ea:    46a4        .F      MOV      r12,r4
        0x000001ec:    47f0        .G      BLX      lr
        0x000001ee:    f3ef8409    ....    MRS      r4,PSP
        0x000001f2:    c40f        ..      STM      r4!,{r0-r3}
        0x000001f4:    bd10        ..      POP      {r4,pc}
    $d
        0x000001f6:    0000        ..      DCW    0
        0x000001f8:    20000144    D..     DCD    536871236
        0x000001fc:    000044c0    .D..    DCD    17600
        0x00000200:    000044c0    .D..    DCD    17600
    $t
    PendSV_Handler
        0x00000204:    f005fdf2    ....    BL       rt_pop_req ; 0x5dec
        0x00000208:    4b10        .K      LDR      r3,[pc,#64] ; [0x24c] = 0x20000144
        0x0000020a:    cb06        ..      LDM      r3!,{r1,r2}
        0x0000020c:    4291        .B      CMP      r1,r2
        0x0000020e:    d01a        ..      BEQ      0x246 ; PendSV_Handler + 66
        0x00000210:    3b08        .;      SUBS     r3,r3,#8
        0x00000212:    f3ef8009    ....    MRS      r0,PSP
        0x00000216:    3820         8      SUBS     r0,r0,#0x20
        0x00000218:    6288        .b      STR      r0,[r1,#0x28]
        0x0000021a:    c0f0        ..      STM      r0!,{r4-r7}
        0x0000021c:    4644        DF      MOV      r4,r8
        0x0000021e:    464d        MF      MOV      r5,r9
        0x00000220:    4656        VF      MOV      r6,r10
        0x00000222:    465f        _F      MOV      r7,r11
        0x00000224:    c0f0        ..      STM      r0!,{r4-r7}
        0x00000226:    b40c        ..      PUSH     {r2,r3}
        0x00000228:    f005ff00    ....    BL       rt_stk_check ; 0x602c
        0x0000022c:    bc0c        ..      POP      {r2,r3}
        0x0000022e:    601a        .`      STR      r2,[r3,#0]
        0x00000230:    6a90        .j      LDR      r0,[r2,#0x28]
        0x00000232:    3010        .0      ADDS     r0,r0,#0x10
        0x00000234:    c8f0        ..      LDM      r0!,{r4-r7}
        0x00000236:    46a0        .F      MOV      r8,r4
        0x00000238:    46a9        .F      MOV      r9,r5
        0x0000023a:    46b2        .F      MOV      r10,r6
        0x0000023c:    46bb        .F      MOV      r11,r7
        0x0000023e:    f3808809    ....    MSR      PSP,r0
        0x00000242:    3820         8      SUBS     r0,r0,#0x20
        0x00000244:    c8f0        ..      LDM      r0!,{r4-r7}
        0x00000246:    2002        .       MOVS     r0,#2
        0x00000248:    43c0        .C      MVNS     r0,r0
        0x0000024a:    4700        .G      BX       r0
    $d
        0x0000024c:    20000144    D..     DCD    536871236
    $t
    SysTick_Handler
        0x00000250:    f005ff9e    ....    BL       rt_systick ; 0x6190
        0x00000254:    e7d8        ..      B        0x208 ; PendSV_Handler + 4
    $d
        0x00000256:    0000        ..      DCW    0
    $t
    OS_Tick_Handler
        0x00000258:    f005f9ba    ....    BL       os_tick_irqack ; 0x55d0
        0x0000025c:    f005ff98    ....    BL       rt_systick ; 0x6190
        0x00000260:    e7d2        ..      B        0x208 ; PendSV_Handler + 4
    $d
        0x00000262:    0000        ..      DCW    0
    $t
    .text
    SysGet_PLLClockFreq
        0x00000264:    b5fe        ..      PUSH     {r1-r7,lr}
        0x00000266:    2000        .       MOVS     r0,#0
        0x00000268:    9002        ..      STR      r0,[sp,#8]
        0x0000026a:    4835        5H      LDR      r0,[pc,#212] ; [0x340] = 0x50000200
        0x0000026c:    6a45        Ej      LDR      r5,[r0,#0x24]
        0x0000026e:    01c0        ..      LSLS     r0,r0,#7
        0x00000270:    4028        (@      ANDS     r0,r0,r5
        0x00000272:    2800        .(      CMP      r0,#0
        0x00000274:    d001        ..      BEQ      0x27a ; SysGet_PLLClockFreq + 22
        0x00000276:    2000        .       MOVS     r0,#0
        0x00000278:    bdfe        ..      POP      {r1-r7,pc}
        0x0000027a:    2001        .       MOVS     r0,#1
        0x0000027c:    0440        @.      LSLS     r0,r0,#17
        0x0000027e:    4028        (@      ANDS     r0,r0,r5
        0x00000280:    2800        .(      CMP      r0,#0
        0x00000282:    d001        ..      BEQ      0x288 ; SysGet_PLLClockFreq + 36
        0x00000284:    4f2f        /O      LDR      r7,[pc,#188] ; [0x344] = 0xb71b00
        0x00000286:    e000        ..      B        0x28a ; SysGet_PLLClockFreq + 38
        0x00000288:    4f2e        .O      LDR      r7,[pc,#184] ; [0x344] = 0xb71b00
        0x0000028a:    2001        .       MOVS     r0,#1
        0x0000028c:    0300        ..      LSLS     r0,r0,#12
        0x0000028e:    4028        (@      ANDS     r0,r0,r5
        0x00000290:    2800        .(      CMP      r0,#0
        0x00000292:    d001        ..      BEQ      0x298 ; SysGet_PLLClockFreq + 52
        0x00000294:    2002        .       MOVS     r0,#2
        0x00000296:    e000        ..      B        0x29a ; SysGet_PLLClockFreq + 54
        0x00000298:    2001        .       MOVS     r0,#1
        0x0000029a:    9001        ..      STR      r0,[sp,#4]
        0x0000029c:    2003        .       MOVS     r0,#3
        0x0000029e:    0200        ..      LSLS     r0,r0,#8
        0x000002a0:    4028        (@      ANDS     r0,r0,r5
        0x000002a2:    0a06        ..      LSRS     r6,r0,#8
        0x000002a4:    2e00        ..      CMP      r6,#0
        0x000002a6:    d101        ..      BNE      0x2ac ; SysGet_PLLClockFreq + 72
        0x000002a8:    2402        .$      MOVS     r4,#2
        0x000002aa:    e008        ..      B        0x2be ; SysGet_PLLClockFreq + 90
        0x000002ac:    2e01        ..      CMP      r6,#1
        0x000002ae:    d101        ..      BNE      0x2b4 ; SysGet_PLLClockFreq + 80
        0x000002b0:    2404        .$      MOVS     r4,#4
        0x000002b2:    e004        ..      B        0x2be ; SysGet_PLLClockFreq + 90
        0x000002b4:    2e02        ..      CMP      r6,#2
        0x000002b6:    d101        ..      BNE      0x2bc ; SysGet_PLLClockFreq + 88
        0x000002b8:    2408        .$      MOVS     r4,#8
        0x000002ba:    e000        ..      B        0x2be ; SysGet_PLLClockFreq + 90
        0x000002bc:    2410        .$      MOVS     r4,#0x10
        0x000002be:    06a9        ..      LSLS     r1,r5,#26
        0x000002c0:    0e89        ..      LSRS     r1,r1,#26
        0x000002c2:    3120         1      ADDS     r1,r1,#0x20
        0x000002c4:    4379        yC      MULS     r1,r7,r1
        0x000002c6:    4608        .F      MOV      r0,r1
        0x000002c8:    4621        !F      MOV      r1,r4
        0x000002ca:    f003fcc1    ....    BL       __aeabi_uidiv ; 0x3c50
        0x000002ce:    9000        ..      STR      r0,[sp,#0]
        0x000002d0:    9901        ..      LDR      r1,[sp,#4]
        0x000002d2:    f003fcbd    ....    BL       __aeabi_uidiv ; 0x3c50
        0x000002d6:    9002        ..      STR      r0,[sp,#8]
        0x000002d8:    9802        ..      LDR      r0,[sp,#8]
        0x000002da:    e7cd        ..      B        0x278 ; SysGet_PLLClockFreq + 20
    SysGet_HCLKFreq
        0x000002dc:    b570        p.      PUSH     {r4-r6,lr}
        0x000002de:    4818        .H      LDR      r0,[pc,#96] ; [0x340] = 0x50000200
        0x000002e0:    6900        .i      LDR      r0,[r0,#0x10]
        0x000002e2:    0745        E.      LSLS     r5,r0,#29
        0x000002e4:    0f6d        m.      LSRS     r5,r5,#29
        0x000002e6:    2d00        .-      CMP      r5,#0
        0x000002e8:    d101        ..      BNE      0x2ee ; SysGet_HCLKFreq + 18
        0x000002ea:    4c16        .L      LDR      r4,[pc,#88] ; [0x344] = 0xb71b00
        0x000002ec:    e00e        ..      B        0x30c ; SysGet_HCLKFreq + 48
        0x000002ee:    2d01        .-      CMP      r5,#1
        0x000002f0:    d101        ..      BNE      0x2f6 ; SysGet_HCLKFreq + 26
        0x000002f2:    03ec        ..      LSLS     r4,r5,#15
        0x000002f4:    e00a        ..      B        0x30c ; SysGet_HCLKFreq + 48
        0x000002f6:    2d02        .-      CMP      r5,#2
        0x000002f8:    d103        ..      BNE      0x302 ; SysGet_HCLKFreq + 38
        0x000002fa:    f7ffffb3    ....    BL       SysGet_PLLClockFreq ; 0x264
        0x000002fe:    4604        .F      MOV      r4,r0
        0x00000300:    e004        ..      B        0x30c ; SysGet_HCLKFreq + 48
        0x00000302:    2d03        .-      CMP      r5,#3
        0x00000304:    d101        ..      BNE      0x30a ; SysGet_HCLKFreq + 46
        0x00000306:    4c10        .L      LDR      r4,[pc,#64] ; [0x348] = 0x2710
        0x00000308:    e000        ..      B        0x30c ; SysGet_HCLKFreq + 48
        0x0000030a:    4c0e        .L      LDR      r4,[pc,#56] ; [0x344] = 0xb71b00
        0x0000030c:    480c        .H      LDR      r0,[pc,#48] ; [0x340] = 0x50000200
        0x0000030e:    69c0        .i      LDR      r0,[r0,#0x1c]
        0x00000310:    0700        ..      LSLS     r0,r0,#28
        0x00000312:    0f00        ..      LSRS     r0,r0,#28
        0x00000314:    1c46        F.      ADDS     r6,r0,#1
        0x00000316:    4631        1F      MOV      r1,r6
        0x00000318:    4620         F      MOV      r0,r4
        0x0000031a:    f003fc99    ....    BL       __aeabi_uidiv ; 0x3c50
        0x0000031e:    bd70        p.      POP      {r4-r6,pc}
    SystemCoreClockUpdate
        0x00000320:    b510        ..      PUSH     {r4,lr}
        0x00000322:    f7ffffdb    ....    BL       SysGet_HCLKFreq ; 0x2dc
        0x00000326:    4909        .I      LDR      r1,[pc,#36] ; [0x34c] = 0x20000000
        0x00000328:    6008        .`      STR      r0,[r1,#0]
        0x0000032a:    4909        .I      LDR      r1,[pc,#36] ; [0x350] = 0xf4240
        0x0000032c:    4807        .H      LDR      r0,[pc,#28] ; [0x34c] = 0x20000000
        0x0000032e:    6800        .h      LDR      r0,[r0,#0]
        0x00000330:    104a        J.      ASRS     r2,r1,#1
        0x00000332:    1880        ..      ADDS     r0,r0,r2
        0x00000334:    f003fc8c    ....    BL       __aeabi_uidiv ; 0x3c50
        0x00000338:    4906        .I      LDR      r1,[pc,#24] ; [0x354] = 0x20000004
        0x0000033a:    6008        .`      STR      r0,[r1,#0]
        0x0000033c:    bd10        ..      POP      {r4,pc}
    $d
        0x0000033e:    0000        ..      DCW    0
        0x00000340:    50000200    ...P    DCD    1342177792
        0x00000344:    00b71b00    ....    DCD    12000000
        0x00000348:    00002710    .'..    DCD    10000
        0x0000034c:    20000000    ...     DCD    536870912
        0x00000350:    000f4240    @B..    DCD    1000000
        0x00000354:    20000004    ...     DCD    536870916
    $t
    .text
    Reset_Handler
        0x00000358:    4809        .H      LDR      r0,[pc,#36] ; [0x380] = 0x50000100
        0x0000035a:    490a        .I      LDR      r1,[pc,#40] ; [0x384] = 0x59
        0x0000035c:    6001        .`      STR      r1,[r0,#0]
        0x0000035e:    490a        .I      LDR      r1,[pc,#40] ; [0x388] = 0x16
        0x00000360:    6001        .`      STR      r1,[r0,#0]
        0x00000362:    490a        .I      LDR      r1,[pc,#40] ; [0x38c] = 0x88
        0x00000364:    6001        .`      STR      r1,[r0,#0]
        0x00000366:    4a0a        .J      LDR      r2,[pc,#40] ; [0x390] = 0x50000060
        0x00000368:    490a        .I      LDR      r1,[pc,#40] ; [0x394] = 0x5aa5
        0x0000036a:    6011        .`      STR      r1,[r2,#0]
        0x0000036c:    2100        .!      MOVS     r1,#0
        0x0000036e:    6001        .`      STR      r1,[r0,#0]
        0x00000370:    4809        .H      LDR      r0,[pc,#36] ; [0x398] = 0xc1
        0x00000372:    4700        .G      BX       r0
    NMI_Handler
        0x00000374:    e7fe        ..      B        NMI_Handler ; 0x374
        0x00000376:    e7fe        ..      B        0x376 ; NMI_Handler + 2
        0x00000378:    e7fe        ..      B        0x378 ; NMI_Handler + 4
        0x0000037a:    e7fe        ..      B        0x37a ; NMI_Handler + 6
        0x0000037c:    e7fe        ..      B        0x37c ; NMI_Handler + 8
    ADC_IRQHandler
    BOD_IRQHandler
    DAC_IRQHandler
    EINT0_IRQHandler
    EINT1_IRQHandler
    GPDEF_IRQHandler
    HIRC_IRQHandler
    I2C0_IRQHandler
    I2S_IRQHandler
    LCD_IRQHandler
    PDMA_IRQHandler
    PDWU_IRQHandler
    PWM0_IRQHandler
    PWM1_IRQHandler
    RTC_IRQHandler
    SC0_IRQHandler
    SC1_IRQHandler
    SC2_IRQHandler
    SPI0_IRQHandler
    SPI1_IRQHandler
    SPI2_IRQHandler
    TMR0_IRQHandler
    TMR1_IRQHandler
    TMR2_IRQHandler
    TMR3_IRQHandler
    USBD_IRQHandler
        0x0000037e:    e7fe        ..      B        ADC_IRQHandler ; 0x37e
    $d
        0x00000380:    50000100    ...P    DCD    1342177536
        0x00000384:    00000059    Y...    DCD    89
        0x00000388:    00000016    ....    DCD    22
        0x0000038c:    00000088    ....    DCD    136
        0x00000390:    50000060    `..P    DCD    1342177376
        0x00000394:    00005aa5    .Z..    DCD    23205
        0x00000398:    000000c1    ....    DCD    193
    $t
    .text
    remove_all_chars
        0x0000039c:    b530        0.      PUSH     {r4,r5,lr}
        0x0000039e:    4603        .F      MOV      r3,r0
        0x000003a0:    460c        .F      MOV      r4,r1
        0x000003a2:    4619        .F      MOV      r1,r3
        0x000003a4:    4618        .F      MOV      r0,r3
        0x000003a6:    e015        ..      B        0x3d4 ; remove_all_chars + 56
        0x000003a8:    780d        .x      LDRB     r5,[r1,#0]
        0x000003aa:    7005        .p      STRB     r5,[r0,#0]
        0x000003ac:    1c49        I.      ADDS     r1,r1,#1
        0x000003ae:    7805        .x      LDRB     r5,[r0,#0]
        0x000003b0:    42a5        .B      CMP      r5,r4
        0x000003b2:    d00d        ..      BEQ      0x3d0 ; remove_all_chars + 52
        0x000003b4:    7805        .x      LDRB     r5,[r0,#0]
        0x000003b6:    4295        .B      CMP      r5,r2
        0x000003b8:    d00a        ..      BEQ      0x3d0 ; remove_all_chars + 52
        0x000003ba:    7805        .x      LDRB     r5,[r0,#0]
        0x000003bc:    2d20         -      CMP      r5,#0x20
        0x000003be:    d007        ..      BEQ      0x3d0 ; remove_all_chars + 52
        0x000003c0:    7805        .x      LDRB     r5,[r0,#0]
        0x000003c2:    2d2f        /-      CMP      r5,#0x2f
        0x000003c4:    d004        ..      BEQ      0x3d0 ; remove_all_chars + 52
        0x000003c6:    7805        .x      LDRB     r5,[r0,#0]
        0x000003c8:    2d3a        :-      CMP      r5,#0x3a
        0x000003ca:    d001        ..      BEQ      0x3d0 ; remove_all_chars + 52
        0x000003cc:    2501        .%      MOVS     r5,#1
        0x000003ce:    e000        ..      B        0x3d2 ; remove_all_chars + 54
        0x000003d0:    2500        .%      MOVS     r5,#0
        0x000003d2:    1828        (.      ADDS     r0,r5,r0
        0x000003d4:    780d        .x      LDRB     r5,[r1,#0]
        0x000003d6:    2d00        .-      CMP      r5,#0
        0x000003d8:    d1e6        ..      BNE      0x3a8 ; remove_all_chars + 12
        0x000003da:    7005        .p      STRB     r5,[r0,#0]
        0x000003dc:    bd30        0.      POP      {r4,r5,pc}
    smsrequest
        0x000003de:    b5fe        ..      PUSH     {r1-r7,lr}
        0x000003e0:    4604        .F      MOV      r4,r0
        0x000003e2:    460e        .F      MOV      r6,r1
        0x000003e4:    4617        .F      MOV      r7,r2
        0x000003e6:    48fe        .H      LDR      r0,[pc,#1016] ; [0x7e0] = 0x20000176
        0x000003e8:    9002        ..      STR      r0,[sp,#8]
        0x000003ea:    2500        .%      MOVS     r5,#0
        0x000003ec:    2c0b        .,      CMP      r4,#0xb
        0x000003ee:    d27b        {.      BCS      0x4e8 ; smsrequest + 266
        0x000003f0:    0063        c.      LSLS     r3,r4,#1
        0x000003f2:    447b        {D      ADD      r3,r3,pc
        0x000003f4:    889b        ..      LDRH     r3,[r3,#4]
        0x000003f6:    005b        [.      LSLS     r3,r3,#1
        0x000003f8:    449f        .D      ADD      pc,pc,r3
    $d
        0x000003fa:    0076        v.      DCW    118
        0x000003fc:    008c000a    ....    DCD    9175050
        0x00000400:    018c010c    ....    DCD    25952524
        0x00000404:    01c001bf    ....    DCD    29360575
        0x00000408:    0387036a    j...    DCD    59179882
        0x0000040c:    038f038b    ....    DCD    59704203
    $t
        0x00000410:    2100        .!      MOVS     r1,#0
        0x00000412:    43c9        .C      MVNS     r1,r1
        0x00000414:    48f3        .H      LDR      r0,[pc,#972] ; [0x7e4] = 0x20000080
        0x00000416:    6800        .h      LDR      r0,[r0,#0]
        0x00000418:    f005f820    .. .    BL       osMutexWait ; 0x545c
        0x0000041c:    2000        .       MOVS     r0,#0
        0x0000041e:    49f2        .I      LDR      r1,[pc,#968] ; [0x7e8] = 0x200000ac
        0x00000420:    6008        .`      STR      r0,[r1,#0]
        0x00000422:    49f2        .I      LDR      r1,[pc,#968] ; [0x7ec] = 0x200000a4
        0x00000424:    6008        .`      STR      r0,[r1,#0]
        0x00000426:    49f2        .I      LDR      r1,[pc,#968] ; [0x7f0] = 0x226
        0x00000428:    48f2        .H      LDR      r0,[pc,#968] ; [0x7f4] = 0x200010d0
        0x0000042a:    f003fc72    ..r.    BL       __aeabi_memclr ; 0x3d12
        0x0000042e:    2000        .       MOVS     r0,#0
        0x00000430:    49f1        .I      LDR      r1,[pc,#964] ; [0x7f8] = 0x200000d4
        0x00000432:    6008        .`      STR      r0,[r1,#0]
        0x00000434:    49f1        .I      LDR      r1,[pc,#964] ; [0x7fc] = 0x200000d8
        0x00000436:    6008        .`      STR      r0,[r1,#0]
        0x00000438:    49f1        .I      LDR      r1,[pc,#964] ; [0x800] = 0x200000dc
        0x0000043a:    6008        .`      STR      r0,[r1,#0]
        0x0000043c:    f001f95b    ..[.    BL       clear ; 0x16f6
        0x00000440:    a0f0        ..      ADR      r0,{pc}+0x3c4 ; 0x804
        0x00000442:    f004f8d9    ....    BL       __0printf ; 0x45f8
        0x00000446:    bf00        ..      NOP      
        0x00000448:    a1f2        ..      ADR      r1,{pc}+0x3cc ; 0x814
        0x0000044a:    48ea        .H      LDR      r0,[pc,#936] ; [0x7f4] = 0x200010d0
        0x0000044c:    f003fc78    ..x.    BL       strstr ; 0x3d40
        0x00000450:    49e9        .I      LDR      r1,[pc,#932] ; [0x7f8] = 0x200000d4
        0x00000452:    6008        .`      STR      r0,[r1,#0]
        0x00000454:    a1f0        ..      ADR      r1,{pc}+0x3c4 ; 0x818
        0x00000456:    48e7        .H      LDR      r0,[pc,#924] ; [0x7f4] = 0x200010d0
        0x00000458:    f003fc72    ..r.    BL       strstr ; 0x3d40
        0x0000045c:    49e7        .I      LDR      r1,[pc,#924] ; [0x7fc] = 0x200000d8
        0x0000045e:    6008        .`      STR      r0,[r1,#0]
        0x00000460:    a1ee        ..      ADR      r1,{pc}+0x3bc ; 0x81c
        0x00000462:    48e4        .H      LDR      r0,[pc,#912] ; [0x7f4] = 0x200010d0
        0x00000464:    f003fc6c    ..l.    BL       strstr ; 0x3d40
        0x00000468:    49e5        .I      LDR      r1,[pc,#916] ; [0x800] = 0x200000dc
        0x0000046a:    6008        .`      STR      r0,[r1,#0]
        0x0000046c:    48e2        .H      LDR      r0,[pc,#904] ; [0x7f8] = 0x200000d4
        0x0000046e:    6800        .h      LDR      r0,[r0,#0]
        0x00000470:    2800        .(      CMP      r0,#0
        0x00000472:    d10b        ..      BNE      0x48c ; smsrequest + 174
        0x00000474:    48e1        .H      LDR      r0,[pc,#900] ; [0x7fc] = 0x200000d8
        0x00000476:    6800        .h      LDR      r0,[r0,#0]
        0x00000478:    2800        .(      CMP      r0,#0
        0x0000047a:    d107        ..      BNE      0x48c ; smsrequest + 174
        0x0000047c:    4608        .F      MOV      r0,r1
        0x0000047e:    6800        .h      LDR      r0,[r0,#0]
        0x00000480:    2800        .(      CMP      r0,#0
        0x00000482:    d103        ..      BNE      0x48c ; smsrequest + 174
        0x00000484:    48d8        .H      LDR      r0,[pc,#864] ; [0x7e8] = 0x200000ac
        0x00000486:    6800        .h      LDR      r0,[r0,#0]
        0x00000488:    2805        .(      CMP      r0,#5
        0x0000048a:    dbdd        ..      BLT      0x448 ; smsrequest + 106
        0x0000048c:    a1e5        ..      ADR      r1,{pc}+0x398 ; 0x824
        0x0000048e:    48d9        .H      LDR      r0,[pc,#868] ; [0x7f4] = 0x200010d0
        0x00000490:    f003fc56    ..V.    BL       strstr ; 0x3d40
        0x00000494:    2800        .(      CMP      r0,#0
        0x00000496:    d001        ..      BEQ      0x49c ; smsrequest + 190
        0x00000498:    2501        .%      MOVS     r5,#1
        0x0000049a:    e000        ..      B        0x49e ; smsrequest + 192
        0x0000049c:    2500        .%      MOVS     r5,#0
        0x0000049e:    48d1        .H      LDR      r0,[pc,#836] ; [0x7e4] = 0x20000080
        0x000004a0:    6800        .h      LDR      r0,[r0,#0]
        0x000004a2:    f004ffcd    ....    BL       osMutexRelease ; 0x5440
        0x000004a6:    2d01        .-      CMP      r5,#1
        0x000004a8:    d133        3.      BNE      0x512 ; smsrequest + 308
        0x000004aa:    2005        .       MOVS     r0,#5
        0x000004ac:    a3df        ..      ADR      r3,{pc}+0x380 ; 0x82c
        0x000004ae:    a2db        ..      ADR      r2,{pc}+0x36e ; 0x81c
        0x000004b0:    a1d9        ..      ADR      r1,{pc}+0x368 ; 0x818
        0x000004b2:    9000        ..      STR      r0,[sp,#0]
        0x000004b4:    a0de        ..      ADR      r0,{pc}+0x37c ; 0x830
        0x000004b6:    f001f929    ..).    BL       SendAT ; 0x170c
        0x000004ba:    2164        d!      MOVS     r1,#0x64
        0x000004bc:    48e1        .H      LDR      r0,[pc,#900] ; [0x844] = 0x2000133c
        0x000004be:    f003fc28    ..(.    BL       __aeabi_memclr ; 0x3d12
        0x000004c2:    4632        2F      MOV      r2,r6
        0x000004c4:    a1e0        ..      ADR      r1,{pc}+0x384 ; 0x848
        0x000004c6:    48df        .H      LDR      r0,[pc,#892] ; [0x844] = 0x2000133c
        0x000004c8:    f004f8a6    ....    BL       __0sprintf ; 0x4618
        0x000004cc:    2005        .       MOVS     r0,#5
        0x000004ce:    a3d7        ..      ADR      r3,{pc}+0x35e ; 0x82c
        0x000004d0:    a2d2        ..      ADR      r2,{pc}+0x34c ; 0x81c
        0x000004d2:    a1d1        ..      ADR      r1,{pc}+0x346 ; 0x818
        0x000004d4:    9000        ..      STR      r0,[sp,#0]
        0x000004d6:    48db        .H      LDR      r0,[pc,#876] ; [0x844] = 0x2000133c
        0x000004d8:    f001f918    ....    BL       SendAT ; 0x170c
        0x000004dc:    2005        .       MOVS     r0,#5
        0x000004de:    a3d3        ..      ADR      r3,{pc}+0x34e ; 0x82c
        0x000004e0:    a2ce        ..      ADR      r2,{pc}+0x33c ; 0x81c
        0x000004e2:    a1cd        ..      ADR      r1,{pc}+0x336 ; 0x818
        0x000004e4:    9000        ..      STR      r0,[sp,#0]
        0x000004e6:    e000        ..      B        0x4ea ; smsrequest + 268
        0x000004e8:    e318        ..      B        0xb1c ; smsrequest + 1854
        0x000004ea:    a0e0        ..      ADR      r0,{pc}+0x382 ; 0x86c
        0x000004ec:    f001f90e    ....    BL       SendAT ; 0x170c
        0x000004f0:    2164        d!      MOVS     r1,#0x64
        0x000004f2:    48d4        .H      LDR      r0,[pc,#848] ; [0x844] = 0x2000133c
        0x000004f4:    f003fc0d    ....    BL       __aeabi_memclr ; 0x3d12
        0x000004f8:    4632        2F      MOV      r2,r6
        0x000004fa:    a1d3        ..      ADR      r1,{pc}+0x34e ; 0x848
        0x000004fc:    48d1        .H      LDR      r0,[pc,#836] ; [0x844] = 0x2000133c
        0x000004fe:    f004f88b    ....    BL       __0sprintf ; 0x4618
        0x00000502:    2005        .       MOVS     r0,#5
        0x00000504:    a3c9        ..      ADR      r3,{pc}+0x328 ; 0x82c
        0x00000506:    a2c5        ..      ADR      r2,{pc}+0x316 ; 0x81c
        0x00000508:    a1c3        ..      ADR      r1,{pc}+0x310 ; 0x818
        0x0000050a:    9000        ..      STR      r0,[sp,#0]
        0x0000050c:    48cd        .H      LDR      r0,[pc,#820] ; [0x844] = 0x2000133c
        0x0000050e:    f001f8fd    ....    BL       SendAT ; 0x170c
        0x00000512:    e304        ..      B        0xb1e ; smsrequest + 1856
        0x00000514:    2100        .!      MOVS     r1,#0
        0x00000516:    43c9        .C      MVNS     r1,r1
        0x00000518:    48b2        .H      LDR      r0,[pc,#712] ; [0x7e4] = 0x20000080
        0x0000051a:    6800        .h      LDR      r0,[r0,#0]
        0x0000051c:    f004ff9e    ....    BL       osMutexWait ; 0x545c
        0x00000520:    2000        .       MOVS     r0,#0
        0x00000522:    49b1        .I      LDR      r1,[pc,#708] ; [0x7e8] = 0x200000ac
        0x00000524:    6008        .`      STR      r0,[r1,#0]
        0x00000526:    49b1        .I      LDR      r1,[pc,#708] ; [0x7ec] = 0x200000a4
        0x00000528:    6008        .`      STR      r0,[r1,#0]
        0x0000052a:    49b1        .I      LDR      r1,[pc,#708] ; [0x7f0] = 0x226
        0x0000052c:    48b1        .H      LDR      r0,[pc,#708] ; [0x7f4] = 0x200010d0
        0x0000052e:    f003fbf0    ....    BL       __aeabi_memclr ; 0x3d12
        0x00000532:    2000        .       MOVS     r0,#0
        0x00000534:    49b0        .I      LDR      r1,[pc,#704] ; [0x7f8] = 0x200000d4
        0x00000536:    6008        .`      STR      r0,[r1,#0]
        0x00000538:    49b0        .I      LDR      r1,[pc,#704] ; [0x7fc] = 0x200000d8
        0x0000053a:    6008        .`      STR      r0,[r1,#0]
        0x0000053c:    49b0        .I      LDR      r1,[pc,#704] ; [0x800] = 0x200000dc
        0x0000053e:    6008        .`      STR      r0,[r1,#0]
        0x00000540:    f001f8d9    ....    BL       clear ; 0x16f6
        0x00000544:    a0af        ..      ADR      r0,{pc}+0x2c0 ; 0x804
        0x00000546:    f004f857    ..W.    BL       __0printf ; 0x45f8
        0x0000054a:    bf00        ..      NOP      
        0x0000054c:    a1b1        ..      ADR      r1,{pc}+0x2c8 ; 0x814
        0x0000054e:    48a9        .H      LDR      r0,[pc,#676] ; [0x7f4] = 0x200010d0
        0x00000550:    f003fbf6    ....    BL       strstr ; 0x3d40
        0x00000554:    49a8        .I      LDR      r1,[pc,#672] ; [0x7f8] = 0x200000d4
        0x00000556:    6008        .`      STR      r0,[r1,#0]
        0x00000558:    a1af        ..      ADR      r1,{pc}+0x2c0 ; 0x818
        0x0000055a:    48a6        .H      LDR      r0,[pc,#664] ; [0x7f4] = 0x200010d0
        0x0000055c:    f003fbf0    ....    BL       strstr ; 0x3d40
        0x00000560:    49a6        .I      LDR      r1,[pc,#664] ; [0x7fc] = 0x200000d8
        0x00000562:    6008        .`      STR      r0,[r1,#0]
        0x00000564:    a1ad        ..      ADR      r1,{pc}+0x2b8 ; 0x81c
        0x00000566:    48a3        .H      LDR      r0,[pc,#652] ; [0x7f4] = 0x200010d0
        0x00000568:    f003fbea    ....    BL       strstr ; 0x3d40
        0x0000056c:    49a4        .I      LDR      r1,[pc,#656] ; [0x800] = 0x200000dc
        0x0000056e:    6008        .`      STR      r0,[r1,#0]
        0x00000570:    48a1        .H      LDR      r0,[pc,#644] ; [0x7f8] = 0x200000d4
        0x00000572:    6800        .h      LDR      r0,[r0,#0]
        0x00000574:    2800        .(      CMP      r0,#0
        0x00000576:    d10b        ..      BNE      0x590 ; smsrequest + 434
        0x00000578:    48a0        .H      LDR      r0,[pc,#640] ; [0x7fc] = 0x200000d8
        0x0000057a:    6800        .h      LDR      r0,[r0,#0]
        0x0000057c:    2800        .(      CMP      r0,#0
        0x0000057e:    d107        ..      BNE      0x590 ; smsrequest + 434
        0x00000580:    4608        .F      MOV      r0,r1
        0x00000582:    6800        .h      LDR      r0,[r0,#0]
        0x00000584:    2800        .(      CMP      r0,#0
        0x00000586:    d103        ..      BNE      0x590 ; smsrequest + 434
        0x00000588:    4897        .H      LDR      r0,[pc,#604] ; [0x7e8] = 0x200000ac
        0x0000058a:    6800        .h      LDR      r0,[r0,#0]
        0x0000058c:    2805        .(      CMP      r0,#5
        0x0000058e:    dbdd        ..      BLT      0x54c ; smsrequest + 366
        0x00000590:    a1a4        ..      ADR      r1,{pc}+0x294 ; 0x824
        0x00000592:    4898        .H      LDR      r0,[pc,#608] ; [0x7f4] = 0x200010d0
        0x00000594:    f003fbd4    ....    BL       strstr ; 0x3d40
        0x00000598:    2800        .(      CMP      r0,#0
        0x0000059a:    d001        ..      BEQ      0x5a0 ; smsrequest + 450
        0x0000059c:    2501        .%      MOVS     r5,#1
        0x0000059e:    e000        ..      B        0x5a2 ; smsrequest + 452
        0x000005a0:    2500        .%      MOVS     r5,#0
        0x000005a2:    4890        .H      LDR      r0,[pc,#576] ; [0x7e4] = 0x20000080
        0x000005a4:    6800        .h      LDR      r0,[r0,#0]
        0x000005a6:    f004ff4b    ..K.    BL       osMutexRelease ; 0x5440
        0x000005aa:    2d01        .-      CMP      r5,#1
        0x000005ac:    d131        1.      BNE      0x612 ; smsrequest + 564
        0x000005ae:    2005        .       MOVS     r0,#5
        0x000005b0:    a39e        ..      ADR      r3,{pc}+0x27c ; 0x82c
        0x000005b2:    a29a        ..      ADR      r2,{pc}+0x26a ; 0x81c
        0x000005b4:    a198        ..      ADR      r1,{pc}+0x264 ; 0x818
        0x000005b6:    9000        ..      STR      r0,[sp,#0]
        0x000005b8:    a09d        ..      ADR      r0,{pc}+0x278 ; 0x830
        0x000005ba:    f001f8a7    ....    BL       SendAT ; 0x170c
        0x000005be:    2164        d!      MOVS     r1,#0x64
        0x000005c0:    48a0        .H      LDR      r0,[pc,#640] ; [0x844] = 0x2000133c
        0x000005c2:    f003fba6    ....    BL       __aeabi_memclr ; 0x3d12
        0x000005c6:    4632        2F      MOV      r2,r6
        0x000005c8:    a1ad        ..      ADR      r1,{pc}+0x2b8 ; 0x880
        0x000005ca:    489e        .H      LDR      r0,[pc,#632] ; [0x844] = 0x2000133c
        0x000005cc:    f004f824    ..$.    BL       __0sprintf ; 0x4618
        0x000005d0:    2005        .       MOVS     r0,#5
        0x000005d2:    a396        ..      ADR      r3,{pc}+0x25a ; 0x82c
        0x000005d4:    a291        ..      ADR      r2,{pc}+0x248 ; 0x81c
        0x000005d6:    a190        ..      ADR      r1,{pc}+0x242 ; 0x818
        0x000005d8:    9000        ..      STR      r0,[sp,#0]
        0x000005da:    489a        .H      LDR      r0,[pc,#616] ; [0x844] = 0x2000133c
        0x000005dc:    f001f896    ....    BL       SendAT ; 0x170c
        0x000005e0:    2005        .       MOVS     r0,#5
        0x000005e2:    a392        ..      ADR      r3,{pc}+0x24a ; 0x82c
        0x000005e4:    a28d        ..      ADR      r2,{pc}+0x238 ; 0x81c
        0x000005e6:    a18c        ..      ADR      r1,{pc}+0x232 ; 0x818
        0x000005e8:    9000        ..      STR      r0,[sp,#0]
        0x000005ea:    a0a0        ..      ADR      r0,{pc}+0x282 ; 0x86c
        0x000005ec:    f001f88e    ....    BL       SendAT ; 0x170c
        0x000005f0:    2164        d!      MOVS     r1,#0x64
        0x000005f2:    4894        .H      LDR      r0,[pc,#592] ; [0x844] = 0x2000133c
        0x000005f4:    f003fb8d    ....    BL       __aeabi_memclr ; 0x3d12
        0x000005f8:    4632        2F      MOV      r2,r6
        0x000005fa:    a1a1        ..      ADR      r1,{pc}+0x286 ; 0x880
        0x000005fc:    4891        .H      LDR      r0,[pc,#580] ; [0x844] = 0x2000133c
        0x000005fe:    f004f80b    ....    BL       __0sprintf ; 0x4618
        0x00000602:    2005        .       MOVS     r0,#5
        0x00000604:    a389        ..      ADR      r3,{pc}+0x228 ; 0x82c
        0x00000606:    a285        ..      ADR      r2,{pc}+0x216 ; 0x81c
        0x00000608:    a183        ..      ADR      r1,{pc}+0x210 ; 0x818
        0x0000060a:    9000        ..      STR      r0,[sp,#0]
        0x0000060c:    488d        .H      LDR      r0,[pc,#564] ; [0x844] = 0x2000133c
        0x0000060e:    f001f87d    ..}.    BL       SendAT ; 0x170c
        0x00000612:    e284        ..      B        0xb1e ; smsrequest + 1856
        0x00000614:    2100        .!      MOVS     r1,#0
        0x00000616:    43c9        .C      MVNS     r1,r1
        0x00000618:    4872        rH      LDR      r0,[pc,#456] ; [0x7e4] = 0x20000080
        0x0000061a:    6800        .h      LDR      r0,[r0,#0]
        0x0000061c:    f004ff1e    ....    BL       osMutexWait ; 0x545c
        0x00000620:    2000        .       MOVS     r0,#0
        0x00000622:    4971        qI      LDR      r1,[pc,#452] ; [0x7e8] = 0x200000ac
        0x00000624:    6008        .`      STR      r0,[r1,#0]
        0x00000626:    4971        qI      LDR      r1,[pc,#452] ; [0x7ec] = 0x200000a4
        0x00000628:    6008        .`      STR      r0,[r1,#0]
        0x0000062a:    4971        qI      LDR      r1,[pc,#452] ; [0x7f0] = 0x226
        0x0000062c:    4871        qH      LDR      r0,[pc,#452] ; [0x7f4] = 0x200010d0
        0x0000062e:    f003fb70    ..p.    BL       __aeabi_memclr ; 0x3d12
        0x00000632:    2000        .       MOVS     r0,#0
        0x00000634:    4970        pI      LDR      r1,[pc,#448] ; [0x7f8] = 0x200000d4
        0x00000636:    6008        .`      STR      r0,[r1,#0]
        0x00000638:    4970        pI      LDR      r1,[pc,#448] ; [0x7fc] = 0x200000d8
        0x0000063a:    6008        .`      STR      r0,[r1,#0]
        0x0000063c:    4970        pI      LDR      r1,[pc,#448] ; [0x800] = 0x200000dc
        0x0000063e:    6008        .`      STR      r0,[r1,#0]
        0x00000640:    f001f859    ..Y.    BL       clear ; 0x16f6
        0x00000644:    a06f        o.      ADR      r0,{pc}+0x1c0 ; 0x804
        0x00000646:    f003ffd7    ....    BL       __0printf ; 0x45f8
        0x0000064a:    bf00        ..      NOP      
        0x0000064c:    a171        q.      ADR      r1,{pc}+0x1c8 ; 0x814
        0x0000064e:    4869        iH      LDR      r0,[pc,#420] ; [0x7f4] = 0x200010d0
        0x00000650:    f003fb76    ..v.    BL       strstr ; 0x3d40
        0x00000654:    4968        hI      LDR      r1,[pc,#416] ; [0x7f8] = 0x200000d4
        0x00000656:    6008        .`      STR      r0,[r1,#0]
        0x00000658:    a16f        o.      ADR      r1,{pc}+0x1c0 ; 0x818
        0x0000065a:    4866        fH      LDR      r0,[pc,#408] ; [0x7f4] = 0x200010d0
        0x0000065c:    f003fb70    ..p.    BL       strstr ; 0x3d40
        0x00000660:    4966        fI      LDR      r1,[pc,#408] ; [0x7fc] = 0x200000d8
        0x00000662:    6008        .`      STR      r0,[r1,#0]
        0x00000664:    a16d        m.      ADR      r1,{pc}+0x1b8 ; 0x81c
        0x00000666:    4863        cH      LDR      r0,[pc,#396] ; [0x7f4] = 0x200010d0
        0x00000668:    f003fb6a    ..j.    BL       strstr ; 0x3d40
        0x0000066c:    4964        dI      LDR      r1,[pc,#400] ; [0x800] = 0x200000dc
        0x0000066e:    6008        .`      STR      r0,[r1,#0]
        0x00000670:    4861        aH      LDR      r0,[pc,#388] ; [0x7f8] = 0x200000d4
        0x00000672:    6800        .h      LDR      r0,[r0,#0]
        0x00000674:    2800        .(      CMP      r0,#0
        0x00000676:    d10b        ..      BNE      0x690 ; smsrequest + 690
        0x00000678:    4860        `H      LDR      r0,[pc,#384] ; [0x7fc] = 0x200000d8
        0x0000067a:    6800        .h      LDR      r0,[r0,#0]
        0x0000067c:    2800        .(      CMP      r0,#0
        0x0000067e:    d107        ..      BNE      0x690 ; smsrequest + 690
        0x00000680:    4608        .F      MOV      r0,r1
        0x00000682:    6800        .h      LDR      r0,[r0,#0]
        0x00000684:    2800        .(      CMP      r0,#0
        0x00000686:    d103        ..      BNE      0x690 ; smsrequest + 690
        0x00000688:    4857        WH      LDR      r0,[pc,#348] ; [0x7e8] = 0x200000ac
        0x0000068a:    6800        .h      LDR      r0,[r0,#0]
        0x0000068c:    2805        .(      CMP      r0,#5
        0x0000068e:    dbdd        ..      BLT      0x64c ; smsrequest + 622
        0x00000690:    a164        d.      ADR      r1,{pc}+0x194 ; 0x824
        0x00000692:    4858        XH      LDR      r0,[pc,#352] ; [0x7f4] = 0x200010d0
        0x00000694:    f003fb54    ..T.    BL       strstr ; 0x3d40
        0x00000698:    2800        .(      CMP      r0,#0
        0x0000069a:    d001        ..      BEQ      0x6a0 ; smsrequest + 706
        0x0000069c:    2501        .%      MOVS     r5,#1
        0x0000069e:    e000        ..      B        0x6a2 ; smsrequest + 708
        0x000006a0:    2500        .%      MOVS     r5,#0
        0x000006a2:    4850        PH      LDR      r0,[pc,#320] ; [0x7e4] = 0x20000080
        0x000006a4:    6800        .h      LDR      r0,[r0,#0]
        0x000006a6:    f004fecb    ....    BL       osMutexRelease ; 0x5440
        0x000006aa:    2d01        .-      CMP      r5,#1
        0x000006ac:    d131        1.      BNE      0x712 ; smsrequest + 820
        0x000006ae:    2005        .       MOVS     r0,#5
        0x000006b0:    a35e        ^.      ADR      r3,{pc}+0x17c ; 0x82c
        0x000006b2:    a25a        Z.      ADR      r2,{pc}+0x16a ; 0x81c
        0x000006b4:    a158        X.      ADR      r1,{pc}+0x164 ; 0x818
        0x000006b6:    9000        ..      STR      r0,[sp,#0]
        0x000006b8:    a05d        ].      ADR      r0,{pc}+0x178 ; 0x830
        0x000006ba:    f001f827    ..'.    BL       SendAT ; 0x170c
        0x000006be:    2164        d!      MOVS     r1,#0x64
        0x000006c0:    4860        `H      LDR      r0,[pc,#384] ; [0x844] = 0x2000133c
        0x000006c2:    f003fb26    ..&.    BL       __aeabi_memclr ; 0x3d12
        0x000006c6:    4632        2F      MOV      r2,r6
        0x000006c8:    a176        v.      ADR      r1,{pc}+0x1dc ; 0x8a4
        0x000006ca:    485e        ^H      LDR      r0,[pc,#376] ; [0x844] = 0x2000133c
        0x000006cc:    f003ffa4    ....    BL       __0sprintf ; 0x4618
        0x000006d0:    2005        .       MOVS     r0,#5
        0x000006d2:    a356        V.      ADR      r3,{pc}+0x15a ; 0x82c
        0x000006d4:    a251        Q.      ADR      r2,{pc}+0x148 ; 0x81c
        0x000006d6:    a150        P.      ADR      r1,{pc}+0x142 ; 0x818
        0x000006d8:    9000        ..      STR      r0,[sp,#0]
        0x000006da:    485a        ZH      LDR      r0,[pc,#360] ; [0x844] = 0x2000133c
        0x000006dc:    f001f816    ....    BL       SendAT ; 0x170c
        0x000006e0:    2005        .       MOVS     r0,#5
        0x000006e2:    a352        R.      ADR      r3,{pc}+0x14a ; 0x82c
        0x000006e4:    a24d        M.      ADR      r2,{pc}+0x138 ; 0x81c
        0x000006e6:    a14c        L.      ADR      r1,{pc}+0x132 ; 0x818
        0x000006e8:    9000        ..      STR      r0,[sp,#0]
        0x000006ea:    a060        `.      ADR      r0,{pc}+0x182 ; 0x86c
        0x000006ec:    f001f80e    ....    BL       SendAT ; 0x170c
        0x000006f0:    2164        d!      MOVS     r1,#0x64
        0x000006f2:    4854        TH      LDR      r0,[pc,#336] ; [0x844] = 0x2000133c
        0x000006f4:    f003fb0d    ....    BL       __aeabi_memclr ; 0x3d12
        0x000006f8:    4632        2F      MOV      r2,r6
        0x000006fa:    a16a        j.      ADR      r1,{pc}+0x1aa ; 0x8a4
        0x000006fc:    4851        QH      LDR      r0,[pc,#324] ; [0x844] = 0x2000133c
        0x000006fe:    f003ff8b    ....    BL       __0sprintf ; 0x4618
        0x00000702:    2005        .       MOVS     r0,#5
        0x00000704:    a349        I.      ADR      r3,{pc}+0x128 ; 0x82c
        0x00000706:    a245        E.      ADR      r2,{pc}+0x116 ; 0x81c
        0x00000708:    a143        C.      ADR      r1,{pc}+0x110 ; 0x818
        0x0000070a:    9000        ..      STR      r0,[sp,#0]
        0x0000070c:    484d        MH      LDR      r0,[pc,#308] ; [0x844] = 0x2000133c
        0x0000070e:    f000fffd    ....    BL       SendAT ; 0x170c
        0x00000712:    e204        ..      B        0xb1e ; smsrequest + 1856
        0x00000714:    2005        .       MOVS     r0,#5
        0x00000716:    a345        E.      ADR      r3,{pc}+0x116 ; 0x82c
        0x00000718:    a240        @.      ADR      r2,{pc}+0x104 ; 0x81c
        0x0000071a:    a13f        ?.      ADR      r1,{pc}+0xfe ; 0x818
        0x0000071c:    9000        ..      STR      r0,[sp,#0]
        0x0000071e:    a044        D.      ADR      r0,{pc}+0x112 ; 0x830
        0x00000720:    f000fff4    ....    BL       SendAT ; 0x170c
        0x00000724:    2164        d!      MOVS     r1,#0x64
        0x00000726:    4847        GH      LDR      r0,[pc,#284] ; [0x844] = 0x2000133c
        0x00000728:    f003faf3    ....    BL       __aeabi_memclr ; 0x3d12
        0x0000072c:    4632        2F      MOV      r2,r6
        0x0000072e:    a166        f.      ADR      r1,{pc}+0x19a ; 0x8c8
        0x00000730:    4844        DH      LDR      r0,[pc,#272] ; [0x844] = 0x2000133c
        0x00000732:    f003ff71    ..q.    BL       __0sprintf ; 0x4618
        0x00000736:    2005        .       MOVS     r0,#5
        0x00000738:    a33c        <.      ADR      r3,{pc}+0xf4 ; 0x82c
        0x0000073a:    a238        8.      ADR      r2,{pc}+0xe2 ; 0x81c
        0x0000073c:    a136        6.      ADR      r1,{pc}+0xdc ; 0x818
        0x0000073e:    9000        ..      STR      r0,[sp,#0]
        0x00000740:    4840        @H      LDR      r0,[pc,#256] ; [0x844] = 0x2000133c
        0x00000742:    f000ffe3    ....    BL       SendAT ; 0x170c
        0x00000746:    2005        .       MOVS     r0,#5
        0x00000748:    a338        8.      ADR      r3,{pc}+0xe4 ; 0x82c
        0x0000074a:    a234        4.      ADR      r2,{pc}+0xd2 ; 0x81c
        0x0000074c:    a132        2.      ADR      r1,{pc}+0xcc ; 0x818
        0x0000074e:    9000        ..      STR      r0,[sp,#0]
        0x00000750:    a046        F.      ADR      r0,{pc}+0x11c ; 0x86c
        0x00000752:    f000ffdb    ....    BL       SendAT ; 0x170c
        0x00000756:    2164        d!      MOVS     r1,#0x64
        0x00000758:    483a        :H      LDR      r0,[pc,#232] ; [0x844] = 0x2000133c
        0x0000075a:    f003fada    ....    BL       __aeabi_memclr ; 0x3d12
        0x0000075e:    4632        2F      MOV      r2,r6
        0x00000760:    a159        Y.      ADR      r1,{pc}+0x168 ; 0x8c8
        0x00000762:    4838        8H      LDR      r0,[pc,#224] ; [0x844] = 0x2000133c
        0x00000764:    f003ff58    ..X.    BL       __0sprintf ; 0x4618
        0x00000768:    2005        .       MOVS     r0,#5
        0x0000076a:    a330        0.      ADR      r3,{pc}+0xc2 ; 0x82c
        0x0000076c:    a22b        +.      ADR      r2,{pc}+0xb0 ; 0x81c
        0x0000076e:    a12a        *.      ADR      r1,{pc}+0xaa ; 0x818
        0x00000770:    9000        ..      STR      r0,[sp,#0]
        0x00000772:    4834        4H      LDR      r0,[pc,#208] ; [0x844] = 0x2000133c
        0x00000774:    f000ffca    ....    BL       SendAT ; 0x170c
        0x00000778:    e1d1        ..      B        0xb1e ; smsrequest + 1856
        0x0000077a:    e1d0        ..      B        0xb1e ; smsrequest + 1856
        0x0000077c:    2100        .!      MOVS     r1,#0
        0x0000077e:    43c9        .C      MVNS     r1,r1
        0x00000780:    4818        .H      LDR      r0,[pc,#96] ; [0x7e4] = 0x20000080
        0x00000782:    6800        .h      LDR      r0,[r0,#0]
        0x00000784:    f004fe6a    ..j.    BL       osMutexWait ; 0x545c
        0x00000788:    2000        .       MOVS     r0,#0
        0x0000078a:    4917        .I      LDR      r1,[pc,#92] ; [0x7e8] = 0x200000ac
        0x0000078c:    6008        .`      STR      r0,[r1,#0]
        0x0000078e:    4917        .I      LDR      r1,[pc,#92] ; [0x7ec] = 0x200000a4
        0x00000790:    6008        .`      STR      r0,[r1,#0]
        0x00000792:    4917        .I      LDR      r1,[pc,#92] ; [0x7f0] = 0x226
        0x00000794:    4817        .H      LDR      r0,[pc,#92] ; [0x7f4] = 0x200010d0
        0x00000796:    f003fabc    ....    BL       __aeabi_memclr ; 0x3d12
        0x0000079a:    211a        .!      MOVS     r1,#0x1a
        0x0000079c:    a053        S.      ADR      r0,{pc}+0x150 ; 0x8ec
        0x0000079e:    f003ff2b    ..+.    BL       __0printf ; 0x45f8
        0x000007a2:    f000ffa8    ....    BL       clear ; 0x16f6
        0x000007a6:    4638        8F      MOV      r0,r7
        0x000007a8:    f003ff26    ..&.    BL       __0printf ; 0x45f8
        0x000007ac:    bf00        ..      NOP      
        0x000007ae:    480e        .H      LDR      r0,[pc,#56] ; [0x7e8] = 0x200000ac
        0x000007b0:    6800        .h      LDR      r0,[r0,#0]
        0x000007b2:    2805        .(      CMP      r0,#5
        0x000007b4:    dbfb        ..      BLT      0x7ae ; smsrequest + 976
        0x000007b6:    21c8        .!      MOVS     r1,#0xc8
        0x000007b8:    484d        MH      LDR      r0,[pc,#308] ; [0x8f0] = 0x200001fa
        0x000007ba:    f003faaa    ....    BL       __aeabi_memclr ; 0x3d12
        0x000007be:    490d        .I      LDR      r1,[pc,#52] ; [0x7f4] = 0x200010d0
        0x000007c0:    484b        KH      LDR      r0,[pc,#300] ; [0x8f0] = 0x200001fa
        0x000007c2:    f003fab1    ....    BL       strcat ; 0x3d28
        0x000007c6:    220d        ."      MOVS     r2,#0xd
        0x000007c8:    4611        .F      MOV      r1,r2
        0x000007ca:    4849        IH      LDR      r0,[pc,#292] ; [0x8f0] = 0x200001fa
        0x000007cc:    f7fffde6    ....    BL       remove_all_chars ; 0x39c
        0x000007d0:    2000        .       MOVS     r0,#0
        0x000007d2:    4905        .I      LDR      r1,[pc,#20] ; [0x7e8] = 0x200000ac
        0x000007d4:    6008        .`      STR      r0,[r1,#0]
        0x000007d6:    4905        .I      LDR      r1,[pc,#20] ; [0x7ec] = 0x200000a4
        0x000007d8:    6008        .`      STR      r0,[r1,#0]
        0x000007da:    4905        .I      LDR      r1,[pc,#20] ; [0x7f0] = 0x226
        0x000007dc:    4805        .H      LDR      r0,[pc,#20] ; [0x7f4] = 0x200010d0
        0x000007de:    e089        ..      B        0x8f4 ; smsrequest + 1302
    $d
        0x000007e0:    20000176    v..     DCD    536871286
        0x000007e4:    20000080    ...     DCD    536871040
        0x000007e8:    200000ac    ...     DCD    536871084
        0x000007ec:    200000a4    ...     DCD    536871076
        0x000007f0:    00000226    &...    DCD    550
        0x000007f4:    200010d0    ...     DCD    536875216
        0x000007f8:    200000d4    ...     DCD    536871124
        0x000007fc:    200000d8    ...     DCD    536871128
        0x00000800:    200000dc    ...     DCD    536871132
        0x00000804:    54410a0d    ..AT    DCD    1413548557
        0x00000808:    4250432b    +CPB    DCD    1112556331
        0x0000080c:    0d343d52    R=4.    DCD    221527378
        0x00000810:    000a0d0a    ....    DCD    658698
        0x00000814:    0000003e    >...    DCD    62
        0x00000818:    00004b4f    OK..    DCD    19279
        0x0000081c:    4f525245    ERRO    DCD    1330795077
        0x00000820:    00000052    R...    DCD    82
        0x00000824:    4e574f53    SOWN    DCD    1314344787
        0x00000828:    00005245    ER..    DCD    21061
        0x0000082c:    00454d43    CME.    DCD    4541763
        0x00000830:    54410a0d    ..AT    DCD    1413548557
        0x00000834:    4250432b    +CPB    DCD    1112556331
        0x00000838:    53223d53    S="S    DCD    1394752851
        0x0000083c:    0a0d224d    M"..    DCD    168632909
        0x00000840:    00000a0d    ....    DCD    2573
        0x00000844:    2000133c    <..     DCD    536875836
        0x00000848:    54410a0d    ..AT    DCD    1413548557
        0x0000084c:    4250432b    +CPB    DCD    1112556331
        0x00000850:    2c313d57    W=1,    DCD    741424471
        0x00000854:    22732522    "%s"    DCD    577971490
        0x00000858:    3932312c    ,129    DCD    959590700
        0x0000085c:    574f222c    ,"OW    DCD    1464803884
        0x00000860:    3152454e    NER1    DCD    827475278
        0x00000864:    0d0a0d22    "...    DCD    218762530
        0x00000868:    0000000a    ....    DCD    10
        0x0000086c:    54410a0d    ..AT    DCD    1413548557
        0x00000870:    4250432b    +CPB    DCD    1112556331
        0x00000874:    4d223d53    S="M    DCD    1294089555
        0x00000878:    0a0d2245    E"..    DCD    168632901
        0x0000087c:    00000a0d    ....    DCD    2573
        0x00000880:    54410a0d    ..AT    DCD    1413548557
        0x00000884:    4250432b    +CPB    DCD    1112556331
        0x00000888:    2c323d57    W=2,    DCD    741490007
        0x0000088c:    22732522    "%s"    DCD    577971490
        0x00000890:    3932312c    ,129    DCD    959590700
        0x00000894:    574f222c    ,"OW    DCD    1464803884
        0x00000898:    3252454e    NER2    DCD    844252494
        0x0000089c:    0d0a0d22    "...    DCD    218762530
        0x000008a0:    0000000a    ....    DCD    10
        0x000008a4:    54410a0d    ..AT    DCD    1413548557
        0x000008a8:    4250432b    +CPB    DCD    1112556331
        0x000008ac:    2c333d57    W=3,    DCD    741555543
        0x000008b0:    22732522    "%s"    DCD    577971490
        0x000008b4:    3932312c    ,129    DCD    959590700
        0x000008b8:    574f222c    ,"OW    DCD    1464803884
        0x000008bc:    3352454e    NER3    DCD    861029710
        0x000008c0:    0d0a0d22    "...    DCD    218762530
        0x000008c4:    0000000a    ....    DCD    10
        0x000008c8:    54410a0d    ..AT    DCD    1413548557
        0x000008cc:    4250432b    +CPB    DCD    1112556331
        0x000008d0:    2c343d57    W=4,    DCD    741621079
        0x000008d4:    22732522    "%s"    DCD    577971490
        0x000008d8:    3932312c    ,129    DCD    959590700
        0x000008dc:    4f53222c    ,"SO    DCD    1330848300
        0x000008e0:    52454e57    WNER    DCD    1380273751
        0x000008e4:    0d0a0d22    "...    DCD    218762530
        0x000008e8:    0000000a    ....    DCD    10
        0x000008ec:    00006325    %c..    DCD    25381
        0x000008f0:    200001fa    ...     DCD    536871418
    $t
        0x000008f4:    f003fa0d    ....    BL       __aeabi_memclr ; 0x3d12
        0x000008f8:    2000        .       MOVS     r0,#0
        0x000008fa:    49fd        .I      LDR      r1,[pc,#1012] ; [0xcf0] = 0x200000d4
        0x000008fc:    6008        .`      STR      r0,[r1,#0]
        0x000008fe:    49fd        .I      LDR      r1,[pc,#1012] ; [0xcf4] = 0x200000d8
        0x00000900:    6008        .`      STR      r0,[r1,#0]
        0x00000902:    49fd        .I      LDR      r1,[pc,#1012] ; [0xcf8] = 0x200000dc
        0x00000904:    6008        .`      STR      r0,[r1,#0]
        0x00000906:    f000fef6    ....    BL       clear ; 0x16f6
        0x0000090a:    a0fc        ..      ADR      r0,{pc}+0x3f2 ; 0xcfc
        0x0000090c:    f003fe74    ..t.    BL       __0printf ; 0x45f8
        0x00000910:    bf00        ..      NOP      
        0x00000912:    a1fe        ..      ADR      r1,{pc}+0x3fa ; 0xd0c
        0x00000914:    48fe        .H      LDR      r0,[pc,#1016] ; [0xd10] = 0x200010d0
        0x00000916:    f003fa13    ....    BL       strstr ; 0x3d40
        0x0000091a:    49f5        .I      LDR      r1,[pc,#980] ; [0xcf0] = 0x200000d4
        0x0000091c:    6008        .`      STR      r0,[r1,#0]
        0x0000091e:    a1fd        ..      ADR      r1,{pc}+0x3f6 ; 0xd14
        0x00000920:    48fb        .H      LDR      r0,[pc,#1004] ; [0xd10] = 0x200010d0
        0x00000922:    f003fa0d    ....    BL       strstr ; 0x3d40
        0x00000926:    49f3        .I      LDR      r1,[pc,#972] ; [0xcf4] = 0x200000d8
        0x00000928:    6008        .`      STR      r0,[r1,#0]
        0x0000092a:    49fb        .I      LDR      r1,[pc,#1004] ; [0xd18] = 0x81c
        0x0000092c:    48f8        .H      LDR      r0,[pc,#992] ; [0xd10] = 0x200010d0
        0x0000092e:    f003fa07    ....    BL       strstr ; 0x3d40
        0x00000932:    49f1        .I      LDR      r1,[pc,#964] ; [0xcf8] = 0x200000dc
        0x00000934:    6008        .`      STR      r0,[r1,#0]
        0x00000936:    48ee        .H      LDR      r0,[pc,#952] ; [0xcf0] = 0x200000d4
        0x00000938:    6800        .h      LDR      r0,[r0,#0]
        0x0000093a:    2800        .(      CMP      r0,#0
        0x0000093c:    d10b        ..      BNE      0x956 ; smsrequest + 1400
        0x0000093e:    48ed        .H      LDR      r0,[pc,#948] ; [0xcf4] = 0x200000d8
        0x00000940:    6800        .h      LDR      r0,[r0,#0]
        0x00000942:    2800        .(      CMP      r0,#0
        0x00000944:    d107        ..      BNE      0x956 ; smsrequest + 1400
        0x00000946:    4608        .F      MOV      r0,r1
        0x00000948:    6800        .h      LDR      r0,[r0,#0]
        0x0000094a:    2800        .(      CMP      r0,#0
        0x0000094c:    d103        ..      BNE      0x956 ; smsrequest + 1400
        0x0000094e:    48f3        .H      LDR      r0,[pc,#972] ; [0xd1c] = 0x200000ac
        0x00000950:    6800        .h      LDR      r0,[r0,#0]
        0x00000952:    2805        .(      CMP      r0,#5
        0x00000954:    dbdd        ..      BLT      0x912 ; smsrequest + 1332
        0x00000956:    2000        .       MOVS     r0,#0
        0x00000958:    49f0        .I      LDR      r1,[pc,#960] ; [0xd1c] = 0x200000ac
        0x0000095a:    6008        .`      STR      r0,[r1,#0]
        0x0000095c:    49f0        .I      LDR      r1,[pc,#960] ; [0xd20] = 0x200000a4
        0x0000095e:    6008        .`      STR      r0,[r1,#0]
        0x00000960:    49f0        .I      LDR      r1,[pc,#960] ; [0xd24] = 0x226
        0x00000962:    48eb        .H      LDR      r0,[pc,#940] ; [0xd10] = 0x200010d0
        0x00000964:    f003f9d5    ....    BL       __aeabi_memclr ; 0x3d12
        0x00000968:    2000        .       MOVS     r0,#0
        0x0000096a:    49e1        .I      LDR      r1,[pc,#900] ; [0xcf0] = 0x200000d4
        0x0000096c:    6008        .`      STR      r0,[r1,#0]
        0x0000096e:    49e1        .I      LDR      r1,[pc,#900] ; [0xcf4] = 0x200000d8
        0x00000970:    6008        .`      STR      r0,[r1,#0]
        0x00000972:    49e1        .I      LDR      r1,[pc,#900] ; [0xcf8] = 0x200000dc
        0x00000974:    6008        .`      STR      r0,[r1,#0]
        0x00000976:    f000febe    ....    BL       clear ; 0x16f6
        0x0000097a:    a0eb        ..      ADR      r0,{pc}+0x3ae ; 0xd28
        0x0000097c:    f003fe3c    ..<.    BL       __0printf ; 0x45f8
        0x00000980:    bf00        ..      NOP      
        0x00000982:    a1e2        ..      ADR      r1,{pc}+0x38a ; 0xd0c
        0x00000984:    48e2        .H      LDR      r0,[pc,#904] ; [0xd10] = 0x200010d0
        0x00000986:    f003f9db    ....    BL       strstr ; 0x3d40
        0x0000098a:    49d9        .I      LDR      r1,[pc,#868] ; [0xcf0] = 0x200000d4
        0x0000098c:    6008        .`      STR      r0,[r1,#0]
        0x0000098e:    a1e1        ..      ADR      r1,{pc}+0x386 ; 0xd14
        0x00000990:    48df        .H      LDR      r0,[pc,#892] ; [0xd10] = 0x200010d0
        0x00000992:    f003f9d5    ....    BL       strstr ; 0x3d40
        0x00000996:    49d7        .I      LDR      r1,[pc,#860] ; [0xcf4] = 0x200000d8
        0x00000998:    6008        .`      STR      r0,[r1,#0]
        0x0000099a:    49df        .I      LDR      r1,[pc,#892] ; [0xd18] = 0x81c
        0x0000099c:    48dc        .H      LDR      r0,[pc,#880] ; [0xd10] = 0x200010d0
        0x0000099e:    f003f9cf    ....    BL       strstr ; 0x3d40
        0x000009a2:    49d5        .I      LDR      r1,[pc,#852] ; [0xcf8] = 0x200000dc
        0x000009a4:    6008        .`      STR      r0,[r1,#0]
        0x000009a6:    48d2        .H      LDR      r0,[pc,#840] ; [0xcf0] = 0x200000d4
        0x000009a8:    6800        .h      LDR      r0,[r0,#0]
        0x000009aa:    2800        .(      CMP      r0,#0
        0x000009ac:    d10b        ..      BNE      0x9c6 ; smsrequest + 1512
        0x000009ae:    48d1        .H      LDR      r0,[pc,#836] ; [0xcf4] = 0x200000d8
        0x000009b0:    6800        .h      LDR      r0,[r0,#0]
        0x000009b2:    2800        .(      CMP      r0,#0
        0x000009b4:    d107        ..      BNE      0x9c6 ; smsrequest + 1512
        0x000009b6:    4608        .F      MOV      r0,r1
        0x000009b8:    6800        .h      LDR      r0,[r0,#0]
        0x000009ba:    2800        .(      CMP      r0,#0
        0x000009bc:    d103        ..      BNE      0x9c6 ; smsrequest + 1512
        0x000009be:    48d7        .H      LDR      r0,[pc,#860] ; [0xd1c] = 0x200000ac
        0x000009c0:    6800        .h      LDR      r0,[r0,#0]
        0x000009c2:    2805        .(      CMP      r0,#5
        0x000009c4:    dbdd        ..      BLT      0x982 ; smsrequest + 1444
        0x000009c6:    2000        .       MOVS     r0,#0
        0x000009c8:    49d4        .I      LDR      r1,[pc,#848] ; [0xd1c] = 0x200000ac
        0x000009ca:    6008        .`      STR      r0,[r1,#0]
        0x000009cc:    49d4        .I      LDR      r1,[pc,#848] ; [0xd20] = 0x200000a4
        0x000009ce:    6008        .`      STR      r0,[r1,#0]
        0x000009d0:    49d4        .I      LDR      r1,[pc,#848] ; [0xd24] = 0x226
        0x000009d2:    48cf        .H      LDR      r0,[pc,#828] ; [0xd10] = 0x200010d0
        0x000009d4:    f003f99d    ....    BL       __aeabi_memclr ; 0x3d12
        0x000009d8:    2000        .       MOVS     r0,#0
        0x000009da:    49c5        .I      LDR      r1,[pc,#788] ; [0xcf0] = 0x200000d4
        0x000009dc:    6008        .`      STR      r0,[r1,#0]
        0x000009de:    49c5        .I      LDR      r1,[pc,#788] ; [0xcf4] = 0x200000d8
        0x000009e0:    6008        .`      STR      r0,[r1,#0]
        0x000009e2:    49c5        .I      LDR      r1,[pc,#788] ; [0xcf8] = 0x200000dc
        0x000009e4:    6008        .`      STR      r0,[r1,#0]
        0x000009e6:    f000fe86    ....    BL       clear ; 0x16f6
        0x000009ea:    4631        1F      MOV      r1,r6
        0x000009ec:    a0d3        ..      ADR      r0,{pc}+0x350 ; 0xd3c
        0x000009ee:    f003fe03    ....    BL       __0printf ; 0x45f8
        0x000009f2:    bf00        ..      NOP      
        0x000009f4:    a1c5        ..      ADR      r1,{pc}+0x318 ; 0xd0c
        0x000009f6:    48c6        .H      LDR      r0,[pc,#792] ; [0xd10] = 0x200010d0
        0x000009f8:    f003f9a2    ....    BL       strstr ; 0x3d40
        0x000009fc:    49bc        .I      LDR      r1,[pc,#752] ; [0xcf0] = 0x200000d4
        0x000009fe:    6008        .`      STR      r0,[r1,#0]
        0x00000a00:    a1c4        ..      ADR      r1,{pc}+0x314 ; 0xd14
        0x00000a02:    48c3        .H      LDR      r0,[pc,#780] ; [0xd10] = 0x200010d0
        0x00000a04:    f003f99c    ....    BL       strstr ; 0x3d40
        0x00000a08:    49ba        .I      LDR      r1,[pc,#744] ; [0xcf4] = 0x200000d8
        0x00000a0a:    6008        .`      STR      r0,[r1,#0]
        0x00000a0c:    49c2        .I      LDR      r1,[pc,#776] ; [0xd18] = 0x81c
        0x00000a0e:    48c0        .H      LDR      r0,[pc,#768] ; [0xd10] = 0x200010d0
        0x00000a10:    f003f996    ....    BL       strstr ; 0x3d40
        0x00000a14:    49b8        .I      LDR      r1,[pc,#736] ; [0xcf8] = 0x200000dc
        0x00000a16:    6008        .`      STR      r0,[r1,#0]
        0x00000a18:    48b5        .H      LDR      r0,[pc,#724] ; [0xcf0] = 0x200000d4
        0x00000a1a:    6800        .h      LDR      r0,[r0,#0]
        0x00000a1c:    2800        .(      CMP      r0,#0
        0x00000a1e:    d10b        ..      BNE      0xa38 ; smsrequest + 1626
        0x00000a20:    48b4        .H      LDR      r0,[pc,#720] ; [0xcf4] = 0x200000d8
        0x00000a22:    6800        .h      LDR      r0,[r0,#0]
        0x00000a24:    2800        .(      CMP      r0,#0
        0x00000a26:    d107        ..      BNE      0xa38 ; smsrequest + 1626
        0x00000a28:    4608        .F      MOV      r0,r1
        0x00000a2a:    6800        .h      LDR      r0,[r0,#0]
        0x00000a2c:    2800        .(      CMP      r0,#0
        0x00000a2e:    d103        ..      BNE      0xa38 ; smsrequest + 1626
        0x00000a30:    48ba        .H      LDR      r0,[pc,#744] ; [0xd1c] = 0x200000ac
        0x00000a32:    6800        .h      LDR      r0,[r0,#0]
        0x00000a34:    2805        .(      CMP      r0,#5
        0x00000a36:    dbdd        ..      BLT      0x9f4 ; smsrequest + 1558
        0x00000a38:    a1b4        ..      ADR      r1,{pc}+0x2d4 ; 0xd0c
        0x00000a3a:    48b5        .H      LDR      r0,[pc,#724] ; [0xd10] = 0x200010d0
        0x00000a3c:    f003f980    ....    BL       strstr ; 0x3d40
        0x00000a40:    2800        .(      CMP      r0,#0
        0x00000a42:    d040        @.      BEQ      0xac6 ; smsrequest + 1768
        0x00000a44:    2000        .       MOVS     r0,#0
        0x00000a46:    49b5        .I      LDR      r1,[pc,#724] ; [0xd1c] = 0x200000ac
        0x00000a48:    6008        .`      STR      r0,[r1,#0]
        0x00000a4a:    49b5        .I      LDR      r1,[pc,#724] ; [0xd20] = 0x200000a4
        0x00000a4c:    6008        .`      STR      r0,[r1,#0]
        0x00000a4e:    49b5        .I      LDR      r1,[pc,#724] ; [0xd24] = 0x226
        0x00000a50:    48af        .H      LDR      r0,[pc,#700] ; [0xd10] = 0x200010d0
        0x00000a52:    f003f95e    ..^.    BL       __aeabi_memclr ; 0x3d12
        0x00000a56:    2000        .       MOVS     r0,#0
        0x00000a58:    49a5        .I      LDR      r1,[pc,#660] ; [0xcf0] = 0x200000d4
        0x00000a5a:    6008        .`      STR      r0,[r1,#0]
        0x00000a5c:    49a5        .I      LDR      r1,[pc,#660] ; [0xcf4] = 0x200000d8
        0x00000a5e:    6008        .`      STR      r0,[r1,#0]
        0x00000a60:    49a5        .I      LDR      r1,[pc,#660] ; [0xcf8] = 0x200000dc
        0x00000a62:    6008        .`      STR      r0,[r1,#0]
        0x00000a64:    f000fe47    ..G.    BL       clear ; 0x16f6
        0x00000a68:    48b9        .H      LDR      r0,[pc,#740] ; [0xd50] = 0x200001fa
        0x00000a6a:    f003fdc5    ....    BL       __0printf ; 0x45f8
        0x00000a6e:    201a        .       MOVS     r0,#0x1a
        0x00000a70:    9000        ..      STR      r0,[sp,#0]
        0x00000a72:    4603        .F      MOV      r3,r0
        0x00000a74:    4602        .F      MOV      r2,r0
        0x00000a76:    4601        .F      MOV      r1,r0
        0x00000a78:    9001        ..      STR      r0,[sp,#4]
        0x00000a7a:    a0b6        ..      ADR      r0,{pc}+0x2da ; 0xd54
        0x00000a7c:    f003fdbc    ....    BL       __0printf ; 0x45f8
        0x00000a80:    bf00        ..      NOP      
        0x00000a82:    a1b7        ..      ADR      r1,{pc}+0x2de ; 0xd60
        0x00000a84:    48a2        .H      LDR      r0,[pc,#648] ; [0xd10] = 0x200010d0
        0x00000a86:    f003f95b    ..[.    BL       strstr ; 0x3d40
        0x00000a8a:    4999        .I      LDR      r1,[pc,#612] ; [0xcf0] = 0x200000d4
        0x00000a8c:    6008        .`      STR      r0,[r1,#0]
        0x00000a8e:    a1a1        ..      ADR      r1,{pc}+0x286 ; 0xd14
        0x00000a90:    489f        .H      LDR      r0,[pc,#636] ; [0xd10] = 0x200010d0
        0x00000a92:    f003f955    ..U.    BL       strstr ; 0x3d40
        0x00000a96:    4997        .I      LDR      r1,[pc,#604] ; [0xcf4] = 0x200000d8
        0x00000a98:    6008        .`      STR      r0,[r1,#0]
        0x00000a9a:    499f        .I      LDR      r1,[pc,#636] ; [0xd18] = 0x81c
        0x00000a9c:    489c        .H      LDR      r0,[pc,#624] ; [0xd10] = 0x200010d0
        0x00000a9e:    f003f94f    ..O.    BL       strstr ; 0x3d40
        0x00000aa2:    4995        .I      LDR      r1,[pc,#596] ; [0xcf8] = 0x200000dc
        0x00000aa4:    6008        .`      STR      r0,[r1,#0]
        0x00000aa6:    4892        .H      LDR      r0,[pc,#584] ; [0xcf0] = 0x200000d4
        0x00000aa8:    6800        .h      LDR      r0,[r0,#0]
        0x00000aaa:    2800        .(      CMP      r0,#0
        0x00000aac:    d10b        ..      BNE      0xac6 ; smsrequest + 1768
        0x00000aae:    4891        .H      LDR      r0,[pc,#580] ; [0xcf4] = 0x200000d8
        0x00000ab0:    6800        .h      LDR      r0,[r0,#0]
        0x00000ab2:    2800        .(      CMP      r0,#0
        0x00000ab4:    d107        ..      BNE      0xac6 ; smsrequest + 1768
        0x00000ab6:    4608        .F      MOV      r0,r1
        0x00000ab8:    6800        .h      LDR      r0,[r0,#0]
        0x00000aba:    2800        .(      CMP      r0,#0
        0x00000abc:    d103        ..      BNE      0xac6 ; smsrequest + 1768
        0x00000abe:    4897        .H      LDR      r0,[pc,#604] ; [0xd1c] = 0x200000ac
        0x00000ac0:    6800        .h      LDR      r0,[r0,#0]
        0x00000ac2:    2805        .(      CMP      r0,#5
        0x00000ac4:    dbdd        ..      BLT      0xa82 ; smsrequest + 1700
        0x00000ac6:    48a8        .H      LDR      r0,[pc,#672] ; [0xd68] = 0x20000080
        0x00000ac8:    6800        .h      LDR      r0,[r0,#0]
        0x00000aca:    f004fcb9    ....    BL       osMutexRelease ; 0x5440
        0x00000ace:    e026        &.      B        0xb1e ; smsrequest + 1856
        0x00000ad0:    2132        2!      MOVS     r1,#0x32
        0x00000ad2:    48a6        .H      LDR      r0,[pc,#664] ; [0xd6c] = 0x20000011
        0x00000ad4:    f003f91d    ....    BL       __aeabi_memclr ; 0x3d12
        0x00000ad8:    48a4        .H      LDR      r0,[pc,#656] ; [0xd6c] = 0x20000011
        0x00000ada:    2129        )!      MOVS     r1,#0x29
        0x00000adc:    2328        (#      MOVS     r3,#0x28
        0x00000ade:    2201        ."      MOVS     r2,#1
        0x00000ae0:    9100        ..      STR      r1,[sp,#0]
        0x00000ae2:    9001        ..      STR      r0,[sp,#4]
        0x00000ae4:    4611        .F      MOV      r1,r2
        0x00000ae6:    488a        .H      LDR      r0,[pc,#552] ; [0xd10] = 0x200010d0
        0x00000ae8:    f004fd74    ..t.    BL       parse_g ; 0x55d4
        0x00000aec:    2106        .!      MOVS     r1,#6
        0x00000aee:    48a0        .H      LDR      r0,[pc,#640] ; [0xd70] = 0x20000043
        0x00000af0:    f003f90f    ....    BL       __aeabi_memclr ; 0x3d12
        0x00000af4:    489e        .H      LDR      r0,[pc,#632] ; [0xd70] = 0x20000043
        0x00000af6:    2129        )!      MOVS     r1,#0x29
        0x00000af8:    2328        (#      MOVS     r3,#0x28
        0x00000afa:    2202        ."      MOVS     r2,#2
        0x00000afc:    9100        ..      STR      r1,[sp,#0]
        0x00000afe:    9001        ..      STR      r0,[sp,#4]
        0x00000b00:    4611        .F      MOV      r1,r2
        0x00000b02:    4883        .H      LDR      r0,[pc,#524] ; [0xd10] = 0x200010d0
        0x00000b04:    f004fd66    ..f.    BL       parse_g ; 0x55d4
        0x00000b08:    e009        ..      B        0xb1e ; smsrequest + 1856
        0x00000b0a:    2000        .       MOVS     r0,#0
        0x00000b0c:    4999        .I      LDR      r1,[pc,#612] ; [0xd74] = 0x50004300
        0x00000b0e:    6148        Ha      STR      r0,[r1,#0x14]
        0x00000b10:    e005        ..      B        0xb1e ; smsrequest + 1856
        0x00000b12:    2001        .       MOVS     r0,#1
        0x00000b14:    4997        .I      LDR      r1,[pc,#604] ; [0xd74] = 0x50004300
        0x00000b16:    6148        Ha      STR      r0,[r1,#0x14]
        0x00000b18:    e001        ..      B        0xb1e ; smsrequest + 1856
        0x00000b1a:    e000        ..      B        0xb1e ; smsrequest + 1856
        0x00000b1c:    bf00        ..      NOP      
        0x00000b1e:    bf00        ..      NOP      
        0x00000b20:    bdfe        ..      POP      {r1-r7,pc}
    sms_mc60
        0x00000b22:    b57c        |.      PUSH     {r2-r6,lr}
        0x00000b24:    2400        .$      MOVS     r4,#0
        0x00000b26:    2500        .%      MOVS     r5,#0
        0x00000b28:    4893        .H      LDR      r0,[pc,#588] ; [0xd78] = 0x200000d0
        0x00000b2a:    7800        .x      LDRB     r0,[r0,#0]
        0x00000b2c:    2801        .(      CMP      r0,#1
        0x00000b2e:    d17d        }.      BNE      0xc2c ; sms_mc60 + 266
        0x00000b30:    2000        .       MOVS     r0,#0
        0x00000b32:    4990        .I      LDR      r1,[pc,#576] ; [0xd74] = 0x50004300
        0x00000b34:    39c0        .9      SUBS     r1,r1,#0xc0
        0x00000b36:    6088        .`      STR      r0,[r1,#8]
        0x00000b38:    1e41        A.      SUBS     r1,r0,#1
        0x00000b3a:    488b        .H      LDR      r0,[pc,#556] ; [0xd68] = 0x20000080
        0x00000b3c:    6800        .h      LDR      r0,[r0,#0]
        0x00000b3e:    f004fc8d    ....    BL       osMutexWait ; 0x545c
        0x00000b42:    2000        .       MOVS     r0,#0
        0x00000b44:    4975        uI      LDR      r1,[pc,#468] ; [0xd1c] = 0x200000ac
        0x00000b46:    6008        .`      STR      r0,[r1,#0]
        0x00000b48:    4969        iI      LDR      r1,[pc,#420] ; [0xcf0] = 0x200000d4
        0x00000b4a:    6008        .`      STR      r0,[r1,#0]
        0x00000b4c:    4969        iI      LDR      r1,[pc,#420] ; [0xcf4] = 0x200000d8
        0x00000b4e:    6008        .`      STR      r0,[r1,#0]
        0x00000b50:    4969        iI      LDR      r1,[pc,#420] ; [0xcf8] = 0x200000dc
        0x00000b52:    6008        .`      STR      r0,[r1,#0]
        0x00000b54:    4972        rI      LDR      r1,[pc,#456] ; [0xd20] = 0x200000a4
        0x00000b56:    6008        .`      STR      r0,[r1,#0]
        0x00000b58:    4972        rI      LDR      r1,[pc,#456] ; [0xd24] = 0x226
        0x00000b5a:    486d        mH      LDR      r0,[pc,#436] ; [0xd10] = 0x200010d0
        0x00000b5c:    f003f8d9    ....    BL       __aeabi_memclr ; 0x3d12
        0x00000b60:    a066        f.      ADR      r0,{pc}+0x19c ; 0xcfc
        0x00000b62:    f003fd49    ..I.    BL       __0printf ; 0x45f8
        0x00000b66:    bf00        ..      NOP      
        0x00000b68:    a16a        j.      ADR      r1,{pc}+0x1ac ; 0xd14
        0x00000b6a:    4869        iH      LDR      r0,[pc,#420] ; [0xd10] = 0x200010d0
        0x00000b6c:    f003f8e8    ....    BL       strstr ; 0x3d40
        0x00000b70:    495f        _I      LDR      r1,[pc,#380] ; [0xcf0] = 0x200000d4
        0x00000b72:    6008        .`      STR      r0,[r1,#0]
        0x00000b74:    4968        hI      LDR      r1,[pc,#416] ; [0xd18] = 0x81c
        0x00000b76:    4866        fH      LDR      r0,[pc,#408] ; [0xd10] = 0x200010d0
        0x00000b78:    f003f8e2    ....    BL       strstr ; 0x3d40
        0x00000b7c:    495d        ]I      LDR      r1,[pc,#372] ; [0xcf4] = 0x200000d8
        0x00000b7e:    6008        .`      STR      r0,[r1,#0]
        0x00000b80:    a17e        ~.      ADR      r1,{pc}+0x1fc ; 0xd7c
        0x00000b82:    4863        cH      LDR      r0,[pc,#396] ; [0xd10] = 0x200010d0
        0x00000b84:    f003f8dc    ....    BL       strstr ; 0x3d40
        0x00000b88:    495b        [I      LDR      r1,[pc,#364] ; [0xcf8] = 0x200000dc
        0x00000b8a:    6008        .`      STR      r0,[r1,#0]
        0x00000b8c:    4858        XH      LDR      r0,[pc,#352] ; [0xcf0] = 0x200000d4
        0x00000b8e:    6800        .h      LDR      r0,[r0,#0]
        0x00000b90:    2800        .(      CMP      r0,#0
        0x00000b92:    d10b        ..      BNE      0xbac ; sms_mc60 + 138
        0x00000b94:    4857        WH      LDR      r0,[pc,#348] ; [0xcf4] = 0x200000d8
        0x00000b96:    6800        .h      LDR      r0,[r0,#0]
        0x00000b98:    2800        .(      CMP      r0,#0
        0x00000b9a:    d107        ..      BNE      0xbac ; sms_mc60 + 138
        0x00000b9c:    4608        .F      MOV      r0,r1
        0x00000b9e:    6800        .h      LDR      r0,[r0,#0]
        0x00000ba0:    2800        .(      CMP      r0,#0
        0x00000ba2:    d103        ..      BNE      0xbac ; sms_mc60 + 138
        0x00000ba4:    485d        ]H      LDR      r0,[pc,#372] ; [0xd1c] = 0x200000ac
        0x00000ba6:    6800        .h      LDR      r0,[r0,#0]
        0x00000ba8:    2805        .(      CMP      r0,#5
        0x00000baa:    dbdd        ..      BLT      0xb68 ; sms_mc60 + 70
        0x00000bac:    2000        .       MOVS     r0,#0
        0x00000bae:    4971        qI      LDR      r1,[pc,#452] ; [0xd74] = 0x50004300
        0x00000bb0:    39c0        .9      SUBS     r1,r1,#0xc0
        0x00000bb2:    6088        .`      STR      r0,[r1,#8]
        0x00000bb4:    4959        YI      LDR      r1,[pc,#356] ; [0xd1c] = 0x200000ac
        0x00000bb6:    6008        .`      STR      r0,[r1,#0]
        0x00000bb8:    494d        MI      LDR      r1,[pc,#308] ; [0xcf0] = 0x200000d4
        0x00000bba:    6008        .`      STR      r0,[r1,#0]
        0x00000bbc:    494d        MI      LDR      r1,[pc,#308] ; [0xcf4] = 0x200000d8
        0x00000bbe:    6008        .`      STR      r0,[r1,#0]
        0x00000bc0:    494d        MI      LDR      r1,[pc,#308] ; [0xcf8] = 0x200000dc
        0x00000bc2:    6008        .`      STR      r0,[r1,#0]
        0x00000bc4:    4956        VI      LDR      r1,[pc,#344] ; [0xd20] = 0x200000a4
        0x00000bc6:    6008        .`      STR      r0,[r1,#0]
        0x00000bc8:    4956        VI      LDR      r1,[pc,#344] ; [0xd24] = 0x226
        0x00000bca:    4851        QH      LDR      r0,[pc,#324] ; [0xd10] = 0x200010d0
        0x00000bcc:    f003f8a1    ....    BL       __aeabi_memclr ; 0x3d12
        0x00000bd0:    a06d        m.      ADR      r0,{pc}+0x1b8 ; 0xd88
        0x00000bd2:    f003fd11    ....    BL       __0printf ; 0x45f8
        0x00000bd6:    bf00        ..      NOP      
        0x00000bd8:    a14e        N.      ADR      r1,{pc}+0x13c ; 0xd14
        0x00000bda:    484d        MH      LDR      r0,[pc,#308] ; [0xd10] = 0x200010d0
        0x00000bdc:    f003f8b0    ....    BL       strstr ; 0x3d40
        0x00000be0:    4943        CI      LDR      r1,[pc,#268] ; [0xcf0] = 0x200000d4
        0x00000be2:    6008        .`      STR      r0,[r1,#0]
        0x00000be4:    a166        f.      ADR      r1,{pc}+0x19c ; 0xd80
        0x00000be6:    484a        JH      LDR      r0,[pc,#296] ; [0xd10] = 0x200010d0
        0x00000be8:    f003f8aa    ....    BL       strstr ; 0x3d40
        0x00000bec:    4941        AI      LDR      r1,[pc,#260] ; [0xcf4] = 0x200000d8
        0x00000bee:    6008        .`      STR      r0,[r1,#0]
        0x00000bf0:    a162        b.      ADR      r1,{pc}+0x18c ; 0xd7c
        0x00000bf2:    4847        GH      LDR      r0,[pc,#284] ; [0xd10] = 0x200010d0
        0x00000bf4:    f003f8a4    ....    BL       strstr ; 0x3d40
        0x00000bf8:    493f        ?I      LDR      r1,[pc,#252] ; [0xcf8] = 0x200000dc
        0x00000bfa:    6008        .`      STR      r0,[r1,#0]
        0x00000bfc:    483c        <H      LDR      r0,[pc,#240] ; [0xcf0] = 0x200000d4
        0x00000bfe:    6800        .h      LDR      r0,[r0,#0]
        0x00000c00:    2800        .(      CMP      r0,#0
        0x00000c02:    d10b        ..      BNE      0xc1c ; sms_mc60 + 250
        0x00000c04:    483b        ;H      LDR      r0,[pc,#236] ; [0xcf4] = 0x200000d8
        0x00000c06:    6800        .h      LDR      r0,[r0,#0]
        0x00000c08:    2800        .(      CMP      r0,#0
        0x00000c0a:    d107        ..      BNE      0xc1c ; sms_mc60 + 250
        0x00000c0c:    4608        .F      MOV      r0,r1
        0x00000c0e:    6800        .h      LDR      r0,[r0,#0]
        0x00000c10:    2800        .(      CMP      r0,#0
        0x00000c12:    d103        ..      BNE      0xc1c ; sms_mc60 + 250
        0x00000c14:    4841        AH      LDR      r0,[pc,#260] ; [0xd1c] = 0x200000ac
        0x00000c16:    6800        .h      LDR      r0,[r0,#0]
        0x00000c18:    2805        .(      CMP      r0,#5
        0x00000c1a:    dbdd        ..      BLT      0xbd8 ; sms_mc60 + 182
        0x00000c1c:    4834        4H      LDR      r0,[pc,#208] ; [0xcf0] = 0x200000d4
        0x00000c1e:    6800        .h      LDR      r0,[r0,#0]
        0x00000c20:    2800        .(      CMP      r0,#0
        0x00000c22:    d109        ..      BNE      0xc38 ; sms_mc60 + 278
        0x00000c24:    4833        3H      LDR      r0,[pc,#204] ; [0xcf4] = 0x200000d8
        0x00000c26:    6800        .h      LDR      r0,[r0,#0]
        0x00000c28:    2800        .(      CMP      r0,#0
        0x00000c2a:    e000        ..      B        0xc2e ; sms_mc60 + 268
        0x00000c2c:    e162        b.      B        0xef4 ; sms_mc60 + 978
        0x00000c2e:    d103        ..      BNE      0xc38 ; sms_mc60 + 278
        0x00000c30:    4831        1H      LDR      r0,[pc,#196] ; [0xcf8] = 0x200000dc
        0x00000c32:    6800        .h      LDR      r0,[r0,#0]
        0x00000c34:    2800        .(      CMP      r0,#0
        0x00000c36:    d000        ..      BEQ      0xc3a ; sms_mc60 + 280
        0x00000c38:    2501        .%      MOVS     r5,#1
        0x00000c3a:    2000        .       MOVS     r0,#0
        0x00000c3c:    492e        .I      LDR      r1,[pc,#184] ; [0xcf8] = 0x200000dc
        0x00000c3e:    6008        .`      STR      r0,[r1,#0]
        0x00000c40:    492c        ,I      LDR      r1,[pc,#176] ; [0xcf4] = 0x200000d8
        0x00000c42:    6008        .`      STR      r0,[r1,#0]
        0x00000c44:    492a        *I      LDR      r1,[pc,#168] ; [0xcf0] = 0x200000d4
        0x00000c46:    6008        .`      STR      r0,[r1,#0]
        0x00000c48:    210f        .!      MOVS     r1,#0xf
        0x00000c4a:    4853        SH      LDR      r0,[pc,#332] ; [0xd98] = 0x20000173
        0x00000c4c:    f003f861    ..a.    BL       __aeabi_memclr ; 0x3d12
        0x00000c50:    4851        QH      LDR      r0,[pc,#324] ; [0xd98] = 0x20000173
        0x00000c52:    2122        "!      MOVS     r1,#0x22
        0x00000c54:    460b        .F      MOV      r3,r1
        0x00000c56:    2204        ."      MOVS     r2,#4
        0x00000c58:    9100        ..      STR      r1,[sp,#0]
        0x00000c5a:    9001        ..      STR      r0,[sp,#4]
        0x00000c5c:    2103        .!      MOVS     r1,#3
        0x00000c5e:    482c        ,H      LDR      r0,[pc,#176] ; [0xd10] = 0x200010d0
        0x00000c60:    f004fcb8    ....    BL       parse_g ; 0x55d4
        0x00000c64:    a14d        M.      ADR      r1,{pc}+0x138 ; 0xd9c
        0x00000c66:    482a        *H      LDR      r0,[pc,#168] ; [0xd10] = 0x200010d0
        0x00000c68:    f003f86a    ..j.    BL       strstr ; 0x3d40
        0x00000c6c:    2800        .(      CMP      r0,#0
        0x00000c6e:    d001        ..      BEQ      0xc74 ; sms_mc60 + 338
        0x00000c70:    2407        .$      MOVS     r4,#7
        0x00000c72:    e126        &.      B        0xec2 ; sms_mc60 + 928
        0x00000c74:    a14a        J.      ADR      r1,{pc}+0x12c ; 0xda0
        0x00000c76:    4826        &H      LDR      r0,[pc,#152] ; [0xd10] = 0x200010d0
        0x00000c78:    f003f862    ..b.    BL       strstr ; 0x3d40
        0x00000c7c:    2800        .(      CMP      r0,#0
        0x00000c7e:    d004        ..      BEQ      0xc8a ; sms_mc60 + 360
        0x00000c80:    2408        .$      MOVS     r4,#8
        0x00000c82:    2000        .       MOVS     r0,#0
        0x00000c84:    494a        JI      LDR      r1,[pc,#296] ; [0xdb0] = 0x20000008
        0x00000c86:    6008        .`      STR      r0,[r1,#0]
        0x00000c88:    e11b        ..      B        0xec2 ; sms_mc60 + 928
        0x00000c8a:    a14a        J.      ADR      r1,{pc}+0x12a ; 0xdb4
        0x00000c8c:    4820         H      LDR      r0,[pc,#128] ; [0xd10] = 0x200010d0
        0x00000c8e:    f003f857    ..W.    BL       strstr ; 0x3d40
        0x00000c92:    2800        .(      CMP      r0,#0
        0x00000c94:    d004        ..      BEQ      0xca0 ; sms_mc60 + 382
        0x00000c96:    2409        .$      MOVS     r4,#9
        0x00000c98:    2001        .       MOVS     r0,#1
        0x00000c9a:    4945        EI      LDR      r1,[pc,#276] ; [0xdb0] = 0x20000008
        0x00000c9c:    6008        .`      STR      r0,[r1,#0]
        0x00000c9e:    e110        ..      B        0xec2 ; sms_mc60 + 928
        0x00000ca0:    a147        G.      ADR      r1,{pc}+0x120 ; 0xdc0
        0x00000ca2:    481b        .H      LDR      r0,[pc,#108] ; [0xd10] = 0x200010d0
        0x00000ca4:    f003f84c    ..L.    BL       strstr ; 0x3d40
        0x00000ca8:    2800        .(      CMP      r0,#0
        0x00000caa:    d00f        ..      BEQ      0xccc ; sms_mc60 + 426
        0x00000cac:    2401        .$      MOVS     r4,#1
        0x00000cae:    210f        .!      MOVS     r1,#0xf
        0x00000cb0:    4845        EH      LDR      r0,[pc,#276] ; [0xdc8] = 0x20000164
        0x00000cb2:    f003f82e    ....    BL       __aeabi_memclr ; 0x3d12
        0x00000cb6:    4844        DH      LDR      r0,[pc,#272] ; [0xdc8] = 0x20000164
        0x00000cb8:    2129        )!      MOVS     r1,#0x29
        0x00000cba:    2328        (#      MOVS     r3,#0x28
        0x00000cbc:    2201        ."      MOVS     r2,#1
        0x00000cbe:    9100        ..      STR      r1,[sp,#0]
        0x00000cc0:    9001        ..      STR      r0,[sp,#4]
        0x00000cc2:    4611        .F      MOV      r1,r2
        0x00000cc4:    4812        .H      LDR      r0,[pc,#72] ; [0xd10] = 0x200010d0
        0x00000cc6:    f004fc85    ....    BL       parse_g ; 0x55d4
        0x00000cca:    e0fa        ..      B        0xec2 ; sms_mc60 + 928
        0x00000ccc:    a13f        ?.      ADR      r1,{pc}+0x100 ; 0xdcc
        0x00000cce:    4810        .H      LDR      r0,[pc,#64] ; [0xd10] = 0x200010d0
        0x00000cd0:    f003f836    ..6.    BL       strstr ; 0x3d40
        0x00000cd4:    2800        .(      CMP      r0,#0
        0x00000cd6:    d07d        }.      BEQ      0xdd4 ; sms_mc60 + 690
        0x00000cd8:    2402        .$      MOVS     r4,#2
        0x00000cda:    210f        .!      MOVS     r1,#0xf
        0x00000cdc:    483a        :H      LDR      r0,[pc,#232] ; [0xdc8] = 0x20000164
        0x00000cde:    f003f818    ....    BL       __aeabi_memclr ; 0x3d12
        0x00000ce2:    4839        9H      LDR      r0,[pc,#228] ; [0xdc8] = 0x20000164
        0x00000ce4:    2129        )!      MOVS     r1,#0x29
        0x00000ce6:    2328        (#      MOVS     r3,#0x28
        0x00000ce8:    2201        ."      MOVS     r2,#1
        0x00000cea:    9100        ..      STR      r1,[sp,#0]
        0x00000cec:    9001        ..      STR      r0,[sp,#4]
        0x00000cee:    e072        r.      B        0xdd6 ; sms_mc60 + 692
    $d
        0x00000cf0:    200000d4    ...     DCD    536871124
        0x00000cf4:    200000d8    ...     DCD    536871128
        0x00000cf8:    200000dc    ...     DCD    536871132
        0x00000cfc:    54410a0d    ..AT    DCD    1413548557
        0x00000d00:    474d432b    +CMG    DCD    1196245803
        0x00000d04:    0d313d46    F=1.    DCD    221330758
        0x00000d08:    000a0d0a    ....    DCD    658698
        0x00000d0c:    0000003e    >...    DCD    62
        0x00000d10:    200010d0    ...     DCD    536875216
        0x00000d14:    00004b4f    OK..    DCD    19279
        0x00000d18:    0000081c    ....    DCD    2076
        0x00000d1c:    200000ac    ...     DCD    536871084
        0x00000d20:    200000a4    ...     DCD    536871076
        0x00000d24:    00000226    &...    DCD    550
        0x00000d28:    54410a0d    ..AT    DCD    1413548557
        0x00000d2c:    4353432b    +CSC    DCD    1129530155
        0x00000d30:    47223d53    S="G    DCD    1193426259
        0x00000d34:    0d224d53    SM".    DCD    220351827
        0x00000d38:    000a0d0a    ....    DCD    658698
        0x00000d3c:    54410a0d    ..AT    DCD    1413548557
        0x00000d40:    474d432b    +CMG    DCD    1196245803
        0x00000d44:    25223d53    S="%    DCD    623000915
        0x00000d48:    0a0d2273    s"..    DCD    168632947
        0x00000d4c:    00000a0d    ....    DCD    2573
        0x00000d50:    200001fa    ...     DCD    536871418
        0x00000d54:    63256325    %c%c    DCD    1663394597
        0x00000d58:    63256325    %c%c    DCD    1663394597
        0x00000d5c:    00006325    %c..    DCD    25381
        0x00000d60:    53474d43    CMGS    DCD    1397181763
        0x00000d64:    00000000    ....    DCD    0
        0x00000d68:    20000080    ...     DCD    536871040
        0x00000d6c:    20000011    ...     DCD    536870929
        0x00000d70:    20000043    C..     DCD    536870979
        0x00000d74:    50004300    .C.P    DCD    1342194432
        0x00000d78:    200000d0    ...     DCD    536871120
        0x00000d7c:    20534d43    CMS     DCD    542330179
        0x00000d80:    4f525245    ERRO    DCD    1330795077
        0x00000d84:    00000052    R...    DCD    82
        0x00000d88:    54410a0d    ..AT    DCD    1413548557
        0x00000d8c:    474d432b    +CMG    DCD    1196245803
        0x00000d90:    0d313d52    R=1.    DCD    221330770
        0x00000d94:    000a0d0a    ....    DCD    658698
        0x00000d98:    20000173    s..     DCD    536871283
        0x00000d9c:    00005049    IP..    DCD    20553
        0x00000da0:    494e4749    IGNI    DCD    1229866825
        0x00000da4:    4e4f4954    TION    DCD    1313818964
        0x00000da8:    46464f20     OFF    DCD    1179012896
        0x00000dac:    00000000    ....    DCD    0
        0x00000db0:    20000008    ...     DCD    536870920
        0x00000db4:    494e4749    IGNI    DCD    1229866825
        0x00000db8:    4e4f4954    TION    DCD    1313818964
        0x00000dbc:    004e4f20     ON.    DCD    5132064
        0x00000dc0:    454e574f    OWNE    DCD    1162762063
        0x00000dc4:    00003152    R1..    DCD    12626
        0x00000dc8:    20000164    d..     DCD    536871268
        0x00000dcc:    454e574f    OWNE    DCD    1162762063
        0x00000dd0:    00003252    R2..    DCD    12882
    $t
        0x00000dd4:    e004        ..      B        0xde0 ; sms_mc60 + 702
        0x00000dd6:    4611        .F      MOV      r1,r2
        0x00000dd8:    48fe        .H      LDR      r0,[pc,#1016] ; [0x11d4] = 0x200010d0
        0x00000dda:    f004fbfb    ....    BL       parse_g ; 0x55d4
        0x00000dde:    e070        p.      B        0xec2 ; sms_mc60 + 928
        0x00000de0:    a1fd        ..      ADR      r1,{pc}+0x3f8 ; 0x11d8
        0x00000de2:    48fc        .H      LDR      r0,[pc,#1008] ; [0x11d4] = 0x200010d0
        0x00000de4:    f002ffac    ....    BL       strstr ; 0x3d40
        0x00000de8:    2800        .(      CMP      r0,#0
        0x00000dea:    d00f        ..      BEQ      0xe0c ; sms_mc60 + 746
        0x00000dec:    2403        .$      MOVS     r4,#3
        0x00000dee:    210f        .!      MOVS     r1,#0xf
        0x00000df0:    48fb        .H      LDR      r0,[pc,#1004] ; [0x11e0] = 0x20000164
        0x00000df2:    f002ff8e    ....    BL       __aeabi_memclr ; 0x3d12
        0x00000df6:    48fa        .H      LDR      r0,[pc,#1000] ; [0x11e0] = 0x20000164
        0x00000df8:    2129        )!      MOVS     r1,#0x29
        0x00000dfa:    2328        (#      MOVS     r3,#0x28
        0x00000dfc:    2201        ."      MOVS     r2,#1
        0x00000dfe:    9100        ..      STR      r1,[sp,#0]
        0x00000e00:    9001        ..      STR      r0,[sp,#4]
        0x00000e02:    4611        .F      MOV      r1,r2
        0x00000e04:    48f3        .H      LDR      r0,[pc,#972] ; [0x11d4] = 0x200010d0
        0x00000e06:    f004fbe5    ....    BL       parse_g ; 0x55d4
        0x00000e0a:    e05a        Z.      B        0xec2 ; sms_mc60 + 928
        0x00000e0c:    a1f5        ..      ADR      r1,{pc}+0x3d8 ; 0x11e4
        0x00000e0e:    48f1        .H      LDR      r0,[pc,#964] ; [0x11d4] = 0x200010d0
        0x00000e10:    f002ff96    ....    BL       strstr ; 0x3d40
        0x00000e14:    2800        .(      CMP      r0,#0
        0x00000e16:    d00f        ..      BEQ      0xe38 ; sms_mc60 + 790
        0x00000e18:    2404        .$      MOVS     r4,#4
        0x00000e1a:    210f        .!      MOVS     r1,#0xf
        0x00000e1c:    48f0        .H      LDR      r0,[pc,#960] ; [0x11e0] = 0x20000164
        0x00000e1e:    f002ff78    ..x.    BL       __aeabi_memclr ; 0x3d12
        0x00000e22:    48ef        .H      LDR      r0,[pc,#956] ; [0x11e0] = 0x20000164
        0x00000e24:    2129        )!      MOVS     r1,#0x29
        0x00000e26:    2328        (#      MOVS     r3,#0x28
        0x00000e28:    2201        ."      MOVS     r2,#1
        0x00000e2a:    9100        ..      STR      r1,[sp,#0]
        0x00000e2c:    9001        ..      STR      r0,[sp,#4]
        0x00000e2e:    4611        .F      MOV      r1,r2
        0x00000e30:    48e8        .H      LDR      r0,[pc,#928] ; [0x11d4] = 0x200010d0
        0x00000e32:    f004fbcf    ....    BL       parse_g ; 0x55d4
        0x00000e36:    e044        D.      B        0xec2 ; sms_mc60 + 928
        0x00000e38:    a1ec        ..      ADR      r1,{pc}+0x3b4 ; 0x11ec
        0x00000e3a:    48e6        .H      LDR      r0,[pc,#920] ; [0x11d4] = 0x200010d0
        0x00000e3c:    f002ff80    ....    BL       strstr ; 0x3d40
        0x00000e40:    2800        .(      CMP      r0,#0
        0x00000e42:    d001        ..      BEQ      0xe48 ; sms_mc60 + 806
        0x00000e44:    2405        .$      MOVS     r4,#5
        0x00000e46:    e03c        <.      B        0xec2 ; sms_mc60 + 928
        0x00000e48:    a1ea        ..      ADR      r1,{pc}+0x3ac ; 0x11f4
        0x00000e4a:    48e2        .H      LDR      r0,[pc,#904] ; [0x11d4] = 0x200010d0
        0x00000e4c:    f002ff78    ..x.    BL       strstr ; 0x3d40
        0x00000e50:    2800        .(      CMP      r0,#0
        0x00000e52:    d021        !.      BEQ      0xe98 ; sms_mc60 + 886
        0x00000e54:    2406        .$      MOVS     r4,#6
        0x00000e56:    21c8        .!      MOVS     r1,#0xc8
        0x00000e58:    48e8        .H      LDR      r0,[pc,#928] ; [0x11fc] = 0x200001fa
        0x00000e5a:    f002ff5a    ..Z.    BL       __aeabi_memclr ; 0x3d12
        0x00000e5e:    48e7        .H      LDR      r0,[pc,#924] ; [0x11fc] = 0x200001fa
        0x00000e60:    2129        )!      MOVS     r1,#0x29
        0x00000e62:    2328        (#      MOVS     r3,#0x28
        0x00000e64:    2201        ."      MOVS     r2,#1
        0x00000e66:    9100        ..      STR      r1,[sp,#0]
        0x00000e68:    9001        ..      STR      r0,[sp,#4]
        0x00000e6a:    4611        .F      MOV      r1,r2
        0x00000e6c:    48d9        .H      LDR      r0,[pc,#868] ; [0x11d4] = 0x200010d0
        0x00000e6e:    f004fbb1    ....    BL       parse_g ; 0x55d4
        0x00000e72:    a1e3        ..      ADR      r1,{pc}+0x38e ; 0x1200
        0x00000e74:    48e1        .H      LDR      r0,[pc,#900] ; [0x11fc] = 0x200001fa
        0x00000e76:    f002ff57    ..W.    BL       strcat ; 0x3d28
        0x00000e7a:    210f        .!      MOVS     r1,#0xf
        0x00000e7c:    48d8        .H      LDR      r0,[pc,#864] ; [0x11e0] = 0x20000164
        0x00000e7e:    f002ff48    ..H.    BL       __aeabi_memclr ; 0x3d12
        0x00000e82:    48d7        .H      LDR      r0,[pc,#860] ; [0x11e0] = 0x20000164
        0x00000e84:    2122        "!      MOVS     r1,#0x22
        0x00000e86:    460b        .F      MOV      r3,r1
        0x00000e88:    2204        ."      MOVS     r2,#4
        0x00000e8a:    9100        ..      STR      r1,[sp,#0]
        0x00000e8c:    9001        ..      STR      r0,[sp,#4]
        0x00000e8e:    2103        .!      MOVS     r1,#3
        0x00000e90:    48d0        .H      LDR      r0,[pc,#832] ; [0x11d4] = 0x200010d0
        0x00000e92:    f004fb9f    ....    BL       parse_g ; 0x55d4
        0x00000e96:    e014        ..      B        0xec2 ; sms_mc60 + 928
        0x00000e98:    a1db        ..      ADR      r1,{pc}+0x370 ; 0x1208
        0x00000e9a:    48ce        .H      LDR      r0,[pc,#824] ; [0x11d4] = 0x200010d0
        0x00000e9c:    f002ff50    ..P.    BL       strstr ; 0x3d40
        0x00000ea0:    2800        .(      CMP      r0,#0
        0x00000ea2:    d00e        ..      BEQ      0xec2 ; sms_mc60 + 928
        0x00000ea4:    240a        .$      MOVS     r4,#0xa
        0x00000ea6:    210f        .!      MOVS     r1,#0xf
        0x00000ea8:    48d8        .H      LDR      r0,[pc,#864] ; [0x120c] = 0x2000141d
        0x00000eaa:    f002ff32    ..2.    BL       __aeabi_memclr ; 0x3d12
        0x00000eae:    48d7        .H      LDR      r0,[pc,#860] ; [0x120c] = 0x2000141d
        0x00000eb0:    2129        )!      MOVS     r1,#0x29
        0x00000eb2:    2328        (#      MOVS     r3,#0x28
        0x00000eb4:    2201        ."      MOVS     r2,#1
        0x00000eb6:    9100        ..      STR      r1,[sp,#0]
        0x00000eb8:    9001        ..      STR      r0,[sp,#4]
        0x00000eba:    4611        .F      MOV      r1,r2
        0x00000ebc:    48c5        .H      LDR      r0,[pc,#788] ; [0x11d4] = 0x200010d0
        0x00000ebe:    f004fb89    ....    BL       parse_g ; 0x55d4
        0x00000ec2:    4ace        .J      LDR      r2,[pc,#824] ; [0x11fc] = 0x200001fa
        0x00000ec4:    49c6        .I      LDR      r1,[pc,#792] ; [0x11e0] = 0x20000164
        0x00000ec6:    4620         F      MOV      r0,r4
        0x00000ec8:    f7fffa89    ....    BL       smsrequest ; 0x3de
        0x00000ecc:    2d01        .-      CMP      r5,#1
        0x00000ece:    d10a        ..      BNE      0xee6 ; sms_mc60 + 964
        0x00000ed0:    2000        .       MOVS     r0,#0
        0x00000ed2:    49cf        .I      LDR      r1,[pc,#828] ; [0x1210] = 0x200000d0
        0x00000ed4:    7008        .p      STRB     r0,[r1,#0]
        0x00000ed6:    200a        .       MOVS     r0,#0xa
        0x00000ed8:    a3ce        ..      ADR      r3,{pc}+0x33c ; 0x1214
        0x00000eda:    4ad0        .J      LDR      r2,[pc,#832] ; [0x121c] = 0xd80
        0x00000edc:    a1d0        ..      ADR      r1,{pc}+0x344 ; 0x1220
        0x00000ede:    9000        ..      STR      r0,[sp,#0]
        0x00000ee0:    a0d0        ..      ADR      r0,{pc}+0x344 ; 0x1224
        0x00000ee2:    f000fc13    ....    BL       SendAT ; 0x170c
        0x00000ee6:    48d4        .H      LDR      r0,[pc,#848] ; [0x1238] = 0x20000080
        0x00000ee8:    6800        .h      LDR      r0,[r0,#0]
        0x00000eea:    f004faa9    ....    BL       osMutexRelease ; 0x5440
        0x00000eee:    200a        .       MOVS     r0,#0xa
        0x00000ef0:    f004fa26    ..&.    BL       osDelay ; 0x5340
        0x00000ef4:    bd7c        |.      POP      {r2-r6,pc}
    fileclose
        0x00000ef6:    b508        ..      PUSH     {r3,lr}
        0x00000ef8:    2164        d!      MOVS     r1,#0x64
        0x00000efa:    48d0        .H      LDR      r0,[pc,#832] ; [0x123c] = 0x2000133c
        0x00000efc:    f002ff09    ....    BL       __aeabi_memclr ; 0x3d12
        0x00000f00:    4acf        .J      LDR      r2,[pc,#828] ; [0x1240] = 0x200001e6
        0x00000f02:    a1d0        ..      ADR      r1,{pc}+0x342 ; 0x1244
        0x00000f04:    48cd        .H      LDR      r0,[pc,#820] ; [0x123c] = 0x2000133c
        0x00000f06:    f003fb87    ....    BL       __0sprintf ; 0x4618
        0x00000f0a:    200a        .       MOVS     r0,#0xa
        0x00000f0c:    4bc3        .K      LDR      r3,[pc,#780] ; [0x121c] = 0xd80
        0x00000f0e:    a2c4        ..      ADR      r2,{pc}+0x312 ; 0x1220
        0x00000f10:    a1d1        ..      ADR      r1,{pc}+0x348 ; 0x1258
        0x00000f12:    9000        ..      STR      r0,[sp,#0]
        0x00000f14:    48c9        .H      LDR      r0,[pc,#804] ; [0x123c] = 0x2000133c
        0x00000f16:    f000fbf9    ....    BL       SendAT ; 0x170c
        0x00000f1a:    2114        .!      MOVS     r1,#0x14
        0x00000f1c:    48c8        .H      LDR      r0,[pc,#800] ; [0x1240] = 0x200001e6
        0x00000f1e:    f002fef8    ....    BL       __aeabi_memclr ; 0x3d12
        0x00000f22:    bd08        ..      POP      {r3,pc}
    Save_FS
        0x00000f24:    b538        8.      PUSH     {r3-r5,lr}
        0x00000f26:    2400        .$      MOVS     r4,#0
        0x00000f28:    1e61        a.      SUBS     r1,r4,#1
        0x00000f2a:    48c3        .H      LDR      r0,[pc,#780] ; [0x1238] = 0x20000080
        0x00000f2c:    6800        .h      LDR      r0,[r0,#0]
        0x00000f2e:    f004fa95    ....    BL       osMutexWait ; 0x545c
        0x00000f32:    f004f91d    ....    BL       fileopen ; 0x5170
        0x00000f36:    2005        .       MOVS     r0,#5
        0x00000f38:    4bb8        .K      LDR      r3,[pc,#736] ; [0x121c] = 0xd80
        0x00000f3a:    a2b9        ..      ADR      r2,{pc}+0x2e6 ; 0x1220
        0x00000f3c:    a1c9        ..      ADR      r1,{pc}+0x328 ; 0x1264
        0x00000f3e:    9000        ..      STR      r0,[sp,#0]
        0x00000f40:    a0ca        ..      ADR      r0,{pc}+0x32c ; 0x126c
        0x00000f42:    f000fbe3    ....    BL       SendAT ; 0x170c
        0x00000f46:    2164        d!      MOVS     r1,#0x64
        0x00000f48:    48bc        .H      LDR      r0,[pc,#752] ; [0x123c] = 0x2000133c
        0x00000f4a:    f002fee2    ....    BL       __aeabi_memclr ; 0x3d12
        0x00000f4e:    4abc        .J      LDR      r2,[pc,#752] ; [0x1240] = 0x200001e6
        0x00000f50:    a1cb        ..      ADR      r1,{pc}+0x330 ; 0x1280
        0x00000f52:    48ba        .H      LDR      r0,[pc,#744] ; [0x123c] = 0x2000133c
        0x00000f54:    f003fb60    ..`.    BL       __0sprintf ; 0x4618
        0x00000f58:    200a        .       MOVS     r0,#0xa
        0x00000f5a:    4bb0        .K      LDR      r3,[pc,#704] ; [0x121c] = 0xd80
        0x00000f5c:    a2b0        ..      ADR      r2,{pc}+0x2c4 ; 0x1220
        0x00000f5e:    a1ce        ..      ADR      r1,{pc}+0x33a ; 0x1298
        0x00000f60:    9000        ..      STR      r0,[sp,#0]
        0x00000f62:    48b6        .H      LDR      r0,[pc,#728] ; [0x123c] = 0x2000133c
        0x00000f64:    f000fbd2    ....    BL       SendAT ; 0x170c
        0x00000f68:    48cd        .H      LDR      r0,[pc,#820] ; [0x12a0] = 0x20000324
        0x00000f6a:    f002fefd    ....    BL       strlen ; 0x3d68
        0x00000f6e:    4604        .F      MOV      r4,r0
        0x00000f70:    a1cc        ..      ADR      r1,{pc}+0x334 ; 0x12a4
        0x00000f72:    48cb        .H      LDR      r0,[pc,#812] ; [0x12a0] = 0x20000324
        0x00000f74:    f002fed8    ....    BL       strcat ; 0x3d28
        0x00000f78:    48c9        .H      LDR      r0,[pc,#804] ; [0x12a0] = 0x20000324
        0x00000f7a:    f002fef5    ....    BL       strlen ; 0x3d68
        0x00000f7e:    4604        .F      MOV      r4,r0
        0x00000f80:    2243        C"      MOVS     r2,#0x43
        0x00000f82:    217e        ~!      MOVS     r1,#0x7e
        0x00000f84:    48c6        .H      LDR      r0,[pc,#792] ; [0x12a0] = 0x20000324
        0x00000f86:    f005fa99    ....    BL       strreplace ; 0x64bc
        0x00000f8a:    2248        H"      MOVS     r2,#0x48
        0x00000f8c:    2160        `!      MOVS     r1,#0x60
        0x00000f8e:    48c4        .H      LDR      r0,[pc,#784] ; [0x12a0] = 0x20000324
        0x00000f90:    f005fa94    ....    BL       strreplace ; 0x64bc
        0x00000f94:    220a        ."      MOVS     r2,#0xa
        0x00000f96:    211a        .!      MOVS     r1,#0x1a
        0x00000f98:    48c1        .H      LDR      r0,[pc,#772] ; [0x12a0] = 0x20000324
        0x00000f9a:    f005fa8f    ....    BL       strreplace ; 0x64bc
        0x00000f9e:    2164        d!      MOVS     r1,#0x64
        0x00000fa0:    48a6        .H      LDR      r0,[pc,#664] ; [0x123c] = 0x2000133c
        0x00000fa2:    f002feb6    ....    BL       __aeabi_memclr ; 0x3d12
        0x00000fa6:    4623        #F      MOV      r3,r4
        0x00000fa8:    4aa5        .J      LDR      r2,[pc,#660] ; [0x1240] = 0x200001e6
        0x00000faa:    a1c0        ..      ADR      r1,{pc}+0x302 ; 0x12ac
        0x00000fac:    48a3        .H      LDR      r0,[pc,#652] ; [0x123c] = 0x2000133c
        0x00000fae:    f003fb33    ..3.    BL       __0sprintf ; 0x4618
        0x00000fb2:    2002        .       MOVS     r0,#2
        0x00000fb4:    4b99        .K      LDR      r3,[pc,#612] ; [0x121c] = 0xd80
        0x00000fb6:    a29a        ..      ADR      r2,{pc}+0x26a ; 0x1220
        0x00000fb8:    a1b7        ..      ADR      r1,{pc}+0x2e0 ; 0x1298
        0x00000fba:    9000        ..      STR      r0,[sp,#0]
        0x00000fbc:    489f        .H      LDR      r0,[pc,#636] ; [0x123c] = 0x2000133c
        0x00000fbe:    f000fba5    ....    BL       SendAT ; 0x170c
        0x00000fc2:    48b7        .H      LDR      r0,[pc,#732] ; [0x12a0] = 0x20000324
        0x00000fc4:    f002fed0    ....    BL       strlen ; 0x3d68
        0x00000fc8:    4604        .F      MOV      r4,r0
        0x00000fca:    221a        ."      MOVS     r2,#0x1a
        0x00000fcc:    210d        .!      MOVS     r1,#0xd
        0x00000fce:    48b4        .H      LDR      r0,[pc,#720] ; [0x12a0] = 0x20000324
        0x00000fd0:    f7fff9e4    ....    BL       remove_all_chars ; 0x39c
        0x00000fd4:    2005        .       MOVS     r0,#5
        0x00000fd6:    4b91        .K      LDR      r3,[pc,#580] ; [0x121c] = 0xd80
        0x00000fd8:    a291        ..      ADR      r2,{pc}+0x248 ; 0x1220
        0x00000fda:    a1ba        ..      ADR      r1,{pc}+0x2ea ; 0x12c4
        0x00000fdc:    9000        ..      STR      r0,[sp,#0]
        0x00000fde:    48b0        .H      LDR      r0,[pc,#704] ; [0x12a0] = 0x20000324
        0x00000fe0:    f000ff60    ..`.    BL       SendAT_FS ; 0x1ea4
        0x00000fe4:    a1b9        ..      ADR      r1,{pc}+0x2e8 ; 0x12cc
        0x00000fe6:    487b        {H      LDR      r0,[pc,#492] ; [0x11d4] = 0x200010d0
        0x00000fe8:    f002feaa    ....    BL       strstr ; 0x3d40
        0x00000fec:    2800        .(      CMP      r0,#0
        0x00000fee:    d003        ..      BEQ      0xff8 ; Save_FS + 212
        0x00000ff0:    49b9        .I      LDR      r1,[pc,#740] ; [0x12d8] = 0xdac
        0x00000ff2:    48ab        .H      LDR      r0,[pc,#684] ; [0x12a0] = 0x20000324
        0x00000ff4:    f002fe8d    ....    BL       __aeabi_memclr ; 0x3d12
        0x00000ff8:    f7ffff7d    ..}.    BL       fileclose ; 0xef6
        0x00000ffc:    488e        .H      LDR      r0,[pc,#568] ; [0x1238] = 0x20000080
        0x00000ffe:    6800        .h      LDR      r0,[r0,#0]
        0x00001000:    f004fa1e    ....    BL       osMutexRelease ; 0x5440
        0x00001004:    bd38        8.      POP      {r3-r5,pc}
    Init_Thread
        0x00001006:    b510        ..      PUSH     {r4,lr}
        0x00001008:    2100        .!      MOVS     r1,#0
        0x0000100a:    48b4        .H      LDR      r0,[pc,#720] ; [0x12dc] = 0x6928
        0x0000100c:    f004fa5e    ..^.    BL       osThreadCreate ; 0x54cc
        0x00001010:    49b3        .I      LDR      r1,[pc,#716] ; [0x12e0] = 0x20000058
        0x00001012:    6008        .`      STR      r0,[r1,#0]
        0x00001014:    4608        .F      MOV      r0,r1
        0x00001016:    6800        .h      LDR      r0,[r0,#0]
        0x00001018:    2800        .(      CMP      r0,#0
        0x0000101a:    d101        ..      BNE      0x1020 ; Init_Thread + 26
        0x0000101c:    1e40        @.      SUBS     r0,r0,#1
        0x0000101e:    bd10        ..      POP      {r4,pc}
        0x00001020:    2000        .       MOVS     r0,#0
        0x00001022:    e7fc        ..      B        0x101e ; Init_Thread + 24
    Thread
        0x00001024:    b50e        ..      PUSH     {r1-r3,lr}
        0x00001026:    e097        ..      B        0x1158 ; Thread + 308
        0x00001028:    2001        .       MOVS     r0,#1
        0x0000102a:    4b7c        |K      LDR      r3,[pc,#496] ; [0x121c] = 0xd80
        0x0000102c:    a2ad        ..      ADR      r2,{pc}+0x2b8 ; 0x12e4
        0x0000102e:    a17c        |.      ADR      r1,{pc}+0x1f2 ; 0x1220
        0x00001030:    9000        ..      STR      r0,[sp,#0]
        0x00001032:    a0b0        ..      ADR      r0,{pc}+0x2c2 ; 0x12f4
        0x00001034:    f000fb6a    ..j.    BL       SendAT ; 0x170c
        0x00001038:    f000fe5d    ..].    BL       cpinquerry ; 0x1cf6
        0x0000103c:    48b1        .H      LDR      r0,[pc,#708] ; [0x1304] = 0x200000b9
        0x0000103e:    7800        .x      LDRB     r0,[r0,#0]
        0x00001040:    2801        .(      CMP      r0,#1
        0x00001042:    d12d        -.      BNE      0x10a0 ; Thread + 124
        0x00001044:    f000feb5    ....    BL       cregquerry ; 0x1db2
        0x00001048:    48af        .H      LDR      r0,[pc,#700] ; [0x1308] = 0x200000ba
        0x0000104a:    7800        .x      LDRB     r0,[r0,#0]
        0x0000104c:    2801        .(      CMP      r0,#1
        0x0000104e:    d127        '.      BNE      0x10a0 ; Thread + 124
        0x00001050:    2005        .       MOVS     r0,#5
        0x00001052:    4b72        rK      LDR      r3,[pc,#456] ; [0x121c] = 0xd80
        0x00001054:    a272        r.      ADR      r2,{pc}+0x1cc ; 0x1220
        0x00001056:    a183        ..      ADR      r1,{pc}+0x20e ; 0x1264
        0x00001058:    9000        ..      STR      r0,[sp,#0]
        0x0000105a:    a0ac        ..      ADR      r0,{pc}+0x2b2 ; 0x130c
        0x0000105c:    f000fb56    ..V.    BL       SendAT ; 0x170c
        0x00001060:    2005        .       MOVS     r0,#5
        0x00001062:    4b6e        nK      LDR      r3,[pc,#440] ; [0x121c] = 0xd80
        0x00001064:    a26e        n.      ADR      r2,{pc}+0x1bc ; 0x1220
        0x00001066:    a17f        ..      ADR      r1,{pc}+0x1fe ; 0x1264
        0x00001068:    9000        ..      STR      r0,[sp,#0]
        0x0000106a:    a0ac        ..      ADR      r0,{pc}+0x2b2 ; 0x131c
        0x0000106c:    f000fb4e    ..N.    BL       SendAT ; 0x170c
        0x00001070:    2005        .       MOVS     r0,#5
        0x00001072:    4b6a        jK      LDR      r3,[pc,#424] ; [0x121c] = 0xd80
        0x00001074:    a26a        j.      ADR      r2,{pc}+0x1ac ; 0x1220
        0x00001076:    a17b        {.      ADR      r1,{pc}+0x1ee ; 0x1264
        0x00001078:    9000        ..      STR      r0,[sp,#0]
        0x0000107a:    a0af        ..      ADR      r0,{pc}+0x2be ; 0x1338
        0x0000107c:    f000fb46    ..F.    BL       SendAT ; 0x170c
        0x00001080:    2005        .       MOVS     r0,#5
        0x00001082:    4b66        fK      LDR      r3,[pc,#408] ; [0x121c] = 0xd80
        0x00001084:    a266        f.      ADR      r2,{pc}+0x19c ; 0x1220
        0x00001086:    a177        w.      ADR      r1,{pc}+0x1de ; 0x1264
        0x00001088:    9000        ..      STR      r0,[sp,#0]
        0x0000108a:    a0b0        ..      ADR      r0,{pc}+0x2c2 ; 0x134c
        0x0000108c:    f000fb3e    ..>.    BL       SendAT ; 0x170c
        0x00001090:    2002        .       MOVS     r0,#2
        0x00001092:    4b62        bK      LDR      r3,[pc,#392] ; [0x121c] = 0xd80
        0x00001094:    a262        b.      ADR      r2,{pc}+0x18c ; 0x1220
        0x00001096:    a1b1        ..      ADR      r1,{pc}+0x2c6 ; 0x135c
        0x00001098:    9000        ..      STR      r0,[sp,#0]
        0x0000109a:    a0b1        ..      ADR      r0,{pc}+0x2c6 ; 0x1360
        0x0000109c:    f000fb36    ..6.    BL       SendAT ; 0x170c
        0x000010a0:    2005        .       MOVS     r0,#5
        0x000010a2:    4b5e        ^K      LDR      r3,[pc,#376] ; [0x121c] = 0xd80
        0x000010a4:    a25e        ^.      ADR      r2,{pc}+0x17c ; 0x1220
        0x000010a6:    a16f        o.      ADR      r1,{pc}+0x1be ; 0x1264
        0x000010a8:    9000        ..      STR      r0,[sp,#0]
        0x000010aa:    a0b2        ..      ADR      r0,{pc}+0x2ca ; 0x1374
        0x000010ac:    f000fb2e    ....    BL       SendAT ; 0x170c
        0x000010b0:    2164        d!      MOVS     r1,#0x64
        0x000010b2:    4862        bH      LDR      r0,[pc,#392] ; [0x123c] = 0x2000133c
        0x000010b4:    f002fe2d    ..-.    BL       __aeabi_memclr ; 0x3d12
        0x000010b8:    4bb3        .K      LDR      r3,[pc,#716] ; [0x1388] = 0x20000043
        0x000010ba:    4ab4        .J      LDR      r2,[pc,#720] ; [0x138c] = 0x20000011
        0x000010bc:    a1b4        ..      ADR      r1,{pc}+0x2d4 ; 0x1390
        0x000010be:    485f        _H      LDR      r0,[pc,#380] ; [0x123c] = 0x2000133c
        0x000010c0:    f003faaa    ....    BL       __0sprintf ; 0x4618
        0x000010c4:    200a        .       MOVS     r0,#0xa
        0x000010c6:    a3ba        ..      ADR      r3,{pc}+0x2ea ; 0x13b0
        0x000010c8:    4a54        TJ      LDR      r2,[pc,#336] ; [0x121c] = 0xd80
        0x000010ca:    a173        s.      ADR      r1,{pc}+0x1ce ; 0x1298
        0x000010cc:    9000        ..      STR      r0,[sp,#0]
        0x000010ce:    485b        [H      LDR      r0,[pc,#364] ; [0x123c] = 0x2000133c
        0x000010d0:    f000fb1c    ....    BL       SendAT ; 0x170c
        0x000010d4:    2000        .       MOVS     r0,#0
        0x000010d6:    49b8        .I      LDR      r1,[pc,#736] ; [0x13b8] = 0x200000fc
        0x000010d8:    6008        .`      STR      r0,[r1,#0]
        0x000010da:    48b8        .H      LDR      r0,[pc,#736] ; [0x13bc] = 0x2000004c
        0x000010dc:    6800        .h      LDR      r0,[r0,#0]
        0x000010de:    2800        .(      CMP      r0,#0
        0x000010e0:    d00b        ..      BEQ      0x10fa ; Thread + 214
        0x000010e2:    2100        .!      MOVS     r1,#0
        0x000010e4:    43c9        .C      MVNS     r1,r1
        0x000010e6:    2001        .       MOVS     r0,#1
        0x000010e8:    f004f9e2    ....    BL       osSignalWait ; 0x54b0
        0x000010ec:    466b        kF      MOV      r3,sp
        0x000010ee:    c307        ..      STM      r3!,{r0-r2}
        0x000010f0:    2101        .!      MOVS     r1,#1
        0x000010f2:    487b        {H      LDR      r0,[pc,#492] ; [0x12e0] = 0x20000058
        0x000010f4:    6800        .h      LDR      r0,[r0,#0]
        0x000010f6:    f004f9bf    ....    BL       osSignalClear ; 0x5478
        0x000010fa:    2001        .       MOVS     r0,#1
        0x000010fc:    49af        .I      LDR      r1,[pc,#700] ; [0x13bc] = 0x2000004c
        0x000010fe:    6008        .`      STR      r0,[r1,#0]
        0x00001100:    200a        .       MOVS     r0,#0xa
        0x00001102:    a1af        ..      ADR      r1,{pc}+0x2be ; 0x13c0
        0x00001104:    4b45        EK      LDR      r3,[pc,#276] ; [0x121c] = 0xd80
        0x00001106:    a2b0        ..      ADR      r2,{pc}+0x2c2 ; 0x13c8
        0x00001108:    9100        ..      STR      r1,[sp,#0]
        0x0000110a:    9001        ..      STR      r0,[sp,#4]
        0x0000110c:    4964        dI      LDR      r1,[pc,#400] ; [0x12a0] = 0x20000324
        0x0000110e:    a0af        ..      ADR      r0,{pc}+0x2be ; 0x13cc
        0x00001110:    f001f955    ..U.    BL       TCP_Send ; 0x23be
        0x00001114:    48a8        .H      LDR      r0,[pc,#672] ; [0x13b8] = 0x200000fc
        0x00001116:    6800        .h      LDR      r0,[r0,#0]
        0x00001118:    2801        .(      CMP      r0,#1
        0x0000111a:    d11d        ..      BNE      0x1158 ; Thread + 308
        0x0000111c:    f7ffff02    ....    BL       Save_FS ; 0xf24
        0x00001120:    200a        .       MOVS     r0,#0xa
        0x00001122:    a3a3        ..      ADR      r3,{pc}+0x28e ; 0x13b0
        0x00001124:    4a3d        =J      LDR      r2,[pc,#244] ; [0x121c] = 0xd80
        0x00001126:    a1ae        ..      ADR      r1,{pc}+0x2ba ; 0x13e0
        0x00001128:    9000        ..      STR      r0,[sp,#0]
        0x0000112a:    a0b0        ..      ADR      r0,{pc}+0x2c2 ; 0x13ec
        0x0000112c:    f000faee    ....    BL       SendAT ; 0x170c
        0x00001130:    200a        .       MOVS     r0,#0xa
        0x00001132:    4b3a        :K      LDR      r3,[pc,#232] ; [0x121c] = 0xd80
        0x00001134:    a26b        k.      ADR      r2,{pc}+0x1b0 ; 0x12e4
        0x00001136:    a13a        :.      ADR      r1,{pc}+0xea ; 0x1220
        0x00001138:    9000        ..      STR      r0,[sp,#0]
        0x0000113a:    a0b1        ..      ADR      r0,{pc}+0x2c6 ; 0x1400
        0x0000113c:    f000fae6    ....    BL       SendAT ; 0x170c
        0x00001140:    200a        .       MOVS     r0,#0xa
        0x00001142:    4b36        6K      LDR      r3,[pc,#216] ; [0x121c] = 0xd80
        0x00001144:    a267        g.      ADR      r2,{pc}+0x1a0 ; 0x12e4
        0x00001146:    a147        G.      ADR      r1,{pc}+0x11e ; 0x1264
        0x00001148:    9000        ..      STR      r0,[sp,#0]
        0x0000114a:    a06a        j.      ADR      r0,{pc}+0x1aa ; 0x12f4
        0x0000114c:    f000fade    ....    BL       SendAT ; 0x170c
        0x00001150:    20ff        .       MOVS     r0,#0xff
        0x00001152:    30f5        .0      ADDS     r0,r0,#0xf5
        0x00001154:    f004f8f4    ....    BL       osDelay ; 0x5340
        0x00001158:    e766        f.      B        0x1028 ; Thread + 4
    csq
        0x0000115a:    b51c        ..      PUSH     {r2-r4,lr}
        0x0000115c:    2100        .!      MOVS     r1,#0
        0x0000115e:    43c9        .C      MVNS     r1,r1
        0x00001160:    4835        5H      LDR      r0,[pc,#212] ; [0x1238] = 0x20000080
        0x00001162:    6800        .h      LDR      r0,[r0,#0]
        0x00001164:    f004f97a    ..z.    BL       osMutexWait ; 0x545c
        0x00001168:    2000        .       MOVS     r0,#0
        0x0000116a:    49a9        .I      LDR      r1,[pc,#676] ; [0x1410] = 0x200000ac
        0x0000116c:    6008        .`      STR      r0,[r1,#0]
        0x0000116e:    49a9        .I      LDR      r1,[pc,#676] ; [0x1414] = 0x200000d4
        0x00001170:    6008        .`      STR      r0,[r1,#0]
        0x00001172:    49a9        .I      LDR      r1,[pc,#676] ; [0x1418] = 0x200000d8
        0x00001174:    6008        .`      STR      r0,[r1,#0]
        0x00001176:    49a9        .I      LDR      r1,[pc,#676] ; [0x141c] = 0x200000dc
        0x00001178:    6008        .`      STR      r0,[r1,#0]
        0x0000117a:    49a9        .I      LDR      r1,[pc,#676] ; [0x1420] = 0x200000a4
        0x0000117c:    6008        .`      STR      r0,[r1,#0]
        0x0000117e:    49a9        .I      LDR      r1,[pc,#676] ; [0x1424] = 0x226
        0x00001180:    4814        .H      LDR      r0,[pc,#80] ; [0x11d4] = 0x200010d0
        0x00001182:    f002fdc6    ....    BL       __aeabi_memclr ; 0x3d12
        0x00001186:    211a        .!      MOVS     r1,#0x1a
        0x00001188:    a0a7        ..      ADR      r0,{pc}+0x2a0 ; 0x1428
        0x0000118a:    f003fa35    ..5.    BL       __0printf ; 0x45f8
        0x0000118e:    f000fab2    ....    BL       clear ; 0x16f6
        0x00001192:    a0a6        ..      ADR      r0,{pc}+0x29a ; 0x142c
        0x00001194:    f003fa30    ..0.    BL       __0printf ; 0x45f8
        0x00001198:    bf00        ..      NOP      
        0x0000119a:    a132        2.      ADR      r1,{pc}+0xca ; 0x1264
        0x0000119c:    480d        .H      LDR      r0,[pc,#52] ; [0x11d4] = 0x200010d0
        0x0000119e:    f002fdcf    ....    BL       strstr ; 0x3d40
        0x000011a2:    499c        .I      LDR      r1,[pc,#624] ; [0x1414] = 0x200000d4
        0x000011a4:    6008        .`      STR      r0,[r1,#0]
        0x000011a6:    a11e        ..      ADR      r1,{pc}+0x7a ; 0x1220
        0x000011a8:    480a        .H      LDR      r0,[pc,#40] ; [0x11d4] = 0x200010d0
        0x000011aa:    f002fdc9    ....    BL       strstr ; 0x3d40
        0x000011ae:    499a        .I      LDR      r1,[pc,#616] ; [0x1418] = 0x200000d8
        0x000011b0:    6008        .`      STR      r0,[r1,#0]
        0x000011b2:    491a        .I      LDR      r1,[pc,#104] ; [0x121c] = 0xd80
        0x000011b4:    4807        .H      LDR      r0,[pc,#28] ; [0x11d4] = 0x200010d0
        0x000011b6:    f002fdc3    ....    BL       strstr ; 0x3d40
        0x000011ba:    4998        .I      LDR      r1,[pc,#608] ; [0x141c] = 0x200000dc
        0x000011bc:    6008        .`      STR      r0,[r1,#0]
        0x000011be:    4895        .H      LDR      r0,[pc,#596] ; [0x1414] = 0x200000d4
        0x000011c0:    6800        .h      LDR      r0,[r0,#0]
        0x000011c2:    2800        .(      CMP      r0,#0
        0x000011c4:    d104        ..      BNE      0x11d0 ; csq + 118
        0x000011c6:    4894        .H      LDR      r0,[pc,#592] ; [0x1418] = 0x200000d8
        0x000011c8:    6800        .h      LDR      r0,[r0,#0]
        0x000011ca:    2800        .(      CMP      r0,#0
        0x000011cc:    d100        ..      BNE      0x11d0 ; csq + 118
        0x000011ce:    e135        5.      B        0x143c ; csq + 738
        0x000011d0:    e13d        =.      B        0x144e ; csq + 756
    $d
        0x000011d2:    0000        ..      DCW    0
        0x000011d4:    200010d0    ...     DCD    536875216
        0x000011d8:    454e574f    OWNE    DCD    1162762063
        0x000011dc:    00003352    R3..    DCD    13138
        0x000011e0:    20000164    d..     DCD    536871268
        0x000011e4:    574f5553    SUOW    DCD    1464816979
        0x000011e8:    0052454e    NER.    DCD    5391694
        0x000011ec:    52415453    STAR    DCD    1380013139
        0x000011f0:    00000054    T...    DCD    84
        0x000011f4:    55424544    DEBU    DCD    1430406468
        0x000011f8:    00000047    G...    DCD    71
        0x000011fc:    200001fa    ...     DCD    536871418
        0x00001200:    0a0d0a0d    ....    DCD    168626701
        0x00001204:    00000000    ....    DCD    0
        0x00001208:    0043494c    LIC.    DCD    4409676
        0x0000120c:    2000141d    ...     DCD    536876061
        0x00001210:    200000d0    ...     DCD    536871120
        0x00001214:    33303137    7103    DCD    858796343
        0x00001218:    00000000    ....    DCD    0
        0x0000121c:    00000d80    ....    DCD    3456
        0x00001220:    00004b4f    OK..    DCD    19279
        0x00001224:    54410a0d    ..AT    DCD    1413548557
        0x00001228:    474d432b    +CMG    DCD    1196245803
        0x0000122c:    2c313d44    D=1,    DCD    741424452
        0x00001230:    0d0a0d34    4...    DCD    218762548
        0x00001234:    0000000a    ....    DCD    10
        0x00001238:    20000080    ...     DCD    536871040
        0x0000123c:    2000133c    <..     DCD    536875836
        0x00001240:    200001e6    ...     DCD    536871398
        0x00001244:    54410a0d    ..AT    DCD    1413548557
        0x00001248:    4346512b    +QFC    DCD    1128681771
        0x0000124c:    45534f4c    LOSE    DCD    1163087692
        0x00001250:    0d73253d    =%s.    DCD    225649981
        0x00001254:    000a0d0a    ....    DCD    658698
        0x00001258:    454d432b    +CME    DCD    1162691371
        0x0000125c:    52524520     ERR    DCD    1381123360
        0x00001260:    0000524f    OR..    DCD    21071
        0x00001264:    64616552    Read    DCD    1684104530
        0x00001268:    00000079    y...    DCD    121
        0x0000126c:    54410a0d    ..AT    DCD    1413548557
        0x00001270:    4c46512b    +QFL    DCD    1279676715
        0x00001274:    223d5344    DS="    DCD    574444356
        0x00001278:    22534655    UFS"    DCD    575882837
        0x0000127c:    00000a0d    ....    DCD    2573
        0x00001280:    54410a0d    ..AT    DCD    1413548557
        0x00001284:    5346512b    +QFS    DCD    1397117227
        0x00001288:    3d4b4545    EEK=    DCD    1028343109
        0x0000128c:    302c7325    %s,0    DCD    808219429
        0x00001290:    0a0d322c    ,2..    DCD    168636972
        0x00001294:    00000000    ....    DCD    0
        0x00001298:    4e4e4f43    CONN    DCD    1313754947
        0x0000129c:    00544345    ECT.    DCD    5522245
        0x000012a0:    20000324    $..     DCD    536871716
        0x000012a4:    0a0a0a0a    ....    DCD    168430090
        0x000012a8:    0000000a    ....    DCD    10
        0x000012ac:    54410a0d    ..AT    DCD    1413548557
        0x000012b0:    5746512b    +QFW    DCD    1464226091
        0x000012b4:    45544952    RITE    DCD    1163151698
        0x000012b8:    2c73253d    =%s,    DCD    745743677
        0x000012bc:    332c6425    %d,3    DCD    858547237
        0x000012c0:    00000a0d    ....    DCD    2573
        0x000012c4:    49525751    QWRI    DCD    1230133073
        0x000012c8:    00004554    TE..    DCD    17748
        0x000012cc:    5746512b    +QFW    DCD    1464226091
        0x000012d0:    45544952    RITE    DCD    1163151698
        0x000012d4:    00000000    ....    DCD    0
        0x000012d8:    00000dac    ....    DCD    3500
        0x000012dc:    00006928    (i..    DCD    26920
        0x000012e0:    20000058    X..     DCD    536871000
        0x000012e4:    20544f4e    NOT     DCD    542396238
        0x000012e8:    45534e49    INSE    DCD    1163087433
        0x000012ec:    44455452    RTED    DCD    1145394258
        0x000012f0:    00000000    ....    DCD    0
        0x000012f4:    54410a0d    ..AT    DCD    1413548557
        0x000012f8:    5546432b    +CFU    DCD    1430668075
        0x000012fc:    0d313d4e    N=1.    DCD    221330766
        0x00001300:    000a0d0a    ....    DCD    658698
        0x00001304:    200000b9    ...     DCD    536871097
        0x00001308:    200000ba    ...     DCD    536871098
        0x0000130c:    54410a0d    ..AT    DCD    1413548557
        0x00001310:    5247432b    +CGR    DCD    1380401963
        0x00001314:    0d3f4745    EG?.    DCD    222250821
        0x00001318:    000a0d0a    ....    DCD    658698
        0x0000131c:    54410a0d    ..AT    DCD    1413548557
        0x00001320:    5249512b    +QIR    DCD    1380536619
        0x00001324:    50414745    EGAP    DCD    1346455365
        0x00001328:    69223d50    P="i    DCD    1763851600
        0x0000132c:    65666173    safe    DCD    1701208435
        0x00001330:    0d0a0d22    "...    DCD    218762530
        0x00001334:    0000000a    ....    DCD    10
        0x00001338:    54410a0d    ..AT    DCD    1413548557
        0x0000133c:    5249512b    +QIR    DCD    1380536619
        0x00001340:    50414745    EGAP    DCD    1346455365
        0x00001344:    0d0a0d50    P...    DCD    218762576
        0x00001348:    0000000a    ....    DCD    10
        0x0000134c:    54410a0d    ..AT    DCD    1413548557
        0x00001350:    4149512b    +QIA    DCD    1095323947
        0x00001354:    0a0d5443    CT..    DCD    168645699
        0x00001358:    00000a0d    ....    DCD    2573
        0x0000135c:    0000007a    z...    DCD    122
        0x00001360:    54410a0d    ..AT    DCD    1413548557
        0x00001364:    4c49512b    +QIL    DCD    1279873323
        0x00001368:    5049434f    OCIP    DCD    1346978639
        0x0000136c:    0a0d0a0d    ....    DCD    168626701
        0x00001370:    00000000    ....    DCD    0
        0x00001374:    54410a0d    ..AT    DCD    1413548557
        0x00001378:    4353512b    +QSC    DCD    1129533739
        0x0000137c:    313d4b4c    LK=1    DCD    826100556
        0x00001380:    0a0d0a0d    ....    DCD    168626701
        0x00001384:    00000000    ....    DCD    0
        0x00001388:    20000043    C..     DCD    536870979
        0x0000138c:    20000011    ...     DCD    536870929
        0x00001390:    54410a0d    ..AT    DCD    1413548557
        0x00001394:    4f49512b    +QIO    DCD    1330204971
        0x00001398:    3d4e4550    PEN=    DCD    1028539728
        0x0000139c:    50435422    "TCP    DCD    1346589730
        0x000013a0:    25222c22    ","%    DCD    622996514
        0x000013a4:    222c2273    s","    DCD    573317747
        0x000013a8:    0d227325    %s".    DCD    220361509
        0x000013ac:    000a0d0a    ....    DCD    658698
        0x000013b0:    4c494146    FAIL    DCD    1279869254
        0x000013b4:    00000000    ....    DCD    0
        0x000013b8:    200000fc    ...     DCD    536871164
        0x000013bc:    2000004c    L..     DCD    536870988
        0x000013c0:    444e4553    SEND    DCD    1145980243
        0x000013c4:    004b4f20     OK.    DCD    4935456
        0x000013c8:    0000003e    >...    DCD    62
        0x000013cc:    54410a0d    ..AT    DCD    1413548557
        0x000013d0:    5349512b    +QIS    DCD    1397313835
        0x000013d4:    0d444e45    END.    DCD    222580293
        0x000013d8:    0d0a0d0a    ....    DCD    218762506
        0x000013dc:    0000000a    ....    DCD    10
        0x000013e0:    534f4c43    CLOS    DCD    1397705795
        0x000013e4:    4b4f2045    E OK    DCD    1263476805
        0x000013e8:    00000a0d    ....    DCD    2573
        0x000013ec:    54410a0d    ..AT    DCD    1413548557
        0x000013f0:    4349512b    +QIC    DCD    1128878379
        0x000013f4:    45534f4c    LOSE    DCD    1163087692
        0x000013f8:    0a0d0a0d    ....    DCD    168626701
        0x000013fc:    00000000    ....    DCD    0
        0x00001400:    54410a0d    ..AT    DCD    1413548557
        0x00001404:    5546432b    +CFU    DCD    1430668075
        0x00001408:    0d303d4e    N=0.    DCD    221265230
        0x0000140c:    000a0d0a    ....    DCD    658698
        0x00001410:    200000ac    ...     DCD    536871084
        0x00001414:    200000d4    ...     DCD    536871124
        0x00001418:    200000d8    ...     DCD    536871128
        0x0000141c:    200000dc    ...     DCD    536871132
        0x00001420:    200000a4    ...     DCD    536871076
        0x00001424:    00000226    &...    DCD    550
        0x00001428:    00006325    %c..    DCD    25381
        0x0000142c:    54410a0d    ..AT    DCD    1413548557
        0x00001430:    5153432b    +CSQ    DCD    1364411179
        0x00001434:    0a0d0a0d    ....    DCD    168626701
        0x00001438:    00000000    ....    DCD    0
    $t
        0x0000143c:    4608        .F      MOV      r0,r1
        0x0000143e:    6800        .h      LDR      r0,[r0,#0]
        0x00001440:    2800        .(      CMP      r0,#0
        0x00001442:    d104        ..      BNE      0x144e ; csq + 756
        0x00001444:    4852        RH      LDR      r0,[pc,#328] ; [0x1590] = 0x200000ac
        0x00001446:    6800        .h      LDR      r0,[r0,#0]
        0x00001448:    2804        .(      CMP      r0,#4
        0x0000144a:    da00        ..      BGE      0x144e ; csq + 756
        0x0000144c:    e6a5        ..      B        0x119a ; csq + 64
        0x0000144e:    4851        QH      LDR      r0,[pc,#324] ; [0x1594] = 0x200000d4
        0x00001450:    6800        .h      LDR      r0,[r0,#0]
        0x00001452:    2800        .(      CMP      r0,#0
        0x00001454:    d11d        ..      BNE      0x1492 ; csq + 824
        0x00001456:    4850        PH      LDR      r0,[pc,#320] ; [0x1598] = 0x200000d8
        0x00001458:    6800        .h      LDR      r0,[r0,#0]
        0x0000145a:    2800        .(      CMP      r0,#0
        0x0000145c:    d119        ..      BNE      0x1492 ; csq + 824
        0x0000145e:    484f        OH      LDR      r0,[pc,#316] ; [0x159c] = 0x200000dc
        0x00001460:    6800        .h      LDR      r0,[r0,#0]
        0x00001462:    2800        .(      CMP      r0,#0
        0x00001464:    d115        ..      BNE      0x1492 ; csq + 824
        0x00001466:    2001        .       MOVS     r0,#1
        0x00001468:    494d        MI      LDR      r1,[pc,#308] ; [0x15a0] = 0x50004200
        0x0000146a:    6348        Hc      STR      r0,[r1,#0x34]
        0x0000146c:    484d        MH      LDR      r0,[pc,#308] ; [0x15a4] = 0x2000005c
        0x0000146e:    6800        .h      LDR      r0,[r0,#0]
        0x00001470:    1c40        @.      ADDS     r0,r0,#1
        0x00001472:    494c        LI      LDR      r1,[pc,#304] ; [0x15a4] = 0x2000005c
        0x00001474:    6008        .`      STR      r0,[r1,#0]
        0x00001476:    4608        .F      MOV      r0,r1
        0x00001478:    6800        .h      LDR      r0,[r0,#0]
        0x0000147a:    2803        .(      CMP      r0,#3
        0x0000147c:    dd05        ..      BLE      0x148a ; csq + 816
        0x0000147e:    a04a        J.      ADR      r0,{pc}+0x12a ; 0x15a8
        0x00001480:    f003f8ba    ....    BL       __0printf ; 0x45f8
        0x00001484:    2064        d       MOVS     r0,#0x64
        0x00001486:    f003ff4d    ..M.    BL       manualdelay ; 0x5324
        0x0000148a:    2000        .       MOVS     r0,#0
        0x0000148c:    4944        DI      LDR      r1,[pc,#272] ; [0x15a0] = 0x50004200
        0x0000148e:    6348        Hc      STR      r0,[r1,#0x34]
        0x00001490:    e002        ..      B        0x1498 ; csq + 830
        0x00001492:    2000        .       MOVS     r0,#0
        0x00001494:    4943        CI      LDR      r1,[pc,#268] ; [0x15a4] = 0x2000005c
        0x00001496:    6008        .`      STR      r0,[r1,#0]
        0x00001498:    2105        .!      MOVS     r1,#5
        0x0000149a:    4847        GH      LDR      r0,[pc,#284] ; [0x15b8] = 0x2000000c
        0x0000149c:    f002fc39    ..9.    BL       __aeabi_memclr ; 0x3d12
        0x000014a0:    4845        EH      LDR      r0,[pc,#276] ; [0x15b8] = 0x2000000c
        0x000014a2:    212c        ,!      MOVS     r1,#0x2c
        0x000014a4:    233a        :#      MOVS     r3,#0x3a
        0x000014a6:    2201        ."      MOVS     r2,#1
        0x000014a8:    9100        ..      STR      r1,[sp,#0]
        0x000014aa:    9001        ..      STR      r0,[sp,#4]
        0x000014ac:    4611        .F      MOV      r1,r2
        0x000014ae:    4843        CH      LDR      r0,[pc,#268] ; [0x15bc] = 0x200010d0
        0x000014b0:    f004f890    ....    BL       parse_g ; 0x55d4
        0x000014b4:    220d        ."      MOVS     r2,#0xd
        0x000014b6:    2120         !      MOVS     r1,#0x20
        0x000014b8:    483f        ?H      LDR      r0,[pc,#252] ; [0x15b8] = 0x2000000c
        0x000014ba:    f7feff6f    ..o.    BL       remove_all_chars ; 0x39c
        0x000014be:    4840        @H      LDR      r0,[pc,#256] ; [0x15c0] = 0x20000080
        0x000014c0:    6800        .h      LDR      r0,[r0,#0]
        0x000014c2:    f003ffbd    ....    BL       osMutexRelease ; 0x5440
        0x000014c6:    bd1c        ..      POP      {r2-r4,pc}
    actgprs
        0x000014c8:    b508        ..      PUSH     {r3,lr}
        0x000014ca:    f000fc14    ....    BL       cpinquerry ; 0x1cf6
        0x000014ce:    483d        =H      LDR      r0,[pc,#244] ; [0x15c4] = 0x200000b9
        0x000014d0:    7800        .x      LDRB     r0,[r0,#0]
        0x000014d2:    2801        .(      CMP      r0,#1
        0x000014d4:    d132        2.      BNE      0x153c ; actgprs + 116
        0x000014d6:    f000fc6c    ..l.    BL       cregquerry ; 0x1db2
        0x000014da:    483b        ;H      LDR      r0,[pc,#236] ; [0x15c8] = 0x200000ba
        0x000014dc:    7800        .x      LDRB     r0,[r0,#0]
        0x000014de:    2801        .(      CMP      r0,#1
        0x000014e0:    d12c        ,.      BNE      0x153c ; actgprs + 116
        0x000014e2:    2005        .       MOVS     r0,#5
        0x000014e4:    4b39        9K      LDR      r3,[pc,#228] ; [0x15cc] = 0xd80
        0x000014e6:    a23a        :.      ADR      r2,{pc}+0xea ; 0x15d0
        0x000014e8:    493a        :I      LDR      r1,[pc,#232] ; [0x15d4] = 0x1264
        0x000014ea:    9000        ..      STR      r0,[sp,#0]
        0x000014ec:    4608        .F      MOV      r0,r1
        0x000014ee:    30a8        .0      ADDS     r0,r0,#0xa8
        0x000014f0:    f000f90c    ....    BL       SendAT ; 0x170c
        0x000014f4:    2005        .       MOVS     r0,#5
        0x000014f6:    4b35        5K      LDR      r3,[pc,#212] ; [0x15cc] = 0xd80
        0x000014f8:    a235        5.      ADR      r2,{pc}+0xd8 ; 0x15d0
        0x000014fa:    4936        6I      LDR      r1,[pc,#216] ; [0x15d4] = 0x1264
        0x000014fc:    9000        ..      STR      r0,[sp,#0]
        0x000014fe:    4608        .F      MOV      r0,r1
        0x00001500:    30b8        .0      ADDS     r0,r0,#0xb8
        0x00001502:    f000f903    ....    BL       SendAT ; 0x170c
        0x00001506:    2002        .       MOVS     r0,#2
        0x00001508:    4b30        0K      LDR      r3,[pc,#192] ; [0x15cc] = 0xd80
        0x0000150a:    a231        1.      ADR      r2,{pc}+0xc6 ; 0x15d0
        0x0000150c:    4931        1I      LDR      r1,[pc,#196] ; [0x15d4] = 0x1264
        0x0000150e:    9000        ..      STR      r0,[sp,#0]
        0x00001510:    4608        .F      MOV      r0,r1
        0x00001512:    30d4        .0      ADDS     r0,r0,#0xd4
        0x00001514:    f000f8fa    ....    BL       SendAT ; 0x170c
        0x00001518:    2005        .       MOVS     r0,#5
        0x0000151a:    4b2c        ,K      LDR      r3,[pc,#176] ; [0x15cc] = 0xd80
        0x0000151c:    a22c        ,.      ADR      r2,{pc}+0xb4 ; 0x15d0
        0x0000151e:    492d        -I      LDR      r1,[pc,#180] ; [0x15d4] = 0x1264
        0x00001520:    9000        ..      STR      r0,[sp,#0]
        0x00001522:    4608        .F      MOV      r0,r1
        0x00001524:    30e8        .0      ADDS     r0,r0,#0xe8
        0x00001526:    f000f8f1    ....    BL       SendAT ; 0x170c
        0x0000152a:    2002        .       MOVS     r0,#2
        0x0000152c:    4b27        'K      LDR      r3,[pc,#156] ; [0x15cc] = 0xd80
        0x0000152e:    a228        (.      ADR      r2,{pc}+0xa2 ; 0x15d0
        0x00001530:    4928        (I      LDR      r1,[pc,#160] ; [0x15d4] = 0x1264
        0x00001532:    9000        ..      STR      r0,[sp,#0]
        0x00001534:    4608        .F      MOV      r0,r1
        0x00001536:    30fc        .0      ADDS     r0,r0,#0xfc
        0x00001538:    f000f8e8    ....    BL       SendAT ; 0x170c
        0x0000153c:    bd08        ..      POP      {r3,pc}
    loop
        0x0000153e:    b508        ..      PUSH     {r3,lr}
        0x00001540:    2000        .       MOVS     r0,#0
        0x00001542:    4925        %I      LDR      r1,[pc,#148] ; [0x15d8] = 0x200000f1
        0x00001544:    7008        .p      STRB     r0,[r1,#0]
        0x00001546:    2001        .       MOVS     r0,#1
        0x00001548:    4924        $I      LDR      r1,[pc,#144] ; [0x15dc] = 0x200000f2
        0x0000154a:    7008        .p      STRB     r0,[r1,#0]
        0x0000154c:    2000        .       MOVS     r0,#0
        0x0000154e:    4924        $I      LDR      r1,[pc,#144] ; [0x15e0] = 0x200000f3
        0x00001550:    7008        .p      STRB     r0,[r1,#0]
        0x00001552:    f7fffae6    ....    BL       sms_mc60 ; 0xb22
        0x00001556:    2001        .       MOVS     r0,#1
        0x00001558:    4922        "I      LDR      r1,[pc,#136] ; [0x15e4] = 0x20000118
        0x0000155a:    6008        .`      STR      r0,[r1,#0]
        0x0000155c:    4608        .F      MOV      r0,r1
        0x0000155e:    6800        .h      LDR      r0,[r0,#0]
        0x00001560:    2800        .(      CMP      r0,#0
        0x00001562:    d010        ..      BEQ      0x1586 ; loop + 72
        0x00001564:    f7fffdf9    ....    BL       csq ; 0x115a
        0x00001568:    200a        .       MOVS     r0,#0xa
        0x0000156a:    4b18        .K      LDR      r3,[pc,#96] ; [0x15cc] = 0xd80
        0x0000156c:    a218        ..      ADR      r2,{pc}+0x64 ; 0x15d0
        0x0000156e:    a11e        ..      ADR      r1,{pc}+0x7a ; 0x15e8
        0x00001570:    9000        ..      STR      r0,[sp,#0]
        0x00001572:    a020         .      ADR      r0,{pc}+0x82 ; 0x15f4
        0x00001574:    f001f89c    ....    BL       SendAT_GPS ; 0x26b0
        0x00001578:    2101        .!      MOVS     r1,#1
        0x0000157a:    4827        'H      LDR      r0,[pc,#156] ; [0x1618] = 0x20000058
        0x0000157c:    6800        .h      LDR      r0,[r0,#0]
        0x0000157e:    f003ff89    ....    BL       osSignalSet ; 0x5494
        0x00001582:    4926        &I      LDR      r1,[pc,#152] ; [0x161c] = 0x20000050
        0x00001584:    6008        .`      STR      r0,[r1,#0]
        0x00001586:    4826        &H      LDR      r0,[pc,#152] ; [0x1620] = 0x1324
        0x00001588:    f003feda    ....    BL       osDelay ; 0x5340
        0x0000158c:    bd08        ..      POP      {r3,pc}
    $d
        0x0000158e:    0000        ..      DCW    0
        0x00001590:    200000ac    ...     DCD    536871084
        0x00001594:    200000d4    ...     DCD    536871124
        0x00001598:    200000d8    ...     DCD    536871128
        0x0000159c:    200000dc    ...     DCD    536871132
        0x000015a0:    50004200    .B.P    DCD    1342194176
        0x000015a4:    2000005c    \..     DCD    536871004
        0x000015a8:    54410a0d    ..AT    DCD    1413548557
        0x000015ac:    5546432b    +CFU    DCD    1430668075
        0x000015b0:    2c313d4e    N=1,    DCD    741424462
        0x000015b4:    000a0d31    1...    DCD    658737
        0x000015b8:    2000000c    ...     DCD    536870924
        0x000015bc:    200010d0    ...     DCD    536875216
        0x000015c0:    20000080    ...     DCD    536871040
        0x000015c4:    200000b9    ...     DCD    536871097
        0x000015c8:    200000ba    ...     DCD    536871098
        0x000015cc:    00000d80    ....    DCD    3456
        0x000015d0:    00004b4f    OK..    DCD    19279
        0x000015d4:    00001264    d...    DCD    4708
        0x000015d8:    200000f1    ...     DCD    536871153
        0x000015dc:    200000f2    ...     DCD    536871154
        0x000015e0:    200000f3    ...     DCD    536871155
        0x000015e4:    20000118    ...     DCD    536871192
        0x000015e8:    5350474d    MGPS    DCD    1397770061
        0x000015ec:    54415453    STAT    DCD    1413567571
        0x000015f0:    00005355    US..    DCD    21333
        0x000015f4:    0a0d0a0d    ....    DCD    168626701
        0x000015f8:    512b5441    AT+Q    DCD    1361794113
        0x000015fc:    53534e47    GNSS    DCD    1397968455
        0x00001600:    3d204452    RD =    DCD    1025524818
        0x00001604:    4d4e2220     "NM    DCD    1296966176
        0x00001608:    522f4145    EA/R    DCD    1378828613
        0x0000160c:    0d22434d    MC".    DCD    220349261
        0x00001610:    0d0a0d0a    ....    DCD    218762506
        0x00001614:    0000000a    ....    DCD    10
        0x00001618:    20000058    X..     DCD    536871000
        0x0000161c:    20000050    P..     DCD    536870992
        0x00001620:    00001324    $...    DCD    4900
    $t
    .text
    Timer1_Callback
        0x00001624:    4770        pG      BX       lr
    Timer2_Callback
        0x00001626:    b510        ..      PUSH     {r4,lr}
        0x00001628:    4604        .F      MOV      r4,r0
        0x0000162a:    4820         H      LDR      r0,[pc,#128] ; [0x16ac] = 0x200000ac
        0x0000162c:    6800        .h      LDR      r0,[r0,#0]
        0x0000162e:    1c40        @.      ADDS     r0,r0,#1
        0x00001630:    491e        .I      LDR      r1,[pc,#120] ; [0x16ac] = 0x200000ac
        0x00001632:    6008        .`      STR      r0,[r1,#0]
        0x00001634:    f003fcc8    ....    BL       batteryind ; 0x4fc8
        0x00001638:    481d        .H      LDR      r0,[pc,#116] ; [0x16b0] = 0x20000068
        0x0000163a:    7800        .x      LDRB     r0,[r0,#0]
        0x0000163c:    1c40        @.      ADDS     r0,r0,#1
        0x0000163e:    b240        @.      SXTB     r0,r0
        0x00001640:    491b        .I      LDR      r1,[pc,#108] ; [0x16b0] = 0x20000068
        0x00001642:    7008        .p      STRB     r0,[r1,#0]
        0x00001644:    481b        .H      LDR      r0,[pc,#108] ; [0x16b4] = 0x20000064
        0x00001646:    6800        .h      LDR      r0,[r0,#0]
        0x00001648:    1c40        @.      ADDS     r0,r0,#1
        0x0000164a:    491a        .I      LDR      r1,[pc,#104] ; [0x16b4] = 0x20000064
        0x0000164c:    6008        .`      STR      r0,[r1,#0]
        0x0000164e:    bd10        ..      POP      {r4,pc}
    Init_Timers
        0x00001650:    b510        ..      PUSH     {r4,lr}
        0x00001652:    2001        .       MOVS     r0,#1
        0x00001654:    4918        .I      LDR      r1,[pc,#96] ; [0x16b8] = 0x20000070
        0x00001656:    6008        .`      STR      r0,[r1,#0]
        0x00001658:    460a        .F      MOV      r2,r1
        0x0000165a:    2100        .!      MOVS     r1,#0
        0x0000165c:    4817        .H      LDR      r0,[pc,#92] ; [0x16bc] = 0x6938
        0x0000165e:    f003ff63    ..c.    BL       osTimerCreate ; 0x5528
        0x00001662:    4917        .I      LDR      r1,[pc,#92] ; [0x16c0] = 0x2000006c
        0x00001664:    6008        .`      STR      r0,[r1,#0]
        0x00001666:    4608        .F      MOV      r0,r1
        0x00001668:    6800        .h      LDR      r0,[r0,#0]
        0x0000166a:    2800        .(      CMP      r0,#0
        0x0000166c:    d006        ..      BEQ      0x167c ; Init_Timers + 44
        0x0000166e:    2164        d!      MOVS     r1,#0x64
        0x00001670:    4813        .H      LDR      r0,[pc,#76] ; [0x16c0] = 0x2000006c
        0x00001672:    6800        .h      LDR      r0,[r0,#0]
        0x00001674:    f003ff72    ..r.    BL       osTimerStart ; 0x555c
        0x00001678:    4604        .F      MOV      r4,r0
        0x0000167a:    bf00        ..      NOP      
        0x0000167c:    2002        .       MOVS     r0,#2
        0x0000167e:    4911        .I      LDR      r1,[pc,#68] ; [0x16c4] = 0x20000078
        0x00001680:    6008        .`      STR      r0,[r1,#0]
        0x00001682:    460a        .F      MOV      r2,r1
        0x00001684:    2101        .!      MOVS     r1,#1
        0x00001686:    4810        .H      LDR      r0,[pc,#64] ; [0x16c8] = 0x6940
        0x00001688:    f003ff4e    ..N.    BL       osTimerCreate ; 0x5528
        0x0000168c:    490f        .I      LDR      r1,[pc,#60] ; [0x16cc] = 0x20000074
        0x0000168e:    6008        .`      STR      r0,[r1,#0]
        0x00001690:    4608        .F      MOV      r0,r1
        0x00001692:    6800        .h      LDR      r0,[r0,#0]
        0x00001694:    2800        .(      CMP      r0,#0
        0x00001696:    d007        ..      BEQ      0x16a8 ; Init_Timers + 88
        0x00001698:    217d        }!      MOVS     r1,#0x7d
        0x0000169a:    00c9        ..      LSLS     r1,r1,#3
        0x0000169c:    480b        .H      LDR      r0,[pc,#44] ; [0x16cc] = 0x20000074
        0x0000169e:    6800        .h      LDR      r0,[r0,#0]
        0x000016a0:    f003ff5c    ..\.    BL       osTimerStart ; 0x555c
        0x000016a4:    4604        .F      MOV      r4,r0
        0x000016a6:    bf00        ..      NOP      
        0x000016a8:    bd10        ..      POP      {r4,pc}
    $d
        0x000016aa:    0000        ..      DCW    0
        0x000016ac:    200000ac    ...     DCD    536871084
        0x000016b0:    20000068    h..     DCD    536871016
        0x000016b4:    20000064    d..     DCD    536871012
        0x000016b8:    20000070    p..     DCD    536871024
        0x000016bc:    00006938    8i..    DCD    26936
        0x000016c0:    2000006c    l..     DCD    536871020
        0x000016c4:    20000078    x..     DCD    536871032
        0x000016c8:    00006940    @i..    DCD    26944
        0x000016cc:    20000074    t..     DCD    536871028
    $t
    .text
    SYS_UnlockReg
        0x000016d0:    e006        ..      B        0x16e0 ; SYS_UnlockReg + 16
        0x000016d2:    2059        Y       MOVS     r0,#0x59
        0x000016d4:    49fe        .I      LDR      r1,[pc,#1016] ; [0x1ad0] = 0x50000100
        0x000016d6:    6008        .`      STR      r0,[r1,#0]
        0x000016d8:    2016        .       MOVS     r0,#0x16
        0x000016da:    6008        .`      STR      r0,[r1,#0]
        0x000016dc:    2088        .       MOVS     r0,#0x88
        0x000016de:    6008        .`      STR      r0,[r1,#0]
        0x000016e0:    48fb        .H      LDR      r0,[pc,#1004] ; [0x1ad0] = 0x50000100
        0x000016e2:    6800        .h      LDR      r0,[r0,#0]
        0x000016e4:    2801        .(      CMP      r0,#1
        0x000016e6:    d1f4        ..      BNE      0x16d2 ; SYS_UnlockReg + 2
        0x000016e8:    4770        pG      BX       lr
    WDT_IRQHandler
        0x000016ea:    48fa        .H      LDR      r0,[pc,#1000] ; [0x1ad4] = 0x5aa5
        0x000016ec:    49fa        .I      LDR      r1,[pc,#1000] ; [0x1ad8] = 0x40004100
        0x000016ee:    6008        .`      STR      r0,[r1,#0]
        0x000016f0:    2001        .       MOVS     r0,#1
        0x000016f2:    60c8        .`      STR      r0,[r1,#0xc]
        0x000016f4:    4770        pG      BX       lr
    clear
        0x000016f6:    e002        ..      B        0x16fe ; clear + 8
        0x000016f8:    49f8        .I      LDR      r1,[pc,#992] ; [0x1adc] = 0x40050000
        0x000016fa:    6809        .h      LDR      r1,[r1,#0]
        0x000016fc:    b2c8        ..      UXTB     r0,r1
        0x000016fe:    49f7        .I      LDR      r1,[pc,#988] ; [0x1adc] = 0x40050000
        0x00001700:    6989        .i      LDR      r1,[r1,#0x18]
        0x00001702:    2202        ."      MOVS     r2,#2
        0x00001704:    4011        .@      ANDS     r1,r1,r2
        0x00001706:    2900        .)      CMP      r1,#0
        0x00001708:    d0f6        ..      BEQ      0x16f8 ; clear + 2
        0x0000170a:    4770        pG      BX       lr
    SendAT
        0x0000170c:    b5ff        ..      PUSH     {r0-r7,lr}
        0x0000170e:    b081        ..      SUB      sp,sp,#4
        0x00001710:    4606        .F      MOV      r6,r0
        0x00001712:    4614        .F      MOV      r4,r2
        0x00001714:    461d        .F      MOV      r5,r3
        0x00001716:    9f0a        ..      LDR      r7,[sp,#0x28]
        0x00001718:    2000        .       MOVS     r0,#0
        0x0000171a:    49f1        .I      LDR      r1,[pc,#964] ; [0x1ae0] = 0x50004240
        0x0000171c:    6088        .`      STR      r0,[r1,#8]
        0x0000171e:    200a        .       MOVS     r0,#0xa
        0x00001720:    f003fe0e    ....    BL       osDelay ; 0x5340
        0x00001724:    2100        .!      MOVS     r1,#0
        0x00001726:    43c9        .C      MVNS     r1,r1
        0x00001728:    48ee        .H      LDR      r0,[pc,#952] ; [0x1ae4] = 0x20000080
        0x0000172a:    6800        .h      LDR      r0,[r0,#0]
        0x0000172c:    f003fe96    ....    BL       osMutexWait ; 0x545c
        0x00001730:    2000        .       MOVS     r0,#0
        0x00001732:    49ed        .I      LDR      r1,[pc,#948] ; [0x1ae8] = 0x200000ac
        0x00001734:    6008        .`      STR      r0,[r1,#0]
        0x00001736:    49ed        .I      LDR      r1,[pc,#948] ; [0x1aec] = 0x200000d4
        0x00001738:    6008        .`      STR      r0,[r1,#0]
        0x0000173a:    49ed        .I      LDR      r1,[pc,#948] ; [0x1af0] = 0x200000d8
        0x0000173c:    6008        .`      STR      r0,[r1,#0]
        0x0000173e:    49ed        .I      LDR      r1,[pc,#948] ; [0x1af4] = 0x200000dc
        0x00001740:    6008        .`      STR      r0,[r1,#0]
        0x00001742:    49ed        .I      LDR      r1,[pc,#948] ; [0x1af8] = 0x200000a4
        0x00001744:    6008        .`      STR      r0,[r1,#0]
        0x00001746:    49ed        .I      LDR      r1,[pc,#948] ; [0x1afc] = 0x226
        0x00001748:    48ed        .H      LDR      r0,[pc,#948] ; [0x1b00] = 0x200010d0
        0x0000174a:    f002fae2    ....    BL       __aeabi_memclr ; 0x3d12
        0x0000174e:    211a        .!      MOVS     r1,#0x1a
        0x00001750:    a0ec        ..      ADR      r0,{pc}+0x3b4 ; 0x1b04
        0x00001752:    f002ff51    ..Q.    BL       __0printf ; 0x45f8
        0x00001756:    f7ffffce    ....    BL       clear ; 0x16f6
        0x0000175a:    4630        0F      MOV      r0,r6
        0x0000175c:    f002ff4c    ..L.    BL       __0printf ; 0x45f8
        0x00001760:    bf00        ..      NOP      
        0x00001762:    48e7        .H      LDR      r0,[pc,#924] ; [0x1b00] = 0x200010d0
        0x00001764:    9902        ..      LDR      r1,[sp,#8]
        0x00001766:    f002faeb    ....    BL       strstr ; 0x3d40
        0x0000176a:    49e0        .I      LDR      r1,[pc,#896] ; [0x1aec] = 0x200000d4
        0x0000176c:    6008        .`      STR      r0,[r1,#0]
        0x0000176e:    4621        !F      MOV      r1,r4
        0x00001770:    48e3        .H      LDR      r0,[pc,#908] ; [0x1b00] = 0x200010d0
        0x00001772:    f002fae5    ....    BL       strstr ; 0x3d40
        0x00001776:    49de        .I      LDR      r1,[pc,#888] ; [0x1af0] = 0x200000d8
        0x00001778:    6008        .`      STR      r0,[r1,#0]
        0x0000177a:    4629        )F      MOV      r1,r5
        0x0000177c:    48e0        .H      LDR      r0,[pc,#896] ; [0x1b00] = 0x200010d0
        0x0000177e:    f002fadf    ....    BL       strstr ; 0x3d40
        0x00001782:    49dc        .I      LDR      r1,[pc,#880] ; [0x1af4] = 0x200000dc
        0x00001784:    6008        .`      STR      r0,[r1,#0]
        0x00001786:    48d9        .H      LDR      r0,[pc,#868] ; [0x1aec] = 0x200000d4
        0x00001788:    6800        .h      LDR      r0,[r0,#0]
        0x0000178a:    2800        .(      CMP      r0,#0
        0x0000178c:    d10b        ..      BNE      0x17a6 ; SendAT + 154
        0x0000178e:    48d8        .H      LDR      r0,[pc,#864] ; [0x1af0] = 0x200000d8
        0x00001790:    6800        .h      LDR      r0,[r0,#0]
        0x00001792:    2800        .(      CMP      r0,#0
        0x00001794:    d107        ..      BNE      0x17a6 ; SendAT + 154
        0x00001796:    4608        .F      MOV      r0,r1
        0x00001798:    6800        .h      LDR      r0,[r0,#0]
        0x0000179a:    2800        .(      CMP      r0,#0
        0x0000179c:    d103        ..      BNE      0x17a6 ; SendAT + 154
        0x0000179e:    48d2        .H      LDR      r0,[pc,#840] ; [0x1ae8] = 0x200000ac
        0x000017a0:    6800        .h      LDR      r0,[r0,#0]
        0x000017a2:    42b8        .B      CMP      r0,r7
        0x000017a4:    dbdd        ..      BLT      0x1762 ; SendAT + 86
        0x000017a6:    a1d8        ..      ADR      r1,{pc}+0x362 ; 0x1b08
        0x000017a8:    4630        0F      MOV      r0,r6
        0x000017aa:    f002fac9    ....    BL       strstr ; 0x3d40
        0x000017ae:    2800        .(      CMP      r0,#0
        0x000017b0:    d12c        ,.      BNE      0x180c ; SendAT + 256
        0x000017b2:    a1d7        ..      ADR      r1,{pc}+0x35e ; 0x1b10
        0x000017b4:    4630        0F      MOV      r0,r6
        0x000017b6:    f002fac3    ....    BL       strstr ; 0x3d40
        0x000017ba:    2800        .(      CMP      r0,#0
        0x000017bc:    d126        &.      BNE      0x180c ; SendAT + 256
        0x000017be:    48cb        .H      LDR      r0,[pc,#812] ; [0x1aec] = 0x200000d4
        0x000017c0:    6800        .h      LDR      r0,[r0,#0]
        0x000017c2:    2800        .(      CMP      r0,#0
        0x000017c4:    d11f        ..      BNE      0x1806 ; SendAT + 250
        0x000017c6:    48ca        .H      LDR      r0,[pc,#808] ; [0x1af0] = 0x200000d8
        0x000017c8:    6800        .h      LDR      r0,[r0,#0]
        0x000017ca:    2800        .(      CMP      r0,#0
        0x000017cc:    d11b        ..      BNE      0x1806 ; SendAT + 250
        0x000017ce:    48c9        .H      LDR      r0,[pc,#804] ; [0x1af4] = 0x200000dc
        0x000017d0:    6800        .h      LDR      r0,[r0,#0]
        0x000017d2:    2800        .(      CMP      r0,#0
        0x000017d4:    d117        ..      BNE      0x1806 ; SendAT + 250
        0x000017d6:    2001        .       MOVS     r0,#1
        0x000017d8:    49c1        .I      LDR      r1,[pc,#772] ; [0x1ae0] = 0x50004240
        0x000017da:    3940        @9      SUBS     r1,r1,#0x40
        0x000017dc:    6348        Hc      STR      r0,[r1,#0x34]
        0x000017de:    48ce        .H      LDR      r0,[pc,#824] ; [0x1b18] = 0x20000120
        0x000017e0:    6800        .h      LDR      r0,[r0,#0]
        0x000017e2:    1c40        @.      ADDS     r0,r0,#1
        0x000017e4:    49cc        .I      LDR      r1,[pc,#816] ; [0x1b18] = 0x20000120
        0x000017e6:    6008        .`      STR      r0,[r1,#0]
        0x000017e8:    4608        .F      MOV      r0,r1
        0x000017ea:    6800        .h      LDR      r0,[r0,#0]
        0x000017ec:    2803        .(      CMP      r0,#3
        0x000017ee:    dd05        ..      BLE      0x17fc ; SendAT + 240
        0x000017f0:    a0ca        ..      ADR      r0,{pc}+0x32c ; 0x1b1c
        0x000017f2:    f002ff01    ....    BL       __0printf ; 0x45f8
        0x000017f6:    2064        d       MOVS     r0,#0x64
        0x000017f8:    f003fd94    ....    BL       manualdelay ; 0x5324
        0x000017fc:    2000        .       MOVS     r0,#0
        0x000017fe:    49b8        .I      LDR      r1,[pc,#736] ; [0x1ae0] = 0x50004240
        0x00001800:    3940        @9      SUBS     r1,r1,#0x40
        0x00001802:    6348        Hc      STR      r0,[r1,#0x34]
        0x00001804:    e002        ..      B        0x180c ; SendAT + 256
        0x00001806:    2000        .       MOVS     r0,#0
        0x00001808:    49c3        .I      LDR      r1,[pc,#780] ; [0x1b18] = 0x20000120
        0x0000180a:    6008        .`      STR      r0,[r1,#0]
        0x0000180c:    2001        .       MOVS     r0,#1
        0x0000180e:    49b4        .I      LDR      r1,[pc,#720] ; [0x1ae0] = 0x50004240
        0x00001810:    6088        .`      STR      r0,[r1,#8]
        0x00001812:    48b4        .H      LDR      r0,[pc,#720] ; [0x1ae4] = 0x20000080
        0x00001814:    6800        .h      LDR      r0,[r0,#0]
        0x00001816:    f003fe13    ....    BL       osMutexRelease ; 0x5440
        0x0000181a:    200a        .       MOVS     r0,#0xa
        0x0000181c:    f003fd90    ....    BL       osDelay ; 0x5340
        0x00001820:    b005        ..      ADD      sp,sp,#0x14
        0x00001822:    bdf0        ..      POP      {r4-r7,pc}
    main
        0x00001824:    b508        ..      PUSH     {r3,lr}
        0x00001826:    f002fe4d    ..M.    BL       SYS_Init ; 0x44c4
        0x0000182a:    f003fd97    ....    BL       osKernelInitialize ; 0x535c
        0x0000182e:    2200        ."      MOVS     r2,#0
        0x00001830:    2108        .!      MOVS     r1,#8
        0x00001832:    48be        .H      LDR      r0,[pc,#760] ; [0x1b2c] = 0x50004040
        0x00001834:    f001fd94    ....    BL       GPIO_SetMode ; 0x3360
        0x00001838:    2201        ."      MOVS     r2,#1
        0x0000183a:    0412        ..      LSLS     r2,r2,#16
        0x0000183c:    2103        .!      MOVS     r1,#3
        0x0000183e:    48bb        .H      LDR      r0,[pc,#748] ; [0x1b2c] = 0x50004040
        0x00001840:    f001fda5    ....    BL       GPIO_EnableInt ; 0x338e
        0x00001844:    2004        .       MOVS     r0,#4
        0x00001846:    f001fb3c    ..<.    BL       NVIC_EnableIRQ ; 0x2ec2
        0x0000184a:    2201        ."      MOVS     r2,#1
        0x0000184c:    2102        .!      MOVS     r1,#2
        0x0000184e:    48b7        .H      LDR      r0,[pc,#732] ; [0x1b2c] = 0x50004040
        0x00001850:    3040        @0      ADDS     r0,r0,#0x40
        0x00001852:    f001fd85    ....    BL       GPIO_SetMode ; 0x3360
        0x00001856:    2201        ."      MOVS     r2,#1
        0x00001858:    4611        .F      MOV      r1,r2
        0x0000185a:    48b4        .H      LDR      r0,[pc,#720] ; [0x1b2c] = 0x50004040
        0x0000185c:    3040        @0      ADDS     r0,r0,#0x40
        0x0000185e:    f001fd7f    ....    BL       GPIO_SetMode ; 0x3360
        0x00001862:    2201        ."      MOVS     r2,#1
        0x00001864:    0391        ..      LSLS     r1,r2,#14
        0x00001866:    48b1        .H      LDR      r0,[pc,#708] ; [0x1b2c] = 0x50004040
        0x00001868:    3840        @8      SUBS     r0,r0,#0x40
        0x0000186a:    f001fd79    ..y.    BL       GPIO_SetMode ; 0x3360
        0x0000186e:    2201        ."      MOVS     r2,#1
        0x00001870:    03d1        ..      LSLS     r1,r2,#15
        0x00001872:    48ae        .H      LDR      r0,[pc,#696] ; [0x1b2c] = 0x50004040
        0x00001874:    3840        @8      SUBS     r0,r0,#0x40
        0x00001876:    f001fd73    ..s.    BL       GPIO_SetMode ; 0x3360
        0x0000187a:    2200        ."      MOVS     r2,#0
        0x0000187c:    2101        .!      MOVS     r1,#1
        0x0000187e:    48ab        .H      LDR      r0,[pc,#684] ; [0x1b2c] = 0x50004040
        0x00001880:    3840        @8      SUBS     r0,r0,#0x40
        0x00001882:    f001fd6d    ..m.    BL       GPIO_SetMode ; 0x3360
        0x00001886:    2201        ."      MOVS     r2,#1
        0x00001888:    0351        Q.      LSLS     r1,r2,#13
        0x0000188a:    48a8        .H      LDR      r0,[pc,#672] ; [0x1b2c] = 0x50004040
        0x0000188c:    3840        @8      SUBS     r0,r0,#0x40
        0x0000188e:    f001fd67    ..g.    BL       GPIO_SetMode ; 0x3360
        0x00001892:    2000        .       MOVS     r0,#0
        0x00001894:    4992        .I      LDR      r1,[pc,#584] ; [0x1ae0] = 0x50004240
        0x00001896:    3940        @9      SUBS     r1,r1,#0x40
        0x00001898:    6348        Hc      STR      r0,[r1,#0x34]
        0x0000189a:    6388        .c      STR      r0,[r1,#0x38]
        0x0000189c:    63c8        .c      STR      r0,[r1,#0x3c]
        0x0000189e:    2001        .       MOVS     r0,#1
        0x000018a0:    498f        .I      LDR      r1,[pc,#572] ; [0x1ae0] = 0x50004240
        0x000018a2:    3140        @1      ADDS     r1,r1,#0x40
        0x000018a4:    6008        .`      STR      r0,[r1,#0]
        0x000018a6:    6048        H`      STR      r0,[r1,#4]
        0x000018a8:    2201        ."      MOVS     r2,#1
        0x000018aa:    2108        .!      MOVS     r1,#8
        0x000018ac:    489f        .H      LDR      r0,[pc,#636] ; [0x1b2c] = 0x50004040
        0x000018ae:    3840        @8      SUBS     r0,r0,#0x40
        0x000018b0:    f001fd56    ..V.    BL       GPIO_SetMode ; 0x3360
        0x000018b4:    2201        ."      MOVS     r2,#1
        0x000018b6:    2110        .!      MOVS     r1,#0x10
        0x000018b8:    489c        .H      LDR      r0,[pc,#624] ; [0x1b2c] = 0x50004040
        0x000018ba:    3840        @8      SUBS     r0,r0,#0x40
        0x000018bc:    f001fd50    ..P.    BL       GPIO_SetMode ; 0x3360
        0x000018c0:    2201        ."      MOVS     r2,#1
        0x000018c2:    2120         !      MOVS     r1,#0x20
        0x000018c4:    4899        .H      LDR      r0,[pc,#612] ; [0x1b2c] = 0x50004040
        0x000018c6:    3840        @8      SUBS     r0,r0,#0x40
        0x000018c8:    f001fd4a    ..J.    BL       GPIO_SetMode ; 0x3360
        0x000018cc:    2201        ."      MOVS     r2,#1
        0x000018ce:    2140        @!      MOVS     r1,#0x40
        0x000018d0:    4896        .H      LDR      r0,[pc,#600] ; [0x1b2c] = 0x50004040
        0x000018d2:    3840        @8      SUBS     r0,r0,#0x40
        0x000018d4:    f001fd44    ..D.    BL       GPIO_SetMode ; 0x3360
        0x000018d8:    2201        ."      MOVS     r2,#1
        0x000018da:    2104        .!      MOVS     r1,#4
        0x000018dc:    4893        .H      LDR      r0,[pc,#588] ; [0x1b2c] = 0x50004040
        0x000018de:    f001fd3f    ..?.    BL       GPIO_SetMode ; 0x3360
        0x000018e2:    bf00        ..      NOP      
        0x000018e4:    21e1        .!      MOVS     r1,#0xe1
        0x000018e6:    0249        I.      LSLS     r1,r1,#9
        0x000018e8:    487c        |H      LDR      r0,[pc,#496] ; [0x1adc] = 0x40050000
        0x000018ea:    f001fdbc    ....    BL       UART_Open ; 0x3466
        0x000018ee:    487b        {H      LDR      r0,[pc,#492] ; [0x1adc] = 0x40050000
        0x000018f0:    68c0        .h      LDR      r0,[r0,#0xc]
        0x000018f2:    2101        .!      MOVS     r1,#1
        0x000018f4:    4308        .C      ORRS     r0,r0,r1
        0x000018f6:    4979        yI      LDR      r1,[pc,#484] ; [0x1adc] = 0x40050000
        0x000018f8:    60c8        .`      STR      r0,[r1,#0xc]
        0x000018fa:    200c        .       MOVS     r0,#0xc
        0x000018fc:    f001fae1    ....    BL       NVIC_EnableIRQ ; 0x2ec2
        0x00001900:    bf00        ..      NOP      
        0x00001902:    214b        K!      MOVS     r1,#0x4b
        0x00001904:    01c9        ..      LSLS     r1,r1,#7
        0x00001906:    488a        .H      LDR      r0,[pc,#552] ; [0x1b30] = 0x40150000
        0x00001908:    f001fdad    ....    BL       UART_Open ; 0x3466
        0x0000190c:    2132        2!      MOVS     r1,#0x32
        0x0000190e:    4889        .H      LDR      r0,[pc,#548] ; [0x1b34] = 0x200013b9
        0x00001910:    f002f9ff    ....    BL       __aeabi_memclr ; 0x3d12
        0x00001914:    4988        .I      LDR      r1,[pc,#544] ; [0x1b38] = 0x186a0
        0x00001916:    4889        .H      LDR      r0,[pc,#548] ; [0x1b3c] = 0x40120000
        0x00001918:    f002f89a    ....    BL       I2C_Open ; 0x3a50
        0x0000191c:    4887        .H      LDR      r0,[pc,#540] ; [0x1b3c] = 0x40120000
        0x0000191e:    f002f903    ....    BL       I2C_EnableInt ; 0x3b28
        0x00001922:    2013        .       MOVS     r0,#0x13
        0x00001924:    f001facd    ....    BL       NVIC_EnableIRQ ; 0x2ec2
        0x00001928:    f7fffe92    ....    BL       Init_Timers ; 0x1650
        0x0000192c:    bf00        ..      NOP      
        0x0000192e:    2301        .#      MOVS     r3,#1
        0x00001930:    220c        ."      MOVS     r2,#0xc
        0x00001932:    2100        .!      MOVS     r1,#0
        0x00001934:    4882        .H      LDR      r0,[pc,#520] ; [0x1b40] = 0x400e0000
        0x00001936:    f001ffb3    ....    BL       ADC_Open ; 0x38a0
        0x0000193a:    4881        .H      LDR      r0,[pc,#516] ; [0x1b40] = 0x400e0000
        0x0000193c:    3040        @0      ADDS     r0,r0,#0x40
        0x0000193e:    6880        .h      LDR      r0,[r0,#8]
        0x00001940:    2103        .!      MOVS     r1,#3
        0x00001942:    0409        ..      LSLS     r1,r1,#16
        0x00001944:    4388        .C      BICS     r0,r0,r1
        0x00001946:    2101        .!      MOVS     r1,#1
        0x00001948:    0449        I.      LSLS     r1,r1,#17
        0x0000194a:    1840        @.      ADDS     r0,r0,r1
        0x0000194c:    497c        |I      LDR      r1,[pc,#496] ; [0x1b40] = 0x400e0000
        0x0000194e:    3140        @1      ADDS     r1,r1,#0x40
        0x00001950:    6088        .`      STR      r0,[r1,#8]
        0x00001952:    bf00        ..      NOP      
        0x00001954:    bf00        ..      NOP      
        0x00001956:    4608        .F      MOV      r0,r1
        0x00001958:    6880        .h      LDR      r0,[r0,#8]
        0x0000195a:    2101        .!      MOVS     r1,#1
        0x0000195c:    4308        .C      ORRS     r0,r0,r1
        0x0000195e:    4978        xI      LDR      r1,[pc,#480] ; [0x1b40] = 0x400e0000
        0x00001960:    3140        @1      ADDS     r1,r1,#0x40
        0x00001962:    6088        .`      STR      r0,[r1,#8]
        0x00001964:    bf00        ..      NOP      
        0x00001966:    4876        vH      LDR      r0,[pc,#472] ; [0x1b40] = 0x400e0000
        0x00001968:    3040        @0      ADDS     r0,r0,#0x40
        0x0000196a:    6980        .i      LDR      r0,[r0,#0x18]
        0x0000196c:    2101        .!      MOVS     r1,#1
        0x0000196e:    0409        ..      LSLS     r1,r1,#16
        0x00001970:    4008        .@      ANDS     r0,r0,r1
        0x00001972:    2800        .(      CMP      r0,#0
        0x00001974:    d0f7        ..      BEQ      0x1966 ; main + 322
        0x00001976:    4872        rH      LDR      r0,[pc,#456] ; [0x1b40] = 0x400e0000
        0x00001978:    3040        @0      ADDS     r0,r0,#0x40
        0x0000197a:    6a40        @j      LDR      r0,[r0,#0x24]
        0x0000197c:    07c0        ..      LSLS     r0,r0,#31
        0x0000197e:    0fc0        ..      LSRS     r0,r0,#31
        0x00001980:    2800        .(      CMP      r0,#0
        0x00001982:    d0f0        ..      BEQ      0x1966 ; main + 322
        0x00001984:    bf00        ..      NOP      
        0x00001986:    486e        nH      LDR      r0,[pc,#440] ; [0x1b40] = 0x400e0000
        0x00001988:    3040        @0      ADDS     r0,r0,#0x40
        0x0000198a:    6880        .h      LDR      r0,[r0,#8]
        0x0000198c:    1149        I.      ASRS     r1,r1,#5
        0x0000198e:    4308        .C      ORRS     r0,r0,r1
        0x00001990:    496b        kI      LDR      r1,[pc,#428] ; [0x1b40] = 0x400e0000
        0x00001992:    3140        @1      ADDS     r1,r1,#0x40
        0x00001994:    6088        .`      STR      r0,[r1,#8]
        0x00001996:    bf00        ..      NOP      
        0x00001998:    f7fffe9a    ....    BL       SYS_UnlockReg ; 0x16d0
        0x0000199c:    4869        iH      LDR      r0,[pc,#420] ; [0x1b44] = 0x6948
        0x0000199e:    f003fd35    ..5.    BL       osMutexCreate ; 0x540c
        0x000019a2:    4950        PI      LDR      r1,[pc,#320] ; [0x1ae4] = 0x20000080
        0x000019a4:    6008        .`      STR      r0,[r1,#0]
        0x000019a6:    2000        .       MOVS     r0,#0
        0x000019a8:    494d        MI      LDR      r1,[pc,#308] ; [0x1ae0] = 0x50004240
        0x000019aa:    3940        @9      SUBS     r1,r1,#0x40
        0x000019ac:    60c8        .`      STR      r0,[r1,#0xc]
        0x000019ae:    6108        .a      STR      r0,[r1,#0x10]
        0x000019b0:    6148        Ha      STR      r0,[r1,#0x14]
        0x000019b2:    6188        .a      STR      r0,[r1,#0x18]
        0x000019b4:    f7fffb27    ..'.    BL       Init_Thread ; 0x1006
        0x000019b8:    f003fce4    ....    BL       osKernelStart ; 0x5384
        0x000019bc:    2000        .       MOVS     r0,#0
        0x000019be:    4948        HI      LDR      r1,[pc,#288] ; [0x1ae0] = 0x50004240
        0x000019c0:    6088        .`      STR      r0,[r1,#8]
        0x000019c2:    2005        .       MOVS     r0,#5
        0x000019c4:    a360        `.      ADR      r3,{pc}+0x184 ; 0x1b48
        0x000019c6:    a262        b.      ADR      r2,{pc}+0x18a ; 0x1b50
        0x000019c8:    a162        b.      ADR      r1,{pc}+0x18c ; 0x1b54
        0x000019ca:    9000        ..      STR      r0,[sp,#0]
        0x000019cc:    a063        c.      ADR      r0,{pc}+0x190 ; 0x1b5c
        0x000019ce:    f7fffe9d    ....    BL       SendAT ; 0x170c
        0x000019d2:    200a        .       MOVS     r0,#0xa
        0x000019d4:    a35c        \.      ADR      r3,{pc}+0x174 ; 0x1b48
        0x000019d6:    a25e        ^.      ADR      r2,{pc}+0x17a ; 0x1b50
        0x000019d8:    a15e        ^.      ADR      r1,{pc}+0x17c ; 0x1b54
        0x000019da:    9000        ..      STR      r0,[sp,#0]
        0x000019dc:    a063        c.      ADR      r0,{pc}+0x190 ; 0x1b6c
        0x000019de:    f7fffe95    ....    BL       SendAT ; 0x170c
        0x000019e2:    f003fbc5    ....    BL       fileopen ; 0x5170
        0x000019e6:    200a        .       MOVS     r0,#0xa
        0x000019e8:    a357        W.      ADR      r3,{pc}+0x160 ; 0x1b48
        0x000019ea:    a259        Y.      ADR      r2,{pc}+0x166 ; 0x1b50
        0x000019ec:    a159        Y.      ADR      r1,{pc}+0x168 ; 0x1b54
        0x000019ee:    9000        ..      STR      r0,[sp,#0]
        0x000019f0:    a064        d.      ADR      r0,{pc}+0x194 ; 0x1b84
        0x000019f2:    f7fffe8b    ....    BL       SendAT ; 0x170c
        0x000019f6:    e001        ..      B        0x19fc ; main + 472
        0x000019f8:    f7fffda1    ....    BL       loop ; 0x153e
        0x000019fc:    e7fc        ..      B        0x19f8 ; main + 468
    UART1_IRQHandler
        0x000019fe:    4770        pG      BX       lr
    UART0_IRQHandler
        0x00001a00:    e00a        ..      B        0x1a18 ; UART0_IRQHandler + 24
        0x00001a02:    4836        6H      LDR      r0,[pc,#216] ; [0x1adc] = 0x40050000
        0x00001a04:    6800        .h      LDR      r0,[r0,#0]
        0x00001a06:    493e        >I      LDR      r1,[pc,#248] ; [0x1b00] = 0x200010d0
        0x00001a08:    4a3b        ;J      LDR      r2,[pc,#236] ; [0x1af8] = 0x200000a4
        0x00001a0a:    6812        .h      LDR      r2,[r2,#0]
        0x00001a0c:    5488        .T      STRB     r0,[r1,r2]
        0x00001a0e:    483a        :H      LDR      r0,[pc,#232] ; [0x1af8] = 0x200000a4
        0x00001a10:    6800        .h      LDR      r0,[r0,#0]
        0x00001a12:    1c40        @.      ADDS     r0,r0,#1
        0x00001a14:    4938        8I      LDR      r1,[pc,#224] ; [0x1af8] = 0x200000a4
        0x00001a16:    6008        .`      STR      r0,[r1,#0]
        0x00001a18:    4830        0H      LDR      r0,[pc,#192] ; [0x1adc] = 0x40050000
        0x00001a1a:    6980        .i      LDR      r0,[r0,#0x18]
        0x00001a1c:    2102        .!      MOVS     r1,#2
        0x00001a1e:    4008        .@      ANDS     r0,r0,r1
        0x00001a20:    2800        .(      CMP      r0,#0
        0x00001a22:    d0ee        ..      BEQ      0x1a02 ; UART0_IRQHandler + 2
        0x00001a24:    4770        pG      BX       lr
    mystrstr
        0x00001a26:    b5f8        ..      PUSH     {r3-r7,lr}
        0x00001a28:    4605        .F      MOV      r5,r0
        0x00001a2a:    460e        .F      MOV      r6,r1
        0x00001a2c:    4628        (F      MOV      r0,r5
        0x00001a2e:    f002f99b    ....    BL       strlen ; 0x3d68
        0x00001a32:    4607        .F      MOV      r7,r0
        0x00001a34:    2400        .$      MOVS     r4,#0
        0x00001a36:    e005        ..      B        0x1a44 ; mystrstr + 30
        0x00001a38:    5d28        (]      LDRB     r0,[r5,r4]
        0x00001a3a:    42b0        .B      CMP      r0,r6
        0x00001a3c:    d101        ..      BNE      0x1a42 ; mystrstr + 28
        0x00001a3e:    2001        .       MOVS     r0,#1
        0x00001a40:    bdf8        ..      POP      {r3-r7,pc}
        0x00001a42:    1c64        d.      ADDS     r4,r4,#1
        0x00001a44:    42bc        .B      CMP      r4,r7
        0x00001a46:    ddf7        ..      BLE      0x1a38 ; mystrstr + 18
        0x00001a48:    2000        .       MOVS     r0,#0
        0x00001a4a:    e7f9        ..      B        0x1a40 ; mystrstr + 26
    SavePinSetting
        0x00001a4c:    2005        .       MOVS     r0,#5
        0x00001a4e:    0700        ..      LSLS     r0,r0,#28
        0x00001a50:    6b00        .k      LDR      r0,[r0,#0x30]
        0x00001a52:    4951        QI      LDR      r1,[pc,#324] ; [0x1b98] = 0x200012f8
        0x00001a54:    6008        .`      STR      r0,[r1,#0]
        0x00001a56:    2005        .       MOVS     r0,#5
        0x00001a58:    0700        ..      LSLS     r0,r0,#28
        0x00001a5a:    6b40        @k      LDR      r0,[r0,#0x34]
        0x00001a5c:    6048        H`      STR      r0,[r1,#4]
        0x00001a5e:    2005        .       MOVS     r0,#5
        0x00001a60:    0700        ..      LSLS     r0,r0,#28
        0x00001a62:    6b80        .k      LDR      r0,[r0,#0x38]
        0x00001a64:    6088        .`      STR      r0,[r1,#8]
        0x00001a66:    2005        .       MOVS     r0,#5
        0x00001a68:    0700        ..      LSLS     r0,r0,#28
        0x00001a6a:    6bc0        .k      LDR      r0,[r0,#0x3c]
        0x00001a6c:    60c8        .`      STR      r0,[r1,#0xc]
        0x00001a6e:    4818        .H      LDR      r0,[pc,#96] ; [0x1ad0] = 0x50000100
        0x00001a70:    38c0        .8      SUBS     r0,r0,#0xc0
        0x00001a72:    6800        .h      LDR      r0,[r0,#0]
        0x00001a74:    6108        .a      STR      r0,[r1,#0x10]
        0x00001a76:    4816        .H      LDR      r0,[pc,#88] ; [0x1ad0] = 0x50000100
        0x00001a78:    38c0        .8      SUBS     r0,r0,#0xc0
        0x00001a7a:    6840        @h      LDR      r0,[r0,#4]
        0x00001a7c:    6148        Ha      STR      r0,[r1,#0x14]
        0x00001a7e:    4814        .H      LDR      r0,[pc,#80] ; [0x1ad0] = 0x50000100
        0x00001a80:    38c0        .8      SUBS     r0,r0,#0xc0
        0x00001a82:    6880        .h      LDR      r0,[r0,#8]
        0x00001a84:    6188        .a      STR      r0,[r1,#0x18]
        0x00001a86:    4812        .H      LDR      r0,[pc,#72] ; [0x1ad0] = 0x50000100
        0x00001a88:    38c0        .8      SUBS     r0,r0,#0xc0
        0x00001a8a:    68c0        .h      LDR      r0,[r0,#0xc]
        0x00001a8c:    61c8        .a      STR      r0,[r1,#0x1c]
        0x00001a8e:    4810        .H      LDR      r0,[pc,#64] ; [0x1ad0] = 0x50000100
        0x00001a90:    38c0        .8      SUBS     r0,r0,#0xc0
        0x00001a92:    6900        .i      LDR      r0,[r0,#0x10]
        0x00001a94:    6208        .b      STR      r0,[r1,#0x20]
        0x00001a96:    480e        .H      LDR      r0,[pc,#56] ; [0x1ad0] = 0x50000100
        0x00001a98:    38c0        .8      SUBS     r0,r0,#0xc0
        0x00001a9a:    6940        @i      LDR      r0,[r0,#0x14]
        0x00001a9c:    6248        Hb      STR      r0,[r1,#0x24]
        0x00001a9e:    480c        .H      LDR      r0,[pc,#48] ; [0x1ad0] = 0x50000100
        0x00001aa0:    38c0        .8      SUBS     r0,r0,#0xc0
        0x00001aa2:    6980        .i      LDR      r0,[r0,#0x18]
        0x00001aa4:    6288        .b      STR      r0,[r1,#0x28]
        0x00001aa6:    4821        !H      LDR      r0,[pc,#132] ; [0x1b2c] = 0x50004040
        0x00001aa8:    3840        @8      SUBS     r0,r0,#0x40
        0x00001aaa:    6a40        @j      LDR      r0,[r0,#0x24]
        0x00001aac:    493b        ;I      LDR      r1,[pc,#236] ; [0x1b9c] = 0x20001324
        0x00001aae:    6008        .`      STR      r0,[r1,#0]
        0x00001ab0:    481e        .H      LDR      r0,[pc,#120] ; [0x1b2c] = 0x50004040
        0x00001ab2:    6a40        @j      LDR      r0,[r0,#0x24]
        0x00001ab4:    6048        H`      STR      r0,[r1,#4]
        0x00001ab6:    481d        .H      LDR      r0,[pc,#116] ; [0x1b2c] = 0x50004040
        0x00001ab8:    3040        @0      ADDS     r0,r0,#0x40
        0x00001aba:    6a40        @j      LDR      r0,[r0,#0x24]
        0x00001abc:    6088        .`      STR      r0,[r1,#8]
        0x00001abe:    481b        .H      LDR      r0,[pc,#108] ; [0x1b2c] = 0x50004040
        0x00001ac0:    3080        .0      ADDS     r0,r0,#0x80
        0x00001ac2:    6a40        @j      LDR      r0,[r0,#0x24]
        0x00001ac4:    60c8        .`      STR      r0,[r1,#0xc]
        0x00001ac6:    4819        .H      LDR      r0,[pc,#100] ; [0x1b2c] = 0x50004040
        0x00001ac8:    30c0        .0      ADDS     r0,r0,#0xc0
        0x00001aca:    6a40        @j      LDR      r0,[r0,#0x24]
        0x00001acc:    6108        .a      STR      r0,[r1,#0x10]
        0x00001ace:    e067        g.      B        0x1ba0 ; SavePinSetting + 340
    $d
        0x00001ad0:    50000100    ...P    DCD    1342177536
        0x00001ad4:    00005aa5    .Z..    DCD    23205
        0x00001ad8:    40004100    .A.@    DCD    1073758464
        0x00001adc:    40050000    ...@    DCD    1074069504
        0x00001ae0:    50004240    @B.P    DCD    1342194240
        0x00001ae4:    20000080    ...     DCD    536871040
        0x00001ae8:    200000ac    ...     DCD    536871084
        0x00001aec:    200000d4    ...     DCD    536871124
        0x00001af0:    200000d8    ...     DCD    536871128
        0x00001af4:    200000dc    ...     DCD    536871132
        0x00001af8:    200000a4    ...     DCD    536871076
        0x00001afc:    00000226    &...    DCD    550
        0x00001b00:    200010d0    ...     DCD    536875216
        0x00001b04:    00006325    %c..    DCD    25381
        0x00001b08:    4f4c4951    QILO    DCD    1330399569
        0x00001b0c:    00504943    CIP.    DCD    5261635
        0x00001b10:    534e4751    QGNS    DCD    1397638993
        0x00001b14:    00004353    SC..    DCD    17235
        0x00001b18:    20000120     ..     DCD    536871200
        0x00001b1c:    54410a0d    ..AT    DCD    1413548557
        0x00001b20:    5546432b    +CFU    DCD    1430668075
        0x00001b24:    2c313d4e    N=1,    DCD    741424462
        0x00001b28:    000a0d31    1...    DCD    658737
        0x00001b2c:    50004040    @@.P    DCD    1342193728
        0x00001b30:    40150000    ...@    DCD    1075118080
        0x00001b34:    200013b9    ...     DCD    536875961
        0x00001b38:    000186a0    ....    DCD    100000
        0x00001b3c:    40120000    ...@    DCD    1074921472
        0x00001b40:    400e0000    ...@    DCD    1074659328
        0x00001b44:    00006948    Hi..    DCD    26952
        0x00001b48:    4f525245    ERRO    DCD    1330795077
        0x00001b4c:    00000052    R...    DCD    82
        0x00001b50:    00004b4f    OK..    DCD    19279
        0x00001b54:    64616552    Read    DCD    1684104530
        0x00001b58:    00000079    y...    DCD    121
        0x00001b5c:    54410a0d    ..AT    DCD    1413548557
        0x00001b60:    4353512b    +QSC    DCD    1129533739
        0x00001b64:    313d4b4c    LK=1    DCD    826100556
        0x00001b68:    00000a0d    ....    DCD    2573
        0x00001b6c:    54410a0d    ..AT    DCD    1413548557
        0x00001b70:    5359532b    +SYS    DCD    1398362923
        0x00001b74:    534d4554    TEMS    DCD    1397572948
        0x00001b78:    54524154    TART    DCD    1414676820
        0x00001b7c:    0d0a0d53    S...    DCD    218762579
        0x00001b80:    0000000a    ....    DCD    10
        0x00001b84:    54410a0d    ..AT    DCD    1413548557
        0x00001b88:    4e47512b    +QGN    DCD    1313296683
        0x00001b8c:    3d435353    SSC=    DCD    1027822419
        0x00001b90:    0d0a0d31    1...    DCD    218762545
        0x00001b94:    0000000a    ....    DCD    10
        0x00001b98:    200012f8    ...     DCD    536875768
        0x00001b9c:    20001324    $..     DCD    536875812
    $t
        0x00001ba0:    48fd        .H      LDR      r0,[pc,#1012] ; [0x1f98] = 0x50004140
        0x00001ba2:    6a40        @j      LDR      r0,[r0,#0x24]
        0x00001ba4:    6148        Ha      STR      r0,[r1,#0x14]
        0x00001ba6:    4770        pG      BX       lr
    RestorePinSetting
        0x00001ba8:    48fc        .H      LDR      r0,[pc,#1008] ; [0x1f9c] = 0x200012f8
        0x00001baa:    6800        .h      LDR      r0,[r0,#0]
        0x00001bac:    2105        .!      MOVS     r1,#5
        0x00001bae:    0709        ..      LSLS     r1,r1,#28
        0x00001bb0:    6308        .c      STR      r0,[r1,#0x30]
        0x00001bb2:    48fa        .H      LDR      r0,[pc,#1000] ; [0x1f9c] = 0x200012f8
        0x00001bb4:    6840        @h      LDR      r0,[r0,#4]
        0x00001bb6:    6348        Hc      STR      r0,[r1,#0x34]
        0x00001bb8:    48f8        .H      LDR      r0,[pc,#992] ; [0x1f9c] = 0x200012f8
        0x00001bba:    6880        .h      LDR      r0,[r0,#8]
        0x00001bbc:    6388        .c      STR      r0,[r1,#0x38]
        0x00001bbe:    48f7        .H      LDR      r0,[pc,#988] ; [0x1f9c] = 0x200012f8
        0x00001bc0:    68c0        .h      LDR      r0,[r0,#0xc]
        0x00001bc2:    63c8        .c      STR      r0,[r1,#0x3c]
        0x00001bc4:    48f5        .H      LDR      r0,[pc,#980] ; [0x1f9c] = 0x200012f8
        0x00001bc6:    6900        .i      LDR      r0,[r0,#0x10]
        0x00001bc8:    49f5        .I      LDR      r1,[pc,#980] ; [0x1fa0] = 0x50000040
        0x00001bca:    6008        .`      STR      r0,[r1,#0]
        0x00001bcc:    48f3        .H      LDR      r0,[pc,#972] ; [0x1f9c] = 0x200012f8
        0x00001bce:    6940        @i      LDR      r0,[r0,#0x14]
        0x00001bd0:    6048        H`      STR      r0,[r1,#4]
        0x00001bd2:    48f2        .H      LDR      r0,[pc,#968] ; [0x1f9c] = 0x200012f8
        0x00001bd4:    6980        .i      LDR      r0,[r0,#0x18]
        0x00001bd6:    6088        .`      STR      r0,[r1,#8]
        0x00001bd8:    48f0        .H      LDR      r0,[pc,#960] ; [0x1f9c] = 0x200012f8
        0x00001bda:    69c0        .i      LDR      r0,[r0,#0x1c]
        0x00001bdc:    60c8        .`      STR      r0,[r1,#0xc]
        0x00001bde:    48ef        .H      LDR      r0,[pc,#956] ; [0x1f9c] = 0x200012f8
        0x00001be0:    6a00        .j      LDR      r0,[r0,#0x20]
        0x00001be2:    6108        .a      STR      r0,[r1,#0x10]
        0x00001be4:    48ed        .H      LDR      r0,[pc,#948] ; [0x1f9c] = 0x200012f8
        0x00001be6:    6a40        @j      LDR      r0,[r0,#0x24]
        0x00001be8:    6148        Ha      STR      r0,[r1,#0x14]
        0x00001bea:    48ec        .H      LDR      r0,[pc,#944] ; [0x1f9c] = 0x200012f8
        0x00001bec:    6a80        .j      LDR      r0,[r0,#0x28]
        0x00001bee:    6188        .a      STR      r0,[r1,#0x18]
        0x00001bf0:    48ec        .H      LDR      r0,[pc,#944] ; [0x1fa4] = 0x20001324
        0x00001bf2:    6800        .h      LDR      r0,[r0,#0]
        0x00001bf4:    49ec        .I      LDR      r1,[pc,#944] ; [0x1fa8] = 0x50004000
        0x00001bf6:    6248        Hb      STR      r0,[r1,#0x24]
        0x00001bf8:    48ea        .H      LDR      r0,[pc,#936] ; [0x1fa4] = 0x20001324
        0x00001bfa:    6840        @h      LDR      r0,[r0,#4]
        0x00001bfc:    49ea        .I      LDR      r1,[pc,#936] ; [0x1fa8] = 0x50004000
        0x00001bfe:    3140        @1      ADDS     r1,r1,#0x40
        0x00001c00:    6248        Hb      STR      r0,[r1,#0x24]
        0x00001c02:    48e8        .H      LDR      r0,[pc,#928] ; [0x1fa4] = 0x20001324
        0x00001c04:    6880        .h      LDR      r0,[r0,#8]
        0x00001c06:    49e8        .I      LDR      r1,[pc,#928] ; [0x1fa8] = 0x50004000
        0x00001c08:    3180        .1      ADDS     r1,r1,#0x80
        0x00001c0a:    6248        Hb      STR      r0,[r1,#0x24]
        0x00001c0c:    48e5        .H      LDR      r0,[pc,#916] ; [0x1fa4] = 0x20001324
        0x00001c0e:    68c0        .h      LDR      r0,[r0,#0xc]
        0x00001c10:    49e1        .I      LDR      r1,[pc,#900] ; [0x1f98] = 0x50004140
        0x00001c12:    3980        .9      SUBS     r1,r1,#0x80
        0x00001c14:    6248        Hb      STR      r0,[r1,#0x24]
        0x00001c16:    48e3        .H      LDR      r0,[pc,#908] ; [0x1fa4] = 0x20001324
        0x00001c18:    6900        .i      LDR      r0,[r0,#0x10]
        0x00001c1a:    49df        .I      LDR      r1,[pc,#892] ; [0x1f98] = 0x50004140
        0x00001c1c:    3940        @9      SUBS     r1,r1,#0x40
        0x00001c1e:    6248        Hb      STR      r0,[r1,#0x24]
        0x00001c20:    48e0        .H      LDR      r0,[pc,#896] ; [0x1fa4] = 0x20001324
        0x00001c22:    6940        @i      LDR      r0,[r0,#0x14]
        0x00001c24:    49dc        .I      LDR      r1,[pc,#880] ; [0x1f98] = 0x50004140
        0x00001c26:    6248        Hb      STR      r0,[r1,#0x24]
        0x00001c28:    4770        pG      BX       lr
    Enter_PowerDown
        0x00001c2a:    b510        ..      PUSH     {r4,lr}
        0x00001c2c:    f7ffff0e    ....    BL       SavePinSetting ; 0x1a4c
        0x00001c30:    2000        .       MOVS     r0,#0
        0x00001c32:    2105        .!      MOVS     r1,#5
        0x00001c34:    0709        ..      LSLS     r1,r1,#28
        0x00001c36:    6308        .c      STR      r0,[r1,#0x30]
        0x00001c38:    6348        Hc      STR      r0,[r1,#0x34]
        0x00001c3a:    6388        .c      STR      r0,[r1,#0x38]
        0x00001c3c:    63c8        .c      STR      r0,[r1,#0x3c]
        0x00001c3e:    49d8        .I      LDR      r1,[pc,#864] ; [0x1fa0] = 0x50000040
        0x00001c40:    6008        .`      STR      r0,[r1,#0]
        0x00001c42:    6048        H`      STR      r0,[r1,#4]
        0x00001c44:    6088        .`      STR      r0,[r1,#8]
        0x00001c46:    60c8        .`      STR      r0,[r1,#0xc]
        0x00001c48:    6108        .a      STR      r0,[r1,#0x10]
        0x00001c4a:    6148        Ha      STR      r0,[r1,#0x14]
        0x00001c4c:    2077        w       MOVS     r0,#0x77
        0x00001c4e:    0200        ..      LSLS     r0,r0,#8
        0x00001c50:    6188        .a      STR      r0,[r1,#0x18]
        0x00001c52:    48d6        .H      LDR      r0,[pc,#856] ; [0x1fac] = 0xffff
        0x00001c54:    49d4        .I      LDR      r1,[pc,#848] ; [0x1fa8] = 0x50004000
        0x00001c56:    6248        Hb      STR      r0,[r1,#0x24]
        0x00001c58:    49d3        .I      LDR      r1,[pc,#844] ; [0x1fa8] = 0x50004000
        0x00001c5a:    3140        @1      ADDS     r1,r1,#0x40
        0x00001c5c:    6248        Hb      STR      r0,[r1,#0x24]
        0x00001c5e:    49d2        .I      LDR      r1,[pc,#840] ; [0x1fa8] = 0x50004000
        0x00001c60:    3180        .1      ADDS     r1,r1,#0x80
        0x00001c62:    6248        Hb      STR      r0,[r1,#0x24]
        0x00001c64:    49cc        .I      LDR      r1,[pc,#816] ; [0x1f98] = 0x50004140
        0x00001c66:    3980        .9      SUBS     r1,r1,#0x80
        0x00001c68:    6248        Hb      STR      r0,[r1,#0x24]
        0x00001c6a:    49cb        .I      LDR      r1,[pc,#812] ; [0x1f98] = 0x50004140
        0x00001c6c:    3940        @9      SUBS     r1,r1,#0x40
        0x00001c6e:    6248        Hb      STR      r0,[r1,#0x24]
        0x00001c70:    2033        3       MOVS     r0,#0x33
        0x00001c72:    49c9        .I      LDR      r1,[pc,#804] ; [0x1f98] = 0x50004140
        0x00001c74:    6248        Hb      STR      r0,[r1,#0x24]
        0x00001c76:    48ce        .H      LDR      r0,[pc,#824] ; [0x1fb0] = 0x50000200
        0x00001c78:    6880        .h      LDR      r0,[r0,#8]
        0x00001c7a:    2101        .!      MOVS     r1,#1
        0x00001c7c:    0689        ..      LSLS     r1,r1,#26
        0x00001c7e:    4388        .C      BICS     r0,r0,r1
        0x00001c80:    49cb        .I      LDR      r1,[pc,#812] ; [0x1fb0] = 0x50000200
        0x00001c82:    6088        .`      STR      r0,[r1,#8]
        0x00001c84:    4608        .F      MOV      r0,r1
        0x00001c86:    6800        .h      LDR      r0,[r0,#0]
        0x00001c88:    2102        .!      MOVS     r1,#2
        0x00001c8a:    4388        .C      BICS     r0,r0,r1
        0x00001c8c:    49c8        .I      LDR      r1,[pc,#800] ; [0x1fb0] = 0x50000200
        0x00001c8e:    6008        .`      STR      r0,[r1,#0]
        0x00001c90:    f001f93d    ..=.    BL       CLK_PowerDown ; 0x2f0e
        0x00001c94:    bd10        ..      POP      {r4,pc}
    Leave_PowerDown
        0x00001c96:    b500        ..      PUSH     {lr}
        0x00001c98:    f7ffff86    ....    BL       RestorePinSetting ; 0x1ba8
        0x00001c9c:    48c0        .H      LDR      r0,[pc,#768] ; [0x1fa0] = 0x50000040
        0x00001c9e:    6980        .i      LDR      r0,[r0,#0x18]
        0x00001ca0:    2177        w!      MOVS     r1,#0x77
        0x00001ca2:    4308        .C      ORRS     r0,r0,r1
        0x00001ca4:    49be        .I      LDR      r1,[pc,#760] ; [0x1fa0] = 0x50000040
        0x00001ca6:    6188        .a      STR      r0,[r1,#0x18]
        0x00001ca8:    48c1        .H      LDR      r0,[pc,#772] ; [0x1fb0] = 0x50000200
        0x00001caa:    6800        .h      LDR      r0,[r0,#0]
        0x00001cac:    2102        .!      MOVS     r1,#2
        0x00001cae:    4308        .C      ORRS     r0,r0,r1
        0x00001cb0:    49bf        .I      LDR      r1,[pc,#764] ; [0x1fb0] = 0x50000200
        0x00001cb2:    6008        .`      STR      r0,[r1,#0]
        0x00001cb4:    4608        .F      MOV      r0,r1
        0x00001cb6:    6880        .h      LDR      r0,[r0,#8]
        0x00001cb8:    0449        I.      LSLS     r1,r1,#17
        0x00001cba:    4308        .C      ORRS     r0,r0,r1
        0x00001cbc:    49bc        .I      LDR      r1,[pc,#752] ; [0x1fb0] = 0x50000200
        0x00001cbe:    6088        .`      STR      r0,[r1,#8]
        0x00001cc0:    bd00        ..      POP      {pc}
    GPABC_IRQHandler
        0x00001cc2:    48b9        .H      LDR      r0,[pc,#740] ; [0x1fa8] = 0x50004000
        0x00001cc4:    3040        @0      ADDS     r0,r0,#0x40
        0x00001cc6:    6a00        .j      LDR      r0,[r0,#0x20]
        0x00001cc8:    2108        .!      MOVS     r1,#8
        0x00001cca:    4008        .@      ANDS     r0,r0,r1
        0x00001ccc:    2800        .(      CMP      r0,#0
        0x00001cce:    d007        ..      BEQ      0x1ce0 ; GPABC_IRQHandler + 30
        0x00001cd0:    2008        .       MOVS     r0,#8
        0x00001cd2:    49b5        .I      LDR      r1,[pc,#724] ; [0x1fa8] = 0x50004000
        0x00001cd4:    3140        @1      ADDS     r1,r1,#0x40
        0x00001cd6:    6208        .b      STR      r0,[r1,#0x20]
        0x00001cd8:    2001        .       MOVS     r0,#1
        0x00001cda:    49b6        .I      LDR      r1,[pc,#728] ; [0x1fb4] = 0x200000d0
        0x00001cdc:    7008        .p      STRB     r0,[r1,#0]
        0x00001cde:    e009        ..      B        0x1cf4 ; GPABC_IRQHandler + 50
        0x00001ce0:    48b1        .H      LDR      r0,[pc,#708] ; [0x1fa8] = 0x50004000
        0x00001ce2:    6a00        .j      LDR      r0,[r0,#0x20]
        0x00001ce4:    49b0        .I      LDR      r1,[pc,#704] ; [0x1fa8] = 0x50004000
        0x00001ce6:    6208        .b      STR      r0,[r1,#0x20]
        0x00001ce8:    48af        .H      LDR      r0,[pc,#700] ; [0x1fa8] = 0x50004000
        0x00001cea:    3040        @0      ADDS     r0,r0,#0x40
        0x00001cec:    6a00        .j      LDR      r0,[r0,#0x20]
        0x00001cee:    49ae        .I      LDR      r1,[pc,#696] ; [0x1fa8] = 0x50004000
        0x00001cf0:    3140        @1      ADDS     r1,r1,#0x40
        0x00001cf2:    6208        .b      STR      r0,[r1,#0x20]
        0x00001cf4:    4770        pG      BX       lr
    cpinquerry
        0x00001cf6:    b510        ..      PUSH     {r4,lr}
        0x00001cf8:    2000        .       MOVS     r0,#0
        0x00001cfa:    49af        .I      LDR      r1,[pc,#700] ; [0x1fb8] = 0x50004240
        0x00001cfc:    6088        .`      STR      r0,[r1,#8]
        0x00001cfe:    2064        d       MOVS     r0,#0x64
        0x00001d00:    f003fb1e    ....    BL       osDelay ; 0x5340
        0x00001d04:    2100        .!      MOVS     r1,#0
        0x00001d06:    43c9        .C      MVNS     r1,r1
        0x00001d08:    48ac        .H      LDR      r0,[pc,#688] ; [0x1fbc] = 0x20000080
        0x00001d0a:    6800        .h      LDR      r0,[r0,#0]
        0x00001d0c:    f003fba6    ....    BL       osMutexWait ; 0x545c
        0x00001d10:    2000        .       MOVS     r0,#0
        0x00001d12:    49ab        .I      LDR      r1,[pc,#684] ; [0x1fc0] = 0x200000ac
        0x00001d14:    6008        .`      STR      r0,[r1,#0]
        0x00001d16:    2405        .$      MOVS     r4,#5
        0x00001d18:    49aa        .I      LDR      r1,[pc,#680] ; [0x1fc4] = 0x200000d4
        0x00001d1a:    6008        .`      STR      r0,[r1,#0]
        0x00001d1c:    49aa        .I      LDR      r1,[pc,#680] ; [0x1fc8] = 0x200000d8
        0x00001d1e:    6008        .`      STR      r0,[r1,#0]
        0x00001d20:    49aa        .I      LDR      r1,[pc,#680] ; [0x1fcc] = 0x200000dc
        0x00001d22:    6008        .`      STR      r0,[r1,#0]
        0x00001d24:    49aa        .I      LDR      r1,[pc,#680] ; [0x1fd0] = 0x200000a4
        0x00001d26:    6008        .`      STR      r0,[r1,#0]
        0x00001d28:    49aa        .I      LDR      r1,[pc,#680] ; [0x1fd4] = 0x226
        0x00001d2a:    48ab        .H      LDR      r0,[pc,#684] ; [0x1fd8] = 0x200010d0
        0x00001d2c:    f001fff1    ....    BL       __aeabi_memclr ; 0x3d12
        0x00001d30:    211a        .!      MOVS     r1,#0x1a
        0x00001d32:    a0aa        ..      ADR      r0,{pc}+0x2aa ; 0x1fdc
        0x00001d34:    f002fc60    ..`.    BL       __0printf ; 0x45f8
        0x00001d38:    f7fffcdd    ....    BL       clear ; 0x16f6
        0x00001d3c:    a0a8        ..      ADR      r0,{pc}+0x2a4 ; 0x1fe0
        0x00001d3e:    f002fc5b    ..[.    BL       __0printf ; 0x45f8
        0x00001d42:    bf00        ..      NOP      
        0x00001d44:    a1aa        ..      ADR      r1,{pc}+0x2ac ; 0x1ff0
        0x00001d46:    48a4        .H      LDR      r0,[pc,#656] ; [0x1fd8] = 0x200010d0
        0x00001d48:    f001fffa    ....    BL       strstr ; 0x3d40
        0x00001d4c:    499d        .I      LDR      r1,[pc,#628] ; [0x1fc4] = 0x200000d4
        0x00001d4e:    6008        .`      STR      r0,[r1,#0]
        0x00001d50:    a1aa        ..      ADR      r1,{pc}+0x2ac ; 0x1ffc
        0x00001d52:    48a1        .H      LDR      r0,[pc,#644] ; [0x1fd8] = 0x200010d0
        0x00001d54:    f001fff4    ....    BL       strstr ; 0x3d40
        0x00001d58:    499b        .I      LDR      r1,[pc,#620] ; [0x1fc8] = 0x200000d8
        0x00001d5a:    6008        .`      STR      r0,[r1,#0]
        0x00001d5c:    49a8        .I      LDR      r1,[pc,#672] ; [0x2000] = 0x1b48
        0x00001d5e:    489e        .H      LDR      r0,[pc,#632] ; [0x1fd8] = 0x200010d0
        0x00001d60:    f001ffee    ....    BL       strstr ; 0x3d40
        0x00001d64:    4999        .I      LDR      r1,[pc,#612] ; [0x1fcc] = 0x200000dc
        0x00001d66:    6008        .`      STR      r0,[r1,#0]
        0x00001d68:    4896        .H      LDR      r0,[pc,#600] ; [0x1fc4] = 0x200000d4
        0x00001d6a:    6800        .h      LDR      r0,[r0,#0]
        0x00001d6c:    2800        .(      CMP      r0,#0
        0x00001d6e:    d10b        ..      BNE      0x1d88 ; cpinquerry + 146
        0x00001d70:    4895        .H      LDR      r0,[pc,#596] ; [0x1fc8] = 0x200000d8
        0x00001d72:    6800        .h      LDR      r0,[r0,#0]
        0x00001d74:    2800        .(      CMP      r0,#0
        0x00001d76:    d107        ..      BNE      0x1d88 ; cpinquerry + 146
        0x00001d78:    4608        .F      MOV      r0,r1
        0x00001d7a:    6800        .h      LDR      r0,[r0,#0]
        0x00001d7c:    2800        .(      CMP      r0,#0
        0x00001d7e:    d103        ..      BNE      0x1d88 ; cpinquerry + 146
        0x00001d80:    488f        .H      LDR      r0,[pc,#572] ; [0x1fc0] = 0x200000ac
        0x00001d82:    6800        .h      LDR      r0,[r0,#0]
        0x00001d84:    42a0        .B      CMP      r0,r4
        0x00001d86:    dbdd        ..      BLT      0x1d44 ; cpinquerry + 78
        0x00001d88:    2001        .       MOVS     r0,#1
        0x00001d8a:    498b        .I      LDR      r1,[pc,#556] ; [0x1fb8] = 0x50004240
        0x00001d8c:    6088        .`      STR      r0,[r1,#8]
        0x00001d8e:    f7fffcb2    ....    BL       clear ; 0x16f6
        0x00001d92:    488c        .H      LDR      r0,[pc,#560] ; [0x1fc4] = 0x200000d4
        0x00001d94:    6800        .h      LDR      r0,[r0,#0]
        0x00001d96:    2800        .(      CMP      r0,#0
        0x00001d98:    d003        ..      BEQ      0x1da2 ; cpinquerry + 172
        0x00001d9a:    2001        .       MOVS     r0,#1
        0x00001d9c:    4999        .I      LDR      r1,[pc,#612] ; [0x2004] = 0x200000b9
        0x00001d9e:    7008        .p      STRB     r0,[r1,#0]
        0x00001da0:    e002        ..      B        0x1da8 ; cpinquerry + 178
        0x00001da2:    2000        .       MOVS     r0,#0
        0x00001da4:    4997        .I      LDR      r1,[pc,#604] ; [0x2004] = 0x200000b9
        0x00001da6:    7008        .p      STRB     r0,[r1,#0]
        0x00001da8:    4884        .H      LDR      r0,[pc,#528] ; [0x1fbc] = 0x20000080
        0x00001daa:    6800        .h      LDR      r0,[r0,#0]
        0x00001dac:    f003fb48    ..H.    BL       osMutexRelease ; 0x5440
        0x00001db0:    bd10        ..      POP      {r4,pc}
    cregquerry
        0x00001db2:    b510        ..      PUSH     {r4,lr}
        0x00001db4:    b086        ..      SUB      sp,sp,#0x18
        0x00001db6:    2000        .       MOVS     r0,#0
        0x00001db8:    497f        .I      LDR      r1,[pc,#508] ; [0x1fb8] = 0x50004240
        0x00001dba:    6088        .`      STR      r0,[r1,#8]
        0x00001dbc:    2064        d       MOVS     r0,#0x64
        0x00001dbe:    f003fabf    ....    BL       osDelay ; 0x5340
        0x00001dc2:    2100        .!      MOVS     r1,#0
        0x00001dc4:    43c9        .C      MVNS     r1,r1
        0x00001dc6:    487d        }H      LDR      r0,[pc,#500] ; [0x1fbc] = 0x20000080
        0x00001dc8:    6800        .h      LDR      r0,[r0,#0]
        0x00001dca:    f003fb47    ..G.    BL       osMutexWait ; 0x545c
        0x00001dce:    2000        .       MOVS     r0,#0
        0x00001dd0:    497b        {I      LDR      r1,[pc,#492] ; [0x1fc0] = 0x200000ac
        0x00001dd2:    6008        .`      STR      r0,[r1,#0]
        0x00001dd4:    2405        .$      MOVS     r4,#5
        0x00001dd6:    497b        {I      LDR      r1,[pc,#492] ; [0x1fc4] = 0x200000d4
        0x00001dd8:    6008        .`      STR      r0,[r1,#0]
        0x00001dda:    497b        {I      LDR      r1,[pc,#492] ; [0x1fc8] = 0x200000d8
        0x00001ddc:    6008        .`      STR      r0,[r1,#0]
        0x00001dde:    497b        {I      LDR      r1,[pc,#492] ; [0x1fcc] = 0x200000dc
        0x00001de0:    6008        .`      STR      r0,[r1,#0]
        0x00001de2:    497b        {I      LDR      r1,[pc,#492] ; [0x1fd0] = 0x200000a4
        0x00001de4:    6008        .`      STR      r0,[r1,#0]
        0x00001de6:    497b        {I      LDR      r1,[pc,#492] ; [0x1fd4] = 0x226
        0x00001de8:    487b        {H      LDR      r0,[pc,#492] ; [0x1fd8] = 0x200010d0
        0x00001dea:    f001ff92    ....    BL       __aeabi_memclr ; 0x3d12
        0x00001dee:    211a        .!      MOVS     r1,#0x1a
        0x00001df0:    a07a        z.      ADR      r0,{pc}+0x1ec ; 0x1fdc
        0x00001df2:    f002fc01    ....    BL       __0printf ; 0x45f8
        0x00001df6:    f7fffc7e    ..~.    BL       clear ; 0x16f6
        0x00001dfa:    a083        ..      ADR      r0,{pc}+0x20e ; 0x2008
        0x00001dfc:    f002fbfc    ....    BL       __0printf ; 0x45f8
        0x00001e00:    bf00        ..      NOP      
        0x00001e02:    a17b        {.      ADR      r1,{pc}+0x1ee ; 0x1ff0
        0x00001e04:    4874        tH      LDR      r0,[pc,#464] ; [0x1fd8] = 0x200010d0
        0x00001e06:    f001ff9b    ....    BL       strstr ; 0x3d40
        0x00001e0a:    496e        nI      LDR      r1,[pc,#440] ; [0x1fc4] = 0x200000d4
        0x00001e0c:    6008        .`      STR      r0,[r1,#0]
        0x00001e0e:    a17b        {.      ADR      r1,{pc}+0x1ee ; 0x1ffc
        0x00001e10:    4871        qH      LDR      r0,[pc,#452] ; [0x1fd8] = 0x200010d0
        0x00001e12:    f001ff95    ....    BL       strstr ; 0x3d40
        0x00001e16:    496c        lI      LDR      r1,[pc,#432] ; [0x1fc8] = 0x200000d8
        0x00001e18:    6008        .`      STR      r0,[r1,#0]
        0x00001e1a:    4979        yI      LDR      r1,[pc,#484] ; [0x2000] = 0x1b48
        0x00001e1c:    486e        nH      LDR      r0,[pc,#440] ; [0x1fd8] = 0x200010d0
        0x00001e1e:    f001ff8f    ....    BL       strstr ; 0x3d40
        0x00001e22:    496a        jI      LDR      r1,[pc,#424] ; [0x1fcc] = 0x200000dc
        0x00001e24:    6008        .`      STR      r0,[r1,#0]
        0x00001e26:    4867        gH      LDR      r0,[pc,#412] ; [0x1fc4] = 0x200000d4
        0x00001e28:    6800        .h      LDR      r0,[r0,#0]
        0x00001e2a:    2800        .(      CMP      r0,#0
        0x00001e2c:    d10b        ..      BNE      0x1e46 ; cregquerry + 148
        0x00001e2e:    4866        fH      LDR      r0,[pc,#408] ; [0x1fc8] = 0x200000d8
        0x00001e30:    6800        .h      LDR      r0,[r0,#0]
        0x00001e32:    2800        .(      CMP      r0,#0
        0x00001e34:    d107        ..      BNE      0x1e46 ; cregquerry + 148
        0x00001e36:    4608        .F      MOV      r0,r1
        0x00001e38:    6800        .h      LDR      r0,[r0,#0]
        0x00001e3a:    2800        .(      CMP      r0,#0
        0x00001e3c:    d103        ..      BNE      0x1e46 ; cregquerry + 148
        0x00001e3e:    4860        `H      LDR      r0,[pc,#384] ; [0x1fc0] = 0x200000ac
        0x00001e40:    6800        .h      LDR      r0,[r0,#0]
        0x00001e42:    42a0        .B      CMP      r0,r4
        0x00001e44:    dbdd        ..      BLT      0x1e02 ; cregquerry + 80
        0x00001e46:    f7fffc56    ..V.    BL       clear ; 0x16f6
        0x00001e4a:    2001        .       MOVS     r0,#1
        0x00001e4c:    495a        ZI      LDR      r1,[pc,#360] ; [0x1fb8] = 0x50004240
        0x00001e4e:    6088        .`      STR      r0,[r1,#8]
        0x00001e50:    2000        .       MOVS     r0,#0
        0x00001e52:    9003        ..      STR      r0,[sp,#0xc]
        0x00001e54:    9004        ..      STR      r0,[sp,#0x10]
        0x00001e56:    9005        ..      STR      r0,[sp,#0x14]
        0x00001e58:    a803        ..      ADD      r0,sp,#0xc
        0x00001e5a:    210a        .!      MOVS     r1,#0xa
        0x00001e5c:    232c        ,#      MOVS     r3,#0x2c
        0x00001e5e:    2202        ."      MOVS     r2,#2
        0x00001e60:    9100        ..      STR      r1,[sp,#0]
        0x00001e62:    9001        ..      STR      r0,[sp,#4]
        0x00001e64:    2101        .!      MOVS     r1,#1
        0x00001e66:    485c        \H      LDR      r0,[pc,#368] ; [0x1fd8] = 0x200010d0
        0x00001e68:    f003fbb4    ....    BL       parse_g ; 0x55d4
        0x00001e6c:    a16a        j.      ADR      r1,{pc}+0x1ac ; 0x2018
        0x00001e6e:    a803        ..      ADD      r0,sp,#0xc
        0x00001e70:    f001ff66    ..f.    BL       strstr ; 0x3d40
        0x00001e74:    2800        .(      CMP      r0,#0
        0x00001e76:    d105        ..      BNE      0x1e84 ; cregquerry + 210
        0x00001e78:    a168        h.      ADR      r1,{pc}+0x1a4 ; 0x201c
        0x00001e7a:    a803        ..      ADD      r0,sp,#0xc
        0x00001e7c:    f001ff60    ..`.    BL       strstr ; 0x3d40
        0x00001e80:    2800        .(      CMP      r0,#0
        0x00001e82:    d003        ..      BEQ      0x1e8c ; cregquerry + 218
        0x00001e84:    2001        .       MOVS     r0,#1
        0x00001e86:    4966        fI      LDR      r1,[pc,#408] ; [0x2020] = 0x200000ba
        0x00001e88:    7008        .p      STRB     r0,[r1,#0]
        0x00001e8a:    e002        ..      B        0x1e92 ; cregquerry + 224
        0x00001e8c:    2000        .       MOVS     r0,#0
        0x00001e8e:    4964        dI      LDR      r1,[pc,#400] ; [0x2020] = 0x200000ba
        0x00001e90:    7008        .p      STRB     r0,[r1,#0]
        0x00001e92:    484a        JH      LDR      r0,[pc,#296] ; [0x1fbc] = 0x20000080
        0x00001e94:    6800        .h      LDR      r0,[r0,#0]
        0x00001e96:    f003fad3    ....    BL       osMutexRelease ; 0x5440
        0x00001e9a:    2005        .       MOVS     r0,#5
        0x00001e9c:    f003fa50    ..P.    BL       osDelay ; 0x5340
        0x00001ea0:    b006        ..      ADD      sp,sp,#0x18
        0x00001ea2:    bd10        ..      POP      {r4,pc}
    SendAT_FS
        0x00001ea4:    b5ff        ..      PUSH     {r0-r7,lr}
        0x00001ea6:    b081        ..      SUB      sp,sp,#4
        0x00001ea8:    4606        .F      MOV      r6,r0
        0x00001eaa:    4614        .F      MOV      r4,r2
        0x00001eac:    461d        .F      MOV      r5,r3
        0x00001eae:    9f0a        ..      LDR      r7,[sp,#0x28]
        0x00001eb0:    2064        d       MOVS     r0,#0x64
        0x00001eb2:    f003fa45    ..E.    BL       osDelay ; 0x5340
        0x00001eb6:    2100        .!      MOVS     r1,#0
        0x00001eb8:    43c9        .C      MVNS     r1,r1
        0x00001eba:    4840        @H      LDR      r0,[pc,#256] ; [0x1fbc] = 0x20000080
        0x00001ebc:    6800        .h      LDR      r0,[r0,#0]
        0x00001ebe:    f003facd    ....    BL       osMutexWait ; 0x545c
        0x00001ec2:    2000        .       MOVS     r0,#0
        0x00001ec4:    493e        >I      LDR      r1,[pc,#248] ; [0x1fc0] = 0x200000ac
        0x00001ec6:    6008        .`      STR      r0,[r1,#0]
        0x00001ec8:    493b        ;I      LDR      r1,[pc,#236] ; [0x1fb8] = 0x50004240
        0x00001eca:    6088        .`      STR      r0,[r1,#8]
        0x00001ecc:    493d        =I      LDR      r1,[pc,#244] ; [0x1fc4] = 0x200000d4
        0x00001ece:    6008        .`      STR      r0,[r1,#0]
        0x00001ed0:    493d        =I      LDR      r1,[pc,#244] ; [0x1fc8] = 0x200000d8
        0x00001ed2:    6008        .`      STR      r0,[r1,#0]
        0x00001ed4:    493d        =I      LDR      r1,[pc,#244] ; [0x1fcc] = 0x200000dc
        0x00001ed6:    6008        .`      STR      r0,[r1,#0]
        0x00001ed8:    493d        =I      LDR      r1,[pc,#244] ; [0x1fd0] = 0x200000a4
        0x00001eda:    6008        .`      STR      r0,[r1,#0]
        0x00001edc:    493d        =I      LDR      r1,[pc,#244] ; [0x1fd4] = 0x226
        0x00001ede:    483e        >H      LDR      r0,[pc,#248] ; [0x1fd8] = 0x200010d0
        0x00001ee0:    f001ff17    ....    BL       __aeabi_memclr ; 0x3d12
        0x00001ee4:    f7fffc07    ....    BL       clear ; 0x16f6
        0x00001ee8:    4630        0F      MOV      r0,r6
        0x00001eea:    f002fb85    ....    BL       __0printf ; 0x45f8
        0x00001eee:    bf00        ..      NOP      
        0x00001ef0:    4839        9H      LDR      r0,[pc,#228] ; [0x1fd8] = 0x200010d0
        0x00001ef2:    9902        ..      LDR      r1,[sp,#8]
        0x00001ef4:    f001ff24    ..$.    BL       strstr ; 0x3d40
        0x00001ef8:    4932        2I      LDR      r1,[pc,#200] ; [0x1fc4] = 0x200000d4
        0x00001efa:    6008        .`      STR      r0,[r1,#0]
        0x00001efc:    4621        !F      MOV      r1,r4
        0x00001efe:    4836        6H      LDR      r0,[pc,#216] ; [0x1fd8] = 0x200010d0
        0x00001f00:    f001ff1e    ....    BL       strstr ; 0x3d40
        0x00001f04:    4930        0I      LDR      r1,[pc,#192] ; [0x1fc8] = 0x200000d8
        0x00001f06:    6008        .`      STR      r0,[r1,#0]
        0x00001f08:    4629        )F      MOV      r1,r5
        0x00001f0a:    4833        3H      LDR      r0,[pc,#204] ; [0x1fd8] = 0x200010d0
        0x00001f0c:    f001ff18    ....    BL       strstr ; 0x3d40
        0x00001f10:    492e        .I      LDR      r1,[pc,#184] ; [0x1fcc] = 0x200000dc
        0x00001f12:    6008        .`      STR      r0,[r1,#0]
        0x00001f14:    482b        +H      LDR      r0,[pc,#172] ; [0x1fc4] = 0x200000d4
        0x00001f16:    6800        .h      LDR      r0,[r0,#0]
        0x00001f18:    2800        .(      CMP      r0,#0
        0x00001f1a:    d10b        ..      BNE      0x1f34 ; SendAT_FS + 144
        0x00001f1c:    482a        *H      LDR      r0,[pc,#168] ; [0x1fc8] = 0x200000d8
        0x00001f1e:    6800        .h      LDR      r0,[r0,#0]
        0x00001f20:    2800        .(      CMP      r0,#0
        0x00001f22:    d107        ..      BNE      0x1f34 ; SendAT_FS + 144
        0x00001f24:    4608        .F      MOV      r0,r1
        0x00001f26:    6800        .h      LDR      r0,[r0,#0]
        0x00001f28:    2800        .(      CMP      r0,#0
        0x00001f2a:    d103        ..      BNE      0x1f34 ; SendAT_FS + 144
        0x00001f2c:    4824        $H      LDR      r0,[pc,#144] ; [0x1fc0] = 0x200000ac
        0x00001f2e:    6800        .h      LDR      r0,[r0,#0]
        0x00001f30:    42b8        .B      CMP      r0,r7
        0x00001f32:    dbdd        ..      BLT      0x1ef0 ; SendAT_FS + 76
        0x00001f34:    f7fffbdf    ....    BL       clear ; 0x16f6
        0x00001f38:    4931        1I      LDR      r1,[pc,#196] ; [0x2000] = 0x1b48
        0x00001f3a:    3940        @9      SUBS     r1,r1,#0x40
        0x00001f3c:    4630        0F      MOV      r0,r6
        0x00001f3e:    f001feff    ....    BL       strstr ; 0x3d40
        0x00001f42:    2800        .(      CMP      r0,#0
        0x00001f44:    d11c        ..      BNE      0x1f80 ; SendAT_FS + 220
        0x00001f46:    481f        .H      LDR      r0,[pc,#124] ; [0x1fc4] = 0x200000d4
        0x00001f48:    6800        .h      LDR      r0,[r0,#0]
        0x00001f4a:    2800        .(      CMP      r0,#0
        0x00001f4c:    d118        ..      BNE      0x1f80 ; SendAT_FS + 220
        0x00001f4e:    481e        .H      LDR      r0,[pc,#120] ; [0x1fc8] = 0x200000d8
        0x00001f50:    6800        .h      LDR      r0,[r0,#0]
        0x00001f52:    2800        .(      CMP      r0,#0
        0x00001f54:    d114        ..      BNE      0x1f80 ; SendAT_FS + 220
        0x00001f56:    481d        .H      LDR      r0,[pc,#116] ; [0x1fcc] = 0x200000dc
        0x00001f58:    6800        .h      LDR      r0,[r0,#0]
        0x00001f5a:    2800        .(      CMP      r0,#0
        0x00001f5c:    d110        ..      BNE      0x1f80 ; SendAT_FS + 220
        0x00001f5e:    2001        .       MOVS     r0,#1
        0x00001f60:    4915        .I      LDR      r1,[pc,#84] ; [0x1fb8] = 0x50004240
        0x00001f62:    3940        @9      SUBS     r1,r1,#0x40
        0x00001f64:    6348        Hc      STR      r0,[r1,#0x34]
        0x00001f66:    4826        &H      LDR      r0,[pc,#152] ; [0x2000] = 0x1b48
        0x00001f68:    382c        ,8      SUBS     r0,r0,#0x2c
        0x00001f6a:    f002fb45    ..E.    BL       __0printf ; 0x45f8
        0x00001f6e:    f7fffbc2    ....    BL       clear ; 0x16f6
        0x00001f72:    2064        d       MOVS     r0,#0x64
        0x00001f74:    f003f9d6    ....    BL       manualdelay ; 0x5324
        0x00001f78:    2000        .       MOVS     r0,#0
        0x00001f7a:    490f        .I      LDR      r1,[pc,#60] ; [0x1fb8] = 0x50004240
        0x00001f7c:    3940        @9      SUBS     r1,r1,#0x40
        0x00001f7e:    6348        Hc      STR      r0,[r1,#0x34]
        0x00001f80:    2001        .       MOVS     r0,#1
        0x00001f82:    490d        .I      LDR      r1,[pc,#52] ; [0x1fb8] = 0x50004240
        0x00001f84:    6088        .`      STR      r0,[r1,#8]
        0x00001f86:    480d        .H      LDR      r0,[pc,#52] ; [0x1fbc] = 0x20000080
        0x00001f88:    6800        .h      LDR      r0,[r0,#0]
        0x00001f8a:    f003fa59    ..Y.    BL       osMutexRelease ; 0x5440
        0x00001f8e:    200a        .       MOVS     r0,#0xa
        0x00001f90:    f003f9d6    ....    BL       osDelay ; 0x5340
        0x00001f94:    b005        ..      ADD      sp,sp,#0x14
        0x00001f96:    bdf0        ..      POP      {r4-r7,pc}
    $d
        0x00001f98:    50004140    @A.P    DCD    1342193984
        0x00001f9c:    200012f8    ...     DCD    536875768
        0x00001fa0:    50000040    @..P    DCD    1342177344
        0x00001fa4:    20001324    $..     DCD    536875812
        0x00001fa8:    50004000    .@.P    DCD    1342193664
        0x00001fac:    0000ffff    ....    DCD    65535
        0x00001fb0:    50000200    ...P    DCD    1342177792
        0x00001fb4:    200000d0    ...     DCD    536871120
        0x00001fb8:    50004240    @B.P    DCD    1342194240
        0x00001fbc:    20000080    ...     DCD    536871040
        0x00001fc0:    200000ac    ...     DCD    536871084
        0x00001fc4:    200000d4    ...     DCD    536871124
        0x00001fc8:    200000d8    ...     DCD    536871128
        0x00001fcc:    200000dc    ...     DCD    536871132
        0x00001fd0:    200000a4    ...     DCD    536871076
        0x00001fd4:    00000226    &...    DCD    550
        0x00001fd8:    200010d0    ...     DCD    536875216
        0x00001fdc:    00006325    %c..    DCD    25381
        0x00001fe0:    54410a0d    ..AT    DCD    1413548557
        0x00001fe4:    4950432b    +CPI    DCD    1229996843
        0x00001fe8:    0a0d3f4e    N?..    DCD    168640334
        0x00001fec:    00000a0d    ....    DCD    2573
        0x00001ff0:    4e495043    CPIN    DCD    1313427523
        0x00001ff4:    4552203a    : RE    DCD    1163010106
        0x00001ff8:    00594441    ADY.    DCD    5850177
        0x00001ffc:    00004b4f    OK..    DCD    19279
        0x00002000:    00001b48    H...    DCD    6984
        0x00002004:    200000b9    ...     DCD    536871097
        0x00002008:    54410a0d    ..AT    DCD    1413548557
        0x0000200c:    4552432b    +CRE    DCD    1163019051
        0x00002010:    0a0d3f47    G?..    DCD    168640327
        0x00002014:    00000a0d    ....    DCD    2573
        0x00002018:    00000031    1...    DCD    49
        0x0000201c:    00000035    5...    DCD    53
        0x00002020:    200000ba    ...     DCD    536871098
    $t
    TCP_Send_ch
        0x00002024:    b5ff        ..      PUSH     {r0-r7,lr}
        0x00002026:    b0ff        ..      SUB      sp,sp,#0x1fc
        0x00002028:    b0a0        ..      SUB      sp,sp,#0x80
        0x0000202a:    2400        .$      MOVS     r4,#0
        0x0000202c:    2000        .       MOVS     r0,#0
        0x0000202e:    909e        ..      STR      r0,[sp,#0x278]
        0x00002030:    909d        ..      STR      r0,[sp,#0x274]
        0x00002032:    2500        .%      MOVS     r5,#0
        0x00002034:    2600        .&      MOVS     r6,#0
        0x00002036:    204b        K       MOVS     r0,#0x4b
        0x00002038:    00c0        ..      LSLS     r0,r0,#3
        0x0000203a:    909c        ..      STR      r0,[sp,#0x270]
        0x0000203c:    2000        .       MOVS     r0,#0
        0x0000203e:    9003        ..      STR      r0,[sp,#0xc]
        0x00002040:    49fc        .I      LDR      r1,[pc,#1008] ; [0x2434] = 0x200000c8
        0x00002042:    6008        .`      STR      r0,[r1,#0]
        0x00002044:    49fc        .I      LDR      r1,[pc,#1008] ; [0x2438] = 0x50004240
        0x00002046:    6088        .`      STR      r0,[r1,#8]
        0x00002048:    20ff        .       MOVS     r0,#0xff
        0x0000204a:    30f5        .0      ADDS     r0,r0,#0xf5
        0x0000204c:    f003f978    ..x.    BL       osDelay ; 0x5340
        0x00002050:    211a        .!      MOVS     r1,#0x1a
        0x00002052:    a0fa        ..      ADR      r0,{pc}+0x3ea ; 0x243c
        0x00002054:    f002fad0    ....    BL       __0printf ; 0x45f8
        0x00002058:    2000        .       MOVS     r0,#0
        0x0000205a:    49f9        .I      LDR      r1,[pc,#996] ; [0x2440] = 0x200000ac
        0x0000205c:    6008        .`      STR      r0,[r1,#0]
        0x0000205e:    2005        .       MOVS     r0,#5
        0x00002060:    90a9        ..      STR      r0,[sp,#0x2a4]
        0x00002062:    2000        .       MOVS     r0,#0
        0x00002064:    49f7        .I      LDR      r1,[pc,#988] ; [0x2444] = 0x200000d4
        0x00002066:    6008        .`      STR      r0,[r1,#0]
        0x00002068:    49f7        .I      LDR      r1,[pc,#988] ; [0x2448] = 0x200000d8
        0x0000206a:    6008        .`      STR      r0,[r1,#0]
        0x0000206c:    49f7        .I      LDR      r1,[pc,#988] ; [0x244c] = 0x200000dc
        0x0000206e:    6008        .`      STR      r0,[r1,#0]
        0x00002070:    2032        2       MOVS     r0,#0x32
        0x00002072:    4bf7        .K      LDR      r3,[pc,#988] ; [0x2450] = 0x1b48
        0x00002074:    a2f7        ..      ADR      r2,{pc}+0x3e0 ; 0x2454
        0x00002076:    4619        .F      MOV      r1,r3
        0x00002078:    310c        .1      ADDS     r1,r1,#0xc
        0x0000207a:    9000        ..      STR      r0,[sp,#0]
        0x0000207c:    a0f6        ..      ADR      r0,{pc}+0x3dc ; 0x2458
        0x0000207e:    f7fffb45    ..E.    BL       SendAT ; 0x170c
        0x00002082:    2000        .       MOVS     r0,#0
        0x00002084:    909a        ..      STR      r0,[sp,#0x268]
        0x00002086:    909b        ..      STR      r0,[sp,#0x26c]
        0x00002088:    2032        2       MOVS     r0,#0x32
        0x0000208a:    4bf1        .K      LDR      r3,[pc,#964] ; [0x2450] = 0x1b48
        0x0000208c:    a2f1        ..      ADR      r2,{pc}+0x3c8 ; 0x2454
        0x0000208e:    4619        .F      MOV      r1,r3
        0x00002090:    310c        .1      ADDS     r1,r1,#0xc
        0x00002092:    9000        ..      STR      r0,[sp,#0]
        0x00002094:    a0f5        ..      ADR      r0,{pc}+0x3d8 ; 0x246c
        0x00002096:    f7fffb39    ..9.    BL       SendAT ; 0x170c
        0x0000209a:    a89a        ..      ADD      r0,sp,#0x268
        0x0000209c:    210a        .!      MOVS     r1,#0xa
        0x0000209e:    232c        ,#      MOVS     r3,#0x2c
        0x000020a0:    2202        ."      MOVS     r2,#2
        0x000020a2:    9100        ..      STR      r1,[sp,#0]
        0x000020a4:    9001        ..      STR      r0,[sp,#4]
        0x000020a6:    2101        .!      MOVS     r1,#1
        0x000020a8:    48f6        .H      LDR      r0,[pc,#984] ; [0x2484] = 0x200010d0
        0x000020aa:    f003fa93    ....    BL       parse_g ; 0x55d4
        0x000020ae:    221a        ."      MOVS     r2,#0x1a
        0x000020b0:    210d        .!      MOVS     r1,#0xd
        0x000020b2:    a89a        ..      ADD      r0,sp,#0x268
        0x000020b4:    f7fef972    ..r.    BL       remove_all_chars ; 0x39c
        0x000020b8:    a89a        ..      ADD      r0,sp,#0x268
        0x000020ba:    f001fe5c    ..\.    BL       atoi ; 0x3d76
        0x000020be:    4604        .F      MOV      r4,r0
        0x000020c0:    f003f856    ..V.    BL       fileopen ; 0x5170
        0x000020c4:    214b        K!      MOVS     r1,#0x4b
        0x000020c6:    00c9        ..      LSLS     r1,r1,#3
        0x000020c8:    4620         F      MOV      r0,r4
        0x000020ca:    f001fdd7    ....    BL       __aeabi_idiv ; 0x3c7c
        0x000020ce:    2900        .)      CMP      r1,#0
        0x000020d0:    d106        ..      BNE      0x20e0 ; TCP_Send_ch + 188
        0x000020d2:    214b        K!      MOVS     r1,#0x4b
        0x000020d4:    00c9        ..      LSLS     r1,r1,#3
        0x000020d6:    4620         F      MOV      r0,r4
        0x000020d8:    f001fdd0    ....    BL       __aeabi_idiv ; 0x3c7c
        0x000020dc:    909d        ..      STR      r0,[sp,#0x274]
        0x000020de:    e006        ..      B        0x20ee ; TCP_Send_ch + 202
        0x000020e0:    214b        K!      MOVS     r1,#0x4b
        0x000020e2:    00c9        ..      LSLS     r1,r1,#3
        0x000020e4:    4620         F      MOV      r0,r4
        0x000020e6:    f001fdc9    ....    BL       __aeabi_idiv ; 0x3c7c
        0x000020ea:    1c40        @.      ADDS     r0,r0,#1
        0x000020ec:    909d        ..      STR      r0,[sp,#0x274]
        0x000020ee:    2500        .%      MOVS     r5,#0
        0x000020f0:    e13b        ;.      B        0x236a ; TCP_Send_ch + 838
        0x000020f2:    2000        .       MOVS     r0,#0
        0x000020f4:    49e4        .I      LDR      r1,[pc,#912] ; [0x2488] = 0x200000a4
        0x000020f6:    6008        .`      STR      r0,[r1,#0]
        0x000020f8:    2c0f        .,      CMP      r4,#0xf
        0x000020fa:    dd7a        z.      BLE      0x21f2 ; TCP_Send_ch + 462
        0x000020fc:    f7fffafb    ....    BL       clear ; 0x16f6
        0x00002100:    2164        d!      MOVS     r1,#0x64
        0x00002102:    48e2        .H      LDR      r0,[pc,#904] ; [0x248c] = 0x2000133c
        0x00002104:    f001fe05    ....    BL       __aeabi_memclr ; 0x3d12
        0x00002108:    48e1        .H      LDR      r0,[pc,#900] ; [0x2490] = 0x200000c4
        0x0000210a:    4ae2        .J      LDR      r2,[pc,#904] ; [0x2494] = 0x200001e6
        0x0000210c:    a1e2        ..      ADR      r1,{pc}+0x38c ; 0x2498
        0x0000210e:    6803        .h      LDR      r3,[r0,#0]
        0x00002110:    48de        .H      LDR      r0,[pc,#888] ; [0x248c] = 0x2000133c
        0x00002112:    f002fa81    ....    BL       __0sprintf ; 0x4618
        0x00002116:    200a        .       MOVS     r0,#0xa
        0x00002118:    4bcd        .K      LDR      r3,[pc,#820] ; [0x2450] = 0x1b48
        0x0000211a:    a2ce        ..      ADR      r2,{pc}+0x33a ; 0x2454
        0x0000211c:    a1e4        ..      ADR      r1,{pc}+0x394 ; 0x24b0
        0x0000211e:    9000        ..      STR      r0,[sp,#0]
        0x00002120:    48da        .H      LDR      r0,[pc,#872] ; [0x248c] = 0x2000133c
        0x00002122:    f7fffaf3    ....    BL       SendAT ; 0x170c
        0x00002126:    48da        .H      LDR      r0,[pc,#872] ; [0x2490] = 0x200000c4
        0x00002128:    6800        .h      LDR      r0,[r0,#0]
        0x0000212a:    42a0        .B      CMP      r0,r4
        0x0000212c:    dd11        ..      BLE      0x2152 ; TCP_Send_ch + 302
        0x0000212e:    2000        .       MOVS     r0,#0
        0x00002130:    49d7        .I      LDR      r1,[pc,#860] ; [0x2490] = 0x200000c4
        0x00002132:    6008        .`      STR      r0,[r1,#0]
        0x00002134:    f7fefedf    ....    BL       fileclose ; 0xef6
        0x00002138:    200a        .       MOVS     r0,#0xa
        0x0000213a:    4bc5        .K      LDR      r3,[pc,#788] ; [0x2450] = 0x1b48
        0x0000213c:    a2c5        ..      ADR      r2,{pc}+0x318 ; 0x2454
        0x0000213e:    4619        .F      MOV      r1,r3
        0x00002140:    310c        .1      ADDS     r1,r1,#0xc
        0x00002142:    9000        ..      STR      r0,[sp,#0]
        0x00002144:    a0dd        ..      ADR      r0,{pc}+0x378 ; 0x24bc
        0x00002146:    f7fffae1    ....    BL       SendAT ; 0x170c
        0x0000214a:    2001        .       MOVS     r0,#1
        0x0000214c:    49b9        .I      LDR      r1,[pc,#740] ; [0x2434] = 0x200000c8
        0x0000214e:    6008        .`      STR      r0,[r1,#0]
        0x00002150:    e10f        ..      B        0x2372 ; TCP_Send_ch + 846
        0x00002152:    a1d7        ..      ADR      r1,{pc}+0x35e ; 0x24b0
        0x00002154:    48cb        .H      LDR      r0,[pc,#812] ; [0x2484] = 0x200010d0
        0x00002156:    f001fdf3    ....    BL       strstr ; 0x3d40
        0x0000215a:    2800        .(      CMP      r0,#0
        0x0000215c:    d003        ..      BEQ      0x2166 ; TCP_Send_ch + 322
        0x0000215e:    2001        .       MOVS     r0,#1
        0x00002160:    49b4        .I      LDR      r1,[pc,#720] ; [0x2434] = 0x200000c8
        0x00002162:    6008        .`      STR      r0,[r1,#0]
        0x00002164:    e105        ..      B        0x2372 ; TCP_Send_ch + 846
        0x00002166:    2164        d!      MOVS     r1,#0x64
        0x00002168:    48c8        .H      LDR      r0,[pc,#800] ; [0x248c] = 0x2000133c
        0x0000216a:    f001fdd2    ....    BL       __aeabi_memclr ; 0x3d12
        0x0000216e:    f7fffac2    ....    BL       clear ; 0x16f6
        0x00002172:    4ac8        .J      LDR      r2,[pc,#800] ; [0x2494] = 0x200001e6
        0x00002174:    a1d7        ..      ADR      r1,{pc}+0x360 ; 0x24d4
        0x00002176:    48c5        .H      LDR      r0,[pc,#788] ; [0x248c] = 0x2000133c
        0x00002178:    f002fa4e    ..N.    BL       __0sprintf ; 0x4618
        0x0000217c:    200a        .       MOVS     r0,#0xa
        0x0000217e:    4bb4        .K      LDR      r3,[pc,#720] ; [0x2450] = 0x1b48
        0x00002180:    a2b4        ..      ADR      r2,{pc}+0x2d4 ; 0x2454
        0x00002182:    a1cb        ..      ADR      r1,{pc}+0x32e ; 0x24b0
        0x00002184:    9000        ..      STR      r0,[sp,#0]
        0x00002186:    48c1        .H      LDR      r0,[pc,#772] ; [0x248c] = 0x2000133c
        0x00002188:    f7fffac0    ....    BL       SendAT ; 0x170c
        0x0000218c:    f7fffab3    ....    BL       clear ; 0x16f6
        0x00002190:    a1c7        ..      ADR      r1,{pc}+0x320 ; 0x24b0
        0x00002192:    48bc        .H      LDR      r0,[pc,#752] ; [0x2484] = 0x200010d0
        0x00002194:    f001fdd4    ....    BL       strstr ; 0x3d40
        0x00002198:    2800        .(      CMP      r0,#0
        0x0000219a:    d003        ..      BEQ      0x21a4 ; TCP_Send_ch + 384
        0x0000219c:    2001        .       MOVS     r0,#1
        0x0000219e:    49a5        .I      LDR      r1,[pc,#660] ; [0x2434] = 0x200000c8
        0x000021a0:    6008        .`      STR      r0,[r1,#0]
        0x000021a2:    e0e6        ..      B        0x2372 ; TCP_Send_ch + 846
        0x000021a4:    48b7        .H      LDR      r0,[pc,#732] ; [0x2484] = 0x200010d0
        0x000021a6:    f001fddf    ....    BL       strlen ; 0x3d68
        0x000021aa:    2864        d(      CMP      r0,#0x64
        0x000021ac:    d20e        ..      BCS      0x21cc ; TCP_Send_ch + 424
        0x000021ae:    f7fefea2    ....    BL       fileclose ; 0xef6
        0x000021b2:    200a        .       MOVS     r0,#0xa
        0x000021b4:    4ba6        .K      LDR      r3,[pc,#664] ; [0x2450] = 0x1b48
        0x000021b6:    a2a7        ..      ADR      r2,{pc}+0x29e ; 0x2454
        0x000021b8:    4619        .F      MOV      r1,r3
        0x000021ba:    310c        .1      ADDS     r1,r1,#0xc
        0x000021bc:    9000        ..      STR      r0,[sp,#0]
        0x000021be:    a0bf        ..      ADR      r0,{pc}+0x2fe ; 0x24bc
        0x000021c0:    f7fffaa4    ....    BL       SendAT ; 0x170c
        0x000021c4:    2001        .       MOVS     r0,#1
        0x000021c6:    499b        .I      LDR      r1,[pc,#620] ; [0x2434] = 0x200000c8
        0x000021c8:    6008        .`      STR      r0,[r1,#0]
        0x000021ca:    e0d2        ..      B        0x2372 ; TCP_Send_ch + 846
        0x000021cc:    214b        K!      MOVS     r1,#0x4b
        0x000021ce:    00c9        ..      LSLS     r1,r1,#3
        0x000021d0:    a804        ..      ADD      r0,sp,#0x10
        0x000021d2:    f001fd9e    ....    BL       __aeabi_memclr ; 0x3d12
        0x000021d6:    221a        ."      MOVS     r2,#0x1a
        0x000021d8:    210d        .!      MOVS     r1,#0xd
        0x000021da:    48aa        .H      LDR      r0,[pc,#680] ; [0x2484] = 0x200010d0
        0x000021dc:    f7fef8de    ....    BL       remove_all_chars ; 0x39c
        0x000021e0:    200a        .       MOVS     r0,#0xa
        0x000021e2:    9001        ..      STR      r0,[sp,#4]
        0x000021e4:    48a7        .H      LDR      r0,[pc,#668] ; [0x2484] = 0x200010d0
        0x000021e6:    9002        ..      STR      r0,[sp,#8]
        0x000021e8:    2000        .       MOVS     r0,#0
        0x000021ea:    9000        ..      STR      r0,[sp,#0]
        0x000021ec:    2700        .'      MOVS     r7,#0
        0x000021ee:    bf00        ..      NOP      
        0x000021f0:    e009        ..      B        0x2206 ; TCP_Send_ch + 482
        0x000021f2:    e0b2        ..      B        0x235a ; TCP_Send_ch + 822
        0x000021f4:    9802        ..      LDR      r0,[sp,#8]
        0x000021f6:    5dc1        .]      LDRB     r1,[r0,r7]
        0x000021f8:    9801        ..      LDR      r0,[sp,#4]
        0x000021fa:    4281        .B      CMP      r1,r0
        0x000021fc:    d102        ..      BNE      0x2204 ; TCP_Send_ch + 480
        0x000021fe:    9800        ..      LDR      r0,[sp,#0]
        0x00002200:    1c40        @.      ADDS     r0,r0,#1
        0x00002202:    9000        ..      STR      r0,[sp,#0]
        0x00002204:    1c7f        ..      ADDS     r7,r7,#1
        0x00002206:    9802        ..      LDR      r0,[sp,#8]
        0x00002208:    f001fdae    ....    BL       strlen ; 0x3d68
        0x0000220c:    42b8        .B      CMP      r0,r7
        0x0000220e:    d8f1        ..      BHI      0x21f4 ; TCP_Send_ch + 464
        0x00002210:    9800        ..      LDR      r0,[sp,#0]
        0x00002212:    1e40        @.      SUBS     r0,r0,#1
        0x00002214:    9003        ..      STR      r0,[sp,#0xc]
        0x00002216:    a804        ..      ADD      r0,sp,#0x10
        0x00002218:    210a        .!      MOVS     r1,#0xa
        0x0000221a:    460b        .F      MOV      r3,r1
        0x0000221c:    9100        ..      STR      r1,[sp,#0]
        0x0000221e:    9001        ..      STR      r0,[sp,#4]
        0x00002220:    2102        .!      MOVS     r1,#2
        0x00002222:    4898        .H      LDR      r0,[pc,#608] ; [0x2484] = 0x200010d0
        0x00002224:    9a03        ..      LDR      r2,[sp,#0xc]
        0x00002226:    f003f9d5    ....    BL       parse_g ; 0x55d4
        0x0000222a:    2164        d!      MOVS     r1,#0x64
        0x0000222c:    4897        .H      LDR      r0,[pc,#604] ; [0x248c] = 0x2000133c
        0x0000222e:    f001fd70    ..p.    BL       __aeabi_memclr ; 0x3d12
        0x00002232:    2000        .       MOVS     r0,#0
        0x00002234:    4994        .I      LDR      r1,[pc,#592] ; [0x2488] = 0x200000a4
        0x00002236:    6008        .`      STR      r0,[r1,#0]
        0x00002238:    4981        .I      LDR      r1,[pc,#516] ; [0x2440] = 0x200000ac
        0x0000223a:    6008        .`      STR      r0,[r1,#0]
        0x0000223c:    49ab        .I      LDR      r1,[pc,#684] ; [0x24ec] = 0x226
        0x0000223e:    4891        .H      LDR      r0,[pc,#580] ; [0x2484] = 0x200010d0
        0x00002240:    f001fd67    ..g.    BL       __aeabi_memclr ; 0x3d12
        0x00002244:    989f        ..      LDR      r0,[sp,#0x27c]
        0x00002246:    f002f9d7    ....    BL       __0printf ; 0x45f8
        0x0000224a:    bf00        ..      NOP      
        0x0000224c:    488d        .H      LDR      r0,[pc,#564] ; [0x2484] = 0x200010d0
        0x0000224e:    99a1        ..      LDR      r1,[sp,#0x284]
        0x00002250:    f001fd76    ..v.    BL       strstr ; 0x3d40
        0x00002254:    497b        {I      LDR      r1,[pc,#492] ; [0x2444] = 0x200000d4
        0x00002256:    6008        .`      STR      r0,[r1,#0]
        0x00002258:    488a        .H      LDR      r0,[pc,#552] ; [0x2484] = 0x200010d0
        0x0000225a:    99a2        ..      LDR      r1,[sp,#0x288]
        0x0000225c:    f001fd70    ..p.    BL       strstr ; 0x3d40
        0x00002260:    4979        yI      LDR      r1,[pc,#484] ; [0x2448] = 0x200000d8
        0x00002262:    6008        .`      STR      r0,[r1,#0]
        0x00002264:    4887        .H      LDR      r0,[pc,#540] ; [0x2484] = 0x200010d0
        0x00002266:    99a8        ..      LDR      r1,[sp,#0x2a0]
        0x00002268:    f001fd6a    ..j.    BL       strstr ; 0x3d40
        0x0000226c:    4977        wI      LDR      r1,[pc,#476] ; [0x244c] = 0x200000dc
        0x0000226e:    6008        .`      STR      r0,[r1,#0]
        0x00002270:    4874        tH      LDR      r0,[pc,#464] ; [0x2444] = 0x200000d4
        0x00002272:    6800        .h      LDR      r0,[r0,#0]
        0x00002274:    2800        .(      CMP      r0,#0
        0x00002276:    d10c        ..      BNE      0x2292 ; TCP_Send_ch + 622
        0x00002278:    4873        sH      LDR      r0,[pc,#460] ; [0x2448] = 0x200000d8
        0x0000227a:    6800        .h      LDR      r0,[r0,#0]
        0x0000227c:    2800        .(      CMP      r0,#0
        0x0000227e:    d108        ..      BNE      0x2292 ; TCP_Send_ch + 622
        0x00002280:    4608        .F      MOV      r0,r1
        0x00002282:    6800        .h      LDR      r0,[r0,#0]
        0x00002284:    2800        .(      CMP      r0,#0
        0x00002286:    d104        ..      BNE      0x2292 ; TCP_Send_ch + 622
        0x00002288:    486d        mH      LDR      r0,[pc,#436] ; [0x2440] = 0x200000ac
        0x0000228a:    6801        .h      LDR      r1,[r0,#0]
        0x0000228c:    98a9        ..      LDR      r0,[sp,#0x2a4]
        0x0000228e:    4281        .B      CMP      r1,r0
        0x00002290:    dbdc        ..      BLT      0x224c ; TCP_Send_ch + 552
        0x00002292:    f7fffa30    ..0.    BL       clear ; 0x16f6
        0x00002296:    2000        .       MOVS     r0,#0
        0x00002298:    4969        iI      LDR      r1,[pc,#420] ; [0x2440] = 0x200000ac
        0x0000229a:    6008        .`      STR      r0,[r1,#0]
        0x0000229c:    4869        iH      LDR      r0,[pc,#420] ; [0x2444] = 0x200000d4
        0x0000229e:    6800        .h      LDR      r0,[r0,#0]
        0x000022a0:    2800        .(      CMP      r0,#0
        0x000022a2:    d04d        M.      BEQ      0x2340 ; TCP_Send_ch + 796
        0x000022a4:    2000        .       MOVS     r0,#0
        0x000022a6:    6008        .`      STR      r0,[r1,#0]
        0x000022a8:    2005        .       MOVS     r0,#5
        0x000022aa:    90a9        ..      STR      r0,[sp,#0x2a4]
        0x000022ac:    2000        .       MOVS     r0,#0
        0x000022ae:    4965        eI      LDR      r1,[pc,#404] ; [0x2444] = 0x200000d4
        0x000022b0:    6008        .`      STR      r0,[r1,#0]
        0x000022b2:    4965        eI      LDR      r1,[pc,#404] ; [0x2448] = 0x200000d8
        0x000022b4:    6008        .`      STR      r0,[r1,#0]
        0x000022b6:    4965        eI      LDR      r1,[pc,#404] ; [0x244c] = 0x200000dc
        0x000022b8:    6008        .`      STR      r0,[r1,#0]
        0x000022ba:    4973        sI      LDR      r1,[pc,#460] ; [0x2488] = 0x200000a4
        0x000022bc:    6008        .`      STR      r0,[r1,#0]
        0x000022be:    498b        .I      LDR      r1,[pc,#556] ; [0x24ec] = 0x226
        0x000022c0:    4870        pH      LDR      r0,[pc,#448] ; [0x2484] = 0x200010d0
        0x000022c2:    f001fd26    ..&.    BL       __aeabi_memclr ; 0x3d12
        0x000022c6:    f7fffa16    ....    BL       clear ; 0x16f6
        0x000022ca:    2000        .       MOVS     r0,#0
        0x000022cc:    909e        ..      STR      r0,[sp,#0x278]
        0x000022ce:    a804        ..      ADD      r0,sp,#0x10
        0x000022d0:    f001fd4a    ..J.    BL       strlen ; 0x3d68
        0x000022d4:    909c        ..      STR      r0,[sp,#0x270]
        0x000022d6:    2600        .&      MOVS     r6,#0
        0x000022d8:    e007        ..      B        0x22ea ; TCP_Send_ch + 710
        0x000022da:    a904        ..      ADD      r1,sp,#0x10
        0x000022dc:    5d88        .]      LDRB     r0,[r1,r6]
        0x000022de:    f001fa52    ..R.    BL       SendChar ; 0x3786
        0x000022e2:    989e        ..      LDR      r0,[sp,#0x278]
        0x000022e4:    1c40        @.      ADDS     r0,r0,#1
        0x000022e6:    909e        ..      STR      r0,[sp,#0x278]
        0x000022e8:    1c76        v.      ADDS     r6,r6,#1
        0x000022ea:    989c        ..      LDR      r0,[sp,#0x270]
        0x000022ec:    4286        .B      CMP      r6,r0
        0x000022ee:    dbf4        ..      BLT      0x22da ; TCP_Send_ch + 694
        0x000022f0:    211a        .!      MOVS     r1,#0x1a
        0x000022f2:    a052        R.      ADR      r0,{pc}+0x14a ; 0x243c
        0x000022f4:    f002f980    ....    BL       __0printf ; 0x45f8
        0x000022f8:    bf00        ..      NOP      
        0x000022fa:    4862        bH      LDR      r0,[pc,#392] ; [0x2484] = 0x200010d0
        0x000022fc:    99a1        ..      LDR      r1,[sp,#0x284]
        0x000022fe:    f001fd1f    ....    BL       strstr ; 0x3d40
        0x00002302:    4950        PI      LDR      r1,[pc,#320] ; [0x2444] = 0x200000d4
        0x00002304:    6008        .`      STR      r0,[r1,#0]
        0x00002306:    485f        _H      LDR      r0,[pc,#380] ; [0x2484] = 0x200010d0
        0x00002308:    99a2        ..      LDR      r1,[sp,#0x288]
        0x0000230a:    f001fd19    ....    BL       strstr ; 0x3d40
        0x0000230e:    494e        NI      LDR      r1,[pc,#312] ; [0x2448] = 0x200000d8
        0x00002310:    6008        .`      STR      r0,[r1,#0]
        0x00002312:    485c        \H      LDR      r0,[pc,#368] ; [0x2484] = 0x200010d0
        0x00002314:    99a8        ..      LDR      r1,[sp,#0x2a0]
        0x00002316:    f001fd13    ....    BL       strstr ; 0x3d40
        0x0000231a:    494c        LI      LDR      r1,[pc,#304] ; [0x244c] = 0x200000dc
        0x0000231c:    6008        .`      STR      r0,[r1,#0]
        0x0000231e:    4849        IH      LDR      r0,[pc,#292] ; [0x2444] = 0x200000d4
        0x00002320:    6800        .h      LDR      r0,[r0,#0]
        0x00002322:    2800        .(      CMP      r0,#0
        0x00002324:    d10c        ..      BNE      0x2340 ; TCP_Send_ch + 796
        0x00002326:    4848        HH      LDR      r0,[pc,#288] ; [0x2448] = 0x200000d8
        0x00002328:    6800        .h      LDR      r0,[r0,#0]
        0x0000232a:    2800        .(      CMP      r0,#0
        0x0000232c:    d108        ..      BNE      0x2340 ; TCP_Send_ch + 796
        0x0000232e:    4608        .F      MOV      r0,r1
        0x00002330:    6800        .h      LDR      r0,[r0,#0]
        0x00002332:    2800        .(      CMP      r0,#0
        0x00002334:    d104        ..      BNE      0x2340 ; TCP_Send_ch + 796
        0x00002336:    4842        BH      LDR      r0,[pc,#264] ; [0x2440] = 0x200000ac
        0x00002338:    6801        .h      LDR      r1,[r0,#0]
        0x0000233a:    98a9        ..      LDR      r0,[sp,#0x2a4]
        0x0000233c:    4281        .B      CMP      r1,r0
        0x0000233e:    dbdc        ..      BLT      0x22fa ; TCP_Send_ch + 726
        0x00002340:    4842        BH      LDR      r0,[pc,#264] ; [0x244c] = 0x200000dc
        0x00002342:    6800        .h      LDR      r0,[r0,#0]
        0x00002344:    2800        .(      CMP      r0,#0
        0x00002346:    d105        ..      BNE      0x2354 ; TCP_Send_ch + 816
        0x00002348:    2001        .       MOVS     r0,#1
        0x0000234a:    4969        iI      LDR      r1,[pc,#420] ; [0x24f0] = 0x200000fc
        0x0000234c:    6008        .`      STR      r0,[r1,#0]
        0x0000234e:    4939        9I      LDR      r1,[pc,#228] ; [0x2434] = 0x200000c8
        0x00002350:    6008        .`      STR      r0,[r1,#0]
        0x00002352:    e00e        ..      B        0x2372 ; TCP_Send_ch + 846
        0x00002354:    2000        .       MOVS     r0,#0
        0x00002356:    4966        fI      LDR      r1,[pc,#408] ; [0x24f0] = 0x200000fc
        0x00002358:    6008        .`      STR      r0,[r1,#0]
        0x0000235a:    484d        MH      LDR      r0,[pc,#308] ; [0x2490] = 0x200000c4
        0x0000235c:    6800        .h      LDR      r0,[r0,#0]
        0x0000235e:    214b        K!      MOVS     r1,#0x4b
        0x00002360:    00c9        ..      LSLS     r1,r1,#3
        0x00002362:    1840        @.      ADDS     r0,r0,r1
        0x00002364:    494a        JI      LDR      r1,[pc,#296] ; [0x2490] = 0x200000c4
        0x00002366:    6008        .`      STR      r0,[r1,#0]
        0x00002368:    1c6d        m.      ADDS     r5,r5,#1
        0x0000236a:    989d        ..      LDR      r0,[sp,#0x274]
        0x0000236c:    4285        .B      CMP      r5,r0
        0x0000236e:    da00        ..      BGE      0x2372 ; TCP_Send_ch + 846
        0x00002370:    e6bf        ..      B        0x20f2 ; TCP_Send_ch + 206
        0x00002372:    bf00        ..      NOP      
        0x00002374:    485e        ^H      LDR      r0,[pc,#376] ; [0x24f0] = 0x200000fc
        0x00002376:    6800        .h      LDR      r0,[r0,#0]
        0x00002378:    2800        .(      CMP      r0,#0
        0x0000237a:    d110        ..      BNE      0x239e ; TCP_Send_ch + 890
        0x0000237c:    989d        ..      LDR      r0,[sp,#0x274]
        0x0000237e:    4285        .B      CMP      r5,r0
        0x00002380:    db0d        ..      BLT      0x239e ; TCP_Send_ch + 890
        0x00002382:    f7fefdb8    ....    BL       fileclose ; 0xef6
        0x00002386:    2000        .       MOVS     r0,#0
        0x00002388:    4941        AI      LDR      r1,[pc,#260] ; [0x2490] = 0x200000c4
        0x0000238a:    6008        .`      STR      r0,[r1,#0]
        0x0000238c:    200a        .       MOVS     r0,#0xa
        0x0000238e:    4b30        0K      LDR      r3,[pc,#192] ; [0x2450] = 0x1b48
        0x00002390:    a230        0.      ADR      r2,{pc}+0xc4 ; 0x2454
        0x00002392:    4619        .F      MOV      r1,r3
        0x00002394:    310c        .1      ADDS     r1,r1,#0xc
        0x00002396:    9000        ..      STR      r0,[sp,#0]
        0x00002398:    a048        H.      ADR      r0,{pc}+0x124 ; 0x24bc
        0x0000239a:    f7fff9b7    ....    BL       SendAT ; 0x170c
        0x0000239e:    2001        .       MOVS     r0,#1
        0x000023a0:    4925        %I      LDR      r1,[pc,#148] ; [0x2438] = 0x50004240
        0x000023a2:    6088        .`      STR      r0,[r1,#8]
        0x000023a4:    2000        .       MOVS     r0,#0
        0x000023a6:    4927        'I      LDR      r1,[pc,#156] ; [0x2444] = 0x200000d4
        0x000023a8:    6008        .`      STR      r0,[r1,#0]
        0x000023aa:    4927        'I      LDR      r1,[pc,#156] ; [0x2448] = 0x200000d8
        0x000023ac:    6008        .`      STR      r0,[r1,#0]
        0x000023ae:    4927        'I      LDR      r1,[pc,#156] ; [0x244c] = 0x200000dc
        0x000023b0:    6008        .`      STR      r0,[r1,#0]
        0x000023b2:    200a        .       MOVS     r0,#0xa
        0x000023b4:    f002ffc4    ....    BL       osDelay ; 0x5340
        0x000023b8:    b07f        ..      ADD      sp,sp,#0x1fc
        0x000023ba:    b024        $.      ADD      sp,sp,#0x90
        0x000023bc:    bdf0        ..      POP      {r4-r7,pc}
    TCP_Send
        0x000023be:    b5ff        ..      PUSH     {r0-r7,lr}
        0x000023c0:    b087        ..      SUB      sp,sp,#0x1c
        0x000023c2:    460d        .F      MOV      r5,r1
        0x000023c4:    9f11        ..      LDR      r7,[sp,#0x44]
        0x000023c6:    2000        .       MOVS     r0,#0
        0x000023c8:    9006        ..      STR      r0,[sp,#0x18]
        0x000023ca:    9005        ..      STR      r0,[sp,#0x14]
        0x000023cc:    2600        .&      MOVS     r6,#0
        0x000023ce:    2400        .$      MOVS     r4,#0
        0x000023d0:    9004        ..      STR      r0,[sp,#0x10]
        0x000023d2:    204b        K       MOVS     r0,#0x4b
        0x000023d4:    00c0        ..      LSLS     r0,r0,#3
        0x000023d6:    9003        ..      STR      r0,[sp,#0xc]
        0x000023d8:    1e61        a.      SUBS     r1,r4,#1
        0x000023da:    4846        FH      LDR      r0,[pc,#280] ; [0x24f4] = 0x20000080
        0x000023dc:    6800        .h      LDR      r0,[r0,#0]
        0x000023de:    f003f83d    ..=.    BL       osMutexWait ; 0x545c
        0x000023e2:    2000        .       MOVS     r0,#0
        0x000023e4:    4914        .I      LDR      r1,[pc,#80] ; [0x2438] = 0x50004240
        0x000023e6:    6088        .`      STR      r0,[r1,#8]
        0x000023e8:    2064        d       MOVS     r0,#0x64
        0x000023ea:    f002ffa9    ....    BL       osDelay ; 0x5340
        0x000023ee:    2000        .       MOVS     r0,#0
        0x000023f0:    4913        .I      LDR      r1,[pc,#76] ; [0x2440] = 0x200000ac
        0x000023f2:    6008        .`      STR      r0,[r1,#0]
        0x000023f4:    2705        .'      MOVS     r7,#5
        0x000023f6:    4913        .I      LDR      r1,[pc,#76] ; [0x2444] = 0x200000d4
        0x000023f8:    6008        .`      STR      r0,[r1,#0]
        0x000023fa:    4913        .I      LDR      r1,[pc,#76] ; [0x2448] = 0x200000d8
        0x000023fc:    6008        .`      STR      r0,[r1,#0]
        0x000023fe:    4913        .I      LDR      r1,[pc,#76] ; [0x244c] = 0x200000dc
        0x00002400:    6008        .`      STR      r0,[r1,#0]
        0x00002402:    4921        !I      LDR      r1,[pc,#132] ; [0x2488] = 0x200000a4
        0x00002404:    6008        .`      STR      r0,[r1,#0]
        0x00002406:    211a        .!      MOVS     r1,#0x1a
        0x00002408:    a00c        ..      ADR      r0,{pc}+0x34 ; 0x243c
        0x0000240a:    f002f8f5    ....    BL       __0printf ; 0x45f8
        0x0000240e:    4628        (F      MOV      r0,r5
        0x00002410:    f001fcaa    ....    BL       strlen ; 0x3d68
        0x00002414:    9006        ..      STR      r0,[sp,#0x18]
        0x00002416:    214b        K!      MOVS     r1,#0x4b
        0x00002418:    00c9        ..      LSLS     r1,r1,#3
        0x0000241a:    9806        ..      LDR      r0,[sp,#0x18]
        0x0000241c:    f001fc2e    ....    BL       __aeabi_idiv ; 0x3c7c
        0x00002420:    2900        .)      CMP      r1,#0
        0x00002422:    d169        i.      BNE      0x24f8 ; TCP_Send + 314
        0x00002424:    214b        K!      MOVS     r1,#0x4b
        0x00002426:    00c9        ..      LSLS     r1,r1,#3
        0x00002428:    9806        ..      LDR      r0,[sp,#0x18]
        0x0000242a:    f001fc27    ..'.    BL       __aeabi_idiv ; 0x3c7c
        0x0000242e:    4606        .F      MOV      r6,r0
        0x00002430:    e068        h.      B        0x2504 ; TCP_Send + 326
        0x00002432:    e061        a.      B        0x24f8 ; TCP_Send + 314
    $d
        0x00002434:    200000c8    ...     DCD    536871112
        0x00002438:    50004240    @B.P    DCD    1342194240
        0x0000243c:    00006325    %c..    DCD    25381
        0x00002440:    200000ac    ...     DCD    536871084
        0x00002444:    200000d4    ...     DCD    536871124
        0x00002448:    200000d8    ...     DCD    536871128
        0x0000244c:    200000dc    ...     DCD    536871132
        0x00002450:    00001b48    H...    DCD    6984
        0x00002454:    00004b4f    OK..    DCD    19279
        0x00002458:    54410a0d    ..AT    DCD    1413548557
        0x0000245c:    4c46512b    +QFL    DCD    1279676715
        0x00002460:    223d7344    Ds="    DCD    574452548
        0x00002464:    22534655    UFS"    DCD    575882837
        0x00002468:    00000a0d    ....    DCD    2573
        0x0000246c:    54410a0d    ..AT    DCD    1413548557
        0x00002470:    4c46512b    +QFL    DCD    1279676715
        0x00002474:    223d5453    ST="    DCD    574444627
        0x00002478:    2e474f4c    LOG.    DCD    776425292
        0x0000247c:    22545854    TXT"    DCD    575952980
        0x00002480:    00000a0d    ....    DCD    2573
        0x00002484:    200010d0    ...     DCD    536875216
        0x00002488:    200000a4    ...     DCD    536871076
        0x0000248c:    2000133c    <..     DCD    536875836
        0x00002490:    200000c4    ...     DCD    536871108
        0x00002494:    200001e6    ...     DCD    536871398
        0x00002498:    54410a0d    ..AT    DCD    1413548557
        0x0000249c:    5346512b    +QFS    DCD    1397117227
        0x000024a0:    3d4b4545    EEK=    DCD    1028343109
        0x000024a4:    252c7325    %s,%    DCD    623670053
        0x000024a8:    0d0a0d64    d...    DCD    218762596
        0x000024ac:    0000000a    ....    DCD    10
        0x000024b0:    454d432b    +CME    DCD    1162691371
        0x000024b4:    52524520     ERR    DCD    1381123360
        0x000024b8:    0000524f    OR..    DCD    21071
        0x000024bc:    54410a0d    ..AT    DCD    1413548557
        0x000024c0:    4446512b    +QFD    DCD    1145458987
        0x000024c4:    223d4c45    EL="    DCD    574442565
        0x000024c8:    2e474f4c    LOG.    DCD    776425292
        0x000024cc:    22545854    TXT"    DCD    575952980
        0x000024d0:    00000a0d    ....    DCD    2573
        0x000024d4:    54410a0d    ..AT    DCD    1413548557
        0x000024d8:    5246512b    +QFR    DCD    1380340011
        0x000024dc:    3d444145    EAD=    DCD    1027883333
        0x000024e0:    362c7325    %s,6    DCD    908882725
        0x000024e4:    0a0d3030    00..    DCD    168636464
        0x000024e8:    00000a0d    ....    DCD    2573
        0x000024ec:    00000226    &...    DCD    550
        0x000024f0:    200000fc    ...     DCD    536871164
        0x000024f4:    20000080    ...     DCD    536871040
    $t
        0x000024f8:    214b        K!      MOVS     r1,#0x4b
        0x000024fa:    00c9        ..      LSLS     r1,r1,#3
        0x000024fc:    9806        ..      LDR      r0,[sp,#0x18]
        0x000024fe:    f001fbbd    ....    BL       __aeabi_idiv ; 0x3c7c
        0x00002502:    1c46        F.      ADDS     r6,r0,#1
        0x00002504:    9806        ..      LDR      r0,[sp,#0x18]
        0x00002506:    280f        .(      CMP      r0,#0xf
        0x00002508:    dd7e        ~.      BLE      0x2608 ; TCP_Send + 586
        0x0000250a:    f7fff8f4    ....    BL       clear ; 0x16f6
        0x0000250e:    2400        .$      MOVS     r4,#0
        0x00002510:    e099        ..      B        0x2646 ; TCP_Send + 648
        0x00002512:    2000        .       MOVS     r0,#0
        0x00002514:    49fd        .I      LDR      r1,[pc,#1012] ; [0x290c] = 0x200000a4
        0x00002516:    6008        .`      STR      r0,[r1,#0]
        0x00002518:    49fd        .I      LDR      r1,[pc,#1012] ; [0x2910] = 0x200000ac
        0x0000251a:    6008        .`      STR      r0,[r1,#0]
        0x0000251c:    49fd        .I      LDR      r1,[pc,#1012] ; [0x2914] = 0x226
        0x0000251e:    48fe        .H      LDR      r0,[pc,#1016] ; [0x2918] = 0x200010d0
        0x00002520:    f001fbf7    ....    BL       __aeabi_memclr ; 0x3d12
        0x00002524:    9807        ..      LDR      r0,[sp,#0x1c]
        0x00002526:    f002f867    ..g.    BL       __0printf ; 0x45f8
        0x0000252a:    bf00        ..      NOP      
        0x0000252c:    48fa        .H      LDR      r0,[pc,#1000] ; [0x2918] = 0x200010d0
        0x0000252e:    9909        ..      LDR      r1,[sp,#0x24]
        0x00002530:    f001fc06    ....    BL       strstr ; 0x3d40
        0x00002534:    49f9        .I      LDR      r1,[pc,#996] ; [0x291c] = 0x200000d4
        0x00002536:    6008        .`      STR      r0,[r1,#0]
        0x00002538:    48f7        .H      LDR      r0,[pc,#988] ; [0x2918] = 0x200010d0
        0x0000253a:    990a        ..      LDR      r1,[sp,#0x28]
        0x0000253c:    f001fc00    ....    BL       strstr ; 0x3d40
        0x00002540:    49f7        .I      LDR      r1,[pc,#988] ; [0x2920] = 0x200000d8
        0x00002542:    6008        .`      STR      r0,[r1,#0]
        0x00002544:    48f4        .H      LDR      r0,[pc,#976] ; [0x2918] = 0x200010d0
        0x00002546:    9910        ..      LDR      r1,[sp,#0x40]
        0x00002548:    f001fbfa    ....    BL       strstr ; 0x3d40
        0x0000254c:    49f5        .I      LDR      r1,[pc,#980] ; [0x2924] = 0x200000dc
        0x0000254e:    6008        .`      STR      r0,[r1,#0]
        0x00002550:    48f2        .H      LDR      r0,[pc,#968] ; [0x291c] = 0x200000d4
        0x00002552:    6800        .h      LDR      r0,[r0,#0]
        0x00002554:    2800        .(      CMP      r0,#0
        0x00002556:    d10b        ..      BNE      0x2570 ; TCP_Send + 434
        0x00002558:    48f1        .H      LDR      r0,[pc,#964] ; [0x2920] = 0x200000d8
        0x0000255a:    6800        .h      LDR      r0,[r0,#0]
        0x0000255c:    2800        .(      CMP      r0,#0
        0x0000255e:    d107        ..      BNE      0x2570 ; TCP_Send + 434
        0x00002560:    4608        .F      MOV      r0,r1
        0x00002562:    6800        .h      LDR      r0,[r0,#0]
        0x00002564:    2800        .(      CMP      r0,#0
        0x00002566:    d103        ..      BNE      0x2570 ; TCP_Send + 434
        0x00002568:    48e9        .H      LDR      r0,[pc,#932] ; [0x2910] = 0x200000ac
        0x0000256a:    6800        .h      LDR      r0,[r0,#0]
        0x0000256c:    42b8        .B      CMP      r0,r7
        0x0000256e:    dbdd        ..      BLT      0x252c ; TCP_Send + 366
        0x00002570:    f7fff8c1    ....    BL       clear ; 0x16f6
        0x00002574:    2000        .       MOVS     r0,#0
        0x00002576:    49e6        .I      LDR      r1,[pc,#920] ; [0x2910] = 0x200000ac
        0x00002578:    6008        .`      STR      r0,[r1,#0]
        0x0000257a:    48e8        .H      LDR      r0,[pc,#928] ; [0x291c] = 0x200000d4
        0x0000257c:    6800        .h      LDR      r0,[r0,#0]
        0x0000257e:    2800        .(      CMP      r0,#0
        0x00002580:    d055        U.      BEQ      0x262e ; TCP_Send + 624
        0x00002582:    2000        .       MOVS     r0,#0
        0x00002584:    6008        .`      STR      r0,[r1,#0]
        0x00002586:    2705        .'      MOVS     r7,#5
        0x00002588:    49e4        .I      LDR      r1,[pc,#912] ; [0x291c] = 0x200000d4
        0x0000258a:    6008        .`      STR      r0,[r1,#0]
        0x0000258c:    49e4        .I      LDR      r1,[pc,#912] ; [0x2920] = 0x200000d8
        0x0000258e:    6008        .`      STR      r0,[r1,#0]
        0x00002590:    49e4        .I      LDR      r1,[pc,#912] ; [0x2924] = 0x200000dc
        0x00002592:    6008        .`      STR      r0,[r1,#0]
        0x00002594:    49dd        .I      LDR      r1,[pc,#884] ; [0x290c] = 0x200000a4
        0x00002596:    6008        .`      STR      r0,[r1,#0]
        0x00002598:    49de        .I      LDR      r1,[pc,#888] ; [0x2914] = 0x226
        0x0000259a:    48df        .H      LDR      r0,[pc,#892] ; [0x2918] = 0x200010d0
        0x0000259c:    f001fbb9    ....    BL       __aeabi_memclr ; 0x3d12
        0x000025a0:    f7fff8a9    ....    BL       clear ; 0x16f6
        0x000025a4:    1e70        p.      SUBS     r0,r6,#1
        0x000025a6:    42a0        .B      CMP      r0,r4
        0x000025a8:    d105        ..      BNE      0x25b6 ; TCP_Send + 504
        0x000025aa:    214b        K!      MOVS     r1,#0x4b
        0x000025ac:    00c9        ..      LSLS     r1,r1,#3
        0x000025ae:    9806        ..      LDR      r0,[sp,#0x18]
        0x000025b0:    f001fb64    ..d.    BL       __aeabi_idiv ; 0x3c7c
        0x000025b4:    9103        ..      STR      r1,[sp,#0xc]
        0x000025b6:    2000        .       MOVS     r0,#0
        0x000025b8:    9004        ..      STR      r0,[sp,#0x10]
        0x000025ba:    e009        ..      B        0x25d0 ; TCP_Send + 530
        0x000025bc:    9905        ..      LDR      r1,[sp,#0x14]
        0x000025be:    5c68        h\      LDRB     r0,[r5,r1]
        0x000025c0:    f001f8e1    ....    BL       SendChar ; 0x3786
        0x000025c4:    9805        ..      LDR      r0,[sp,#0x14]
        0x000025c6:    1c40        @.      ADDS     r0,r0,#1
        0x000025c8:    9005        ..      STR      r0,[sp,#0x14]
        0x000025ca:    9804        ..      LDR      r0,[sp,#0x10]
        0x000025cc:    1c40        @.      ADDS     r0,r0,#1
        0x000025ce:    9004        ..      STR      r0,[sp,#0x10]
        0x000025d0:    9903        ..      LDR      r1,[sp,#0xc]
        0x000025d2:    9804        ..      LDR      r0,[sp,#0x10]
        0x000025d4:    4288        .B      CMP      r0,r1
        0x000025d6:    dbf1        ..      BLT      0x25bc ; TCP_Send + 510
        0x000025d8:    211a        .!      MOVS     r1,#0x1a
        0x000025da:    a0d3        ..      ADR      r0,{pc}+0x34e ; 0x2928
        0x000025dc:    f002f80c    ....    BL       __0printf ; 0x45f8
        0x000025e0:    bf00        ..      NOP      
        0x000025e2:    48cd        .H      LDR      r0,[pc,#820] ; [0x2918] = 0x200010d0
        0x000025e4:    9909        ..      LDR      r1,[sp,#0x24]
        0x000025e6:    f001fbab    ....    BL       strstr ; 0x3d40
        0x000025ea:    49cc        .I      LDR      r1,[pc,#816] ; [0x291c] = 0x200000d4
        0x000025ec:    6008        .`      STR      r0,[r1,#0]
        0x000025ee:    48ca        .H      LDR      r0,[pc,#808] ; [0x2918] = 0x200010d0
        0x000025f0:    990a        ..      LDR      r1,[sp,#0x28]
        0x000025f2:    f001fba5    ....    BL       strstr ; 0x3d40
        0x000025f6:    49ca        .I      LDR      r1,[pc,#808] ; [0x2920] = 0x200000d8
        0x000025f8:    6008        .`      STR      r0,[r1,#0]
        0x000025fa:    48c7        .H      LDR      r0,[pc,#796] ; [0x2918] = 0x200010d0
        0x000025fc:    9910        ..      LDR      r1,[sp,#0x40]
        0x000025fe:    f001fb9f    ....    BL       strstr ; 0x3d40
        0x00002602:    49c8        .I      LDR      r1,[pc,#800] ; [0x2924] = 0x200000dc
        0x00002604:    6008        .`      STR      r0,[r1,#0]
        0x00002606:    e000        ..      B        0x260a ; TCP_Send + 588
        0x00002608:    e043        C.      B        0x2692 ; TCP_Send + 724
        0x0000260a:    48c4        .H      LDR      r0,[pc,#784] ; [0x291c] = 0x200000d4
        0x0000260c:    6800        .h      LDR      r0,[r0,#0]
        0x0000260e:    2800        .(      CMP      r0,#0
        0x00002610:    d10b        ..      BNE      0x262a ; TCP_Send + 620
        0x00002612:    48c3        .H      LDR      r0,[pc,#780] ; [0x2920] = 0x200000d8
        0x00002614:    6800        .h      LDR      r0,[r0,#0]
        0x00002616:    2800        .(      CMP      r0,#0
        0x00002618:    d107        ..      BNE      0x262a ; TCP_Send + 620
        0x0000261a:    4608        .F      MOV      r0,r1
        0x0000261c:    6800        .h      LDR      r0,[r0,#0]
        0x0000261e:    2800        .(      CMP      r0,#0
        0x00002620:    d103        ..      BNE      0x262a ; TCP_Send + 620
        0x00002622:    48bb        .H      LDR      r0,[pc,#748] ; [0x2910] = 0x200000ac
        0x00002624:    6800        .h      LDR      r0,[r0,#0]
        0x00002626:    42b8        .B      CMP      r0,r7
        0x00002628:    dbdb        ..      BLT      0x25e2 ; TCP_Send + 548
        0x0000262a:    f7fff864    ..d.    BL       clear ; 0x16f6
        0x0000262e:    48bd        .H      LDR      r0,[pc,#756] ; [0x2924] = 0x200000dc
        0x00002630:    6800        .h      LDR      r0,[r0,#0]
        0x00002632:    2800        .(      CMP      r0,#0
        0x00002634:    d103        ..      BNE      0x263e ; TCP_Send + 640
        0x00002636:    2001        .       MOVS     r0,#1
        0x00002638:    49bc        .I      LDR      r1,[pc,#752] ; [0x292c] = 0x200000fc
        0x0000263a:    6008        .`      STR      r0,[r1,#0]
        0x0000263c:    e006        ..      B        0x264c ; TCP_Send + 654
        0x0000263e:    2000        .       MOVS     r0,#0
        0x00002640:    49ba        .I      LDR      r1,[pc,#744] ; [0x292c] = 0x200000fc
        0x00002642:    6008        .`      STR      r0,[r1,#0]
        0x00002644:    1c64        d.      ADDS     r4,r4,#1
        0x00002646:    42b4        .B      CMP      r4,r6
        0x00002648:    da00        ..      BGE      0x264c ; TCP_Send + 654
        0x0000264a:    e762        b.      B        0x2512 ; TCP_Send + 340
        0x0000264c:    bf00        ..      NOP      
        0x0000264e:    48b7        .H      LDR      r0,[pc,#732] ; [0x292c] = 0x200000fc
        0x00002650:    6800        .h      LDR      r0,[r0,#0]
        0x00002652:    2800        .(      CMP      r0,#0
        0x00002654:    d119        ..      BNE      0x268a ; TCP_Send + 716
        0x00002656:    42b4        .B      CMP      r4,r6
        0x00002658:    db17        ..      BLT      0x268a ; TCP_Send + 716
        0x0000265a:    49b5        .I      LDR      r1,[pc,#724] ; [0x2930] = 0xdac
        0x0000265c:    48b5        .H      LDR      r0,[pc,#724] ; [0x2934] = 0x20000324
        0x0000265e:    f001fb58    ..X.    BL       __aeabi_memclr ; 0x3d12
        0x00002662:    bf00        ..      NOP      
        0x00002664:    48b4        .H      LDR      r0,[pc,#720] ; [0x2938] = 0x20000097
        0x00002666:    7800        .x      LDRB     r0,[r0,#0]
        0x00002668:    2801        .(      CMP      r0,#1
        0x0000266a:    d109        ..      BNE      0x2680 ; TCP_Send + 706
        0x0000266c:    200a        .       MOVS     r0,#0xa
        0x0000266e:    49b3        .I      LDR      r1,[pc,#716] ; [0x293c] = 0x6afc
        0x00002670:    4bb3        .K      LDR      r3,[pc,#716] ; [0x2940] = 0x6ad8
        0x00002672:    4ab4        .J      LDR      r2,[pc,#720] ; [0x2944] = 0x6af8
        0x00002674:    9100        ..      STR      r1,[sp,#0]
        0x00002676:    9001        ..      STR      r0,[sp,#4]
        0x00002678:    49ae        .I      LDR      r1,[pc,#696] ; [0x2934] = 0x20000324
        0x0000267a:    48b3        .H      LDR      r0,[pc,#716] ; [0x2948] = 0x6ae8
        0x0000267c:    f7fffcd2    ....    BL       TCP_Send_ch ; 0x2024
        0x00002680:    bf00        ..      NOP      
        0x00002682:    2001        .       MOVS     r0,#1
        0x00002684:    49ac        .I      LDR      r1,[pc,#688] ; [0x2938] = 0x20000097
        0x00002686:    7008        .p      STRB     r0,[r1,#0]
        0x00002688:    e006        ..      B        0x2698 ; TCP_Send + 730
        0x0000268a:    2000        .       MOVS     r0,#0
        0x0000268c:    49aa        .I      LDR      r1,[pc,#680] ; [0x2938] = 0x20000097
        0x0000268e:    7008        .p      STRB     r0,[r1,#0]
        0x00002690:    e002        ..      B        0x2698 ; TCP_Send + 730
        0x00002692:    2001        .       MOVS     r0,#1
        0x00002694:    49a5        .I      LDR      r1,[pc,#660] ; [0x292c] = 0x200000fc
        0x00002696:    6008        .`      STR      r0,[r1,#0]
        0x00002698:    2001        .       MOVS     r0,#1
        0x0000269a:    49ac        .I      LDR      r1,[pc,#688] ; [0x294c] = 0x50004240
        0x0000269c:    6088        .`      STR      r0,[r1,#8]
        0x0000269e:    48ac        .H      LDR      r0,[pc,#688] ; [0x2950] = 0x20000080
        0x000026a0:    6800        .h      LDR      r0,[r0,#0]
        0x000026a2:    f002fecd    ....    BL       osMutexRelease ; 0x5440
        0x000026a6:    2005        .       MOVS     r0,#5
        0x000026a8:    f002fe4a    ..J.    BL       osDelay ; 0x5340
        0x000026ac:    b00b        ..      ADD      sp,sp,#0x2c
        0x000026ae:    bdf0        ..      POP      {r4-r7,pc}
    SendAT_GPS
        0x000026b0:    b5f0        ..      PUSH     {r4-r7,lr}
        0x000026b2:    b09d        ..      SUB      sp,sp,#0x74
        0x000026b4:    460f        .F      MOV      r7,r1
        0x000026b6:    4615        .F      MOV      r5,r2
        0x000026b8:    461e        .F      MOV      r6,r3
        0x000026ba:    9c22        ".      LDR      r4,[sp,#0x88]
        0x000026bc:    2000        .       MOVS     r0,#0
        0x000026be:    9019        ..      STR      r0,[sp,#0x64]
        0x000026c0:    901a        ..      STR      r0,[sp,#0x68]
        0x000026c2:    901b        ..      STR      r0,[sp,#0x6c]
        0x000026c4:    9016        ..      STR      r0,[sp,#0x58]
        0x000026c6:    9017        ..      STR      r0,[sp,#0x5c]
        0x000026c8:    9018        ..      STR      r0,[sp,#0x60]
        0x000026ca:    9014        ..      STR      r0,[sp,#0x50]
        0x000026cc:    9015        ..      STR      r0,[sp,#0x54]
        0x000026ce:    9012        ..      STR      r0,[sp,#0x48]
        0x000026d0:    9013        ..      STR      r0,[sp,#0x4c]
        0x000026d2:    9010        ..      STR      r0,[sp,#0x40]
        0x000026d4:    9011        ..      STR      r0,[sp,#0x44]
        0x000026d6:    900e        ..      STR      r0,[sp,#0x38]
        0x000026d8:    900f        ..      STR      r0,[sp,#0x3c]
        0x000026da:    900c        ..      STR      r0,[sp,#0x30]
        0x000026dc:    900d        ..      STR      r0,[sp,#0x34]
        0x000026de:    900b        ..      STR      r0,[sp,#0x2c]
        0x000026e0:    900a        ..      STR      r0,[sp,#0x28]
        0x000026e2:    9009        ..      STR      r0,[sp,#0x24]
        0x000026e4:    9008        ..      STR      r0,[sp,#0x20]
        0x000026e6:    2005        .       MOVS     r0,#5
        0x000026e8:    4b9a        .K      LDR      r3,[pc,#616] ; [0x2954] = 0x1b48
        0x000026ea:    a29b        ..      ADR      r2,{pc}+0x26e ; 0x2958
        0x000026ec:    a19a        ..      ADR      r1,{pc}+0x26c ; 0x2958
        0x000026ee:    9000        ..      STR      r0,[sp,#0]
        0x000026f0:    4618        .F      MOV      r0,r3
        0x000026f2:    303c        <0      ADDS     r0,r0,#0x3c
        0x000026f4:    f7fff80a    ....    BL       SendAT ; 0x170c
        0x000026f8:    2000        .       MOVS     r0,#0
        0x000026fa:    4994        .I      LDR      r1,[pc,#592] ; [0x294c] = 0x50004240
        0x000026fc:    6088        .`      STR      r0,[r1,#8]
        0x000026fe:    2064        d       MOVS     r0,#0x64
        0x00002700:    f002fe1e    ....    BL       osDelay ; 0x5340
        0x00002704:    2100        .!      MOVS     r1,#0
        0x00002706:    43c9        .C      MVNS     r1,r1
        0x00002708:    4891        .H      LDR      r0,[pc,#580] ; [0x2950] = 0x20000080
        0x0000270a:    6800        .h      LDR      r0,[r0,#0]
        0x0000270c:    f002fea6    ....    BL       osMutexWait ; 0x545c
        0x00002710:    2000        .       MOVS     r0,#0
        0x00002712:    497f        .I      LDR      r1,[pc,#508] ; [0x2910] = 0x200000ac
        0x00002714:    6008        .`      STR      r0,[r1,#0]
        0x00002716:    4981        .I      LDR      r1,[pc,#516] ; [0x291c] = 0x200000d4
        0x00002718:    6008        .`      STR      r0,[r1,#0]
        0x0000271a:    4981        .I      LDR      r1,[pc,#516] ; [0x2920] = 0x200000d8
        0x0000271c:    6008        .`      STR      r0,[r1,#0]
        0x0000271e:    4981        .I      LDR      r1,[pc,#516] ; [0x2924] = 0x200000dc
        0x00002720:    6008        .`      STR      r0,[r1,#0]
        0x00002722:    497a        zI      LDR      r1,[pc,#488] ; [0x290c] = 0x200000a4
        0x00002724:    6008        .`      STR      r0,[r1,#0]
        0x00002726:    497b        {I      LDR      r1,[pc,#492] ; [0x2914] = 0x226
        0x00002728:    487b        {H      LDR      r0,[pc,#492] ; [0x2918] = 0x200010d0
        0x0000272a:    f001faf2    ....    BL       __aeabi_memclr ; 0x3d12
        0x0000272e:    f7feffe2    ....    BL       clear ; 0x16f6
        0x00002732:    488a        .H      LDR      r0,[pc,#552] ; [0x295c] = 0x200013a0
        0x00002734:    f002fcee    ....    BL       checkallnumsinstring ; 0x5114
        0x00002738:    2800        .(      CMP      r0,#0
        0x0000273a:    d104        ..      BNE      0x2746 ; SendAT_GPS + 150
        0x0000273c:    4887        .H      LDR      r0,[pc,#540] ; [0x295c] = 0x200013a0
        0x0000273e:    f001fb13    ....    BL       strlen ; 0x3d68
        0x00002742:    2805        .(      CMP      r0,#5
        0x00002744:    d259        Y.      BCS      0x27fa ; SendAT_GPS + 330
        0x00002746:    a086        ..      ADR      r0,{pc}+0x21a ; 0x2960
        0x00002748:    f001ff56    ..V.    BL       __0printf ; 0x45f8
        0x0000274c:    bf00        ..      NOP      
        0x0000274e:    4639        9F      MOV      r1,r7
        0x00002750:    4871        qH      LDR      r0,[pc,#452] ; [0x2918] = 0x200010d0
        0x00002752:    f001faf5    ....    BL       strstr ; 0x3d40
        0x00002756:    4971        qI      LDR      r1,[pc,#452] ; [0x291c] = 0x200000d4
        0x00002758:    6008        .`      STR      r0,[r1,#0]
        0x0000275a:    4629        )F      MOV      r1,r5
        0x0000275c:    486e        nH      LDR      r0,[pc,#440] ; [0x2918] = 0x200010d0
        0x0000275e:    f001faef    ....    BL       strstr ; 0x3d40
        0x00002762:    496f        oI      LDR      r1,[pc,#444] ; [0x2920] = 0x200000d8
        0x00002764:    6008        .`      STR      r0,[r1,#0]
        0x00002766:    4631        1F      MOV      r1,r6
        0x00002768:    486b        kH      LDR      r0,[pc,#428] ; [0x2918] = 0x200010d0
        0x0000276a:    f001fae9    ....    BL       strstr ; 0x3d40
        0x0000276e:    496d        mI      LDR      r1,[pc,#436] ; [0x2924] = 0x200000dc
        0x00002770:    6008        .`      STR      r0,[r1,#0]
        0x00002772:    486a        jH      LDR      r0,[pc,#424] ; [0x291c] = 0x200000d4
        0x00002774:    6800        .h      LDR      r0,[r0,#0]
        0x00002776:    2800        .(      CMP      r0,#0
        0x00002778:    d10b        ..      BNE      0x2792 ; SendAT_GPS + 226
        0x0000277a:    4869        iH      LDR      r0,[pc,#420] ; [0x2920] = 0x200000d8
        0x0000277c:    6800        .h      LDR      r0,[r0,#0]
        0x0000277e:    2800        .(      CMP      r0,#0
        0x00002780:    d107        ..      BNE      0x2792 ; SendAT_GPS + 226
        0x00002782:    4608        .F      MOV      r0,r1
        0x00002784:    6800        .h      LDR      r0,[r0,#0]
        0x00002786:    2800        .(      CMP      r0,#0
        0x00002788:    d103        ..      BNE      0x2792 ; SendAT_GPS + 226
        0x0000278a:    4861        aH      LDR      r0,[pc,#388] ; [0x2910] = 0x200000ac
        0x0000278c:    6800        .h      LDR      r0,[r0,#0]
        0x0000278e:    42a0        .B      CMP      r0,r4
        0x00002790:    dbdd        ..      BLT      0x274e ; SendAT_GPS + 158
        0x00002792:    2119        .!      MOVS     r1,#0x19
        0x00002794:    4871        qH      LDR      r0,[pc,#452] ; [0x295c] = 0x200013a0
        0x00002796:    f001fabc    ....    BL       __aeabi_memclr ; 0x3d12
        0x0000279a:    2000        .       MOVS     r0,#0
        0x0000279c:    4974        tI      LDR      r1,[pc,#464] ; [0x2970] = 0x20000100
        0x0000279e:    6008        .`      STR      r0,[r1,#0]
        0x000027a0:    4974        tI      LDR      r1,[pc,#464] ; [0x2974] = 0x2000011c
        0x000027a2:    6008        .`      STR      r0,[r1,#0]
        0x000027a4:    e01d        ..      B        0x27e2 ; SendAT_GPS + 306
        0x000027a6:    485c        \H      LDR      r0,[pc,#368] ; [0x2918] = 0x200010d0
        0x000027a8:    4972        rI      LDR      r1,[pc,#456] ; [0x2974] = 0x2000011c
        0x000027aa:    6809        .h      LDR      r1,[r1,#0]
        0x000027ac:    5c40        @\      LDRB     r0,[r0,r1]
        0x000027ae:    282f        /(      CMP      r0,#0x2f
        0x000027b0:    dd12        ..      BLE      0x27d8 ; SendAT_GPS + 296
        0x000027b2:    4859        YH      LDR      r0,[pc,#356] ; [0x2918] = 0x200010d0
        0x000027b4:    496f        oI      LDR      r1,[pc,#444] ; [0x2974] = 0x2000011c
        0x000027b6:    6809        .h      LDR      r1,[r1,#0]
        0x000027b8:    5c40        @\      LDRB     r0,[r0,r1]
        0x000027ba:    283a        :(      CMP      r0,#0x3a
        0x000027bc:    da0c        ..      BGE      0x27d8 ; SendAT_GPS + 296
        0x000027be:    4856        VH      LDR      r0,[pc,#344] ; [0x2918] = 0x200010d0
        0x000027c0:    496c        lI      LDR      r1,[pc,#432] ; [0x2974] = 0x2000011c
        0x000027c2:    6809        .h      LDR      r1,[r1,#0]
        0x000027c4:    5c40        @\      LDRB     r0,[r0,r1]
        0x000027c6:    4965        eI      LDR      r1,[pc,#404] ; [0x295c] = 0x200013a0
        0x000027c8:    4a69        iJ      LDR      r2,[pc,#420] ; [0x2970] = 0x20000100
        0x000027ca:    6812        .h      LDR      r2,[r2,#0]
        0x000027cc:    5488        .T      STRB     r0,[r1,r2]
        0x000027ce:    4868        hH      LDR      r0,[pc,#416] ; [0x2970] = 0x20000100
        0x000027d0:    6800        .h      LDR      r0,[r0,#0]
        0x000027d2:    1c40        @.      ADDS     r0,r0,#1
        0x000027d4:    4966        fI      LDR      r1,[pc,#408] ; [0x2970] = 0x20000100
        0x000027d6:    6008        .`      STR      r0,[r1,#0]
        0x000027d8:    4866        fH      LDR      r0,[pc,#408] ; [0x2974] = 0x2000011c
        0x000027da:    6800        .h      LDR      r0,[r0,#0]
        0x000027dc:    1c40        @.      ADDS     r0,r0,#1
        0x000027de:    4965        eI      LDR      r1,[pc,#404] ; [0x2974] = 0x2000011c
        0x000027e0:    6008        .`      STR      r0,[r1,#0]
        0x000027e2:    484d        MH      LDR      r0,[pc,#308] ; [0x2918] = 0x200010d0
        0x000027e4:    f001fac0    ....    BL       strlen ; 0x3d68
        0x000027e8:    4962        bI      LDR      r1,[pc,#392] ; [0x2974] = 0x2000011c
        0x000027ea:    6809        .h      LDR      r1,[r1,#0]
        0x000027ec:    4288        .B      CMP      r0,r1
        0x000027ee:    d8da        ..      BHI      0x27a6 ; SendAT_GPS + 246
        0x000027f0:    221a        ."      MOVS     r2,#0x1a
        0x000027f2:    210d        .!      MOVS     r1,#0xd
        0x000027f4:    4859        YH      LDR      r0,[pc,#356] ; [0x295c] = 0x200013a0
        0x000027f6:    f7fdfdd1    ....    BL       remove_all_chars ; 0x39c
        0x000027fa:    2000        .       MOVS     r0,#0
        0x000027fc:    4944        DI      LDR      r1,[pc,#272] ; [0x2910] = 0x200000ac
        0x000027fe:    6008        .`      STR      r0,[r1,#0]
        0x00002800:    4946        FI      LDR      r1,[pc,#280] ; [0x291c] = 0x200000d4
        0x00002802:    6008        .`      STR      r0,[r1,#0]
        0x00002804:    4946        FI      LDR      r1,[pc,#280] ; [0x2920] = 0x200000d8
        0x00002806:    6008        .`      STR      r0,[r1,#0]
        0x00002808:    4946        FI      LDR      r1,[pc,#280] ; [0x2924] = 0x200000dc
        0x0000280a:    6008        .`      STR      r0,[r1,#0]
        0x0000280c:    493f        ?I      LDR      r1,[pc,#252] ; [0x290c] = 0x200000a4
        0x0000280e:    6008        .`      STR      r0,[r1,#0]
        0x00002810:    4940        @I      LDR      r1,[pc,#256] ; [0x2914] = 0x226
        0x00002812:    4841        AH      LDR      r0,[pc,#260] ; [0x2918] = 0x200010d0
        0x00002814:    f001fa7d    ..}.    BL       __aeabi_memclr ; 0x3d12
        0x00002818:    f7feff6d    ..m.    BL       clear ; 0x16f6
        0x0000281c:    a056        V.      ADR      r0,{pc}+0x15c ; 0x2978
        0x0000281e:    f001feeb    ....    BL       __0printf ; 0x45f8
        0x00002822:    bf00        ..      NOP      
        0x00002824:    4639        9F      MOV      r1,r7
        0x00002826:    483c        <H      LDR      r0,[pc,#240] ; [0x2918] = 0x200010d0
        0x00002828:    f001fa8a    ....    BL       strstr ; 0x3d40
        0x0000282c:    493b        ;I      LDR      r1,[pc,#236] ; [0x291c] = 0x200000d4
        0x0000282e:    6008        .`      STR      r0,[r1,#0]
        0x00002830:    4629        )F      MOV      r1,r5
        0x00002832:    4839        9H      LDR      r0,[pc,#228] ; [0x2918] = 0x200010d0
        0x00002834:    f001fa84    ....    BL       strstr ; 0x3d40
        0x00002838:    4939        9I      LDR      r1,[pc,#228] ; [0x2920] = 0x200000d8
        0x0000283a:    6008        .`      STR      r0,[r1,#0]
        0x0000283c:    4631        1F      MOV      r1,r6
        0x0000283e:    4836        6H      LDR      r0,[pc,#216] ; [0x2918] = 0x200010d0
        0x00002840:    f001fa7e    ..~.    BL       strstr ; 0x3d40
        0x00002844:    4937        7I      LDR      r1,[pc,#220] ; [0x2924] = 0x200000dc
        0x00002846:    6008        .`      STR      r0,[r1,#0]
        0x00002848:    4834        4H      LDR      r0,[pc,#208] ; [0x291c] = 0x200000d4
        0x0000284a:    6800        .h      LDR      r0,[r0,#0]
        0x0000284c:    2800        .(      CMP      r0,#0
        0x0000284e:    d10b        ..      BNE      0x2868 ; SendAT_GPS + 440
        0x00002850:    4833        3H      LDR      r0,[pc,#204] ; [0x2920] = 0x200000d8
        0x00002852:    6800        .h      LDR      r0,[r0,#0]
        0x00002854:    2800        .(      CMP      r0,#0
        0x00002856:    d107        ..      BNE      0x2868 ; SendAT_GPS + 440
        0x00002858:    4608        .F      MOV      r0,r1
        0x0000285a:    6800        .h      LDR      r0,[r0,#0]
        0x0000285c:    2800        .(      CMP      r0,#0
        0x0000285e:    d103        ..      BNE      0x2868 ; SendAT_GPS + 440
        0x00002860:    482b        +H      LDR      r0,[pc,#172] ; [0x2910] = 0x200000ac
        0x00002862:    6800        .h      LDR      r0,[r0,#0]
        0x00002864:    42a0        .B      CMP      r0,r4
        0x00002866:    dbdd        ..      BLT      0x2824 ; SendAT_GPS + 372
        0x00002868:    f7feff45    ..E.    BL       clear ; 0x16f6
        0x0000286c:    484b        KH      LDR      r0,[pc,#300] ; [0x299c] = 0x2000133c
        0x0000286e:    212a        *!      MOVS     r1,#0x2a
        0x00002870:    2324        $#      MOVS     r3,#0x24
        0x00002872:    2201        ."      MOVS     r2,#1
        0x00002874:    9100        ..      STR      r1,[sp,#0]
        0x00002876:    9001        ..      STR      r0,[sp,#4]
        0x00002878:    4611        .F      MOV      r1,r2
        0x0000287a:    4827        'H      LDR      r0,[pc,#156] ; [0x2918] = 0x200010d0
        0x0000287c:    f002feaa    ....    BL       parse_g ; 0x55d4
        0x00002880:    a812        ..      ADD      r0,sp,#0x48
        0x00002882:    212e        .!      MOVS     r1,#0x2e
        0x00002884:    232c        ,#      MOVS     r3,#0x2c
        0x00002886:    2201        ."      MOVS     r2,#1
        0x00002888:    9100        ..      STR      r1,[sp,#0]
        0x0000288a:    9001        ..      STR      r0,[sp,#4]
        0x0000288c:    4611        .F      MOV      r1,r2
        0x0000288e:    4843        CH      LDR      r0,[pc,#268] ; [0x299c] = 0x2000133c
        0x00002890:    f002fea0    ....    BL       parse_g ; 0x55d4
        0x00002894:    2102        .!      MOVS     r1,#2
        0x00002896:    4841        AH      LDR      r0,[pc,#260] ; [0x299c] = 0x2000133c
        0x00002898:    9a0a        ..      LDR      r2,[sp,#0x28]
        0x0000289a:    f002fc54    ..T.    BL       feild_response ; 0x5146
        0x0000289e:    2000        .       MOVS     r0,#0
        0x000028a0:    491b        .I      LDR      r1,[pc,#108] ; [0x2910] = 0x200000ac
        0x000028a2:    6008        .`      STR      r0,[r1,#0]
        0x000028a4:    491d        .I      LDR      r1,[pc,#116] ; [0x291c] = 0x200000d4
        0x000028a6:    6008        .`      STR      r0,[r1,#0]
        0x000028a8:    491d        .I      LDR      r1,[pc,#116] ; [0x2920] = 0x200000d8
        0x000028aa:    6008        .`      STR      r0,[r1,#0]
        0x000028ac:    491d        .I      LDR      r1,[pc,#116] ; [0x2924] = 0x200000dc
        0x000028ae:    6008        .`      STR      r0,[r1,#0]
        0x000028b0:    4916        .I      LDR      r1,[pc,#88] ; [0x290c] = 0x200000a4
        0x000028b2:    6008        .`      STR      r0,[r1,#0]
        0x000028b4:    4917        .I      LDR      r1,[pc,#92] ; [0x2914] = 0x226
        0x000028b6:    4818        .H      LDR      r0,[pc,#96] ; [0x2918] = 0x200010d0
        0x000028b8:    f001fa2b    ..+.    BL       __aeabi_memclr ; 0x3d12
        0x000028bc:    f7feff1b    ....    BL       clear ; 0x16f6
        0x000028c0:    a037        7.      ADR      r0,{pc}+0xe0 ; 0x29a0
        0x000028c2:    f001fe99    ....    BL       __0printf ; 0x45f8
        0x000028c6:    bf00        ..      NOP      
        0x000028c8:    4639        9F      MOV      r1,r7
        0x000028ca:    4813        .H      LDR      r0,[pc,#76] ; [0x2918] = 0x200010d0
        0x000028cc:    f001fa38    ..8.    BL       strstr ; 0x3d40
        0x000028d0:    4912        .I      LDR      r1,[pc,#72] ; [0x291c] = 0x200000d4
        0x000028d2:    6008        .`      STR      r0,[r1,#0]
        0x000028d4:    4629        )F      MOV      r1,r5
        0x000028d6:    4810        .H      LDR      r0,[pc,#64] ; [0x2918] = 0x200010d0
        0x000028d8:    f001fa32    ..2.    BL       strstr ; 0x3d40
        0x000028dc:    4910        .I      LDR      r1,[pc,#64] ; [0x2920] = 0x200000d8
        0x000028de:    6008        .`      STR      r0,[r1,#0]
        0x000028e0:    4631        1F      MOV      r1,r6
        0x000028e2:    480d        .H      LDR      r0,[pc,#52] ; [0x2918] = 0x200010d0
        0x000028e4:    f001fa2c    ..,.    BL       strstr ; 0x3d40
        0x000028e8:    490e        .I      LDR      r1,[pc,#56] ; [0x2924] = 0x200000dc
        0x000028ea:    6008        .`      STR      r0,[r1,#0]
        0x000028ec:    480b        .H      LDR      r0,[pc,#44] ; [0x291c] = 0x200000d4
        0x000028ee:    6800        .h      LDR      r0,[r0,#0]
        0x000028f0:    2800        .(      CMP      r0,#0
        0x000028f2:    d166        f.      BNE      0x29c2 ; SendAT_GPS + 786
        0x000028f4:    480a        .H      LDR      r0,[pc,#40] ; [0x2920] = 0x200000d8
        0x000028f6:    6800        .h      LDR      r0,[r0,#0]
        0x000028f8:    2800        .(      CMP      r0,#0
        0x000028fa:    d162        b.      BNE      0x29c2 ; SendAT_GPS + 786
        0x000028fc:    4608        .F      MOV      r0,r1
        0x000028fe:    6800        .h      LDR      r0,[r0,#0]
        0x00002900:    2800        .(      CMP      r0,#0
        0x00002902:    d15e        ^.      BNE      0x29c2 ; SendAT_GPS + 786
        0x00002904:    4802        .H      LDR      r0,[pc,#8] ; [0x2910] = 0x200000ac
        0x00002906:    6800        .h      LDR      r0,[r0,#0]
        0x00002908:    42a0        .B      CMP      r0,r4
        0x0000290a:    e059        Y.      B        0x29c0 ; SendAT_GPS + 784
    $d
        0x0000290c:    200000a4    ...     DCD    536871076
        0x00002910:    200000ac    ...     DCD    536871084
        0x00002914:    00000226    &...    DCD    550
        0x00002918:    200010d0    ...     DCD    536875216
        0x0000291c:    200000d4    ...     DCD    536871124
        0x00002920:    200000d8    ...     DCD    536871128
        0x00002924:    200000dc    ...     DCD    536871132
        0x00002928:    00006325    %c..    DCD    25381
        0x0000292c:    200000fc    ...     DCD    536871164
        0x00002930:    00000dac    ....    DCD    3500
        0x00002934:    20000324    $..     DCD    536871716
        0x00002938:    20000097    ...     DCD    536871063
        0x0000293c:    00006afc    .j..    DCD    27388
        0x00002940:    00006ad8    .j..    DCD    27352
        0x00002944:    00006af8    .j..    DCD    27384
        0x00002948:    00006ae8    .j..    DCD    27368
        0x0000294c:    50004240    @B.P    DCD    1342194240
        0x00002950:    20000080    ...     DCD    536871040
        0x00002954:    00001b48    H...    DCD    6984
        0x00002958:    00004b4f    OK..    DCD    19279
        0x0000295c:    200013a0    ...     DCD    536875936
        0x00002960:    0a0d0a0d    ....    DCD    168626701
        0x00002964:    472b5441    AT+G    DCD    1194021953
        0x00002968:    0a0d4e53    SN..    DCD    168644179
        0x0000296c:    00000a0d    ....    DCD    2573
        0x00002970:    20000100    ...     DCD    536871168
        0x00002974:    2000011c    ...     DCD    536871196
        0x00002978:    0a0d0a0d    ....    DCD    168626701
        0x0000297c:    512b5441    AT+Q    DCD    1361794113
        0x00002980:    53534e47    GNSS    DCD    1397968455
        0x00002984:    3d204452    RD =    DCD    1025524818
        0x00002988:    454d4e22    "NME    DCD    1162694178
        0x0000298c:    4d522f41    A/RM    DCD    1297231681
        0x00002990:    0a0d2243    C"..    DCD    168632899
        0x00002994:    0a0d0a0d    ....    DCD    168626701
        0x00002998:    00000000    ....    DCD    0
        0x0000299c:    2000133c    <..     DCD    536875836
        0x000029a0:    0a0d0a0d    ....    DCD    168626701
        0x000029a4:    512b5441    AT+Q    DCD    1361794113
        0x000029a8:    53534e47    GNSS    DCD    1397968455
        0x000029ac:    223d4452    RD="    DCD    574440530
        0x000029b0:    41454d4e    NMEA    DCD    1095060814
        0x000029b4:    4147472f    /GGA    DCD    1095190319
        0x000029b8:    0d0a0d22    "...    DCD    218762530
        0x000029bc:    000a0d0a    ....    DCD    658698
    $t
        0x000029c0:    db82        ..      BLT      0x28c8 ; SendAT_GPS + 536
        0x000029c2:    f7fefe98    ....    BL       clear ; 0x16f6
        0x000029c6:    48fe        .H      LDR      r0,[pc,#1016] ; [0x2dc0] = 0x2000133c
        0x000029c8:    212a        *!      MOVS     r1,#0x2a
        0x000029ca:    2324        $#      MOVS     r3,#0x24
        0x000029cc:    2201        ."      MOVS     r2,#1
        0x000029ce:    9100        ..      STR      r1,[sp,#0]
        0x000029d0:    9001        ..      STR      r0,[sp,#4]
        0x000029d2:    4611        .F      MOV      r1,r2
        0x000029d4:    48fb        .H      LDR      r0,[pc,#1004] ; [0x2dc4] = 0x200010d0
        0x000029d6:    f002fdfd    ....    BL       parse_g ; 0x55d4
        0x000029da:    a1fb        ..      ADR      r1,{pc}+0x3ee ; 0x2dc8
        0x000029dc:    48f9        .H      LDR      r0,[pc,#996] ; [0x2dc4] = 0x200010d0
        0x000029de:    f001f9af    ....    BL       strstr ; 0x3d40
        0x000029e2:    2800        .(      CMP      r0,#0
        0x000029e4:    d07d        }.      BEQ      0x2ae2 ; SendAT_GPS + 1074
        0x000029e6:    204c        L       MOVS     r0,#0x4c
        0x000029e8:    49f9        .I      LDR      r1,[pc,#996] ; [0x2dd0] = 0x20000099
        0x000029ea:    7008        .p      STRB     r0,[r1,#0]
        0x000029ec:    48f9        .H      LDR      r0,[pc,#996] ; [0x2dd4] = 0x40400000
        0x000029ee:    49fa        .I      LDR      r1,[pc,#1000] ; [0x2dd8] = 0x200000b0
        0x000029f0:    6008        .`      STR      r0,[r1,#0]
        0x000029f2:    48fa        .H      LDR      r0,[pc,#1000] ; [0x2ddc] = 0x400e0040
        0x000029f4:    6880        .h      LDR      r0,[r0,#8]
        0x000029f6:    2101        .!      MOVS     r1,#1
        0x000029f8:    02c9        ..      LSLS     r1,r1,#11
        0x000029fa:    4308        .C      ORRS     r0,r0,r1
        0x000029fc:    49f7        .I      LDR      r1,[pc,#988] ; [0x2ddc] = 0x400e0040
        0x000029fe:    6088        .`      STR      r0,[r1,#8]
        0x00002a00:    49f6        .I      LDR      r1,[pc,#984] ; [0x2ddc] = 0x400e0040
        0x00002a02:    3940        @9      SUBS     r1,r1,#0x40
        0x00002a04:    6809        .h      LDR      r1,[r1,#0]
        0x00002a06:    0508        ..      LSLS     r0,r1,#20
        0x00002a08:    0d00        ..      LSRS     r0,r0,#20
        0x00002a0a:    f001faa1    ....    BL       __aeabi_ui2f ; 0x3f50
        0x00002a0e:    49f2        .I      LDR      r1,[pc,#968] ; [0x2dd8] = 0x200000b0
        0x00002a10:    6008        .`      STR      r0,[r1,#0]
        0x00002a12:    4608        .F      MOV      r0,r1
        0x00002a14:    6800        .h      LDR      r0,[r0,#0]
        0x00002a16:    f001faa2    ....    BL       __aeabi_f2d ; 0x3f5e
        0x00002a1a:    4af1        .J      LDR      r2,[pc,#964] ; [0x2de0] = 0xdb22d0e5
        0x00002a1c:    4bf1        .K      LDR      r3,[pc,#964] ; [0x2de4] = 0x400a7ef9
        0x00002a1e:    9101        ..      STR      r1,[sp,#4]
        0x00002a20:    9000        ..      STR      r0,[sp,#0]
        0x00002a22:    f001f9b5    ....    BL       __aeabi_dmul ; 0x3d90
        0x00002a26:    2200        ."      MOVS     r2,#0
        0x00002a28:    4bef        .K      LDR      r3,[pc,#956] ; [0x2de8] = 0x40b00000
        0x00002a2a:    9103        ..      STR      r1,[sp,#0xc]
        0x00002a2c:    9002        ..      STR      r0,[sp,#8]
        0x00002a2e:    f001fa17    ....    BL       __aeabi_ddiv ; 0x3e60
        0x00002a32:    4aee        .J      LDR      r2,[pc,#952] ; [0x2dec] = 0xe737ca49
        0x00002a34:    4bee        .K      LDR      r3,[pc,#952] ; [0x2df0] = 0x3ffe15ba
        0x00002a36:    9105        ..      STR      r1,[sp,#0x14]
        0x00002a38:    9004        ..      STR      r0,[sp,#0x10]
        0x00002a3a:    f001f9a9    ....    BL       __aeabi_dmul ; 0x3d90
        0x00002a3e:    9107        ..      STR      r1,[sp,#0x1c]
        0x00002a40:    9006        ..      STR      r0,[sp,#0x18]
        0x00002a42:    f001fac9    ....    BL       __aeabi_d2f ; 0x3fd8
        0x00002a46:    49e4        .I      LDR      r1,[pc,#912] ; [0x2dd8] = 0x200000b0
        0x00002a48:    6008        .`      STR      r0,[r1,#0]
        0x00002a4a:    2164        d!      MOVS     r1,#0x64
        0x00002a4c:    48dc        .H      LDR      r0,[pc,#880] ; [0x2dc0] = 0x2000133c
        0x00002a4e:    f001f960    ..`.    BL       __aeabi_memclr ; 0x3d12
        0x00002a52:    4adb        .J      LDR      r2,[pc,#876] ; [0x2dc0] = 0x2000133c
        0x00002a54:    2105        .!      MOVS     r1,#5
        0x00002a56:    48db        .H      LDR      r0,[pc,#876] ; [0x2dc4] = 0x200010d0
        0x00002a58:    f002fb75    ..u.    BL       feild_response ; 0x5146
        0x00002a5c:    48d8        .H      LDR      r0,[pc,#864] ; [0x2dc0] = 0x2000133c
        0x00002a5e:    212c        ,!      MOVS     r1,#0x2c
        0x00002a60:    2343        C#      MOVS     r3,#0x43
        0x00002a62:    220a        ."      MOVS     r2,#0xa
        0x00002a64:    9100        ..      STR      r1,[sp,#0]
        0x00002a66:    9001        ..      STR      r0,[sp,#4]
        0x00002a68:    2102        .!      MOVS     r1,#2
        0x00002a6a:    48d6        .H      LDR      r0,[pc,#856] ; [0x2dc4] = 0x200010d0
        0x00002a6c:    f002fdb2    ....    BL       parse_g ; 0x55d4
        0x00002a70:    48e0        .H      LDR      r0,[pc,#896] ; [0x2df4] = 0x2000141d
        0x00002a72:    49e1        .I      LDR      r1,[pc,#900] ; [0x2df8] = 0x200013a0
        0x00002a74:    4ad6        .J      LDR      r2,[pc,#856] ; [0x2dd0] = 0x20000099
        0x00002a76:    7812        .x      LDRB     r2,[r2,#0]
        0x00002a78:    a3e0        ..      ADR      r3,{pc}+0x384 ; 0x2dfc
        0x00002a7a:    9300        ..      STR      r3,[sp,#0]
        0x00002a7c:    9201        ..      STR      r2,[sp,#4]
        0x00002a7e:    9102        ..      STR      r1,[sp,#8]
        0x00002a80:    9003        ..      STR      r0,[sp,#0xc]
        0x00002a82:    a3e0        ..      ADR      r3,{pc}+0x382 ; 0x2e04
        0x00002a84:    a2e0        ..      ADR      r2,{pc}+0x384 ; 0x2e08
        0x00002a86:    a1e2        ..      ADR      r1,{pc}+0x38a ; 0x2e10
        0x00002a88:    48e7        .H      LDR      r0,[pc,#924] ; [0x2e28] = 0x20000324
        0x00002a8a:    f001fdc5    ....    BL       __0sprintf ; 0x4618
        0x00002a8e:    49cc        .I      LDR      r1,[pc,#816] ; [0x2dc0] = 0x2000133c
        0x00002a90:    48e5        .H      LDR      r0,[pc,#916] ; [0x2e28] = 0x20000324
        0x00002a92:    f001f949    ..I.    BL       strcat ; 0x3d28
        0x00002a96:    a1e5        ..      ADR      r1,{pc}+0x396 ; 0x2e2c
        0x00002a98:    48e3        .H      LDR      r0,[pc,#908] ; [0x2e28] = 0x20000324
        0x00002a9a:    f001f945    ..E.    BL       strcat ; 0x3d28
        0x00002a9e:    49e4        .I      LDR      r1,[pc,#912] ; [0x2e30] = 0x2000000c
        0x00002aa0:    48e1        .H      LDR      r0,[pc,#900] ; [0x2e28] = 0x20000324
        0x00002aa2:    f001f941    ..A.    BL       strcat ; 0x3d28
        0x00002aa6:    a1e1        ..      ADR      r1,{pc}+0x386 ; 0x2e2c
        0x00002aa8:    48df        .H      LDR      r0,[pc,#892] ; [0x2e28] = 0x20000324
        0x00002aaa:    f001f93d    ..=.    BL       strcat ; 0x3d28
        0x00002aae:    2164        d!      MOVS     r1,#0x64
        0x00002ab0:    48c3        .H      LDR      r0,[pc,#780] ; [0x2dc0] = 0x2000133c
        0x00002ab2:    f001f92e    ....    BL       __aeabi_memclr ; 0x3d12
        0x00002ab6:    48c8        .H      LDR      r0,[pc,#800] ; [0x2dd8] = 0x200000b0
        0x00002ab8:    6800        .h      LDR      r0,[r0,#0]
        0x00002aba:    f001fa50    ..P.    BL       __aeabi_f2d ; 0x3f5e
        0x00002abe:    4602        .F      MOV      r2,r0
        0x00002ac0:    460b        .F      MOV      r3,r1
        0x00002ac2:    9107        ..      STR      r1,[sp,#0x1c]
        0x00002ac4:    9006        ..      STR      r0,[sp,#0x18]
        0x00002ac6:    a1db        ..      ADR      r1,{pc}+0x36e ; 0x2e34
        0x00002ac8:    48bd        .H      LDR      r0,[pc,#756] ; [0x2dc0] = 0x2000133c
        0x00002aca:    f001fda5    ....    BL       __0sprintf ; 0x4618
        0x00002ace:    49bc        .I      LDR      r1,[pc,#752] ; [0x2dc0] = 0x2000133c
        0x00002ad0:    48d5        .H      LDR      r0,[pc,#852] ; [0x2e28] = 0x20000324
        0x00002ad2:    f001f929    ..).    BL       strcat ; 0x3d28
        0x00002ad6:    2164        d!      MOVS     r1,#0x64
        0x00002ad8:    48b9        .H      LDR      r0,[pc,#740] ; [0x2dc0] = 0x2000133c
        0x00002ada:    f001f91a    ....    BL       __aeabi_memclr ; 0x3d12
        0x00002ade:    48d7        .H      LDR      r0,[pc,#860] ; [0x2e3c] = 0x20000064
        0x00002ae0:    e000        ..      B        0x2ae4 ; SendAT_GPS + 1076
        0x00002ae2:    e008        ..      B        0x2af6 ; SendAT_GPS + 1094
        0x00002ae4:    a1d6        ..      ADR      r1,{pc}+0x35c ; 0x2e40
        0x00002ae6:    6802        .h      LDR      r2,[r0,#0]
        0x00002ae8:    48b5        .H      LDR      r0,[pc,#724] ; [0x2dc0] = 0x2000133c
        0x00002aea:    f001fd95    ....    BL       __0sprintf ; 0x4618
        0x00002aee:    49b4        .I      LDR      r1,[pc,#720] ; [0x2dc0] = 0x2000133c
        0x00002af0:    48cd        .H      LDR      r0,[pc,#820] ; [0x2e28] = 0x20000324
        0x00002af2:    f001f919    ....    BL       strcat ; 0x3d28
        0x00002af6:    48cc        .H      LDR      r0,[pc,#816] ; [0x2e28] = 0x20000324
        0x00002af8:    f001f936    ..6.    BL       strlen ; 0x3d68
        0x00002afc:    49d4        .I      LDR      r1,[pc,#848] ; [0x2e50] = 0xb54
        0x00002afe:    4288        .B      CMP      r0,r1
        0x00002b00:    d90b        ..      BLS      0x2b1a ; SendAT_GPS + 1130
        0x00002b02:    49d4        .I      LDR      r1,[pc,#848] ; [0x2e54] = 0xdac
        0x00002b04:    48c8        .H      LDR      r0,[pc,#800] ; [0x2e28] = 0x20000324
        0x00002b06:    f001f904    ....    BL       __aeabi_memclr ; 0x3d12
        0x00002b0a:    49bb        .I      LDR      r1,[pc,#748] ; [0x2df8] = 0x200013a0
        0x00002b0c:    48c6        .H      LDR      r0,[pc,#792] ; [0x2e28] = 0x20000324
        0x00002b0e:    f001f90b    ....    BL       strcat ; 0x3d28
        0x00002b12:    a1d1        ..      ADR      r1,{pc}+0x346 ; 0x2e58
        0x00002b14:    48c4        .H      LDR      r0,[pc,#784] ; [0x2e28] = 0x20000324
        0x00002b16:    f001f907    ....    BL       strcat ; 0x3d28
        0x00002b1a:    2001        .       MOVS     r0,#1
        0x00002b1c:    49d2        .I      LDR      r1,[pc,#840] ; [0x2e68] = 0x50004240
        0x00002b1e:    6088        .`      STR      r0,[r1,#8]
        0x00002b20:    48d2        .H      LDR      r0,[pc,#840] ; [0x2e6c] = 0x20000080
        0x00002b22:    6800        .h      LDR      r0,[r0,#0]
        0x00002b24:    f002fc8c    ....    BL       osMutexRelease ; 0x5440
        0x00002b28:    2005        .       MOVS     r0,#5
        0x00002b2a:    f002fc09    ....    BL       osDelay ; 0x5340
        0x00002b2e:    b01d        ..      ADD      sp,sp,#0x74
        0x00002b30:    bdf0        ..      POP      {r4-r7,pc}
    SendAT_GPS_WO_MUTEX
        0x00002b32:    b5ff        ..      PUSH     {r0-r7,lr}
        0x00002b34:    b089        ..      SUB      sp,sp,#0x24
        0x00002b36:    4607        .F      MOV      r7,r0
        0x00002b38:    4614        .F      MOV      r4,r2
        0x00002b3a:    461d        .F      MOV      r5,r3
        0x00002b3c:    9e12        ..      LDR      r6,[sp,#0x48]
        0x00002b3e:    2000        .       MOVS     r0,#0
        0x00002b40:    49c9        .I      LDR      r1,[pc,#804] ; [0x2e68] = 0x50004240
        0x00002b42:    6088        .`      STR      r0,[r1,#8]
        0x00002b44:    20ff        .       MOVS     r0,#0xff
        0x00002b46:    30f5        .0      ADDS     r0,r0,#0xf5
        0x00002b48:    f002fbfa    ....    BL       osDelay ; 0x5340
        0x00002b4c:    2000        .       MOVS     r0,#0
        0x00002b4e:    49c8        .I      LDR      r1,[pc,#800] ; [0x2e70] = 0x200000ac
        0x00002b50:    6008        .`      STR      r0,[r1,#0]
        0x00002b52:    49c8        .I      LDR      r1,[pc,#800] ; [0x2e74] = 0x200000d4
        0x00002b54:    6008        .`      STR      r0,[r1,#0]
        0x00002b56:    49c8        .I      LDR      r1,[pc,#800] ; [0x2e78] = 0x200000d8
        0x00002b58:    6008        .`      STR      r0,[r1,#0]
        0x00002b5a:    49c8        .I      LDR      r1,[pc,#800] ; [0x2e7c] = 0x200000dc
        0x00002b5c:    6008        .`      STR      r0,[r1,#0]
        0x00002b5e:    49c8        .I      LDR      r1,[pc,#800] ; [0x2e80] = 0x200000a4
        0x00002b60:    6008        .`      STR      r0,[r1,#0]
        0x00002b62:    49c8        .I      LDR      r1,[pc,#800] ; [0x2e84] = 0x226
        0x00002b64:    4897        .H      LDR      r0,[pc,#604] ; [0x2dc4] = 0x200010d0
        0x00002b66:    f001f8d4    ....    BL       __aeabi_memclr ; 0x3d12
        0x00002b6a:    211a        .!      MOVS     r1,#0x1a
        0x00002b6c:    a0c6        ..      ADR      r0,{pc}+0x31c ; 0x2e88
        0x00002b6e:    f001fd43    ..C.    BL       __0printf ; 0x45f8
        0x00002b72:    f7fefdc0    ....    BL       clear ; 0x16f6
        0x00002b76:    48a0        .H      LDR      r0,[pc,#640] ; [0x2df8] = 0x200013a0
        0x00002b78:    f002facc    ....    BL       checkallnumsinstring ; 0x5114
        0x00002b7c:    2800        .(      CMP      r0,#0
        0x00002b7e:    d104        ..      BNE      0x2b8a ; SendAT_GPS_WO_MUTEX + 88
        0x00002b80:    489d        .H      LDR      r0,[pc,#628] ; [0x2df8] = 0x200013a0
        0x00002b82:    f001f8f1    ....    BL       strlen ; 0x3d68
        0x00002b86:    2805        .(      CMP      r0,#5
        0x00002b88:    d259        Y.      BCS      0x2c3e ; SendAT_GPS_WO_MUTEX + 268
        0x00002b8a:    a0c0        ..      ADR      r0,{pc}+0x302 ; 0x2e8c
        0x00002b8c:    f001fd34    ..4.    BL       __0printf ; 0x45f8
        0x00002b90:    bf00        ..      NOP      
        0x00002b92:    488c        .H      LDR      r0,[pc,#560] ; [0x2dc4] = 0x200010d0
        0x00002b94:    990a        ..      LDR      r1,[sp,#0x28]
        0x00002b96:    f001f8d3    ....    BL       strstr ; 0x3d40
        0x00002b9a:    49b6        .I      LDR      r1,[pc,#728] ; [0x2e74] = 0x200000d4
        0x00002b9c:    6008        .`      STR      r0,[r1,#0]
        0x00002b9e:    4621        !F      MOV      r1,r4
        0x00002ba0:    4888        .H      LDR      r0,[pc,#544] ; [0x2dc4] = 0x200010d0
        0x00002ba2:    f001f8cd    ....    BL       strstr ; 0x3d40
        0x00002ba6:    49b4        .I      LDR      r1,[pc,#720] ; [0x2e78] = 0x200000d8
        0x00002ba8:    6008        .`      STR      r0,[r1,#0]
        0x00002baa:    4629        )F      MOV      r1,r5
        0x00002bac:    4885        .H      LDR      r0,[pc,#532] ; [0x2dc4] = 0x200010d0
        0x00002bae:    f001f8c7    ....    BL       strstr ; 0x3d40
        0x00002bb2:    49b2        .I      LDR      r1,[pc,#712] ; [0x2e7c] = 0x200000dc
        0x00002bb4:    6008        .`      STR      r0,[r1,#0]
        0x00002bb6:    48af        .H      LDR      r0,[pc,#700] ; [0x2e74] = 0x200000d4
        0x00002bb8:    6800        .h      LDR      r0,[r0,#0]
        0x00002bba:    2800        .(      CMP      r0,#0
        0x00002bbc:    d10b        ..      BNE      0x2bd6 ; SendAT_GPS_WO_MUTEX + 164
        0x00002bbe:    48ae        .H      LDR      r0,[pc,#696] ; [0x2e78] = 0x200000d8
        0x00002bc0:    6800        .h      LDR      r0,[r0,#0]
        0x00002bc2:    2800        .(      CMP      r0,#0
        0x00002bc4:    d107        ..      BNE      0x2bd6 ; SendAT_GPS_WO_MUTEX + 164
        0x00002bc6:    4608        .F      MOV      r0,r1
        0x00002bc8:    6800        .h      LDR      r0,[r0,#0]
        0x00002bca:    2800        .(      CMP      r0,#0
        0x00002bcc:    d103        ..      BNE      0x2bd6 ; SendAT_GPS_WO_MUTEX + 164
        0x00002bce:    48a8        .H      LDR      r0,[pc,#672] ; [0x2e70] = 0x200000ac
        0x00002bd0:    6800        .h      LDR      r0,[r0,#0]
        0x00002bd2:    42b0        .B      CMP      r0,r6
        0x00002bd4:    dbdd        ..      BLT      0x2b92 ; SendAT_GPS_WO_MUTEX + 96
        0x00002bd6:    2119        .!      MOVS     r1,#0x19
        0x00002bd8:    4887        .H      LDR      r0,[pc,#540] ; [0x2df8] = 0x200013a0
        0x00002bda:    f001f89a    ....    BL       __aeabi_memclr ; 0x3d12
        0x00002bde:    2000        .       MOVS     r0,#0
        0x00002be0:    49ad        .I      LDR      r1,[pc,#692] ; [0x2e98] = 0x20000100
        0x00002be2:    6008        .`      STR      r0,[r1,#0]
        0x00002be4:    49ad        .I      LDR      r1,[pc,#692] ; [0x2e9c] = 0x2000011c
        0x00002be6:    6008        .`      STR      r0,[r1,#0]
        0x00002be8:    e01d        ..      B        0x2c26 ; SendAT_GPS_WO_MUTEX + 244
        0x00002bea:    4876        vH      LDR      r0,[pc,#472] ; [0x2dc4] = 0x200010d0
        0x00002bec:    49ab        .I      LDR      r1,[pc,#684] ; [0x2e9c] = 0x2000011c
        0x00002bee:    6809        .h      LDR      r1,[r1,#0]
        0x00002bf0:    5c40        @\      LDRB     r0,[r0,r1]
        0x00002bf2:    282f        /(      CMP      r0,#0x2f
        0x00002bf4:    dd12        ..      BLE      0x2c1c ; SendAT_GPS_WO_MUTEX + 234
        0x00002bf6:    4873        sH      LDR      r0,[pc,#460] ; [0x2dc4] = 0x200010d0
        0x00002bf8:    49a8        .I      LDR      r1,[pc,#672] ; [0x2e9c] = 0x2000011c
        0x00002bfa:    6809        .h      LDR      r1,[r1,#0]
        0x00002bfc:    5c40        @\      LDRB     r0,[r0,r1]
        0x00002bfe:    283a        :(      CMP      r0,#0x3a
        0x00002c00:    da0c        ..      BGE      0x2c1c ; SendAT_GPS_WO_MUTEX + 234
        0x00002c02:    4870        pH      LDR      r0,[pc,#448] ; [0x2dc4] = 0x200010d0
        0x00002c04:    49a5        .I      LDR      r1,[pc,#660] ; [0x2e9c] = 0x2000011c
        0x00002c06:    6809        .h      LDR      r1,[r1,#0]
        0x00002c08:    5c40        @\      LDRB     r0,[r0,r1]
        0x00002c0a:    497b        {I      LDR      r1,[pc,#492] ; [0x2df8] = 0x200013a0
        0x00002c0c:    4aa2        .J      LDR      r2,[pc,#648] ; [0x2e98] = 0x20000100
        0x00002c0e:    6812        .h      LDR      r2,[r2,#0]
        0x00002c10:    5488        .T      STRB     r0,[r1,r2]
        0x00002c12:    48a1        .H      LDR      r0,[pc,#644] ; [0x2e98] = 0x20000100
        0x00002c14:    6800        .h      LDR      r0,[r0,#0]
        0x00002c16:    1c40        @.      ADDS     r0,r0,#1
        0x00002c18:    499f        .I      LDR      r1,[pc,#636] ; [0x2e98] = 0x20000100
        0x00002c1a:    6008        .`      STR      r0,[r1,#0]
        0x00002c1c:    489f        .H      LDR      r0,[pc,#636] ; [0x2e9c] = 0x2000011c
        0x00002c1e:    6800        .h      LDR      r0,[r0,#0]
        0x00002c20:    1c40        @.      ADDS     r0,r0,#1
        0x00002c22:    499e        .I      LDR      r1,[pc,#632] ; [0x2e9c] = 0x2000011c
        0x00002c24:    6008        .`      STR      r0,[r1,#0]
        0x00002c26:    4867        gH      LDR      r0,[pc,#412] ; [0x2dc4] = 0x200010d0
        0x00002c28:    f001f89e    ....    BL       strlen ; 0x3d68
        0x00002c2c:    499b        .I      LDR      r1,[pc,#620] ; [0x2e9c] = 0x2000011c
        0x00002c2e:    6809        .h      LDR      r1,[r1,#0]
        0x00002c30:    4288        .B      CMP      r0,r1
        0x00002c32:    d8da        ..      BHI      0x2bea ; SendAT_GPS_WO_MUTEX + 184
        0x00002c34:    221a        ."      MOVS     r2,#0x1a
        0x00002c36:    210d        .!      MOVS     r1,#0xd
        0x00002c38:    486f        oH      LDR      r0,[pc,#444] ; [0x2df8] = 0x200013a0
        0x00002c3a:    f7fdfbaf    ....    BL       remove_all_chars ; 0x39c
        0x00002c3e:    2000        .       MOVS     r0,#0
        0x00002c40:    498b        .I      LDR      r1,[pc,#556] ; [0x2e70] = 0x200000ac
        0x00002c42:    6008        .`      STR      r0,[r1,#0]
        0x00002c44:    498b        .I      LDR      r1,[pc,#556] ; [0x2e74] = 0x200000d4
        0x00002c46:    6008        .`      STR      r0,[r1,#0]
        0x00002c48:    498b        .I      LDR      r1,[pc,#556] ; [0x2e78] = 0x200000d8
        0x00002c4a:    6008        .`      STR      r0,[r1,#0]
        0x00002c4c:    498b        .I      LDR      r1,[pc,#556] ; [0x2e7c] = 0x200000dc
        0x00002c4e:    6008        .`      STR      r0,[r1,#0]
        0x00002c50:    498b        .I      LDR      r1,[pc,#556] ; [0x2e80] = 0x200000a4
        0x00002c52:    6008        .`      STR      r0,[r1,#0]
        0x00002c54:    498b        .I      LDR      r1,[pc,#556] ; [0x2e84] = 0x226
        0x00002c56:    485b        [H      LDR      r0,[pc,#364] ; [0x2dc4] = 0x200010d0
        0x00002c58:    f001f85b    ..[.    BL       __aeabi_memclr ; 0x3d12
        0x00002c5c:    f7fefd4b    ..K.    BL       clear ; 0x16f6
        0x00002c60:    211a        .!      MOVS     r1,#0x1a
        0x00002c62:    a089        ..      ADR      r0,{pc}+0x226 ; 0x2e88
        0x00002c64:    f001fcc8    ....    BL       __0printf ; 0x45f8
        0x00002c68:    4638        8F      MOV      r0,r7
        0x00002c6a:    f001fcc5    ....    BL       __0printf ; 0x45f8
        0x00002c6e:    bf00        ..      NOP      
        0x00002c70:    4854        TH      LDR      r0,[pc,#336] ; [0x2dc4] = 0x200010d0
        0x00002c72:    990a        ..      LDR      r1,[sp,#0x28]
        0x00002c74:    f001f864    ..d.    BL       strstr ; 0x3d40
        0x00002c78:    497e        ~I      LDR      r1,[pc,#504] ; [0x2e74] = 0x200000d4
        0x00002c7a:    6008        .`      STR      r0,[r1,#0]
        0x00002c7c:    4621        !F      MOV      r1,r4
        0x00002c7e:    4851        QH      LDR      r0,[pc,#324] ; [0x2dc4] = 0x200010d0
        0x00002c80:    f001f85e    ..^.    BL       strstr ; 0x3d40
        0x00002c84:    497c        |I      LDR      r1,[pc,#496] ; [0x2e78] = 0x200000d8
        0x00002c86:    6008        .`      STR      r0,[r1,#0]
        0x00002c88:    4629        )F      MOV      r1,r5
        0x00002c8a:    484e        NH      LDR      r0,[pc,#312] ; [0x2dc4] = 0x200010d0
        0x00002c8c:    f001f858    ..X.    BL       strstr ; 0x3d40
        0x00002c90:    497a        zI      LDR      r1,[pc,#488] ; [0x2e7c] = 0x200000dc
        0x00002c92:    6008        .`      STR      r0,[r1,#0]
        0x00002c94:    4877        wH      LDR      r0,[pc,#476] ; [0x2e74] = 0x200000d4
        0x00002c96:    6800        .h      LDR      r0,[r0,#0]
        0x00002c98:    2800        .(      CMP      r0,#0
        0x00002c9a:    d10b        ..      BNE      0x2cb4 ; SendAT_GPS_WO_MUTEX + 386
        0x00002c9c:    4876        vH      LDR      r0,[pc,#472] ; [0x2e78] = 0x200000d8
        0x00002c9e:    6800        .h      LDR      r0,[r0,#0]
        0x00002ca0:    2800        .(      CMP      r0,#0
        0x00002ca2:    d107        ..      BNE      0x2cb4 ; SendAT_GPS_WO_MUTEX + 386
        0x00002ca4:    4608        .F      MOV      r0,r1
        0x00002ca6:    6800        .h      LDR      r0,[r0,#0]
        0x00002ca8:    2800        .(      CMP      r0,#0
        0x00002caa:    d103        ..      BNE      0x2cb4 ; SendAT_GPS_WO_MUTEX + 386
        0x00002cac:    4870        pH      LDR      r0,[pc,#448] ; [0x2e70] = 0x200000ac
        0x00002cae:    6800        .h      LDR      r0,[r0,#0]
        0x00002cb0:    42b0        .B      CMP      r0,r6
        0x00002cb2:    dbdd        ..      BLT      0x2c70 ; SendAT_GPS_WO_MUTEX + 318
        0x00002cb4:    a144        D.      ADR      r1,{pc}+0x114 ; 0x2dc8
        0x00002cb6:    4843        CH      LDR      r0,[pc,#268] ; [0x2dc4] = 0x200010d0
        0x00002cb8:    f001f842    ..B.    BL       strstr ; 0x3d40
        0x00002cbc:    2800        .(      CMP      r0,#0
        0x00002cbe:    d06a        j.      BEQ      0x2d96 ; SendAT_GPS_WO_MUTEX + 612
        0x00002cc0:    4844        DH      LDR      r0,[pc,#272] ; [0x2dd4] = 0x40400000
        0x00002cc2:    4945        EI      LDR      r1,[pc,#276] ; [0x2dd8] = 0x200000b0
        0x00002cc4:    6008        .`      STR      r0,[r1,#0]
        0x00002cc6:    4845        EH      LDR      r0,[pc,#276] ; [0x2ddc] = 0x400e0040
        0x00002cc8:    6880        .h      LDR      r0,[r0,#8]
        0x00002cca:    2101        .!      MOVS     r1,#1
        0x00002ccc:    02c9        ..      LSLS     r1,r1,#11
        0x00002cce:    4308        .C      ORRS     r0,r0,r1
        0x00002cd0:    4942        BI      LDR      r1,[pc,#264] ; [0x2ddc] = 0x400e0040
        0x00002cd2:    6088        .`      STR      r0,[r1,#8]
        0x00002cd4:    4941        AI      LDR      r1,[pc,#260] ; [0x2ddc] = 0x400e0040
        0x00002cd6:    3940        @9      SUBS     r1,r1,#0x40
        0x00002cd8:    6809        .h      LDR      r1,[r1,#0]
        0x00002cda:    0508        ..      LSLS     r0,r1,#20
        0x00002cdc:    0d00        ..      LSRS     r0,r0,#20
        0x00002cde:    f001f937    ..7.    BL       __aeabi_ui2f ; 0x3f50
        0x00002ce2:    493d        =I      LDR      r1,[pc,#244] ; [0x2dd8] = 0x200000b0
        0x00002ce4:    6008        .`      STR      r0,[r1,#0]
        0x00002ce6:    4608        .F      MOV      r0,r1
        0x00002ce8:    6800        .h      LDR      r0,[r0,#0]
        0x00002cea:    f001f938    ..8.    BL       __aeabi_f2d ; 0x3f5e
        0x00002cee:    4a3c        <J      LDR      r2,[pc,#240] ; [0x2de0] = 0xdb22d0e5
        0x00002cf0:    4b3c        <K      LDR      r3,[pc,#240] ; [0x2de4] = 0x400a7ef9
        0x00002cf2:    9101        ..      STR      r1,[sp,#4]
        0x00002cf4:    9000        ..      STR      r0,[sp,#0]
        0x00002cf6:    f001f84b    ..K.    BL       __aeabi_dmul ; 0x3d90
        0x00002cfa:    2200        ."      MOVS     r2,#0
        0x00002cfc:    4b3a        :K      LDR      r3,[pc,#232] ; [0x2de8] = 0x40b00000
        0x00002cfe:    9103        ..      STR      r1,[sp,#0xc]
        0x00002d00:    9002        ..      STR      r0,[sp,#8]
        0x00002d02:    f001f8ad    ....    BL       __aeabi_ddiv ; 0x3e60
        0x00002d06:    4a39        9J      LDR      r2,[pc,#228] ; [0x2dec] = 0xe737ca49
        0x00002d08:    4b39        9K      LDR      r3,[pc,#228] ; [0x2df0] = 0x3ffe15ba
        0x00002d0a:    9105        ..      STR      r1,[sp,#0x14]
        0x00002d0c:    9004        ..      STR      r0,[sp,#0x10]
        0x00002d0e:    f001f83f    ..?.    BL       __aeabi_dmul ; 0x3d90
        0x00002d12:    9107        ..      STR      r1,[sp,#0x1c]
        0x00002d14:    9006        ..      STR      r0,[sp,#0x18]
        0x00002d16:    f001f95f    .._.    BL       __aeabi_d2f ; 0x3fd8
        0x00002d1a:    492f        /I      LDR      r1,[pc,#188] ; [0x2dd8] = 0x200000b0
        0x00002d1c:    6008        .`      STR      r0,[r1,#0]
        0x00002d1e:    2164        d!      MOVS     r1,#0x64
        0x00002d20:    4827        'H      LDR      r0,[pc,#156] ; [0x2dc0] = 0x2000133c
        0x00002d22:    f000fff6    ....    BL       __aeabi_memclr ; 0x3d12
        0x00002d26:    4826        &H      LDR      r0,[pc,#152] ; [0x2dc0] = 0x2000133c
        0x00002d28:    212c        ,!      MOVS     r1,#0x2c
        0x00002d2a:    2343        C#      MOVS     r3,#0x43
        0x00002d2c:    220a        ."      MOVS     r2,#0xa
        0x00002d2e:    9100        ..      STR      r1,[sp,#0]
        0x00002d30:    9001        ..      STR      r0,[sp,#4]
        0x00002d32:    2102        .!      MOVS     r1,#2
        0x00002d34:    4823        #H      LDR      r0,[pc,#140] ; [0x2dc4] = 0x200010d0
        0x00002d36:    f002fc4d    ..M.    BL       parse_g ; 0x55d4
        0x00002d3a:    492f        /I      LDR      r1,[pc,#188] ; [0x2df8] = 0x200013a0
        0x00002d3c:    483a        :H      LDR      r0,[pc,#232] ; [0x2e28] = 0x20000324
        0x00002d3e:    f000fff3    ....    BL       strcat ; 0x3d28
        0x00002d42:    a13a        :.      ADR      r1,{pc}+0xea ; 0x2e2c
        0x00002d44:    4838        8H      LDR      r0,[pc,#224] ; [0x2e28] = 0x20000324
        0x00002d46:    f000ffef    ....    BL       strcat ; 0x3d28
        0x00002d4a:    491d        .I      LDR      r1,[pc,#116] ; [0x2dc0] = 0x2000133c
        0x00002d4c:    4836        6H      LDR      r0,[pc,#216] ; [0x2e28] = 0x20000324
        0x00002d4e:    f000ffeb    ....    BL       strcat ; 0x3d28
        0x00002d52:    2164        d!      MOVS     r1,#0x64
        0x00002d54:    481a        .H      LDR      r0,[pc,#104] ; [0x2dc0] = 0x2000133c
        0x00002d56:    f000ffdc    ....    BL       __aeabi_memclr ; 0x3d12
        0x00002d5a:    481f        .H      LDR      r0,[pc,#124] ; [0x2dd8] = 0x200000b0
        0x00002d5c:    6800        .h      LDR      r0,[r0,#0]
        0x00002d5e:    f001f8fe    ....    BL       __aeabi_f2d ; 0x3f5e
        0x00002d62:    4602        .F      MOV      r2,r0
        0x00002d64:    460b        .F      MOV      r3,r1
        0x00002d66:    9107        ..      STR      r1,[sp,#0x1c]
        0x00002d68:    9006        ..      STR      r0,[sp,#0x18]
        0x00002d6a:    a132        2.      ADR      r1,{pc}+0xca ; 0x2e34
        0x00002d6c:    4814        .H      LDR      r0,[pc,#80] ; [0x2dc0] = 0x2000133c
        0x00002d6e:    f001fc53    ..S.    BL       __0sprintf ; 0x4618
        0x00002d72:    4913        .I      LDR      r1,[pc,#76] ; [0x2dc0] = 0x2000133c
        0x00002d74:    482c        ,H      LDR      r0,[pc,#176] ; [0x2e28] = 0x20000324
        0x00002d76:    f000ffd7    ....    BL       strcat ; 0x3d28
        0x00002d7a:    2164        d!      MOVS     r1,#0x64
        0x00002d7c:    4810        .H      LDR      r0,[pc,#64] ; [0x2dc0] = 0x2000133c
        0x00002d7e:    f000ffc8    ....    BL       __aeabi_memclr ; 0x3d12
        0x00002d82:    482e        .H      LDR      r0,[pc,#184] ; [0x2e3c] = 0x20000064
        0x00002d84:    a146        F.      ADR      r1,{pc}+0x11c ; 0x2ea0
        0x00002d86:    6802        .h      LDR      r2,[r0,#0]
        0x00002d88:    480d        .H      LDR      r0,[pc,#52] ; [0x2dc0] = 0x2000133c
        0x00002d8a:    f001fc45    ..E.    BL       __0sprintf ; 0x4618
        0x00002d8e:    490c        .I      LDR      r1,[pc,#48] ; [0x2dc0] = 0x2000133c
        0x00002d90:    4825        %H      LDR      r0,[pc,#148] ; [0x2e28] = 0x20000324
        0x00002d92:    f000ffc9    ....    BL       strcat ; 0x3d28
        0x00002d96:    4824        $H      LDR      r0,[pc,#144] ; [0x2e28] = 0x20000324
        0x00002d98:    f000ffe6    ....    BL       strlen ; 0x3d68
        0x00002d9c:    492c        ,I      LDR      r1,[pc,#176] ; [0x2e50] = 0xb54
        0x00002d9e:    4288        .B      CMP      r0,r1
        0x00002da0:    d90b        ..      BLS      0x2dba ; SendAT_GPS_WO_MUTEX + 648
        0x00002da2:    492c        ,I      LDR      r1,[pc,#176] ; [0x2e54] = 0xdac
        0x00002da4:    4820         H      LDR      r0,[pc,#128] ; [0x2e28] = 0x20000324
        0x00002da6:    f000ffb4    ....    BL       __aeabi_memclr ; 0x3d12
        0x00002daa:    4913        .I      LDR      r1,[pc,#76] ; [0x2df8] = 0x200013a0
        0x00002dac:    481e        .H      LDR      r0,[pc,#120] ; [0x2e28] = 0x20000324
        0x00002dae:    f000ffbb    ....    BL       strcat ; 0x3d28
        0x00002db2:    a129        ).      ADR      r1,{pc}+0xa6 ; 0x2e58
        0x00002db4:    481c        .H      LDR      r0,[pc,#112] ; [0x2e28] = 0x20000324
        0x00002db6:    f000ffb7    ....    BL       strcat ; 0x3d28
        0x00002dba:    2001        .       MOVS     r0,#1
        0x00002dbc:    492a        *I      LDR      r1,[pc,#168] ; [0x2e68] = 0x50004240
        0x00002dbe:    e075        u.      B        0x2eac ; SendAT_GPS_WO_MUTEX + 890
    $d
        0x00002dc0:    2000133c    <..     DCD    536875836
        0x00002dc4:    200010d0    ...     DCD    536875216
        0x00002dc8:    4d524e47    GNRM    DCD    1297239623
        0x00002dcc:    00000043    C...    DCD    67
        0x00002dd0:    20000099    ...     DCD    536871065
        0x00002dd4:    40400000    ..@@    DCD    1077936128
        0x00002dd8:    200000b0    ...     DCD    536871088
        0x00002ddc:    400e0040    @..@    DCD    1074659392
        0x00002de0:    db22d0e5    ..".    DCD    3676492005
        0x00002de4:    400a7ef9    .~.@    DCD    1074429689
        0x00002de8:    40b00000    ...@    DCD    1085276160
        0x00002dec:    e737ca49    I.7.    DCD    3879193161
        0x00002df0:    3ffe15ba    ...?    DCD    1073616314
        0x00002df4:    2000141d    ...     DCD    536876061
        0x00002df8:    200013a0    ...     DCD    536875936
        0x00002dfc:    2e312e32    2.1.    DCD    774975026
        0x00002e00:    00000030    0...    DCD    48
        0x00002e04:    0054464a    JFT.    DCD    5523018
        0x00002e08:    44414548    HEAD    DCD    1145128264
        0x00002e0c:    00005245    ER..    DCD    21061
        0x00002e10:    2c732524    $%s,    DCD    745743652
        0x00002e14:    252c7325    %s,%    DCD    623670053
        0x00002e18:    524e2c73    s,NR    DCD    1380854899
        0x00002e1c:    2c63252c    ,%c,    DCD    744695084
        0x00002e20:    252c7325    %s,%    DCD    623670053
        0x00002e24:    00002c73    s,..    DCD    11379
        0x00002e28:    20000324    $..     DCD    536871716
        0x00002e2c:    0000002c    ,...    DCD    44
        0x00002e30:    2000000c    ...     DCD    536870924
        0x00002e34:    253d462c    ,F=%    DCD    624772652
        0x00002e38:    0066312e    .1f.    DCD    6697262
        0x00002e3c:    20000064    d..     DCD    536871012
        0x00002e40:    2c607e2c    ,~`,    DCD    744521260
        0x00002e44:    4546494c    LIFE    DCD    1162234188
        0x00002e48:    0a64253d    =%d.    DCD    174335293
        0x00002e4c:    00000000    ....    DCD    0
        0x00002e50:    00000b54    T...    DCD    2900
        0x00002e54:    00000dac    ....    DCD    3500
        0x00002e58:    6f727265    erro    DCD    1869771365
        0x00002e5c:    41523a72    r:RA    DCD    1095907954
        0x00002e60:    6c75664d    Mful    DCD    1819633229
        0x00002e64:    00000a6c    l...    DCD    2668
        0x00002e68:    50004240    @B.P    DCD    1342194240
        0x00002e6c:    20000080    ...     DCD    536871040
        0x00002e70:    200000ac    ...     DCD    536871084
        0x00002e74:    200000d4    ...     DCD    536871124
        0x00002e78:    200000d8    ...     DCD    536871128
        0x00002e7c:    200000dc    ...     DCD    536871132
        0x00002e80:    200000a4    ...     DCD    536871076
        0x00002e84:    00000226    &...    DCD    550
        0x00002e88:    00006325    %c..    DCD    25381
        0x00002e8c:    54410a0d    ..AT    DCD    1413548557
        0x00002e90:    4e53472b    +GSN    DCD    1314080555
        0x00002e94:    00000a0d    ....    DCD    2573
        0x00002e98:    20000100    ...     DCD    536871168
        0x00002e9c:    2000011c    ...     DCD    536871196
        0x00002ea0:    46494c2c    ,LIF    DCD    1179208748
        0x00002ea4:    64253d45    E=%d    DCD    1680162117
        0x00002ea8:    0000000a    ....    DCD    10
    $t
        0x00002eac:    6088        .`      STR      r0,[r1,#8]
        0x00002eae:    b00d        ..      ADD      sp,sp,#0x34
        0x00002eb0:    bdf0        ..      POP      {r4-r7,pc}
    I2C1_IRQHandler
        0x00002eb2:    2001        .       MOVS     r0,#1
        0x00002eb4:    4906        .I      LDR      r1,[pc,#24] ; [0x2ed0] = 0x40120000
        0x00002eb6:    6048        H`      STR      r0,[r1,#4]
        0x00002eb8:    4608        .F      MOV      r0,r1
        0x00002eba:    6880        .h      LDR      r0,[r0,#8]
        0x00002ebc:    4905        .I      LDR      r1,[pc,#20] ; [0x2ed4] = 0x20000090
        0x00002ebe:    6008        .`      STR      r0,[r1,#0]
        0x00002ec0:    4770        pG      BX       lr
    NVIC_EnableIRQ
        0x00002ec2:    06c2        ..      LSLS     r2,r0,#27
        0x00002ec4:    0ed2        ..      LSRS     r2,r2,#27
        0x00002ec6:    2101        .!      MOVS     r1,#1
        0x00002ec8:    4091        .@      LSLS     r1,r1,r2
        0x00002eca:    4a03        .J      LDR      r2,[pc,#12] ; [0x2ed8] = 0xe000e100
        0x00002ecc:    6011        .`      STR      r1,[r2,#0]
        0x00002ece:    4770        pG      BX       lr
    $d
        0x00002ed0:    40120000    ...@    DCD    1074921472
        0x00002ed4:    20000090    ...     DCD    536871056
        0x00002ed8:    e000e100    ....    DCD    3758153984
    $t
    .text
    CLK_DisableCKO
        0x00002edc:    48fe        .H      LDR      r0,[pc,#1016] ; [0x32d8] = 0x50000200
        0x00002ede:    6880        .h      LDR      r0,[r0,#8]
        0x00002ee0:    2140        @!      MOVS     r1,#0x40
        0x00002ee2:    4388        .C      BICS     r0,r0,r1
        0x00002ee4:    49fc        .I      LDR      r1,[pc,#1008] ; [0x32d8] = 0x50000200
        0x00002ee6:    6088        .`      STR      r0,[r1,#8]
        0x00002ee8:    4770        pG      BX       lr
    CLK_EnableCKO
        0x00002eea:    2210        ."      MOVS     r2,#0x10
        0x00002eec:    430a        .C      ORRS     r2,r2,r1
        0x00002eee:    4bfa        .K      LDR      r3,[pc,#1000] ; [0x32d8] = 0x50000200
        0x00002ef0:    629a        .b      STR      r2,[r3,#0x28]
        0x00002ef2:    461a        .F      MOV      r2,r3
        0x00002ef4:    6892        .h      LDR      r2,[r2,#8]
        0x00002ef6:    2340        @#      MOVS     r3,#0x40
        0x00002ef8:    431a        .C      ORRS     r2,r2,r3
        0x00002efa:    4bf7        .K      LDR      r3,[pc,#988] ; [0x32d8] = 0x50000200
        0x00002efc:    609a        .`      STR      r2,[r3,#8]
        0x00002efe:    461a        .F      MOV      r2,r3
        0x00002f00:    6992        .i      LDR      r2,[r2,#0x18]
        0x00002f02:    230c        .#      MOVS     r3,#0xc
        0x00002f04:    439a        .C      BICS     r2,r2,r3
        0x00002f06:    4302        .C      ORRS     r2,r2,r0
        0x00002f08:    4bf3        .K      LDR      r3,[pc,#972] ; [0x32d8] = 0x50000200
        0x00002f0a:    619a        .a      STR      r2,[r3,#0x18]
        0x00002f0c:    4770        pG      BX       lr
    CLK_PowerDown
        0x00002f0e:    2004        .       MOVS     r0,#4
        0x00002f10:    49f2        .I      LDR      r1,[pc,#968] ; [0x32dc] = 0xe000ed00
        0x00002f12:    6108        .a      STR      r0,[r1,#0x10]
        0x00002f14:    48f0        .H      LDR      r0,[pc,#960] ; [0x32d8] = 0x50000200
        0x00002f16:    6800        .h      LDR      r0,[r0,#0]
        0x00002f18:    2150        P!      MOVS     r1,#0x50
        0x00002f1a:    4308        .C      ORRS     r0,r0,r1
        0x00002f1c:    49ee        .I      LDR      r1,[pc,#952] ; [0x32d8] = 0x50000200
        0x00002f1e:    6008        .`      STR      r0,[r1,#0]
        0x00002f20:    bf30        0.      WFI      
        0x00002f22:    4770        pG      BX       lr
    CLK_Idle
        0x00002f24:    48ec        .H      LDR      r0,[pc,#944] ; [0x32d8] = 0x50000200
        0x00002f26:    6800        .h      LDR      r0,[r0,#0]
        0x00002f28:    2140        @!      MOVS     r1,#0x40
        0x00002f2a:    4388        .C      BICS     r0,r0,r1
        0x00002f2c:    49ea        .I      LDR      r1,[pc,#936] ; [0x32d8] = 0x50000200
        0x00002f2e:    6008        .`      STR      r0,[r1,#0]
        0x00002f30:    bf30        0.      WFI      
        0x00002f32:    4770        pG      BX       lr
    CLK_GetHXTFreq
        0x00002f34:    48e8        .H      LDR      r0,[pc,#928] ; [0x32d8] = 0x50000200
        0x00002f36:    6800        .h      LDR      r0,[r0,#0]
        0x00002f38:    07c0        ..      LSLS     r0,r0,#31
        0x00002f3a:    0fc0        ..      LSRS     r0,r0,#31
        0x00002f3c:    2800        .(      CMP      r0,#0
        0x00002f3e:    d001        ..      BEQ      0x2f44 ; CLK_GetHXTFreq + 16
        0x00002f40:    48e7        .H      LDR      r0,[pc,#924] ; [0x32e0] = 0xb71b00
        0x00002f42:    4770        pG      BX       lr
        0x00002f44:    2000        .       MOVS     r0,#0
        0x00002f46:    e7fc        ..      B        0x2f42 ; CLK_GetHXTFreq + 14
    CLK_GetLXTFreq
        0x00002f48:    48e3        .H      LDR      r0,[pc,#908] ; [0x32d8] = 0x50000200
        0x00002f4a:    6800        .h      LDR      r0,[r0,#0]
        0x00002f4c:    2102        .!      MOVS     r1,#2
        0x00002f4e:    4008        .@      ANDS     r0,r0,r1
        0x00002f50:    2800        .(      CMP      r0,#0
        0x00002f52:    d001        ..      BEQ      0x2f58 ; CLK_GetLXTFreq + 16
        0x00002f54:    0388        ..      LSLS     r0,r1,#14
        0x00002f56:    4770        pG      BX       lr
        0x00002f58:    2000        .       MOVS     r0,#0
        0x00002f5a:    e7fc        ..      B        0x2f56 ; CLK_GetLXTFreq + 14
    CLK_GetHCLKFreq
        0x00002f5c:    b510        ..      PUSH     {r4,lr}
        0x00002f5e:    f7fdf9df    ....    BL       SystemCoreClockUpdate ; 0x320
        0x00002f62:    48e0        .H      LDR      r0,[pc,#896] ; [0x32e4] = 0x20000000
        0x00002f64:    6800        .h      LDR      r0,[r0,#0]
        0x00002f66:    bd10        ..      POP      {r4,pc}
    CLK_GetCPUFreq
        0x00002f68:    b510        ..      PUSH     {r4,lr}
        0x00002f6a:    f7fdf9d9    ....    BL       SystemCoreClockUpdate ; 0x320
        0x00002f6e:    48dd        .H      LDR      r0,[pc,#884] ; [0x32e4] = 0x20000000
        0x00002f70:    6800        .h      LDR      r0,[r0,#0]
        0x00002f72:    bd10        ..      POP      {r4,pc}
    CLK_GetPLLClockFreq
        0x00002f74:    b5fe        ..      PUSH     {r1-r7,lr}
        0x00002f76:    2000        .       MOVS     r0,#0
        0x00002f78:    9002        ..      STR      r0,[sp,#8]
        0x00002f7a:    48d7        .H      LDR      r0,[pc,#860] ; [0x32d8] = 0x50000200
        0x00002f7c:    6a45        Ej      LDR      r5,[r0,#0x24]
        0x00002f7e:    01c0        ..      LSLS     r0,r0,#7
        0x00002f80:    4028        (@      ANDS     r0,r0,r5
        0x00002f82:    2800        .(      CMP      r0,#0
        0x00002f84:    d001        ..      BEQ      0x2f8a ; CLK_GetPLLClockFreq + 22
        0x00002f86:    2000        .       MOVS     r0,#0
        0x00002f88:    bdfe        ..      POP      {r1-r7,pc}
        0x00002f8a:    2001        .       MOVS     r0,#1
        0x00002f8c:    0440        @.      LSLS     r0,r0,#17
        0x00002f8e:    4028        (@      ANDS     r0,r0,r5
        0x00002f90:    2800        .(      CMP      r0,#0
        0x00002f92:    d001        ..      BEQ      0x2f98 ; CLK_GetPLLClockFreq + 36
        0x00002f94:    4fd2        .O      LDR      r7,[pc,#840] ; [0x32e0] = 0xb71b00
        0x00002f96:    e000        ..      B        0x2f9a ; CLK_GetPLLClockFreq + 38
        0x00002f98:    4fd1        .O      LDR      r7,[pc,#836] ; [0x32e0] = 0xb71b00
        0x00002f9a:    2001        .       MOVS     r0,#1
        0x00002f9c:    0300        ..      LSLS     r0,r0,#12
        0x00002f9e:    4028        (@      ANDS     r0,r0,r5
        0x00002fa0:    2800        .(      CMP      r0,#0
        0x00002fa2:    d001        ..      BEQ      0x2fa8 ; CLK_GetPLLClockFreq + 52
        0x00002fa4:    2002        .       MOVS     r0,#2
        0x00002fa6:    e000        ..      B        0x2faa ; CLK_GetPLLClockFreq + 54
        0x00002fa8:    2001        .       MOVS     r0,#1
        0x00002faa:    9001        ..      STR      r0,[sp,#4]
        0x00002fac:    2003        .       MOVS     r0,#3
        0x00002fae:    0200        ..      LSLS     r0,r0,#8
        0x00002fb0:    4028        (@      ANDS     r0,r0,r5
        0x00002fb2:    0a06        ..      LSRS     r6,r0,#8
        0x00002fb4:    2e00        ..      CMP      r6,#0
        0x00002fb6:    d101        ..      BNE      0x2fbc ; CLK_GetPLLClockFreq + 72
        0x00002fb8:    2402        .$      MOVS     r4,#2
        0x00002fba:    e008        ..      B        0x2fce ; CLK_GetPLLClockFreq + 90
        0x00002fbc:    2e01        ..      CMP      r6,#1
        0x00002fbe:    d101        ..      BNE      0x2fc4 ; CLK_GetPLLClockFreq + 80
        0x00002fc0:    2404        .$      MOVS     r4,#4
        0x00002fc2:    e004        ..      B        0x2fce ; CLK_GetPLLClockFreq + 90
        0x00002fc4:    2e02        ..      CMP      r6,#2
        0x00002fc6:    d101        ..      BNE      0x2fcc ; CLK_GetPLLClockFreq + 88
        0x00002fc8:    2408        .$      MOVS     r4,#8
        0x00002fca:    e000        ..      B        0x2fce ; CLK_GetPLLClockFreq + 90
        0x00002fcc:    2410        .$      MOVS     r4,#0x10
        0x00002fce:    06a9        ..      LSLS     r1,r5,#26
        0x00002fd0:    0e89        ..      LSRS     r1,r1,#26
        0x00002fd2:    3120         1      ADDS     r1,r1,#0x20
        0x00002fd4:    4379        yC      MULS     r1,r7,r1
        0x00002fd6:    4608        .F      MOV      r0,r1
        0x00002fd8:    4621        !F      MOV      r1,r4
        0x00002fda:    f000fe39    ..9.    BL       __aeabi_uidiv ; 0x3c50
        0x00002fde:    9000        ..      STR      r0,[sp,#0]
        0x00002fe0:    9901        ..      LDR      r1,[sp,#4]
        0x00002fe2:    f000fe35    ..5.    BL       __aeabi_uidiv ; 0x3c50
        0x00002fe6:    9002        ..      STR      r0,[sp,#8]
        0x00002fe8:    9802        ..      LDR      r0,[sp,#8]
        0x00002fea:    e7cd        ..      B        0x2f88 ; CLK_GetPLLClockFreq + 20
    CLK_WaitClockReady
        0x00002fec:    4601        .F      MOV      r1,r0
        0x00002fee:    4abe        .J      LDR      r2,[pc,#760] ; [0x32e8] = 0xea60
        0x00002ff0:    e005        ..      B        0x2ffe ; CLK_WaitClockReady + 18
        0x00002ff2:    4610        .F      MOV      r0,r2
        0x00002ff4:    1e52        R.      SUBS     r2,r2,#1
        0x00002ff6:    2800        .(      CMP      r0,#0
        0x00002ff8:    dc01        ..      BGT      0x2ffe ; CLK_WaitClockReady + 18
        0x00002ffa:    2000        .       MOVS     r0,#0
        0x00002ffc:    4770        pG      BX       lr
        0x00002ffe:    48b6        .H      LDR      r0,[pc,#728] ; [0x32d8] = 0x50000200
        0x00003000:    68c0        .h      LDR      r0,[r0,#0xc]
        0x00003002:    4008        .@      ANDS     r0,r0,r1
        0x00003004:    4288        .B      CMP      r0,r1
        0x00003006:    d1f4        ..      BNE      0x2ff2 ; CLK_WaitClockReady + 6
        0x00003008:    2001        .       MOVS     r0,#1
        0x0000300a:    e7f7        ..      B        0x2ffc ; CLK_WaitClockReady + 16
    CLK_SetHCLK
        0x0000300c:    b570        p.      PUSH     {r4-r6,lr}
        0x0000300e:    4604        .F      MOV      r4,r0
        0x00003010:    460d        .F      MOV      r5,r1
        0x00003012:    48b1        .H      LDR      r0,[pc,#708] ; [0x32d8] = 0x50000200
        0x00003014:    68c0        .h      LDR      r0,[r0,#0xc]
        0x00003016:    2110        .!      MOVS     r1,#0x10
        0x00003018:    4008        .@      ANDS     r0,r0,r1
        0x0000301a:    4606        .F      MOV      r6,r0
        0x0000301c:    48ae        .H      LDR      r0,[pc,#696] ; [0x32d8] = 0x50000200
        0x0000301e:    6800        .h      LDR      r0,[r0,#0]
        0x00003020:    2104        .!      MOVS     r1,#4
        0x00003022:    4308        .C      ORRS     r0,r0,r1
        0x00003024:    49ac        .I      LDR      r1,[pc,#688] ; [0x32d8] = 0x50000200
        0x00003026:    6008        .`      STR      r0,[r1,#0]
        0x00003028:    2010        .       MOVS     r0,#0x10
        0x0000302a:    f7ffffdf    ....    BL       CLK_WaitClockReady ; 0x2fec
        0x0000302e:    48aa        .H      LDR      r0,[pc,#680] ; [0x32d8] = 0x50000200
        0x00003030:    6900        .i      LDR      r0,[r0,#0x10]
        0x00003032:    08c0        ..      LSRS     r0,r0,#3
        0x00003034:    00c0        ..      LSLS     r0,r0,#3
        0x00003036:    1dc0        ..      ADDS     r0,r0,#7
        0x00003038:    49a7        .I      LDR      r1,[pc,#668] ; [0x32d8] = 0x50000200
        0x0000303a:    6108        .a      STR      r0,[r1,#0x10]
        0x0000303c:    4608        .F      MOV      r0,r1
        0x0000303e:    69c0        .i      LDR      r0,[r0,#0x1c]
        0x00003040:    0900        ..      LSRS     r0,r0,#4
        0x00003042:    0100        ..      LSLS     r0,r0,#4
        0x00003044:    4328        (C      ORRS     r0,r0,r5
        0x00003046:    61c8        .a      STR      r0,[r1,#0x1c]
        0x00003048:    4608        .F      MOV      r0,r1
        0x0000304a:    6900        .i      LDR      r0,[r0,#0x10]
        0x0000304c:    08c0        ..      LSRS     r0,r0,#3
        0x0000304e:    00c0        ..      LSLS     r0,r0,#3
        0x00003050:    4320         C      ORRS     r0,r0,r4
        0x00003052:    6108        .a      STR      r0,[r1,#0x10]
        0x00003054:    f7fdf964    ..d.    BL       SystemCoreClockUpdate ; 0x320
        0x00003058:    2e00        ..      CMP      r6,#0
        0x0000305a:    d105        ..      BNE      0x3068 ; CLK_SetHCLK + 92
        0x0000305c:    489e        .H      LDR      r0,[pc,#632] ; [0x32d8] = 0x50000200
        0x0000305e:    6800        .h      LDR      r0,[r0,#0]
        0x00003060:    2110        .!      MOVS     r1,#0x10
        0x00003062:    4388        .C      BICS     r0,r0,r1
        0x00003064:    499c        .I      LDR      r1,[pc,#624] ; [0x32d8] = 0x50000200
        0x00003066:    6008        .`      STR      r0,[r1,#0]
        0x00003068:    bd70        p.      POP      {r4-r6,pc}
    CLK_EnablePLL
        0x0000306a:    b5f3        ..      PUSH     {r0,r1,r4-r7,lr}
        0x0000306c:    b087        ..      SUB      sp,sp,#0x1c
        0x0000306e:    460f        .F      MOV      r7,r1
        0x00003070:    489e        .H      LDR      r0,[pc,#632] ; [0x32ec] = 0x6954
        0x00003072:    4601        .F      MOV      r1,r0
        0x00003074:    c90e        ..      LDM      r1,{r1-r3}
        0x00003076:    68c0        .h      LDR      r0,[r0,#0xc]
        0x00003078:    ac01        ..      ADD      r4,sp,#4
        0x0000307a:    c40e        ..      STM      r4!,{r1-r3}
        0x0000307c:    9004        ..      STR      r0,[sp,#0x10]
        0x0000307e:    489c        .H      LDR      r0,[pc,#624] ; [0x32f0] = 0x2dc6c00
        0x00003080:    4287        .B      CMP      r7,r0
        0x00003082:    d201        ..      BCS      0x3088 ; CLK_EnablePLL + 30
        0x00003084:    4607        .F      MOV      r7,r0
        0x00003086:    e003        ..      B        0x3090 ; CLK_EnablePLL + 38
        0x00003088:    489a        .H      LDR      r0,[pc,#616] ; [0x32f4] = 0x7270e00
        0x0000308a:    4287        .B      CMP      r7,r0
        0x0000308c:    d900        ..      BLS      0x3090 ; CLK_EnablePLL + 38
        0x0000308e:    4607        .F      MOV      r7,r0
        0x00003090:    2101        .!      MOVS     r1,#1
        0x00003092:    0449        I.      LSLS     r1,r1,#17
        0x00003094:    9807        ..      LDR      r0,[sp,#0x1c]
        0x00003096:    4288        .B      CMP      r0,r1
        0x00003098:    d004        ..      BEQ      0x30a4 ; CLK_EnablePLL + 58
        0x0000309a:    2000        .       MOVS     r0,#0
        0x0000309c:    9005        ..      STR      r0,[sp,#0x14]
        0x0000309e:    4890        .H      LDR      r0,[pc,#576] ; [0x32e0] = 0xb71b00
        0x000030a0:    9006        ..      STR      r0,[sp,#0x18]
        0x000030a2:    e004        ..      B        0x30ae ; CLK_EnablePLL + 68
        0x000030a4:    2001        .       MOVS     r0,#1
        0x000030a6:    0440        @.      LSLS     r0,r0,#17
        0x000030a8:    9005        ..      STR      r0,[sp,#0x14]
        0x000030aa:    488d        .H      LDR      r0,[pc,#564] ; [0x32e0] = 0xb71b00
        0x000030ac:    9006        ..      STR      r0,[sp,#0x18]
        0x000030ae:    4992        .I      LDR      r1,[pc,#584] ; [0x32f8] = 0xf4240
        0x000030b0:    4638        8F      MOV      r0,r7
        0x000030b2:    f000fdcd    ....    BL       __aeabi_uidiv ; 0x3c50
        0x000030b6:    4605        .F      MOV      r5,r0
        0x000030b8:    498f        .I      LDR      r1,[pc,#572] ; [0x32f8] = 0xf4240
        0x000030ba:    9806        ..      LDR      r0,[sp,#0x18]
        0x000030bc:    f000fdc8    ....    BL       __aeabi_uidiv ; 0x3c50
        0x000030c0:    4604        .F      MOV      r4,r0
        0x000030c2:    210c        .!      MOVS     r1,#0xc
        0x000030c4:    9806        ..      LDR      r0,[sp,#0x18]
        0x000030c6:    f000fdc3    ....    BL       __aeabi_uidiv ; 0x3c50
        0x000030ca:    2900        .)      CMP      r1,#0
        0x000030cc:    d109        ..      BNE      0x30e2 ; CLK_EnablePLL + 120
        0x000030ce:    2103        .!      MOVS     r1,#3
        0x000030d0:    4628        (F      MOV      r0,r5
        0x000030d2:    f000fdbd    ....    BL       __aeabi_uidiv ; 0x3c50
        0x000030d6:    0085        ..      LSLS     r5,r0,#2
        0x000030d8:    2103        .!      MOVS     r1,#3
        0x000030da:    4620         F      MOV      r0,r4
        0x000030dc:    f000fdb8    ....    BL       __aeabi_uidiv ; 0x3c50
        0x000030e0:    0084        ..      LSLS     r4,r0,#2
        0x000030e2:    e001        ..      B        0x30e8 ; CLK_EnablePLL + 126
        0x000030e4:    0864        d.      LSRS     r4,r4,#1
        0x000030e6:    086d        m.      LSRS     r5,r5,#1
        0x000030e8:    2c10        .,      CMP      r4,#0x10
        0x000030ea:    d8fb        ..      BHI      0x30e4 ; CLK_EnablePLL + 122
        0x000030ec:    2d5f        _-      CMP      r5,#0x5f
        0x000030ee:    d8f9        ..      BHI      0x30e4 ; CLK_EnablePLL + 122
        0x000030f0:    2603        .&      MOVS     r6,#3
        0x000030f2:    e006        ..      B        0x3102 ; CLK_EnablePLL + 152
        0x000030f4:    00b0        ..      LSLS     r0,r6,#2
        0x000030f6:    a901        ..      ADD      r1,sp,#4
        0x000030f8:    5808        .X      LDR      r0,[r1,r0]
        0x000030fa:    42a0        .B      CMP      r0,r4
        0x000030fc:    d100        ..      BNE      0x3100 ; CLK_EnablePLL + 150
        0x000030fe:    e002        ..      B        0x3106 ; CLK_EnablePLL + 156
        0x00003100:    1e76        v.      SUBS     r6,r6,#1
        0x00003102:    2e00        ..      CMP      r6,#0
        0x00003104:    daf6        ..      BGE      0x30f4 ; CLK_EnablePLL + 138
        0x00003106:    bf00        ..      NOP      
        0x00003108:    0230        0.      LSLS     r0,r6,#8
        0x0000310a:    9905        ..      LDR      r1,[sp,#0x14]
        0x0000310c:    4308        .C      ORRS     r0,r0,r1
        0x0000310e:    4629        )F      MOV      r1,r5
        0x00003110:    3920         9      SUBS     r1,r1,#0x20
        0x00003112:    4308        .C      ORRS     r0,r0,r1
        0x00003114:    4970        pI      LDR      r1,[pc,#448] ; [0x32d8] = 0x50000200
        0x00003116:    6248        Hb      STR      r0,[r1,#0x24]
        0x00003118:    4608        .F      MOV      r0,r1
        0x0000311a:    6a40        @j      LDR      r0,[r0,#0x24]
        0x0000311c:    01c9        ..      LSLS     r1,r1,#7
        0x0000311e:    4388        .C      BICS     r0,r0,r1
        0x00003120:    496d        mI      LDR      r1,[pc,#436] ; [0x32d8] = 0x50000200
        0x00003122:    6248        Hb      STR      r0,[r1,#0x24]
        0x00003124:    2004        .       MOVS     r0,#4
        0x00003126:    f7ffff61    ..a.    BL       CLK_WaitClockReady ; 0x2fec
        0x0000312a:    f7ffff23    ..#.    BL       CLK_GetPLLClockFreq ; 0x2f74
        0x0000312e:    b009        ..      ADD      sp,sp,#0x24
        0x00003130:    bdf0        ..      POP      {r4-r7,pc}
    CLK_EnableXtalRC
        0x00003132:    b510        ..      PUSH     {r4,lr}
        0x00003134:    4604        .F      MOV      r4,r0
        0x00003136:    4868        hH      LDR      r0,[pc,#416] ; [0x32d8] = 0x50000200
        0x00003138:    6800        .h      LDR      r0,[r0,#0]
        0x0000313a:    4320         C      ORRS     r0,r0,r4
        0x0000313c:    4966        fI      LDR      r1,[pc,#408] ; [0x32d8] = 0x50000200
        0x0000313e:    6008        .`      STR      r0,[r1,#0]
        0x00003140:    07e0        ..      LSLS     r0,r4,#31
        0x00003142:    0fc0        ..      LSRS     r0,r0,#31
        0x00003144:    2800        .(      CMP      r0,#0
        0x00003146:    d002        ..      BEQ      0x314e ; CLK_EnableXtalRC + 28
        0x00003148:    2001        .       MOVS     r0,#1
        0x0000314a:    f7ffff4f    ..O.    BL       CLK_WaitClockReady ; 0x2fec
        0x0000314e:    2002        .       MOVS     r0,#2
        0x00003150:    4020         @      ANDS     r0,r0,r4
        0x00003152:    2800        .(      CMP      r0,#0
        0x00003154:    d002        ..      BEQ      0x315c ; CLK_EnableXtalRC + 42
        0x00003156:    2002        .       MOVS     r0,#2
        0x00003158:    f7ffff48    ..H.    BL       CLK_WaitClockReady ; 0x2fec
        0x0000315c:    2004        .       MOVS     r0,#4
        0x0000315e:    4020         @      ANDS     r0,r0,r4
        0x00003160:    2800        .(      CMP      r0,#0
        0x00003162:    d002        ..      BEQ      0x316a ; CLK_EnableXtalRC + 56
        0x00003164:    2010        .       MOVS     r0,#0x10
        0x00003166:    f7ffff41    ..A.    BL       CLK_WaitClockReady ; 0x2fec
        0x0000316a:    2008        .       MOVS     r0,#8
        0x0000316c:    4020         @      ANDS     r0,r0,r4
        0x0000316e:    2800        .(      CMP      r0,#0
        0x00003170:    d002        ..      BEQ      0x3178 ; CLK_EnableXtalRC + 70
        0x00003172:    2008        .       MOVS     r0,#8
        0x00003174:    f7ffff3a    ..:.    BL       CLK_WaitClockReady ; 0x2fec
        0x00003178:    bd10        ..      POP      {r4,pc}
    CLK_SetCoreClock
        0x0000317a:    b570        p.      PUSH     {r4-r6,lr}
        0x0000317c:    4604        .F      MOV      r4,r0
        0x0000317e:    4856        VH      LDR      r0,[pc,#344] ; [0x32d8] = 0x50000200
        0x00003180:    68c0        .h      LDR      r0,[r0,#0xc]
        0x00003182:    2110        .!      MOVS     r1,#0x10
        0x00003184:    4008        .@      ANDS     r0,r0,r1
        0x00003186:    4605        .F      MOV      r5,r0
        0x00003188:    4855        UH      LDR      r0,[pc,#340] ; [0x32e0] = 0xb71b00
        0x0000318a:    4284        .B      CMP      r4,r0
        0x0000318c:    d109        ..      BNE      0x31a2 ; CLK_SetCoreClock + 40
        0x0000318e:    2004        .       MOVS     r0,#4
        0x00003190:    f7ffffcf    ....    BL       CLK_EnableXtalRC ; 0x3132
        0x00003194:    2100        .!      MOVS     r1,#0
        0x00003196:    2007        .       MOVS     r0,#7
        0x00003198:    f7ffff38    ..8.    BL       CLK_SetHCLK ; 0x300c
        0x0000319c:    4851        QH      LDR      r0,[pc,#324] ; [0x32e4] = 0x20000000
        0x0000319e:    6800        .h      LDR      r0,[r0,#0]
        0x000031a0:    bd70        p.      POP      {r4-r6,pc}
        0x000031a2:    4856        VH      LDR      r0,[pc,#344] ; [0x32fc] = 0x16e3600
        0x000031a4:    4284        .B      CMP      r4,r0
        0x000031a6:    d200        ..      BCS      0x31aa ; CLK_SetCoreClock + 48
        0x000031a8:    4604        .F      MOV      r4,r0
        0x000031aa:    4855        UH      LDR      r0,[pc,#340] ; [0x3300] = 0x280de80
        0x000031ac:    4284        .B      CMP      r4,r0
        0x000031ae:    d900        ..      BLS      0x31b2 ; CLK_SetCoreClock + 56
        0x000031b0:    4604        .F      MOV      r4,r0
        0x000031b2:    4849        IH      LDR      r0,[pc,#292] ; [0x32d8] = 0x50000200
        0x000031b4:    6800        .h      LDR      r0,[r0,#0]
        0x000031b6:    07c0        ..      LSLS     r0,r0,#31
        0x000031b8:    0fc0        ..      LSRS     r0,r0,#31
        0x000031ba:    2800        .(      CMP      r0,#0
        0x000031bc:    d004        ..      BEQ      0x31c8 ; CLK_SetCoreClock + 78
        0x000031be:    0061        a.      LSLS     r1,r4,#1
        0x000031c0:    2000        .       MOVS     r0,#0
        0x000031c2:    f7ffff52    ..R.    BL       CLK_EnablePLL ; 0x306a
        0x000031c6:    e009        ..      B        0x31dc ; CLK_SetCoreClock + 98
        0x000031c8:    0061        a.      LSLS     r1,r4,#1
        0x000031ca:    2001        .       MOVS     r0,#1
        0x000031cc:    0440        @.      LSLS     r0,r0,#17
        0x000031ce:    f7ffff4c    ..L.    BL       CLK_EnablePLL ; 0x306a
        0x000031d2:    4841        AH      LDR      r0,[pc,#260] ; [0x32d8] = 0x50000200
        0x000031d4:    68c0        .h      LDR      r0,[r0,#0xc]
        0x000031d6:    2110        .!      MOVS     r1,#0x10
        0x000031d8:    4008        .@      ANDS     r0,r0,r1
        0x000031da:    4605        .F      MOV      r5,r0
        0x000031dc:    2101        .!      MOVS     r1,#1
        0x000031de:    2002        .       MOVS     r0,#2
        0x000031e0:    f7ffff14    ....    BL       CLK_SetHCLK ; 0x300c
        0x000031e4:    2d00        .-      CMP      r5,#0
        0x000031e6:    d105        ..      BNE      0x31f4 ; CLK_SetCoreClock + 122
        0x000031e8:    483b        ;H      LDR      r0,[pc,#236] ; [0x32d8] = 0x50000200
        0x000031ea:    6800        .h      LDR      r0,[r0,#0]
        0x000031ec:    2104        .!      MOVS     r1,#4
        0x000031ee:    4388        .C      BICS     r0,r0,r1
        0x000031f0:    4939        9I      LDR      r1,[pc,#228] ; [0x32d8] = 0x50000200
        0x000031f2:    6008        .`      STR      r0,[r1,#0]
        0x000031f4:    483b        ;H      LDR      r0,[pc,#236] ; [0x32e4] = 0x20000000
        0x000031f6:    6800        .h      LDR      r0,[r0,#0]
        0x000031f8:    e7d2        ..      B        0x31a0 ; CLK_SetCoreClock + 38
    CLK_SetModuleClock
        0x000031fa:    b5f0        ..      PUSH     {r4-r7,lr}
        0x000031fc:    460b        .F      MOV      r3,r1
        0x000031fe:    2100        .!      MOVS     r1,#0
        0x00003200:    2400        .$      MOVS     r4,#0
        0x00003202:    2500        .%      MOVS     r5,#0
        0x00003204:    0386        ..      LSLS     r6,r0,#14
        0x00003206:    0e36        6.      LSRS     r6,r6,#24
        0x00003208:    2e00        ..      CMP      r6,#0
        0x0000320a:    d010        ..      BEQ      0x322e ; CLK_SetModuleClock + 52
        0x0000320c:    0306        ..      LSLS     r6,r0,#12
        0x0000320e:    0fb6        ..      LSRS     r6,r6,#30
        0x00003210:    00b6        ..      LSLS     r6,r6,#2
        0x00003212:    4f31        1O      LDR      r7,[pc,#196] ; [0x32d8] = 0x50000200
        0x00003214:    371c        .7      ADDS     r7,r7,#0x1c
        0x00003216:    19f5        ..      ADDS     r5,r6,r7
        0x00003218:    6829        )h      LDR      r1,[r5,#0]
        0x0000321a:    0386        ..      LSLS     r6,r0,#14
        0x0000321c:    0e37        7.      LSRS     r7,r6,#24
        0x0000321e:    0586        ..      LSLS     r6,r0,#22
        0x00003220:    0ef6        ..      LSRS     r6,r6,#27
        0x00003222:    40b7        .@      LSLS     r7,r7,r6
        0x00003224:    460e        .F      MOV      r6,r1
        0x00003226:    43be        .C      BICS     r6,r6,r7
        0x00003228:    4316        .C      ORRS     r6,r6,r2
        0x0000322a:    4631        1F      MOV      r1,r6
        0x0000322c:    6029        )`      STR      r1,[r5,#0]
        0x0000322e:    00c6        ..      LSLS     r6,r0,#3
        0x00003230:    0f36        6.      LSRS     r6,r6,#28
        0x00003232:    2e00        ..      CMP      r6,#0
        0x00003234:    d010        ..      BEQ      0x3258 ; CLK_SetModuleClock + 94
        0x00003236:    0046        F.      LSLS     r6,r0,#1
        0x00003238:    0fb6        ..      LSRS     r6,r6,#30
        0x0000323a:    00b6        ..      LSLS     r6,r6,#2
        0x0000323c:    4f26        &O      LDR      r7,[pc,#152] ; [0x32d8] = 0x50000200
        0x0000323e:    3710        .7      ADDS     r7,r7,#0x10
        0x00003240:    19f4        ..      ADDS     r4,r6,r7
        0x00003242:    6821        !h      LDR      r1,[r4,#0]
        0x00003244:    00c6        ..      LSLS     r6,r0,#3
        0x00003246:    0f37        7.      LSRS     r7,r6,#28
        0x00003248:    01c6        ..      LSLS     r6,r0,#7
        0x0000324a:    0ef6        ..      LSRS     r6,r6,#27
        0x0000324c:    40b7        .@      LSLS     r7,r7,r6
        0x0000324e:    460e        .F      MOV      r6,r1
        0x00003250:    43be        .C      BICS     r6,r6,r7
        0x00003252:    431e        .C      ORRS     r6,r6,r3
        0x00003254:    4631        1F      MOV      r1,r6
        0x00003256:    6021        !`      STR      r1,[r4,#0]
        0x00003258:    bdf0        ..      POP      {r4-r7,pc}
    CLK_DisableXtalRC
        0x0000325a:    491f        .I      LDR      r1,[pc,#124] ; [0x32d8] = 0x50000200
        0x0000325c:    6809        .h      LDR      r1,[r1,#0]
        0x0000325e:    4381        .C      BICS     r1,r1,r0
        0x00003260:    4a1d        .J      LDR      r2,[pc,#116] ; [0x32d8] = 0x50000200
        0x00003262:    6011        .`      STR      r1,[r2,#0]
        0x00003264:    4770        pG      BX       lr
    CLK_EnableModuleClock
        0x00003266:    0fc1        ..      LSRS     r1,r0,#31
        0x00003268:    0089        ..      LSLS     r1,r1,#2
        0x0000326a:    4a1b        .J      LDR      r2,[pc,#108] ; [0x32d8] = 0x50000200
        0x0000326c:    1889        ..      ADDS     r1,r1,r2
        0x0000326e:    6849        Ih      LDR      r1,[r1,#4]
        0x00003270:    06c3        ..      LSLS     r3,r0,#27
        0x00003272:    0edb        ..      LSRS     r3,r3,#27
        0x00003274:    2201        ."      MOVS     r2,#1
        0x00003276:    409a        .@      LSLS     r2,r2,r3
        0x00003278:    4311        .C      ORRS     r1,r1,r2
        0x0000327a:    0fc2        ..      LSRS     r2,r0,#31
        0x0000327c:    0092        ..      LSLS     r2,r2,#2
        0x0000327e:    4b16        .K      LDR      r3,[pc,#88] ; [0x32d8] = 0x50000200
        0x00003280:    18d2        ..      ADDS     r2,r2,r3
        0x00003282:    6051        Q`      STR      r1,[r2,#4]
        0x00003284:    4770        pG      BX       lr
    CLK_DisableModuleClock
        0x00003286:    0fc1        ..      LSRS     r1,r0,#31
        0x00003288:    0089        ..      LSLS     r1,r1,#2
        0x0000328a:    4a13        .J      LDR      r2,[pc,#76] ; [0x32d8] = 0x50000200
        0x0000328c:    1889        ..      ADDS     r1,r1,r2
        0x0000328e:    684a        Jh      LDR      r2,[r1,#4]
        0x00003290:    06c3        ..      LSLS     r3,r0,#27
        0x00003292:    0edb        ..      LSRS     r3,r3,#27
        0x00003294:    2101        .!      MOVS     r1,#1
        0x00003296:    4099        .@      LSLS     r1,r1,r3
        0x00003298:    438a        .C      BICS     r2,r2,r1
        0x0000329a:    0fc1        ..      LSRS     r1,r0,#31
        0x0000329c:    0089        ..      LSLS     r1,r1,#2
        0x0000329e:    4b0e        .K      LDR      r3,[pc,#56] ; [0x32d8] = 0x50000200
        0x000032a0:    18c9        ..      ADDS     r1,r1,r3
        0x000032a2:    604a        J`      STR      r2,[r1,#4]
        0x000032a4:    4770        pG      BX       lr
    CLK_DisablePLL
        0x000032a6:    480c        .H      LDR      r0,[pc,#48] ; [0x32d8] = 0x50000200
        0x000032a8:    6a40        @j      LDR      r0,[r0,#0x24]
        0x000032aa:    2101        .!      MOVS     r1,#1
        0x000032ac:    0409        ..      LSLS     r1,r1,#16
        0x000032ae:    4308        .C      ORRS     r0,r0,r1
        0x000032b0:    4909        .I      LDR      r1,[pc,#36] ; [0x32d8] = 0x50000200
        0x000032b2:    6248        Hb      STR      r0,[r1,#0x24]
        0x000032b4:    4770        pG      BX       lr
    CLK_SysTickDelay
        0x000032b6:    4913        .I      LDR      r1,[pc,#76] ; [0x3304] = 0x20000004
        0x000032b8:    6809        .h      LDR      r1,[r1,#0]
        0x000032ba:    4341        AC      MULS     r1,r0,r1
        0x000032bc:    4a12        .J      LDR      r2,[pc,#72] ; [0x3308] = 0xe000e000
        0x000032be:    6151        Qa      STR      r1,[r2,#0x14]
        0x000032c0:    2100        .!      MOVS     r1,#0
        0x000032c2:    6191        .a      STR      r1,[r2,#0x18]
        0x000032c4:    2105        .!      MOVS     r1,#5
        0x000032c6:    6111        .a      STR      r1,[r2,#0x10]
        0x000032c8:    bf00        ..      NOP      
        0x000032ca:    490f        .I      LDR      r1,[pc,#60] ; [0x3308] = 0xe000e000
        0x000032cc:    6909        .i      LDR      r1,[r1,#0x10]
        0x000032ce:    2201        ."      MOVS     r2,#1
        0x000032d0:    0412        ..      LSLS     r2,r2,#16
        0x000032d2:    4011        .@      ANDS     r1,r1,r2
        0x000032d4:    2900        .)      CMP      r1,#0
        0x000032d6:    e019        ..      B        0x330c ; CLK_SysTickDelay + 86
    $d
        0x000032d8:    50000200    ...P    DCD    1342177792
        0x000032dc:    e000ed00    ....    DCD    3758157056
        0x000032e0:    00b71b00    ....    DCD    12000000
        0x000032e4:    20000000    ...     DCD    536870912
        0x000032e8:    0000ea60    `...    DCD    60000
        0x000032ec:    00006954    Ti..    DCD    26964
        0x000032f0:    02dc6c00    .l..    DCD    48000000
        0x000032f4:    07270e00    ..'.    DCD    120000000
        0x000032f8:    000f4240    @B..    DCD    1000000
        0x000032fc:    016e3600    .6n.    DCD    24000000
        0x00003300:    0280de80    ....    DCD    42000000
        0x00003304:    20000004    ...     DCD    536870916
        0x00003308:    e000e000    ....    DCD    3758153728
    $t
        0x0000330c:    d0dd        ..      BEQ      0x32ca ; CLK_SysTickDelay + 20
        0x0000330e:    2100        .!      MOVS     r1,#0
        0x00003310:    4a12        .J      LDR      r2,[pc,#72] ; [0x335c] = 0xe000e000
        0x00003312:    6111        .a      STR      r1,[r2,#0x10]
        0x00003314:    4770        pG      BX       lr
    CLK_EnableSysTick
        0x00003316:    2200        ."      MOVS     r2,#0
        0x00003318:    4b10        .K      LDR      r3,[pc,#64] ; [0x335c] = 0xe000e000
        0x0000331a:    611a        .a      STR      r2,[r3,#0x10]
        0x0000331c:    2801        .(      CMP      r0,#1
        0x0000331e:    d106        ..      BNE      0x332e ; CLK_EnableSysTick + 24
        0x00003320:    461a        .F      MOV      r2,r3
        0x00003322:    6912        .i      LDR      r2,[r2,#0x10]
        0x00003324:    2304        .#      MOVS     r3,#4
        0x00003326:    431a        .C      ORRS     r2,r2,r3
        0x00003328:    4b0c        .K      LDR      r3,[pc,#48] ; [0x335c] = 0xe000e000
        0x0000332a:    611a        .a      STR      r2,[r3,#0x10]
        0x0000332c:    e005        ..      B        0x333a ; CLK_EnableSysTick + 36
        0x0000332e:    4a0b        .J      LDR      r2,[pc,#44] ; [0x335c] = 0xe000e000
        0x00003330:    6912        .i      LDR      r2,[r2,#0x10]
        0x00003332:    2304        .#      MOVS     r3,#4
        0x00003334:    439a        .C      BICS     r2,r2,r3
        0x00003336:    4b09        .K      LDR      r3,[pc,#36] ; [0x335c] = 0xe000e000
        0x00003338:    611a        .a      STR      r2,[r3,#0x10]
        0x0000333a:    4a08        .J      LDR      r2,[pc,#32] ; [0x335c] = 0xe000e000
        0x0000333c:    6151        Qa      STR      r1,[r2,#0x14]
        0x0000333e:    2200        ."      MOVS     r2,#0
        0x00003340:    4b06        .K      LDR      r3,[pc,#24] ; [0x335c] = 0xe000e000
        0x00003342:    619a        .a      STR      r2,[r3,#0x18]
        0x00003344:    461a        .F      MOV      r2,r3
        0x00003346:    6912        .i      LDR      r2,[r2,#0x10]
        0x00003348:    2301        .#      MOVS     r3,#1
        0x0000334a:    431a        .C      ORRS     r2,r2,r3
        0x0000334c:    4b03        .K      LDR      r3,[pc,#12] ; [0x335c] = 0xe000e000
        0x0000334e:    611a        .a      STR      r2,[r3,#0x10]
        0x00003350:    4770        pG      BX       lr
    CLK_DisableSysTick
        0x00003352:    2000        .       MOVS     r0,#0
        0x00003354:    4901        .I      LDR      r1,[pc,#4] ; [0x335c] = 0xe000e000
        0x00003356:    6108        .a      STR      r0,[r1,#0x10]
        0x00003358:    4770        pG      BX       lr
    $d
        0x0000335a:    0000        ..      DCW    0
        0x0000335c:    e000e000    ....    DCD    3758153728
    $t
    .text
    GPIO_SetMode
        0x00003360:    b570        p.      PUSH     {r4-r6,lr}
        0x00003362:    4603        .F      MOV      r3,r0
        0x00003364:    2000        .       MOVS     r0,#0
        0x00003366:    e00f        ..      B        0x3388 ; GPIO_SetMode + 40
        0x00003368:    2401        .$      MOVS     r4,#1
        0x0000336a:    4084        .@      LSLS     r4,r4,r0
        0x0000336c:    400c        .@      ANDS     r4,r4,r1
        0x0000336e:    2c00        .,      CMP      r4,#0
        0x00003370:    d009        ..      BEQ      0x3386 ; GPIO_SetMode + 38
        0x00003372:    681c        .h      LDR      r4,[r3,#0]
        0x00003374:    0046        F.      LSLS     r6,r0,#1
        0x00003376:    2503        .%      MOVS     r5,#3
        0x00003378:    40b5        .@      LSLS     r5,r5,r6
        0x0000337a:    43ac        .C      BICS     r4,r4,r5
        0x0000337c:    0046        F.      LSLS     r6,r0,#1
        0x0000337e:    4615        .F      MOV      r5,r2
        0x00003380:    40b5        .@      LSLS     r5,r5,r6
        0x00003382:    432c        ,C      ORRS     r4,r4,r5
        0x00003384:    601c        .`      STR      r4,[r3,#0]
        0x00003386:    1c40        @.      ADDS     r0,r0,#1
        0x00003388:    2810        .(      CMP      r0,#0x10
        0x0000338a:    d3ed        ..      BCC      0x3368 ; GPIO_SetMode + 8
        0x0000338c:    bd70        p.      POP      {r4-r6,pc}
    GPIO_EnableInt
        0x0000338e:    b510        ..      PUSH     {r4,lr}
        0x00003390:    6984        .i      LDR      r4,[r0,#0x18]
        0x00003392:    0e13        ..      LSRS     r3,r2,#24
        0x00003394:    408b        .@      LSLS     r3,r3,r1
        0x00003396:    431c        .C      ORRS     r4,r4,r3
        0x00003398:    6184        .a      STR      r4,[r0,#0x18]
        0x0000339a:    69c3        .i      LDR      r3,[r0,#0x1c]
        0x0000339c:    0214        ..      LSLS     r4,r2,#8
        0x0000339e:    0a24        $.      LSRS     r4,r4,#8
        0x000033a0:    408c        .@      LSLS     r4,r4,r1
        0x000033a2:    4323        #C      ORRS     r3,r3,r4
        0x000033a4:    61c3        .a      STR      r3,[r0,#0x1c]
        0x000033a6:    bd10        ..      POP      {r4,pc}
    GPIO_DisableInt
        0x000033a8:    6982        .i      LDR      r2,[r0,#0x18]
        0x000033aa:    2301        .#      MOVS     r3,#1
        0x000033ac:    408b        .@      LSLS     r3,r3,r1
        0x000033ae:    439a        .C      BICS     r2,r2,r3
        0x000033b0:    6182        .a      STR      r2,[r0,#0x18]
        0x000033b2:    69c3        .i      LDR      r3,[r0,#0x1c]
        0x000033b4:    4a02        .J      LDR      r2,[pc,#8] ; [0x33c0] = 0x10001
        0x000033b6:    408a        .@      LSLS     r2,r2,r1
        0x000033b8:    4393        .C      BICS     r3,r3,r2
        0x000033ba:    61c3        .a      STR      r3,[r0,#0x1c]
        0x000033bc:    4770        pG      BX       lr
    $d
        0x000033be:    0000        ..      DCW    0
        0x000033c0:    00010001    ....    DCD    65537
    $t
    .text
    UART_ClearIntFlag
        0x000033c4:    2204        ."      MOVS     r2,#4
        0x000033c6:    400a        .@      ANDS     r2,r2,r1
        0x000033c8:    2a00        .*      CMP      r2,#0
        0x000033ca:    d007        ..      BEQ      0x33dc ; UART_ClearIntFlag + 24
        0x000033cc:    6982        .i      LDR      r2,[r0,#0x18]
        0x000033ce:    2360        `#      MOVS     r3,#0x60
        0x000033d0:    431a        .C      ORRS     r2,r2,r3
        0x000033d2:    6182        .a      STR      r2,[r0,#0x18]
        0x000033d4:    6942        Bi      LDR      r2,[r0,#0x14]
        0x000033d6:    2301        .#      MOVS     r3,#1
        0x000033d8:    431a        .C      ORRS     r2,r2,r3
        0x000033da:    6142        Ba      STR      r2,[r0,#0x14]
        0x000033dc:    2208        ."      MOVS     r2,#8
        0x000033de:    400a        .@      ANDS     r2,r2,r1
        0x000033e0:    2a00        .*      CMP      r2,#0
        0x000033e2:    d004        ..      BEQ      0x33ee ; UART_ClearIntFlag + 42
        0x000033e4:    69c2        .i      LDR      r2,[r0,#0x1c]
        0x000033e6:    2301        .#      MOVS     r3,#1
        0x000033e8:    049b        ..      LSLS     r3,r3,#18
        0x000033ea:    431a        .C      ORRS     r2,r2,r3
        0x000033ec:    61c2        .a      STR      r2,[r0,#0x1c]
        0x000033ee:    2220         "      MOVS     r2,#0x20
        0x000033f0:    400a        .@      ANDS     r2,r2,r1
        0x000033f2:    2a00        .*      CMP      r2,#0
        0x000033f4:    d004        ..      BEQ      0x3400 ; UART_ClearIntFlag + 60
        0x000033f6:    6982        .i      LDR      r2,[r0,#0x18]
        0x000033f8:    23ff        .#      MOVS     r3,#0xff
        0x000033fa:    3302        .3      ADDS     r3,#2
        0x000033fc:    431a        .C      ORRS     r2,r2,r3
        0x000033fe:    6182        .a      STR      r2,[r0,#0x18]
        0x00003400:    2240        @"      MOVS     r2,#0x40
        0x00003402:    400a        .@      ANDS     r2,r2,r1
        0x00003404:    2a00        .*      CMP      r2,#0
        0x00003406:    d003        ..      BEQ      0x3410 ; UART_ClearIntFlag + 76
        0x00003408:    6902        .i      LDR      r2,[r0,#0x10]
        0x0000340a:    2340        @#      MOVS     r3,#0x40
        0x0000340c:    431a        .C      ORRS     r2,r2,r3
        0x0000340e:    6102        .a      STR      r2,[r0,#0x10]
        0x00003410:    2280        ."      MOVS     r2,#0x80
        0x00003412:    400a        .@      ANDS     r2,r2,r1
        0x00003414:    2a00        .*      CMP      r2,#0
        0x00003416:    d003        ..      BEQ      0x3420 ; UART_ClearIntFlag + 92
        0x00003418:    6942        Bi      LDR      r2,[r0,#0x14]
        0x0000341a:    2306        .#      MOVS     r3,#6
        0x0000341c:    431a        .C      ORRS     r2,r2,r3
        0x0000341e:    6142        Ba      STR      r2,[r0,#0x14]
        0x00003420:    22ff        ."      MOVS     r2,#0xff
        0x00003422:    3201        .2      ADDS     r2,#1
        0x00003424:    400a        .@      ANDS     r2,r2,r1
        0x00003426:    2a00        .*      CMP      r2,#0
        0x00003428:    d003        ..      BEQ      0x3432 ; UART_ClearIntFlag + 110
        0x0000342a:    6942        Bi      LDR      r2,[r0,#0x14]
        0x0000342c:    2338        8#      MOVS     r3,#0x38
        0x0000342e:    431a        .C      ORRS     r2,r2,r3
        0x00003430:    6142        Ba      STR      r2,[r0,#0x14]
        0x00003432:    4770        pG      BX       lr
    UART_Close
        0x00003434:    2100        .!      MOVS     r1,#0
        0x00003436:    60c1        .`      STR      r1,[r0,#0xc]
        0x00003438:    4770        pG      BX       lr
    UART_DisableFlowCtrl
        0x0000343a:    6841        Ah      LDR      r1,[r0,#4]
        0x0000343c:    2230        0"      MOVS     r2,#0x30
        0x0000343e:    4391        .C      BICS     r1,r1,r2
        0x00003440:    6041        A`      STR      r1,[r0,#4]
        0x00003442:    4770        pG      BX       lr
    UART_DisableInt
        0x00003444:    68c2        .h      LDR      r2,[r0,#0xc]
        0x00003446:    438a        .C      BICS     r2,r2,r1
        0x00003448:    60c2        .`      STR      r2,[r0,#0xc]
        0x0000344a:    4770        pG      BX       lr
    UART_EnableFlowCtrl
        0x0000344c:    69c1        .i      LDR      r1,[r0,#0x1c]
        0x0000344e:    4aa6        .J      LDR      r2,[pc,#664] ; [0x36e8] = 0x10001
        0x00003450:    4311        .C      ORRS     r1,r1,r2
        0x00003452:    61c1        .a      STR      r1,[r0,#0x1c]
        0x00003454:    6841        Ah      LDR      r1,[r0,#4]
        0x00003456:    2230        0"      MOVS     r2,#0x30
        0x00003458:    4311        .C      ORRS     r1,r1,r2
        0x0000345a:    6041        A`      STR      r1,[r0,#4]
        0x0000345c:    4770        pG      BX       lr
    UART_EnableInt
        0x0000345e:    68c2        .h      LDR      r2,[r0,#0xc]
        0x00003460:    430a        .C      ORRS     r2,r2,r1
        0x00003462:    60c2        .`      STR      r2,[r0,#0xc]
        0x00003464:    4770        pG      BX       lr
    UART_Open
        0x00003466:    b5f0        ..      PUSH     {r4-r7,lr}
        0x00003468:    b087        ..      SUB      sp,sp,#0x1c
        0x0000346a:    4604        .F      MOV      r4,r0
        0x0000346c:    460d        .F      MOV      r5,r1
        0x0000346e:    489f        .H      LDR      r0,[pc,#636] ; [0x36ec] = 0x6964
        0x00003470:    4601        .F      MOV      r1,r0
        0x00003472:    c90e        ..      LDM      r1,{r1-r3}
        0x00003474:    68c0        .h      LDR      r0,[r0,#0xc]
        0x00003476:    ae02        ..      ADD      r6,sp,#8
        0x00003478:    c60e        ..      STM      r6!,{r1-r3}
        0x0000347a:    9005        ..      STR      r0,[sp,#0x14]
        0x0000347c:    489c        .H      LDR      r0,[pc,#624] ; [0x36f0] = 0x50000200
        0x0000347e:    6940        @i      LDR      r0,[r0,#0x14]
        0x00003480:    0780        ..      LSLS     r0,r0,#30
        0x00003482:    0f80        ..      LSRS     r0,r0,#30
        0x00003484:    9006        ..      STR      r0,[sp,#0x18]
        0x00003486:    9806        ..      LDR      r0,[sp,#0x18]
        0x00003488:    0080        ..      LSLS     r0,r0,#2
        0x0000348a:    a902        ..      ADD      r1,sp,#8
        0x0000348c:    580f        .X      LDR      r7,[r1,r0]
        0x0000348e:    4898        .H      LDR      r0,[pc,#608] ; [0x36f0] = 0x50000200
        0x00003490:    69c0        .i      LDR      r0,[r0,#0x1c]
        0x00003492:    210f        .!      MOVS     r1,#0xf
        0x00003494:    0209        ..      LSLS     r1,r1,#8
        0x00003496:    4008        .@      ANDS     r0,r0,r1
        0x00003498:    0a00        ..      LSRS     r0,r0,#8
        0x0000349a:    1c40        @.      ADDS     r0,r0,#1
        0x0000349c:    9001        ..      STR      r0,[sp,#4]
        0x0000349e:    2f00        ./      CMP      r7,#0
        0x000034a0:    d107        ..      BNE      0x34b2 ; UART_Open + 76
        0x000034a2:    f7fcfedf    ....    BL       SysGet_PLLClockFreq ; 0x264
        0x000034a6:    9000        ..      STR      r0,[sp,#0]
        0x000034a8:    9901        ..      LDR      r1,[sp,#4]
        0x000034aa:    f000fbd1    ....    BL       __aeabi_uidiv ; 0x3c50
        0x000034ae:    4607        .F      MOV      r7,r0
        0x000034b0:    e004        ..      B        0x34bc ; UART_Open + 86
        0x000034b2:    4638        8F      MOV      r0,r7
        0x000034b4:    9901        ..      LDR      r1,[sp,#4]
        0x000034b6:    f000fbcb    ....    BL       __aeabi_uidiv ; 0x3c50
        0x000034ba:    4607        .F      MOV      r7,r0
        0x000034bc:    2000        .       MOVS     r0,#0
        0x000034be:    63a0        .c      STR      r0,[r4,#0x38]
        0x000034c0:    2003        .       MOVS     r0,#3
        0x000034c2:    60a0        .`      STR      r0,[r4,#8]
        0x000034c4:    2d00        .-      CMP      r5,#0
        0x000034c6:    d016        ..      BEQ      0x34f6 ; UART_Open + 144
        0x000034c8:    0869        i.      LSRS     r1,r5,#1
        0x000034ca:    19c8        ..      ADDS     r0,r1,r7
        0x000034cc:    4629        )F      MOV      r1,r5
        0x000034ce:    f000fbbf    ....    BL       __aeabi_uidiv ; 0x3c50
        0x000034d2:    1e46        F.      SUBS     r6,r0,#1
        0x000034d4:    4884        .H      LDR      r0,[pc,#528] ; [0x36e8] = 0x10001
        0x000034d6:    1e80        ..      SUBS     r0,r0,#2
        0x000034d8:    4286        .B      CMP      r6,r0
        0x000034da:    d90b        ..      BLS      0x34f4 ; UART_Open + 142
        0x000034dc:    00e9        ..      LSLS     r1,r5,#3
        0x000034de:    19c8        ..      ADDS     r0,r1,r7
        0x000034e0:    4629        )F      MOV      r1,r5
        0x000034e2:    f000fbb5    ....    BL       __aeabi_uidiv ; 0x3c50
        0x000034e6:    0900        ..      LSRS     r0,r0,#4
        0x000034e8:    1e40        @.      SUBS     r0,r0,#1
        0x000034ea:    2101        .!      MOVS     r1,#1
        0x000034ec:    07c9        ..      LSLS     r1,r1,#31
        0x000034ee:    4308        .C      ORRS     r0,r0,r1
        0x000034f0:    6260        `b      STR      r0,[r4,#0x24]
        0x000034f2:    e000        ..      B        0x34f6 ; UART_Open + 144
        0x000034f4:    6266        fb      STR      r6,[r4,#0x24]
        0x000034f6:    b007        ..      ADD      sp,sp,#0x1c
        0x000034f8:    bdf0        ..      POP      {r4-r7,pc}
    UART_Read
        0x000034fa:    b570        p.      PUSH     {r4-r6,lr}
        0x000034fc:    4603        .F      MOV      r3,r0
        0x000034fe:    460c        .F      MOV      r4,r1
        0x00003500:    2100        .!      MOVS     r1,#0
        0x00003502:    e010        ..      B        0x3526 ; UART_Read + 44
        0x00003504:    2500        .%      MOVS     r5,#0
        0x00003506:    e006        ..      B        0x3516 ; UART_Read + 28
        0x00003508:    1c6d        m.      ADDS     r5,r5,#1
        0x0000350a:    2001        .       MOVS     r0,#1
        0x0000350c:    0780        ..      LSLS     r0,r0,#30
        0x0000350e:    4285        .B      CMP      r5,r0
        0x00003510:    d301        ..      BCC      0x3516 ; UART_Read + 28
        0x00003512:    2000        .       MOVS     r0,#0
        0x00003514:    bd70        p.      POP      {r4-r6,pc}
        0x00003516:    6998        .i      LDR      r0,[r3,#0x18]
        0x00003518:    2602        .&      MOVS     r6,#2
        0x0000351a:    4030        0@      ANDS     r0,r0,r6
        0x0000351c:    2800        .(      CMP      r0,#0
        0x0000351e:    d1f3        ..      BNE      0x3508 ; UART_Read + 14
        0x00003520:    6818        .h      LDR      r0,[r3,#0]
        0x00003522:    5460        `T      STRB     r0,[r4,r1]
        0x00003524:    1c49        I.      ADDS     r1,r1,#1
        0x00003526:    4291        .B      CMP      r1,r2
        0x00003528:    d3ec        ..      BCC      0x3504 ; UART_Read + 10
        0x0000352a:    4608        .F      MOV      r0,r1
        0x0000352c:    e7f2        ..      B        0x3514 ; UART_Read + 26
    UART_SetLine_Config
        0x0000352e:    b5ff        ..      PUSH     {r0-r7,lr}
        0x00003530:    b087        ..      SUB      sp,sp,#0x1c
        0x00003532:    4604        .F      MOV      r4,r0
        0x00003534:    460d        .F      MOV      r5,r1
        0x00003536:    486d        mH      LDR      r0,[pc,#436] ; [0x36ec] = 0x6964
        0x00003538:    3010        .0      ADDS     r0,r0,#0x10
        0x0000353a:    4601        .F      MOV      r1,r0
        0x0000353c:    c90e        ..      LDM      r1,{r1-r3}
        0x0000353e:    68c0        .h      LDR      r0,[r0,#0xc]
        0x00003540:    ae02        ..      ADD      r6,sp,#8
        0x00003542:    c60e        ..      STM      r6!,{r1-r3}
        0x00003544:    9005        ..      STR      r0,[sp,#0x14]
        0x00003546:    2700        .'      MOVS     r7,#0
        0x00003548:    4869        iH      LDR      r0,[pc,#420] ; [0x36f0] = 0x50000200
        0x0000354a:    6940        @i      LDR      r0,[r0,#0x14]
        0x0000354c:    0780        ..      LSLS     r0,r0,#30
        0x0000354e:    0f80        ..      LSRS     r0,r0,#30
        0x00003550:    9006        ..      STR      r0,[sp,#0x18]
        0x00003552:    9806        ..      LDR      r0,[sp,#0x18]
        0x00003554:    0080        ..      LSLS     r0,r0,#2
        0x00003556:    a902        ..      ADD      r1,sp,#8
        0x00003558:    580e        .X      LDR      r6,[r1,r0]
        0x0000355a:    4865        eH      LDR      r0,[pc,#404] ; [0x36f0] = 0x50000200
        0x0000355c:    69c0        .i      LDR      r0,[r0,#0x1c]
        0x0000355e:    210f        .!      MOVS     r1,#0xf
        0x00003560:    0209        ..      LSLS     r1,r1,#8
        0x00003562:    4008        .@      ANDS     r0,r0,r1
        0x00003564:    0a00        ..      LSRS     r0,r0,#8
        0x00003566:    1c40        @.      ADDS     r0,r0,#1
        0x00003568:    9001        ..      STR      r0,[sp,#4]
        0x0000356a:    2e00        ..      CMP      r6,#0
        0x0000356c:    d107        ..      BNE      0x357e ; UART_SetLine_Config + 80
        0x0000356e:    f7fcfe79    ..y.    BL       SysGet_PLLClockFreq ; 0x264
        0x00003572:    9000        ..      STR      r0,[sp,#0]
        0x00003574:    9901        ..      LDR      r1,[sp,#4]
        0x00003576:    f000fb6b    ..k.    BL       __aeabi_uidiv ; 0x3c50
        0x0000357a:    4606        .F      MOV      r6,r0
        0x0000357c:    e004        ..      B        0x3588 ; UART_SetLine_Config + 90
        0x0000357e:    4630        0F      MOV      r0,r6
        0x00003580:    9901        ..      LDR      r1,[sp,#4]
        0x00003582:    f000fb65    ..e.    BL       __aeabi_uidiv ; 0x3c50
        0x00003586:    4606        .F      MOV      r6,r0
        0x00003588:    2d00        .-      CMP      r5,#0
        0x0000358a:    d016        ..      BEQ      0x35ba ; UART_SetLine_Config + 140
        0x0000358c:    0869        i.      LSRS     r1,r5,#1
        0x0000358e:    1988        ..      ADDS     r0,r1,r6
        0x00003590:    4629        )F      MOV      r1,r5
        0x00003592:    f000fb5d    ..].    BL       __aeabi_uidiv ; 0x3c50
        0x00003596:    1e47        G.      SUBS     r7,r0,#1
        0x00003598:    4853        SH      LDR      r0,[pc,#332] ; [0x36e8] = 0x10001
        0x0000359a:    1e80        ..      SUBS     r0,r0,#2
        0x0000359c:    4287        .B      CMP      r7,r0
        0x0000359e:    d90b        ..      BLS      0x35b8 ; UART_SetLine_Config + 138
        0x000035a0:    00e9        ..      LSLS     r1,r5,#3
        0x000035a2:    1988        ..      ADDS     r0,r1,r6
        0x000035a4:    4629        )F      MOV      r1,r5
        0x000035a6:    f000fb53    ..S.    BL       __aeabi_uidiv ; 0x3c50
        0x000035aa:    0900        ..      LSRS     r0,r0,#4
        0x000035ac:    1e40        @.      SUBS     r0,r0,#1
        0x000035ae:    2101        .!      MOVS     r1,#1
        0x000035b0:    07c9        ..      LSLS     r1,r1,#31
        0x000035b2:    4308        .C      ORRS     r0,r0,r1
        0x000035b4:    6260        `b      STR      r0,[r4,#0x24]
        0x000035b6:    e000        ..      B        0x35ba ; UART_SetLine_Config + 140
        0x000035b8:    6267        gb      STR      r7,[r4,#0x24]
        0x000035ba:    990a        ..      LDR      r1,[sp,#0x28]
        0x000035bc:    9809        ..      LDR      r0,[sp,#0x24]
        0x000035be:    4308        .C      ORRS     r0,r0,r1
        0x000035c0:    9910        ..      LDR      r1,[sp,#0x40]
        0x000035c2:    4308        .C      ORRS     r0,r0,r1
        0x000035c4:    60a0        .`      STR      r0,[r4,#8]
        0x000035c6:    b00b        ..      ADD      sp,sp,#0x2c
        0x000035c8:    bdf0        ..      POP      {r4-r7,pc}
    UART_SetTimeoutCnt
        0x000035ca:    6a02        .j      LDR      r2,[r0,#0x20]
        0x000035cc:    0a52        R.      LSRS     r2,r2,#9
        0x000035ce:    0252        R.      LSLS     r2,r2,#9
        0x000035d0:    430a        .C      ORRS     r2,r2,r1
        0x000035d2:    6202        .b      STR      r2,[r0,#0x20]
        0x000035d4:    68c2        .h      LDR      r2,[r0,#0xc]
        0x000035d6:    2310        .#      MOVS     r3,#0x10
        0x000035d8:    431a        .C      ORRS     r2,r2,r3
        0x000035da:    60c2        .`      STR      r2,[r0,#0xc]
        0x000035dc:    4770        pG      BX       lr
    UART_SelectIrDAMode
        0x000035de:    b5f0        ..      PUSH     {r4-r7,lr}
        0x000035e0:    b087        ..      SUB      sp,sp,#0x1c
        0x000035e2:    4604        .F      MOV      r4,r0
        0x000035e4:    460e        .F      MOV      r6,r1
        0x000035e6:    4617        .F      MOV      r7,r2
        0x000035e8:    4840        @H      LDR      r0,[pc,#256] ; [0x36ec] = 0x6964
        0x000035ea:    3020         0      ADDS     r0,r0,#0x20
        0x000035ec:    4601        .F      MOV      r1,r0
        0x000035ee:    c90e        ..      LDM      r1,{r1-r3}
        0x000035f0:    68c0        .h      LDR      r0,[r0,#0xc]
        0x000035f2:    ad02        ..      ADD      r5,sp,#8
        0x000035f4:    c50e        ..      STM      r5!,{r1-r3}
        0x000035f6:    9005        ..      STR      r0,[sp,#0x14]
        0x000035f8:    483d        =H      LDR      r0,[pc,#244] ; [0x36f0] = 0x50000200
        0x000035fa:    6940        @i      LDR      r0,[r0,#0x14]
        0x000035fc:    0780        ..      LSLS     r0,r0,#30
        0x000035fe:    0f80        ..      LSRS     r0,r0,#30
        0x00003600:    9006        ..      STR      r0,[sp,#0x18]
        0x00003602:    9806        ..      LDR      r0,[sp,#0x18]
        0x00003604:    0080        ..      LSLS     r0,r0,#2
        0x00003606:    a902        ..      ADD      r1,sp,#8
        0x00003608:    580d        .X      LDR      r5,[r1,r0]
        0x0000360a:    4839        9H      LDR      r0,[pc,#228] ; [0x36f0] = 0x50000200
        0x0000360c:    69c0        .i      LDR      r0,[r0,#0x1c]
        0x0000360e:    210f        .!      MOVS     r1,#0xf
        0x00003610:    0209        ..      LSLS     r1,r1,#8
        0x00003612:    4008        .@      ANDS     r0,r0,r1
        0x00003614:    0a00        ..      LSRS     r0,r0,#8
        0x00003616:    1c40        @.      ADDS     r0,r0,#1
        0x00003618:    9001        ..      STR      r0,[sp,#4]
        0x0000361a:    2d00        .-      CMP      r5,#0
        0x0000361c:    d107        ..      BNE      0x362e ; UART_SelectIrDAMode + 80
        0x0000361e:    f7fcfe21    ..!.    BL       SysGet_PLLClockFreq ; 0x264
        0x00003622:    9000        ..      STR      r0,[sp,#0]
        0x00003624:    9901        ..      LDR      r1,[sp,#4]
        0x00003626:    f000fb13    ....    BL       __aeabi_uidiv ; 0x3c50
        0x0000362a:    4605        .F      MOV      r5,r0
        0x0000362c:    e004        ..      B        0x3638 ; UART_SelectIrDAMode + 90
        0x0000362e:    4628        (F      MOV      r0,r5
        0x00003630:    9901        ..      LDR      r1,[sp,#4]
        0x00003632:    f000fb0d    ....    BL       __aeabi_uidiv ; 0x3c50
        0x00003636:    4605        .F      MOV      r5,r0
        0x00003638:    00f1        ..      LSLS     r1,r6,#3
        0x0000363a:    1948        H.      ADDS     r0,r1,r5
        0x0000363c:    4631        1F      MOV      r1,r6
        0x0000363e:    f000fb07    ....    BL       __aeabi_uidiv ; 0x3c50
        0x00003642:    0900        ..      LSRS     r0,r0,#4
        0x00003644:    1e40        @.      SUBS     r0,r0,#1
        0x00003646:    2101        .!      MOVS     r1,#1
        0x00003648:    07c9        ..      LSLS     r1,r1,#31
        0x0000364a:    4308        .C      ORRS     r0,r0,r1
        0x0000364c:    6260        `b      STR      r0,[r4,#0x24]
        0x0000364e:    6b20         k      LDR      r0,[r4,#0x30]
        0x00003650:    2120         !      MOVS     r1,#0x20
        0x00003652:    4388        .C      BICS     r0,r0,r1
        0x00003654:    6320         c      STR      r0,[r4,#0x30]
        0x00003656:    6b20         k      LDR      r0,[r4,#0x30]
        0x00003658:    2140        @!      MOVS     r1,#0x40
        0x0000365a:    4308        .C      ORRS     r0,r0,r1
        0x0000365c:    6320         c      STR      r0,[r4,#0x30]
        0x0000365e:    2f00        ./      CMP      r7,#0
        0x00003660:    d003        ..      BEQ      0x366a ; UART_SelectIrDAMode + 140
        0x00003662:    6b20         k      LDR      r0,[r4,#0x30]
        0x00003664:    2102        .!      MOVS     r1,#2
        0x00003666:    4308        .C      ORRS     r0,r0,r1
        0x00003668:    e002        ..      B        0x3670 ; UART_SelectIrDAMode + 146
        0x0000366a:    6b20         k      LDR      r0,[r4,#0x30]
        0x0000366c:    2102        .!      MOVS     r1,#2
        0x0000366e:    4388        .C      BICS     r0,r0,r1
        0x00003670:    6320         c      STR      r0,[r4,#0x30]
        0x00003672:    2002        .       MOVS     r0,#2
        0x00003674:    63a0        .c      STR      r0,[r4,#0x38]
        0x00003676:    b007        ..      ADD      sp,sp,#0x1c
        0x00003678:    bdf0        ..      POP      {r4-r7,pc}
    UART_SelectRS485Mode
        0x0000367a:    b510        ..      PUSH     {r4,lr}
        0x0000367c:    2303        .#      MOVS     r3,#3
        0x0000367e:    6383        .c      STR      r3,[r0,#0x38]
        0x00003680:    2300        .#      MOVS     r3,#0
        0x00003682:    6343        Cc      STR      r3,[r0,#0x34]
        0x00003684:    6b43        Ck      LDR      r3,[r0,#0x34]
        0x00003686:    0614        ..      LSLS     r4,r2,#24
        0x00003688:    430c        .C      ORRS     r4,r4,r1
        0x0000368a:    4323        #C      ORRS     r3,r3,r4
        0x0000368c:    6343        Cc      STR      r3,[r0,#0x34]
        0x0000368e:    bd10        ..      POP      {r4,pc}
    UART_SelectLINMode
        0x00003690:    b510        ..      PUSH     {r4,lr}
        0x00003692:    2301        .#      MOVS     r3,#1
        0x00003694:    6383        .c      STR      r3,[r0,#0x38]
        0x00003696:    6383        .c      STR      r3,[r0,#0x38]
        0x00003698:    6b43        Ck      LDR      r3,[r0,#0x34]
        0x0000369a:    24c7        .$      MOVS     r4,#0xc7
        0x0000369c:    43a3        .C      BICS     r3,r3,r4
        0x0000369e:    6343        Cc      STR      r3,[r0,#0x34]
        0x000036a0:    6b43        Ck      LDR      r3,[r0,#0x34]
        0x000036a2:    0754        T.      LSLS     r4,r2,#29
        0x000036a4:    0f64        d.      LSRS     r4,r4,#29
        0x000036a6:    4323        #C      ORRS     r3,r3,r4
        0x000036a8:    6343        Cc      STR      r3,[r0,#0x34]
        0x000036aa:    6b43        Ck      LDR      r3,[r0,#0x34]
        0x000036ac:    430b        .C      ORRS     r3,r3,r1
        0x000036ae:    6343        Cc      STR      r3,[r0,#0x34]
        0x000036b0:    bd10        ..      POP      {r4,pc}
    UART_Write
        0x000036b2:    b570        p.      PUSH     {r4-r6,lr}
        0x000036b4:    4603        .F      MOV      r3,r0
        0x000036b6:    460c        .F      MOV      r4,r1
        0x000036b8:    2100        .!      MOVS     r1,#0
        0x000036ba:    e011        ..      B        0x36e0 ; UART_Write + 46
        0x000036bc:    2500        .%      MOVS     r5,#0
        0x000036be:    e006        ..      B        0x36ce ; UART_Write + 28
        0x000036c0:    1c6d        m.      ADDS     r5,r5,#1
        0x000036c2:    2001        .       MOVS     r0,#1
        0x000036c4:    0780        ..      LSLS     r0,r0,#30
        0x000036c6:    4285        .B      CMP      r5,r0
        0x000036c8:    d301        ..      BCC      0x36ce ; UART_Write + 28
        0x000036ca:    2000        .       MOVS     r0,#0
        0x000036cc:    bd70        p.      POP      {r4-r6,pc}
        0x000036ce:    6998        .i      LDR      r0,[r3,#0x18]
        0x000036d0:    2601        .&      MOVS     r6,#1
        0x000036d2:    0276        v.      LSLS     r6,r6,#9
        0x000036d4:    4030        0@      ANDS     r0,r0,r6
        0x000036d6:    2800        .(      CMP      r0,#0
        0x000036d8:    d0f2        ..      BEQ      0x36c0 ; UART_Write + 14
        0x000036da:    5c60        `\      LDRB     r0,[r4,r1]
        0x000036dc:    6018        .`      STR      r0,[r3,#0]
        0x000036de:    1c49        I.      ADDS     r1,r1,#1
        0x000036e0:    4291        .B      CMP      r1,r2
        0x000036e2:    d1eb        ..      BNE      0x36bc ; UART_Write + 10
        0x000036e4:    4608        .F      MOV      r0,r1
        0x000036e6:    e7f1        ..      B        0x36cc ; UART_Write + 26
    $d
        0x000036e8:    00010001    ....    DCD    65537
        0x000036ec:    00006964    di..    DCD    26980
        0x000036f0:    50000200    ...P    DCD    1342177792
    $t
    .text
    stackDump
        0x000036f4:    b510        ..      PUSH     {r4,lr}
        0x000036f6:    4604        .F      MOV      r4,r0
        0x000036f8:    a048        H.      ADR      r0,{pc}+0x124 ; 0x381c
        0x000036fa:    6821        !h      LDR      r1,[r4,#0]
        0x000036fc:    f000ff7c    ..|.    BL       __0printf ; 0x45f8
        0x00003700:    a049        I.      ADR      r0,{pc}+0x128 ; 0x3828
        0x00003702:    6861        ah      LDR      r1,[r4,#4]
        0x00003704:    f000ff78    ..x.    BL       __0printf ; 0x45f8
        0x00003708:    a04a        J.      ADR      r0,{pc}+0x12c ; 0x3834
        0x0000370a:    68a1        .h      LDR      r1,[r4,#8]
        0x0000370c:    f000ff74    ..t.    BL       __0printf ; 0x45f8
        0x00003710:    a04b        K.      ADR      r0,{pc}+0x130 ; 0x3840
        0x00003712:    68e1        .h      LDR      r1,[r4,#0xc]
        0x00003714:    f000ff70    ..p.    BL       __0printf ; 0x45f8
        0x00003718:    a04c        L.      ADR      r0,{pc}+0x134 ; 0x384c
        0x0000371a:    6921        !i      LDR      r1,[r4,#0x10]
        0x0000371c:    f000ff6c    ..l.    BL       __0printf ; 0x45f8
        0x00003720:    a04d        M.      ADR      r0,{pc}+0x138 ; 0x3858
        0x00003722:    6961        ai      LDR      r1,[r4,#0x14]
        0x00003724:    f000ff68    ..h.    BL       __0printf ; 0x45f8
        0x00003728:    a04e        N.      ADR      r0,{pc}+0x13c ; 0x3864
        0x0000372a:    69a1        .i      LDR      r1,[r4,#0x18]
        0x0000372c:    f000ff64    ..d.    BL       __0printf ; 0x45f8
        0x00003730:    a04f        O.      ADR      r0,{pc}+0x140 ; 0x3870
        0x00003732:    69e1        .i      LDR      r1,[r4,#0x1c]
        0x00003734:    f000ff60    ..`.    BL       __0printf ; 0x45f8
        0x00003738:    bd10        ..      POP      {r4,pc}
    Hard_Fault_Handler
    __tagsym$$used
        0x0000373a:    a050        P.      ADR      r0,{pc}+0x142 ; 0x387c
        0x0000373c:    f000ff5c    ..\.    BL       __0printf ; 0x45f8
        0x00003740:    bf00        ..      NOP      
        0x00003742:    e006        ..      B        0x3752 ; Hard_Fault_Handler + 24
        0x00003744:    2059        Y       MOVS     r0,#0x59
        0x00003746:    4953        SI      LDR      r1,[pc,#332] ; [0x3894] = 0x50000100
        0x00003748:    6008        .`      STR      r0,[r1,#0]
        0x0000374a:    2016        .       MOVS     r0,#0x16
        0x0000374c:    6008        .`      STR      r0,[r1,#0]
        0x0000374e:    2088        .       MOVS     r0,#0x88
        0x00003750:    6008        .`      STR      r0,[r1,#0]
        0x00003752:    4850        PH      LDR      r0,[pc,#320] ; [0x3894] = 0x50000100
        0x00003754:    6800        .h      LDR      r0,[r0,#0]
        0x00003756:    2801        .(      CMP      r0,#1
        0x00003758:    d1f4        ..      BNE      0x3744 ; Hard_Fault_Handler + 10
        0x0000375a:    bf00        ..      NOP      
        0x0000375c:    2005        .       MOVS     r0,#5
        0x0000375e:    0700        ..      LSLS     r0,r0,#28
        0x00003760:    6880        .h      LDR      r0,[r0,#8]
        0x00003762:    2101        .!      MOVS     r1,#1
        0x00003764:    4308        .C      ORRS     r0,r0,r1
        0x00003766:    2105        .!      MOVS     r1,#5
        0x00003768:    0709        ..      LSLS     r1,r1,#28
        0x0000376a:    6088        .`      STR      r0,[r1,#8]
        0x0000376c:    bf00        ..      NOP      
        0x0000376e:    e7fe        ..      B        0x376e ; Hard_Fault_Handler + 52
    SendChar_ToUART
        0x00003770:    bf00        ..      NOP      
        0x00003772:    4949        II      LDR      r1,[pc,#292] ; [0x3898] = 0x40050000
        0x00003774:    6989        .i      LDR      r1,[r1,#0x18]
        0x00003776:    2201        ."      MOVS     r2,#1
        0x00003778:    0292        ..      LSLS     r2,r2,#10
        0x0000377a:    4011        .@      ANDS     r1,r1,r2
        0x0000377c:    2900        .)      CMP      r1,#0
        0x0000377e:    d1f8        ..      BNE      0x3772 ; SendChar_ToUART + 2
        0x00003780:    4945        EI      LDR      r1,[pc,#276] ; [0x3898] = 0x40050000
        0x00003782:    6008        .`      STR      r0,[r1,#0]
        0x00003784:    4770        pG      BX       lr
    SendChar
        0x00003786:    b500        ..      PUSH     {lr}
        0x00003788:    4603        .F      MOV      r3,r0
        0x0000378a:    4618        .F      MOV      r0,r3
        0x0000378c:    f7fffff0    ....    BL       SendChar_ToUART ; 0x3770
        0x00003790:    bd00        ..      POP      {pc}
    GetChar
        0x00003792:    e009        ..      B        0x37a8 ; GetChar + 22
        0x00003794:    4840        @H      LDR      r0,[pc,#256] ; [0x3898] = 0x40050000
        0x00003796:    6980        .i      LDR      r0,[r0,#0x18]
        0x00003798:    2102        .!      MOVS     r1,#2
        0x0000379a:    4008        .@      ANDS     r0,r0,r1
        0x0000379c:    2800        .(      CMP      r0,#0
        0x0000379e:    d103        ..      BNE      0x37a8 ; GetChar + 22
        0x000037a0:    483d        =H      LDR      r0,[pc,#244] ; [0x3898] = 0x40050000
        0x000037a2:    6800        .h      LDR      r0,[r0,#0]
        0x000037a4:    b2c0        ..      UXTB     r0,r0
        0x000037a6:    4770        pG      BX       lr
        0x000037a8:    e7f4        ..      B        0x3794 ; GetChar + 2
    kbhit
        0x000037aa:    483b        ;H      LDR      r0,[pc,#236] ; [0x3898] = 0x40050000
        0x000037ac:    6980        .i      LDR      r0,[r0,#0x18]
        0x000037ae:    0841        A.      LSRS     r1,r0,#1
        0x000037b0:    2001        .       MOVS     r0,#1
        0x000037b2:    4388        .C      BICS     r0,r0,r1
        0x000037b4:    4770        pG      BX       lr
    IsDebugFifoEmpty
        0x000037b6:    4838        8H      LDR      r0,[pc,#224] ; [0x3898] = 0x40050000
        0x000037b8:    6980        .i      LDR      r0,[r0,#0x18]
        0x000037ba:    2101        .!      MOVS     r1,#1
        0x000037bc:    02c9        ..      LSLS     r1,r1,#11
        0x000037be:    4008        .@      ANDS     r0,r0,r1
        0x000037c0:    0ac0        ..      LSRS     r0,r0,#11
        0x000037c2:    4770        pG      BX       lr
    _ttywrch
        0x000037c4:    b510        ..      PUSH     {r4,lr}
        0x000037c6:    4604        .F      MOV      r4,r0
        0x000037c8:    4620         F      MOV      r0,r4
        0x000037ca:    f7ffffdc    ....    BL       SendChar ; 0x3786
        0x000037ce:    bd10        ..      POP      {r4,pc}
    fputc
        0x000037d0:    b530        0.      PUSH     {r4,r5,lr}
        0x000037d2:    4604        .F      MOV      r4,r0
        0x000037d4:    460d        .F      MOV      r5,r1
        0x000037d6:    4620         F      MOV      r0,r4
        0x000037d8:    f7ffffd5    ....    BL       SendChar ; 0x3786
        0x000037dc:    4620         F      MOV      r0,r4
        0x000037de:    bd30        0.      POP      {r4,r5,pc}
    fgetc
        0x000037e0:    b500        ..      PUSH     {lr}
        0x000037e2:    4602        .F      MOV      r2,r0
        0x000037e4:    f7ffffd5    ....    BL       GetChar ; 0x3792
        0x000037e8:    bd00        ..      POP      {pc}
    ferror
        0x000037ea:    4601        .F      MOV      r1,r0
        0x000037ec:    2000        .       MOVS     r0,#0
        0x000037ee:    43c0        .C      MVNS     r0,r0
        0x000037f0:    4770        pG      BX       lr
    send_string_to_uart1
        0x000037f2:    b510        ..      PUSH     {r4,lr}
        0x000037f4:    2200        ."      MOVS     r2,#0
        0x000037f6:    e00d        ..      B        0x3814 ; send_string_to_uart1 + 34
        0x000037f8:    7801        .x      LDRB     r1,[r0,#0]
        0x000037fa:    bf00        ..      NOP      
        0x000037fc:    bf00        ..      NOP      
        0x000037fe:    4b27        'K      LDR      r3,[pc,#156] ; [0x389c] = 0x40150000
        0x00003800:    699b        .i      LDR      r3,[r3,#0x18]
        0x00003802:    2401        .$      MOVS     r4,#1
        0x00003804:    02a4        ..      LSLS     r4,r4,#10
        0x00003806:    4023        #@      ANDS     r3,r3,r4
        0x00003808:    2b00        .+      CMP      r3,#0
        0x0000380a:    d1f8        ..      BNE      0x37fe ; send_string_to_uart1 + 12
        0x0000380c:    4b23        #K      LDR      r3,[pc,#140] ; [0x389c] = 0x40150000
        0x0000380e:    6019        .`      STR      r1,[r3,#0]
        0x00003810:    bf00        ..      NOP      
        0x00003812:    1c40        @.      ADDS     r0,r0,#1
        0x00003814:    7801        .x      LDRB     r1,[r0,#0]
        0x00003816:    2900        .)      CMP      r1,#0
        0x00003818:    d1ee        ..      BNE      0x37f8 ; send_string_to_uart1 + 6
        0x0000381a:    bd10        ..      POP      {r4,pc}
    $d
        0x0000381c:    20203072    r0      DCD    538980466
        0x00003820:    7830203d    = 0x    DCD    2016419901
        0x00003824:    000a7825    %x..    DCD    686117
        0x00003828:    20203172    r1      DCD    538980722
        0x0000382c:    7830203d    = 0x    DCD    2016419901
        0x00003830:    000a7825    %x..    DCD    686117
        0x00003834:    20203272    r2      DCD    538980978
        0x00003838:    7830203d    = 0x    DCD    2016419901
        0x0000383c:    000a7825    %x..    DCD    686117
        0x00003840:    20203372    r3      DCD    538981234
        0x00003844:    7830203d    = 0x    DCD    2016419901
        0x00003848:    000a7825    %x..    DCD    686117
        0x0000384c:    20323172    r12     DCD    540160370
        0x00003850:    7830203d    = 0x    DCD    2016419901
        0x00003854:    000a7825    %x..    DCD    686117
        0x00003858:    2020726c    lr      DCD    538997356
        0x0000385c:    7830203d    = 0x    DCD    2016419901
        0x00003860:    000a7825    %x..    DCD    686117
        0x00003864:    20206370    pc      DCD    538993520
        0x00003868:    7830203d    = 0x    DCD    2016419901
        0x0000386c:    000a7825    %x..    DCD    686117
        0x00003870:    20727370    psr     DCD    544371568
        0x00003874:    7830203d    = 0x    DCD    2016419901
        0x00003878:    000a7825    %x..    DCD    686117
        0x0000387c:    48206e49    In H    DCD    1210084937
        0x00003880:    20647261    ard     DCD    543453793
        0x00003884:    6c756146    Faul    DCD    1819631942
        0x00003888:    61482074    t Ha    DCD    1632116852
        0x0000388c:    656c646e    ndle    DCD    1701602414
        0x00003890:    00000a72    r...    DCD    2674
        0x00003894:    50000100    ...P    DCD    1342177536
        0x00003898:    40050000    ...@    DCD    1074069504
        0x0000389c:    40150000    ...@    DCD    1075118080
    $t
    .text
    ADC_Open
        0x000038a0:    b530        0.      PUSH     {r4,r5,lr}
        0x000038a2:    4604        .F      MOV      r4,r0
        0x000038a4:    4868        hH      LDR      r0,[pc,#416] ; [0x3a48] = 0x400e0040
        0x000038a6:    6880        .h      LDR      r0,[r0,#8]
        0x000038a8:    2501        .%      MOVS     r5,#1
        0x000038aa:    02ad        ..      LSLS     r5,r5,#10
        0x000038ac:    43a8        .C      BICS     r0,r0,r5
        0x000038ae:    4308        .C      ORRS     r0,r0,r1
        0x000038b0:    4d65        eM      LDR      r5,[pc,#404] ; [0x3a48] = 0x400e0040
        0x000038b2:    60a8        .`      STR      r0,[r5,#8]
        0x000038b4:    4628        (F      MOV      r0,r5
        0x000038b6:    6880        .h      LDR      r0,[r0,#8]
        0x000038b8:    250c        .%      MOVS     r5,#0xc
        0x000038ba:    43a8        .C      BICS     r0,r0,r5
        0x000038bc:    4310        .C      ORRS     r0,r0,r2
        0x000038be:    4d62        bM      LDR      r5,[pc,#392] ; [0x3a48] = 0x400e0040
        0x000038c0:    60a8        .`      STR      r0,[r5,#8]
        0x000038c2:    4628        (F      MOV      r0,r5
        0x000038c4:    6880        .h      LDR      r0,[r0,#8]
        0x000038c6:    2503        .%      MOVS     r5,#3
        0x000038c8:    042d        -.      LSLS     r5,r5,#16
        0x000038ca:    43a8        .C      BICS     r0,r0,r5
        0x000038cc:    00ad        ..      LSLS     r5,r5,#2
        0x000038ce:    4328        (C      ORRS     r0,r0,r5
        0x000038d0:    4d5d        ]M      LDR      r5,[pc,#372] ; [0x3a48] = 0x400e0040
        0x000038d2:    60a8        .`      STR      r0,[r5,#8]
        0x000038d4:    4628        (F      MOV      r0,r5
        0x000038d6:    60c3        .`      STR      r3,[r0,#0xc]
        0x000038d8:    bd30        0.      POP      {r4,r5,pc}
    ADC_Close
        0x000038da:    2105        .!      MOVS     r1,#5
        0x000038dc:    0709        ..      LSLS     r1,r1,#28
        0x000038de:    68c9        .h      LDR      r1,[r1,#0xc]
        0x000038e0:    2201        ."      MOVS     r2,#1
        0x000038e2:    0712        ..      LSLS     r2,r2,#28
        0x000038e4:    4311        .C      ORRS     r1,r1,r2
        0x000038e6:    2205        ."      MOVS     r2,#5
        0x000038e8:    0712        ..      LSLS     r2,r2,#28
        0x000038ea:    60d1        .`      STR      r1,[r2,#0xc]
        0x000038ec:    4611        .F      MOV      r1,r2
        0x000038ee:    68c9        .h      LDR      r1,[r1,#0xc]
        0x000038f0:    2201        ."      MOVS     r2,#1
        0x000038f2:    0712        ..      LSLS     r2,r2,#28
        0x000038f4:    4391        .C      BICS     r1,r1,r2
        0x000038f6:    2205        ."      MOVS     r2,#5
        0x000038f8:    0712        ..      LSLS     r2,r2,#28
        0x000038fa:    60d1        .`      STR      r1,[r2,#0xc]
        0x000038fc:    4770        pG      BX       lr
    ADC_EnableHWTrigger
        0x000038fe:    b530        0.      PUSH     {r4,r5,lr}
        0x00003900:    4603        .F      MOV      r3,r0
        0x00003902:    4851        QH      LDR      r0,[pc,#324] ; [0x3a48] = 0x400e0040
        0x00003904:    6880        .h      LDR      r0,[r0,#8]
        0x00003906:    24ff        .$      MOVS     r4,#0xff
        0x00003908:    34f1        .4      ADDS     r4,r4,#0xf1
        0x0000390a:    43a0        .C      BICS     r0,r0,r4
        0x0000390c:    4c4e        NL      LDR      r4,[pc,#312] ; [0x3a48] = 0x400e0040
        0x0000390e:    60a0        .`      STR      r0,[r4,#8]
        0x00003910:    4620         F      MOV      r0,r4
        0x00003912:    6884        .h      LDR      r4,[r0,#8]
        0x00003914:    4608        .F      MOV      r0,r1
        0x00003916:    4310        .C      ORRS     r0,r0,r2
        0x00003918:    25ff        .%      MOVS     r5,#0xff
        0x0000391a:    3501        .5      ADDS     r5,#1
        0x0000391c:    4328        (C      ORRS     r0,r0,r5
        0x0000391e:    4304        .C      ORRS     r4,r4,r0
        0x00003920:    4849        IH      LDR      r0,[pc,#292] ; [0x3a48] = 0x400e0040
        0x00003922:    6084        .`      STR      r4,[r0,#8]
        0x00003924:    bd30        0.      POP      {r4,r5,pc}
    ADC_DisableHWTrigger
        0x00003926:    4948        HI      LDR      r1,[pc,#288] ; [0x3a48] = 0x400e0040
        0x00003928:    6889        .h      LDR      r1,[r1,#8]
        0x0000392a:    22ff        ."      MOVS     r2,#0xff
        0x0000392c:    32f1        .2      ADDS     r2,r2,#0xf1
        0x0000392e:    4391        .C      BICS     r1,r1,r2
        0x00003930:    4a45        EJ      LDR      r2,[pc,#276] ; [0x3a48] = 0x400e0040
        0x00003932:    6091        .`      STR      r1,[r2,#8]
        0x00003934:    4770        pG      BX       lr
    ADC_EnableTimerTrigger
        0x00003936:    b510        ..      PUSH     {r4,lr}
        0x00003938:    4603        .F      MOV      r3,r0
        0x0000393a:    4843        CH      LDR      r0,[pc,#268] ; [0x3a48] = 0x400e0040
        0x0000393c:    6880        .h      LDR      r0,[r0,#8]
        0x0000393e:    4c43        CL      LDR      r4,[pc,#268] ; [0x3a4c] = 0xffcfff
        0x00003940:    4020         @      ANDS     r0,r0,r4
        0x00003942:    4c41        AL      LDR      r4,[pc,#260] ; [0x3a48] = 0x400e0040
        0x00003944:    60a0        .`      STR      r0,[r4,#8]
        0x00003946:    0610        ..      LSLS     r0,r2,#24
        0x00003948:    030c        ..      LSLS     r4,r1,#12
        0x0000394a:    4320         C      ORRS     r0,r0,r4
        0x0000394c:    2401        .$      MOVS     r4,#1
        0x0000394e:    03e4        ..      LSLS     r4,r4,#15
        0x00003950:    4320         C      ORRS     r0,r0,r4
        0x00003952:    4c3d        =L      LDR      r4,[pc,#244] ; [0x3a48] = 0x400e0040
        0x00003954:    68a4        .h      LDR      r4,[r4,#8]
        0x00003956:    4320         C      ORRS     r0,r0,r4
        0x00003958:    4c3b        ;L      LDR      r4,[pc,#236] ; [0x3a48] = 0x400e0040
        0x0000395a:    60a0        .`      STR      r0,[r4,#8]
        0x0000395c:    bd10        ..      POP      {r4,pc}
    ADC_DisableTimerTrigger
        0x0000395e:    493a        :I      LDR      r1,[pc,#232] ; [0x3a48] = 0x400e0040
        0x00003960:    6889        .h      LDR      r1,[r1,#8]
        0x00003962:    2201        ."      MOVS     r2,#1
        0x00003964:    03d2        ..      LSLS     r2,r2,#15
        0x00003966:    4391        .C      BICS     r1,r1,r2
        0x00003968:    4a37        7J      LDR      r2,[pc,#220] ; [0x3a48] = 0x400e0040
        0x0000396a:    6091        .`      STR      r1,[r2,#8]
        0x0000396c:    4770        pG      BX       lr
    ADC_SetExtraSampleTime
        0x0000396e:    b530        0.      PUSH     {r4,r5,lr}
        0x00003970:    4603        .F      MOV      r3,r0
        0x00003972:    2908        .)      CMP      r1,#8
        0x00003974:    d20c        ..      BCS      0x3990 ; ADC_SetExtraSampleTime + 34
        0x00003976:    4834        4H      LDR      r0,[pc,#208] ; [0x3a48] = 0x400e0040
        0x00003978:    6b00        .k      LDR      r0,[r0,#0x30]
        0x0000397a:    008d        ..      LSLS     r5,r1,#2
        0x0000397c:    240f        .$      MOVS     r4,#0xf
        0x0000397e:    40ac        .@      LSLS     r4,r4,r5
        0x00003980:    43a0        .C      BICS     r0,r0,r4
        0x00003982:    008d        ..      LSLS     r5,r1,#2
        0x00003984:    4614        .F      MOV      r4,r2
        0x00003986:    40ac        .@      LSLS     r4,r4,r5
        0x00003988:    4320         C      ORRS     r0,r0,r4
        0x0000398a:    4c2f        /L      LDR      r4,[pc,#188] ; [0x3a48] = 0x400e0040
        0x0000398c:    6320         c      STR      r0,[r4,#0x30]
        0x0000398e:    e01b        ..      B        0x39c8 ; ADC_SetExtraSampleTime + 90
        0x00003990:    290c        .)      CMP      r1,#0xc
        0x00003992:    d210        ..      BCS      0x39b6 ; ADC_SetExtraSampleTime + 72
        0x00003994:    482c        ,H      LDR      r0,[pc,#176] ; [0x3a48] = 0x400e0040
        0x00003996:    6b40        @k      LDR      r0,[r0,#0x34]
        0x00003998:    460c        .F      MOV      r4,r1
        0x0000399a:    3c08        .<      SUBS     r4,r4,#8
        0x0000399c:    00a5        ..      LSLS     r5,r4,#2
        0x0000399e:    240f        .$      MOVS     r4,#0xf
        0x000039a0:    40ac        .@      LSLS     r4,r4,r5
        0x000039a2:    43a0        .C      BICS     r0,r0,r4
        0x000039a4:    460c        .F      MOV      r4,r1
        0x000039a6:    3c08        .<      SUBS     r4,r4,#8
        0x000039a8:    00a5        ..      LSLS     r5,r4,#2
        0x000039aa:    4614        .F      MOV      r4,r2
        0x000039ac:    40ac        .@      LSLS     r4,r4,r5
        0x000039ae:    4320         C      ORRS     r0,r0,r4
        0x000039b0:    4c25        %L      LDR      r4,[pc,#148] ; [0x3a48] = 0x400e0040
        0x000039b2:    6360        `c      STR      r0,[r4,#0x34]
        0x000039b4:    e008        ..      B        0x39c8 ; ADC_SetExtraSampleTime + 90
        0x000039b6:    4824        $H      LDR      r0,[pc,#144] ; [0x3a48] = 0x400e0040
        0x000039b8:    6b40        @k      LDR      r0,[r0,#0x34]
        0x000039ba:    240f        .$      MOVS     r4,#0xf
        0x000039bc:    0424        $.      LSLS     r4,r4,#16
        0x000039be:    43a0        .C      BICS     r0,r0,r4
        0x000039c0:    0414        ..      LSLS     r4,r2,#16
        0x000039c2:    4320         C      ORRS     r0,r0,r4
        0x000039c4:    4c20         L      LDR      r4,[pc,#128] ; [0x3a48] = 0x400e0040
        0x000039c6:    6360        `c      STR      r0,[r4,#0x34]
        0x000039c8:    bd30        0.      POP      {r4,r5,pc}
    ADC_EnableInt
        0x000039ca:    07ca        ..      LSLS     r2,r1,#31
        0x000039cc:    0fd2        ..      LSRS     r2,r2,#31
        0x000039ce:    2a00        .*      CMP      r2,#0
        0x000039d0:    d005        ..      BEQ      0x39de ; ADC_EnableInt + 20
        0x000039d2:    4a1d        .J      LDR      r2,[pc,#116] ; [0x3a48] = 0x400e0040
        0x000039d4:    6892        .h      LDR      r2,[r2,#8]
        0x000039d6:    2302        .#      MOVS     r3,#2
        0x000039d8:    431a        .C      ORRS     r2,r2,r3
        0x000039da:    4b1b        .K      LDR      r3,[pc,#108] ; [0x3a48] = 0x400e0040
        0x000039dc:    609a        .`      STR      r2,[r3,#8]
        0x000039de:    2202        ."      MOVS     r2,#2
        0x000039e0:    400a        .@      ANDS     r2,r2,r1
        0x000039e2:    2a00        .*      CMP      r2,#0
        0x000039e4:    d005        ..      BEQ      0x39f2 ; ADC_EnableInt + 40
        0x000039e6:    4a18        .J      LDR      r2,[pc,#96] ; [0x3a48] = 0x400e0040
        0x000039e8:    6912        .i      LDR      r2,[r2,#0x10]
        0x000039ea:    2302        .#      MOVS     r3,#2
        0x000039ec:    431a        .C      ORRS     r2,r2,r3
        0x000039ee:    4b16        .K      LDR      r3,[pc,#88] ; [0x3a48] = 0x400e0040
        0x000039f0:    611a        .a      STR      r2,[r3,#0x10]
        0x000039f2:    2204        ."      MOVS     r2,#4
        0x000039f4:    400a        .@      ANDS     r2,r2,r1
        0x000039f6:    2a00        .*      CMP      r2,#0
        0x000039f8:    d005        ..      BEQ      0x3a06 ; ADC_EnableInt + 60
        0x000039fa:    4a13        .J      LDR      r2,[pc,#76] ; [0x3a48] = 0x400e0040
        0x000039fc:    6952        Ri      LDR      r2,[r2,#0x14]
        0x000039fe:    2302        .#      MOVS     r3,#2
        0x00003a00:    431a        .C      ORRS     r2,r2,r3
        0x00003a02:    4b11        .K      LDR      r3,[pc,#68] ; [0x3a48] = 0x400e0040
        0x00003a04:    615a        Za      STR      r2,[r3,#0x14]
        0x00003a06:    4770        pG      BX       lr
    ADC_DisableInt
        0x00003a08:    07ca        ..      LSLS     r2,r1,#31
        0x00003a0a:    0fd2        ..      LSRS     r2,r2,#31
        0x00003a0c:    2a00        .*      CMP      r2,#0
        0x00003a0e:    d005        ..      BEQ      0x3a1c ; ADC_DisableInt + 20
        0x00003a10:    4a0d        .J      LDR      r2,[pc,#52] ; [0x3a48] = 0x400e0040
        0x00003a12:    6892        .h      LDR      r2,[r2,#8]
        0x00003a14:    2302        .#      MOVS     r3,#2
        0x00003a16:    439a        .C      BICS     r2,r2,r3
        0x00003a18:    4b0b        .K      LDR      r3,[pc,#44] ; [0x3a48] = 0x400e0040
        0x00003a1a:    609a        .`      STR      r2,[r3,#8]
        0x00003a1c:    2202        ."      MOVS     r2,#2
        0x00003a1e:    400a        .@      ANDS     r2,r2,r1
        0x00003a20:    2a00        .*      CMP      r2,#0
        0x00003a22:    d005        ..      BEQ      0x3a30 ; ADC_DisableInt + 40
        0x00003a24:    4a08        .J      LDR      r2,[pc,#32] ; [0x3a48] = 0x400e0040
        0x00003a26:    6912        .i      LDR      r2,[r2,#0x10]
        0x00003a28:    2302        .#      MOVS     r3,#2
        0x00003a2a:    439a        .C      BICS     r2,r2,r3
        0x00003a2c:    4b06        .K      LDR      r3,[pc,#24] ; [0x3a48] = 0x400e0040
        0x00003a2e:    611a        .a      STR      r2,[r3,#0x10]
        0x00003a30:    2204        ."      MOVS     r2,#4
        0x00003a32:    400a        .@      ANDS     r2,r2,r1
        0x00003a34:    2a00        .*      CMP      r2,#0
        0x00003a36:    d005        ..      BEQ      0x3a44 ; ADC_DisableInt + 60
        0x00003a38:    4a03        .J      LDR      r2,[pc,#12] ; [0x3a48] = 0x400e0040
        0x00003a3a:    6952        Ri      LDR      r2,[r2,#0x14]
        0x00003a3c:    2302        .#      MOVS     r3,#2
        0x00003a3e:    439a        .C      BICS     r2,r2,r3
        0x00003a40:    4b01        .K      LDR      r3,[pc,#4] ; [0x3a48] = 0x400e0040
        0x00003a42:    615a        Za      STR      r2,[r3,#0x14]
        0x00003a44:    4770        pG      BX       lr
    $d
        0x00003a46:    0000        ..      DCW    0
        0x00003a48:    400e0040    @..@    DCD    1074659392
        0x00003a4c:    00ffcfff    ....    DCD    16764927
    $t
    .text
    I2C_Open
        0x00003a50:    b5f8        ..      PUSH     {r3-r7,lr}
        0x00003a52:    4604        .F      MOV      r4,r0
        0x00003a54:    460d        .F      MOV      r5,r1
        0x00003a56:    00a9        ..      LSLS     r1,r5,#2
        0x00003a58:    4a70        pJ      LDR      r2,[pc,#448] ; [0x3c1c] = 0x20000000
        0x00003a5a:    6812        .h      LDR      r2,[r2,#0]
        0x00003a5c:    230a        .#      MOVS     r3,#0xa
        0x00003a5e:    435a        ZC      MULS     r2,r3,r2
        0x00003a60:    4610        .F      MOV      r0,r2
        0x00003a62:    f000f8f5    ....    BL       __aeabi_uidiv ; 0x3c50
        0x00003a66:    1d47        G.      ADDS     r7,r0,#5
        0x00003a68:    210a        .!      MOVS     r1,#0xa
        0x00003a6a:    4638        8F      MOV      r0,r7
        0x00003a6c:    f000f8f0    ....    BL       __aeabi_uidiv ; 0x3c50
        0x00003a70:    1e46        F.      SUBS     r6,r0,#1
        0x00003a72:    60e6        .`      STR      r6,[r4,#0xc]
        0x00003a74:    6820         h      LDR      r0,[r4,#0]
        0x00003a76:    2101        .!      MOVS     r1,#1
        0x00003a78:    4308        .C      ORRS     r0,r0,r1
        0x00003a7a:    6020         `      STR      r0,[r4,#0]
        0x00003a7c:    1c70        p.      ADDS     r0,r6,#1
        0x00003a7e:    0081        ..      LSLS     r1,r0,#2
        0x00003a80:    4866        fH      LDR      r0,[pc,#408] ; [0x3c1c] = 0x20000000
        0x00003a82:    6800        .h      LDR      r0,[r0,#0]
        0x00003a84:    f000f8e4    ....    BL       __aeabi_uidiv ; 0x3c50
        0x00003a88:    bdf8        ..      POP      {r3-r7,pc}
    I2C_Close
        0x00003a8a:    4965        eI      LDR      r1,[pc,#404] ; [0x3c20] = 0x40020000
        0x00003a8c:    4288        .B      CMP      r0,r1
        0x00003a8e:    d10f        ..      BNE      0x3ab0 ; I2C_Close + 38
        0x00003a90:    2105        .!      MOVS     r1,#5
        0x00003a92:    0709        ..      LSLS     r1,r1,#28
        0x00003a94:    68c9        .h      LDR      r1,[r1,#0xc]
        0x00003a96:    1582        ..      ASRS     r2,r0,#22
        0x00003a98:    4311        .C      ORRS     r1,r1,r2
        0x00003a9a:    2205        ."      MOVS     r2,#5
        0x00003a9c:    0712        ..      LSLS     r2,r2,#28
        0x00003a9e:    60d1        .`      STR      r1,[r2,#0xc]
        0x00003aa0:    4611        .F      MOV      r1,r2
        0x00003aa2:    68c9        .h      LDR      r1,[r1,#0xc]
        0x00003aa4:    1582        ..      ASRS     r2,r0,#22
        0x00003aa6:    4391        .C      BICS     r1,r1,r2
        0x00003aa8:    2205        ."      MOVS     r2,#5
        0x00003aaa:    0712        ..      LSLS     r2,r2,#28
        0x00003aac:    60d1        .`      STR      r1,[r2,#0xc]
        0x00003aae:    e010        ..      B        0x3ad2 ; I2C_Close + 72
        0x00003ab0:    2105        .!      MOVS     r1,#5
        0x00003ab2:    0709        ..      LSLS     r1,r1,#28
        0x00003ab4:    68c9        .h      LDR      r1,[r1,#0xc]
        0x00003ab6:    2201        ."      MOVS     r2,#1
        0x00003ab8:    0252        R.      LSLS     r2,r2,#9
        0x00003aba:    4311        .C      ORRS     r1,r1,r2
        0x00003abc:    2205        ."      MOVS     r2,#5
        0x00003abe:    0712        ..      LSLS     r2,r2,#28
        0x00003ac0:    60d1        .`      STR      r1,[r2,#0xc]
        0x00003ac2:    4611        .F      MOV      r1,r2
        0x00003ac4:    68c9        .h      LDR      r1,[r1,#0xc]
        0x00003ac6:    2201        ."      MOVS     r2,#1
        0x00003ac8:    0252        R.      LSLS     r2,r2,#9
        0x00003aca:    4391        .C      BICS     r1,r1,r2
        0x00003acc:    2205        ."      MOVS     r2,#5
        0x00003ace:    0712        ..      LSLS     r2,r2,#28
        0x00003ad0:    60d1        .`      STR      r1,[r2,#0xc]
        0x00003ad2:    6801        .h      LDR      r1,[r0,#0]
        0x00003ad4:    0849        I.      LSRS     r1,r1,#1
        0x00003ad6:    0049        I.      LSLS     r1,r1,#1
        0x00003ad8:    6001        .`      STR      r1,[r0,#0]
        0x00003ada:    4770        pG      BX       lr
    I2C_ClearTimeoutFlag
        0x00003adc:    6841        Ah      LDR      r1,[r0,#4]
        0x00003ade:    2202        ."      MOVS     r2,#2
        0x00003ae0:    4311        .C      ORRS     r1,r1,r2
        0x00003ae2:    6041        A`      STR      r1,[r0,#4]
        0x00003ae4:    4770        pG      BX       lr
    I2C_Trigger
        0x00003ae6:    b5f0        ..      PUSH     {r4-r7,lr}
        0x00003ae8:    4604        .F      MOV      r4,r0
        0x00003aea:    2000        .       MOVS     r0,#0
        0x00003aec:    6826        &h      LDR      r6,[r4,#0]
        0x00003aee:    270e        .'      MOVS     r7,#0xe
        0x00003af0:    43be        .C      BICS     r6,r6,r7
        0x00003af2:    4635        5F      MOV      r5,r6
        0x00003af4:    2900        .)      CMP      r1,#0
        0x00003af6:    d001        ..      BEQ      0x3afc ; I2C_Trigger + 22
        0x00003af8:    2608        .&      MOVS     r6,#8
        0x00003afa:    4330        0C      ORRS     r0,r0,r6
        0x00003afc:    2a00        .*      CMP      r2,#0
        0x00003afe:    d001        ..      BEQ      0x3b04 ; I2C_Trigger + 30
        0x00003b00:    2604        .&      MOVS     r6,#4
        0x00003b02:    4330        0C      ORRS     r0,r0,r6
        0x00003b04:    2b00        .+      CMP      r3,#0
        0x00003b06:    d001        ..      BEQ      0x3b0c ; I2C_Trigger + 38
        0x00003b08:    2610        .&      MOVS     r6,#0x10
        0x00003b0a:    4330        0C      ORRS     r0,r0,r6
        0x00003b0c:    9e05        ..      LDR      r6,[sp,#0x14]
        0x00003b0e:    2e00        ..      CMP      r6,#0
        0x00003b10:    d001        ..      BEQ      0x3b16 ; I2C_Trigger + 48
        0x00003b12:    2602        .&      MOVS     r6,#2
        0x00003b14:    4330        0C      ORRS     r0,r0,r6
        0x00003b16:    462e        .F      MOV      r6,r5
        0x00003b18:    4306        .C      ORRS     r6,r6,r0
        0x00003b1a:    6026        &`      STR      r6,[r4,#0]
        0x00003b1c:    bdf0        ..      POP      {r4-r7,pc}
    I2C_DisableInt
        0x00003b1e:    6801        .h      LDR      r1,[r0,#0]
        0x00003b20:    2280        ."      MOVS     r2,#0x80
        0x00003b22:    4391        .C      BICS     r1,r1,r2
        0x00003b24:    6001        .`      STR      r1,[r0,#0]
        0x00003b26:    4770        pG      BX       lr
    I2C_EnableInt
        0x00003b28:    6801        .h      LDR      r1,[r0,#0]
        0x00003b2a:    2280        ."      MOVS     r2,#0x80
        0x00003b2c:    4311        .C      ORRS     r1,r1,r2
        0x00003b2e:    6001        .`      STR      r1,[r0,#0]
        0x00003b30:    4770        pG      BX       lr
    I2C_GetBusClockFreq
        0x00003b32:    b570        p.      PUSH     {r4-r6,lr}
        0x00003b34:    4604        .F      MOV      r4,r0
        0x00003b36:    68e5        .h      LDR      r5,[r4,#0xc]
        0x00003b38:    1c68        h.      ADDS     r0,r5,#1
        0x00003b3a:    0081        ..      LSLS     r1,r0,#2
        0x00003b3c:    4837        7H      LDR      r0,[pc,#220] ; [0x3c1c] = 0x20000000
        0x00003b3e:    6800        .h      LDR      r0,[r0,#0]
        0x00003b40:    f000f886    ....    BL       __aeabi_uidiv ; 0x3c50
        0x00003b44:    bd70        p.      POP      {r4-r6,pc}
    I2C_SetBusClockFreq
        0x00003b46:    b5f8        ..      PUSH     {r3-r7,lr}
        0x00003b48:    4604        .F      MOV      r4,r0
        0x00003b4a:    460d        .F      MOV      r5,r1
        0x00003b4c:    00a9        ..      LSLS     r1,r5,#2
        0x00003b4e:    4a33        3J      LDR      r2,[pc,#204] ; [0x3c1c] = 0x20000000
        0x00003b50:    6812        .h      LDR      r2,[r2,#0]
        0x00003b52:    230a        .#      MOVS     r3,#0xa
        0x00003b54:    435a        ZC      MULS     r2,r3,r2
        0x00003b56:    4610        .F      MOV      r0,r2
        0x00003b58:    f000f87a    ..z.    BL       __aeabi_uidiv ; 0x3c50
        0x00003b5c:    1d47        G.      ADDS     r7,r0,#5
        0x00003b5e:    210a        .!      MOVS     r1,#0xa
        0x00003b60:    4638        8F      MOV      r0,r7
        0x00003b62:    f000f875    ..u.    BL       __aeabi_uidiv ; 0x3c50
        0x00003b66:    1e46        F.      SUBS     r6,r0,#1
        0x00003b68:    60e6        .`      STR      r6,[r4,#0xc]
        0x00003b6a:    1c70        p.      ADDS     r0,r6,#1
        0x00003b6c:    0081        ..      LSLS     r1,r0,#2
        0x00003b6e:    482b        +H      LDR      r0,[pc,#172] ; [0x3c1c] = 0x20000000
        0x00003b70:    6800        .h      LDR      r0,[r0,#0]
        0x00003b72:    f000f86d    ..m.    BL       __aeabi_uidiv ; 0x3c50
        0x00003b76:    bdf8        ..      POP      {r3-r7,pc}
    I2C_GetIntFlag
        0x00003b78:    4601        .F      MOV      r1,r0
        0x00003b7a:    6848        Hh      LDR      r0,[r1,#4]
        0x00003b7c:    07c0        ..      LSLS     r0,r0,#31
        0x00003b7e:    0fc0        ..      LSRS     r0,r0,#31
        0x00003b80:    2201        ."      MOVS     r2,#1
        0x00003b82:    4050        P@      EORS     r0,r0,r2
        0x00003b84:    4050        P@      EORS     r0,r0,r2
        0x00003b86:    4770        pG      BX       lr
    I2C_ClearIntFlag
        0x00003b88:    6841        Ah      LDR      r1,[r0,#4]
        0x00003b8a:    2201        ."      MOVS     r2,#1
        0x00003b8c:    4311        .C      ORRS     r1,r1,r2
        0x00003b8e:    6041        A`      STR      r1,[r0,#4]
        0x00003b90:    4770        pG      BX       lr
    I2C_GetStatus
        0x00003b92:    4601        .F      MOV      r1,r0
        0x00003b94:    6888        .h      LDR      r0,[r1,#8]
        0x00003b96:    4770        pG      BX       lr
    I2C_GetData
        0x00003b98:    4601        .F      MOV      r1,r0
        0x00003b9a:    6948        Hi      LDR      r0,[r1,#0x14]
        0x00003b9c:    4770        pG      BX       lr
    I2C_SetData
        0x00003b9e:    6141        Aa      STR      r1,[r0,#0x14]
        0x00003ba0:    4770        pG      BX       lr
    I2C_SetSlaveAddr
        0x00003ba2:    b510        ..      PUSH     {r4,lr}
        0x00003ba4:    2900        .)      CMP      r1,#0
        0x00003ba6:    d002        ..      BEQ      0x3bae ; I2C_SetSlaveAddr + 12
        0x00003ba8:    2901        .)      CMP      r1,#1
        0x00003baa:    d108        ..      BNE      0x3bbe ; I2C_SetSlaveAddr + 28
        0x00003bac:    e003        ..      B        0x3bb6 ; I2C_SetSlaveAddr + 20
        0x00003bae:    0054        T.      LSLS     r4,r2,#1
        0x00003bb0:    431c        .C      ORRS     r4,r4,r3
        0x00003bb2:    6184        .a      STR      r4,[r0,#0x18]
        0x00003bb4:    e003        ..      B        0x3bbe ; I2C_SetSlaveAddr + 28
        0x00003bb6:    0054        T.      LSLS     r4,r2,#1
        0x00003bb8:    431c        .C      ORRS     r4,r4,r3
        0x00003bba:    61c4        .a      STR      r4,[r0,#0x1c]
        0x00003bbc:    bf00        ..      NOP      
        0x00003bbe:    bf00        ..      NOP      
        0x00003bc0:    bd10        ..      POP      {r4,pc}
    I2C_SetSlaveAddrMask
        0x00003bc2:    2900        .)      CMP      r1,#0
        0x00003bc4:    d002        ..      BEQ      0x3bcc ; I2C_SetSlaveAddrMask + 10
        0x00003bc6:    2901        .)      CMP      r1,#1
        0x00003bc8:    d106        ..      BNE      0x3bd8 ; I2C_SetSlaveAddrMask + 22
        0x00003bca:    e002        ..      B        0x3bd2 ; I2C_SetSlaveAddrMask + 16
        0x00003bcc:    0053        S.      LSLS     r3,r2,#1
        0x00003bce:    6283        .b      STR      r3,[r0,#0x28]
        0x00003bd0:    e002        ..      B        0x3bd8 ; I2C_SetSlaveAddrMask + 22
        0x00003bd2:    0053        S.      LSLS     r3,r2,#1
        0x00003bd4:    62c3        .b      STR      r3,[r0,#0x2c]
        0x00003bd6:    bf00        ..      NOP      
        0x00003bd8:    bf00        ..      NOP      
        0x00003bda:    4770        pG      BX       lr
    I2C_EnableTimeout
        0x00003bdc:    2900        .)      CMP      r1,#0
        0x00003bde:    d004        ..      BEQ      0x3bea ; I2C_EnableTimeout + 14
        0x00003be0:    6902        .i      LDR      r2,[r0,#0x10]
        0x00003be2:    2302        .#      MOVS     r3,#2
        0x00003be4:    431a        .C      ORRS     r2,r2,r3
        0x00003be6:    6102        .a      STR      r2,[r0,#0x10]
        0x00003be8:    e003        ..      B        0x3bf2 ; I2C_EnableTimeout + 22
        0x00003bea:    6902        .i      LDR      r2,[r0,#0x10]
        0x00003bec:    2302        .#      MOVS     r3,#2
        0x00003bee:    439a        .C      BICS     r2,r2,r3
        0x00003bf0:    6102        .a      STR      r2,[r0,#0x10]
        0x00003bf2:    6902        .i      LDR      r2,[r0,#0x10]
        0x00003bf4:    2301        .#      MOVS     r3,#1
        0x00003bf6:    431a        .C      ORRS     r2,r2,r3
        0x00003bf8:    6102        .a      STR      r2,[r0,#0x10]
        0x00003bfa:    4770        pG      BX       lr
    I2C_DisableTimeout
        0x00003bfc:    6901        .i      LDR      r1,[r0,#0x10]
        0x00003bfe:    0849        I.      LSRS     r1,r1,#1
        0x00003c00:    0049        I.      LSLS     r1,r1,#1
        0x00003c02:    6101        .a      STR      r1,[r0,#0x10]
        0x00003c04:    4770        pG      BX       lr
    I2C_EnableWakeup
        0x00003c06:    6c01        .l      LDR      r1,[r0,#0x40]
        0x00003c08:    2201        ."      MOVS     r2,#1
        0x00003c0a:    4311        .C      ORRS     r1,r1,r2
        0x00003c0c:    6401        .d      STR      r1,[r0,#0x40]
        0x00003c0e:    4770        pG      BX       lr
    I2C_DisableWakeup
        0x00003c10:    6c01        .l      LDR      r1,[r0,#0x40]
        0x00003c12:    0849        I.      LSRS     r1,r1,#1
        0x00003c14:    0049        I.      LSLS     r1,r1,#1
        0x00003c16:    6401        .d      STR      r1,[r0,#0x40]
        0x00003c18:    4770        pG      BX       lr
    $d
        0x00003c1a:    0000        ..      DCW    0
        0x00003c1c:    20000000    ...     DCD    536870912
        0x00003c20:    40020000    ...@    DCD    1073872896
    $t
    .text
    os_idle_demon
        0x00003c24:    bf00        ..      NOP      
        0x00003c26:    e7fe        ..      B        0x3c26 ; os_idle_demon + 2
    os_error
        0x00003c28:    4604        .F      MOV      r4,r0
        0x00003c2a:    2c01        .,      CMP      r4,#1
        0x00003c2c:    d006        ..      BEQ      0x3c3c ; os_error + 20
        0x00003c2e:    2c02        .,      CMP      r4,#2
        0x00003c30:    d005        ..      BEQ      0x3c3e ; os_error + 22
        0x00003c32:    2c03        .,      CMP      r4,#3
        0x00003c34:    d004        ..      BEQ      0x3c40 ; os_error + 24
        0x00003c36:    2c04        .,      CMP      r4,#4
        0x00003c38:    d104        ..      BNE      0x3c44 ; os_error + 28
        0x00003c3a:    e002        ..      B        0x3c42 ; os_error + 26
        0x00003c3c:    e003        ..      B        0x3c46 ; os_error + 30
        0x00003c3e:    e002        ..      B        0x3c46 ; os_error + 30
        0x00003c40:    e001        ..      B        0x3c46 ; os_error + 30
        0x00003c42:    e000        ..      B        0x3c46 ; os_error + 30
        0x00003c44:    bf00        ..      NOP      
        0x00003c46:    bf00        ..      NOP      
        0x00003c48:    f7fffd77    ..w.    BL       Hard_Fault_Handler ; 0x373a
        0x00003c4c:    bf00        ..      NOP      
        0x00003c4e:    e7fe        ..      B        0x3c4e ; os_error + 38
    .text
    __aeabi_uidiv
    __aeabi_uidivmod
        0x00003c50:    b530        0.      PUSH     {r4,r5,lr}
        0x00003c52:    460b        .F      MOV      r3,r1
        0x00003c54:    4601        .F      MOV      r1,r0
        0x00003c56:    2000        .       MOVS     r0,#0
        0x00003c58:    2220         "      MOVS     r2,#0x20
        0x00003c5a:    2401        .$      MOVS     r4,#1
        0x00003c5c:    e009        ..      B        0x3c72 ; __aeabi_uidiv + 34
        0x00003c5e:    460d        .F      MOV      r5,r1
        0x00003c60:    40d5        .@      LSRS     r5,r5,r2
        0x00003c62:    429d        .B      CMP      r5,r3
        0x00003c64:    d305        ..      BCC      0x3c72 ; __aeabi_uidiv + 34
        0x00003c66:    461d        .F      MOV      r5,r3
        0x00003c68:    4095        .@      LSLS     r5,r5,r2
        0x00003c6a:    1b49        I.      SUBS     r1,r1,r5
        0x00003c6c:    4625        %F      MOV      r5,r4
        0x00003c6e:    4095        .@      LSLS     r5,r5,r2
        0x00003c70:    1940        @.      ADDS     r0,r0,r5
        0x00003c72:    4615        .F      MOV      r5,r2
        0x00003c74:    1e52        R.      SUBS     r2,r2,#1
        0x00003c76:    2d00        .-      CMP      r5,#0
        0x00003c78:    dcf1        ..      BGT      0x3c5e ; __aeabi_uidiv + 14
        0x00003c7a:    bd30        0.      POP      {r4,r5,pc}
    .text
    __aeabi_idiv
    __aeabi_idivmod
        0x00003c7c:    b570        p.      PUSH     {r4-r6,lr}
        0x00003c7e:    2400        .$      MOVS     r4,#0
        0x00003c80:    4625        %F      MOV      r5,r4
        0x00003c82:    2800        .(      CMP      r0,#0
        0x00003c84:    da01        ..      BGE      0x3c8a ; __aeabi_idiv + 14
        0x00003c86:    2401        .$      MOVS     r4,#1
        0x00003c88:    4240        @B      RSBS     r0,r0,#0
        0x00003c8a:    2900        .)      CMP      r1,#0
        0x00003c8c:    da01        ..      BGE      0x3c92 ; __aeabi_idiv + 22
        0x00003c8e:    2501        .%      MOVS     r5,#1
        0x00003c90:    4249        IB      RSBS     r1,r1,#0
        0x00003c92:    f7ffffdd    ....    BL       __aeabi_uidiv ; 0x3c50
        0x00003c96:    42ac        .B      CMP      r4,r5
        0x00003c98:    d000        ..      BEQ      0x3c9c ; __aeabi_idiv + 32
        0x00003c9a:    4240        @B      RSBS     r0,r0,#0
        0x00003c9c:    2c00        .,      CMP      r4,#0
        0x00003c9e:    d000        ..      BEQ      0x3ca2 ; __aeabi_idiv + 38
        0x00003ca0:    4249        IB      RSBS     r1,r1,#0
        0x00003ca2:    bd70        p.      POP      {r4-r6,pc}
    .text
    __aeabi_uldivmod
        0x00003ca4:    b5f0        ..      PUSH     {r4-r7,lr}
        0x00003ca6:    b41f        ..      PUSH     {r0-r4}
        0x00003ca8:    4606        .F      MOV      r6,r0
        0x00003caa:    2000        .       MOVS     r0,#0
        0x00003cac:    b082        ..      SUB      sp,sp,#8
        0x00003cae:    4605        .F      MOV      r5,r0
        0x00003cb0:    2440        @$      MOVS     r4,#0x40
        0x00003cb2:    9101        ..      STR      r1,[sp,#4]
        0x00003cb4:    9000        ..      STR      r0,[sp,#0]
        0x00003cb6:    e01b        ..      B        0x3cf0 ; __aeabi_uldivmod + 76
        0x00003cb8:    9901        ..      LDR      r1,[sp,#4]
        0x00003cba:    4622        "F      MOV      r2,r4
        0x00003cbc:    460f        .F      MOV      r7,r1
        0x00003cbe:    4630        0F      MOV      r0,r6
        0x00003cc0:    f000f9b6    ....    BL       __aeabi_llsr ; 0x4030
        0x00003cc4:    9a04        ..      LDR      r2,[sp,#0x10]
        0x00003cc6:    9b05        ..      LDR      r3,[sp,#0x14]
        0x00003cc8:    1a80        ..      SUBS     r0,r0,r2
        0x00003cca:    4199        .A      SBCS     r1,r1,r3
        0x00003ccc:    d310        ..      BCC      0x3cf0 ; __aeabi_uldivmod + 76
        0x00003cce:    4610        .F      MOV      r0,r2
        0x00003cd0:    4619        .F      MOV      r1,r3
        0x00003cd2:    4622        "F      MOV      r2,r4
        0x00003cd4:    f000f99c    ....    BL       __aeabi_llsl ; 0x4010
        0x00003cd8:    1a36        6.      SUBS     r6,r6,r0
        0x00003cda:    418f        .A      SBCS     r7,r7,r1
        0x00003cdc:    9701        ..      STR      r7,[sp,#4]
        0x00003cde:    4622        "F      MOV      r2,r4
        0x00003ce0:    2001        .       MOVS     r0,#1
        0x00003ce2:    2100        .!      MOVS     r1,#0
        0x00003ce4:    9f00        ..      LDR      r7,[sp,#0]
        0x00003ce6:    f000f993    ....    BL       __aeabi_llsl ; 0x4010
        0x00003cea:    1838        8.      ADDS     r0,r7,r0
        0x00003cec:    414d        MA      ADCS     r5,r5,r1
        0x00003cee:    9000        ..      STR      r0,[sp,#0]
        0x00003cf0:    4620         F      MOV      r0,r4
        0x00003cf2:    1e64        d.      SUBS     r4,r4,#1
        0x00003cf4:    2800        .(      CMP      r0,#0
        0x00003cf6:    dcdf        ..      BGT      0x3cb8 ; __aeabi_uldivmod + 20
        0x00003cf8:    9b01        ..      LDR      r3,[sp,#4]
        0x00003cfa:    9800        ..      LDR      r0,[sp,#0]
        0x00003cfc:    4629        )F      MOV      r1,r5
        0x00003cfe:    4632        2F      MOV      r2,r6
        0x00003d00:    b007        ..      ADD      sp,sp,#0x1c
        0x00003d02:    bdf0        ..      POP      {r4-r7,pc}
    .text
    __aeabi_memset
    __aeabi_memset4
    __aeabi_memset8
        0x00003d04:    b2d2        ..      UXTB     r2,r2
        0x00003d06:    e001        ..      B        0x3d0c ; __aeabi_memset + 8
        0x00003d08:    7002        .p      STRB     r2,[r0,#0]
        0x00003d0a:    1c40        @.      ADDS     r0,r0,#1
        0x00003d0c:    1e49        I.      SUBS     r1,r1,#1
        0x00003d0e:    d2fb        ..      BCS      0x3d08 ; __aeabi_memset + 4
        0x00003d10:    4770        pG      BX       lr
    __aeabi_memclr
    __aeabi_memclr4
    __aeabi_memclr8
        0x00003d12:    2200        ."      MOVS     r2,#0
        0x00003d14:    e7f6        ..      B        __aeabi_memset ; 0x3d04
    _memset$wrapper
        0x00003d16:    b510        ..      PUSH     {r4,lr}
        0x00003d18:    4613        .F      MOV      r3,r2
        0x00003d1a:    460a        .F      MOV      r2,r1
        0x00003d1c:    4604        .F      MOV      r4,r0
        0x00003d1e:    4619        .F      MOV      r1,r3
        0x00003d20:    f7fffff0    ....    BL       __aeabi_memset ; 0x3d04
        0x00003d24:    4620         F      MOV      r0,r4
        0x00003d26:    bd10        ..      POP      {r4,pc}
    .text
    strcat
        0x00003d28:    1e42        B.      SUBS     r2,r0,#1
        0x00003d2a:    7853        Sx      LDRB     r3,[r2,#1]
        0x00003d2c:    1c52        R.      ADDS     r2,r2,#1
        0x00003d2e:    2b00        .+      CMP      r3,#0
        0x00003d30:    d1fb        ..      BNE      0x3d2a ; strcat + 2
        0x00003d32:    780b        .x      LDRB     r3,[r1,#0]
        0x00003d34:    7013        .p      STRB     r3,[r2,#0]
        0x00003d36:    1c49        I.      ADDS     r1,r1,#1
        0x00003d38:    1c52        R.      ADDS     r2,r2,#1
        0x00003d3a:    2b00        .+      CMP      r3,#0
        0x00003d3c:    d1f9        ..      BNE      0x3d32 ; strcat + 10
        0x00003d3e:    4770        pG      BX       lr
    .text
    strstr
        0x00003d40:    b530        0.      PUSH     {r4,r5,lr}
        0x00003d42:    4605        .F      MOV      r5,r0
        0x00003d44:    462a        *F      MOV      r2,r5
        0x00003d46:    460b        .F      MOV      r3,r1
        0x00003d48:    7810        .x      LDRB     r0,[r2,#0]
        0x00003d4a:    781c        .x      LDRB     r4,[r3,#0]
        0x00003d4c:    1c52        R.      ADDS     r2,r2,#1
        0x00003d4e:    1c5b        [.      ADDS     r3,r3,#1
        0x00003d50:    2800        .(      CMP      r0,#0
        0x00003d52:    d001        ..      BEQ      0x3d58 ; strstr + 24
        0x00003d54:    42a0        .B      CMP      r0,r4
        0x00003d56:    d0f7        ..      BEQ      0x3d48 ; strstr + 8
        0x00003d58:    2c00        .,      CMP      r4,#0
        0x00003d5a:    d003        ..      BEQ      0x3d64 ; strstr + 36
        0x00003d5c:    2800        .(      CMP      r0,#0
        0x00003d5e:    d002        ..      BEQ      0x3d66 ; strstr + 38
        0x00003d60:    1c6d        m.      ADDS     r5,r5,#1
        0x00003d62:    e7ef        ..      B        0x3d44 ; strstr + 4
        0x00003d64:    4628        (F      MOV      r0,r5
        0x00003d66:    bd30        0.      POP      {r4,r5,pc}
    .text
    strlen
        0x00003d68:    1c42        B.      ADDS     r2,r0,#1
        0x00003d6a:    7801        .x      LDRB     r1,[r0,#0]
        0x00003d6c:    1c40        @.      ADDS     r0,r0,#1
        0x00003d6e:    2900        .)      CMP      r1,#0
        0x00003d70:    d1fb        ..      BNE      0x3d6a ; strlen + 2
        0x00003d72:    1a80        ..      SUBS     r0,r0,r2
        0x00003d74:    4770        pG      BX       lr
    .text
    atoi
        0x00003d76:    b570        p.      PUSH     {r4-r6,lr}
        0x00003d78:    4606        .F      MOV      r6,r0
        0x00003d7a:    f000fc91    ....    BL       __aeabi_errno_addr ; 0x46a0
        0x00003d7e:    6804        .h      LDR      r4,[r0,#0]
        0x00003d80:    4605        .F      MOV      r5,r0
        0x00003d82:    220a        ."      MOVS     r2,#0xa
        0x00003d84:    2100        .!      MOVS     r1,#0
        0x00003d86:    4630        0F      MOV      r0,r6
        0x00003d88:    f000f964    ..d.    BL       strtol ; 0x4054
        0x00003d8c:    602c        ,`      STR      r4,[r5,#0]
        0x00003d8e:    bd70        p.      POP      {r4-r6,pc}
    .text
    __aeabi_dmul
        0x00003d90:    b5f0        ..      PUSH     {r4-r7,lr}
        0x00003d92:    b41f        ..      PUSH     {r0-r4}
        0x00003d94:    b088        ..      SUB      sp,sp,#0x20
        0x00003d96:    990b        ..      LDR      r1,[sp,#0x2c]
        0x00003d98:    9809        ..      LDR      r0,[sp,#0x24]
        0x00003d9a:    2400        .$      MOVS     r4,#0
        0x00003d9c:    4048        H@      EORS     r0,r0,r1
        0x00003d9e:    9909        ..      LDR      r1,[sp,#0x24]
        0x00003da0:    0fc0        ..      LSRS     r0,r0,#31
        0x00003da2:    0049        I.      LSLS     r1,r1,#1
        0x00003da4:    0849        I.      LSRS     r1,r1,#1
        0x00003da6:    9109        ..      STR      r1,[sp,#0x24]
        0x00003da8:    07c0        ..      LSLS     r0,r0,#31
        0x00003daa:    990b        ..      LDR      r1,[sp,#0x2c]
        0x00003dac:    9000        ..      STR      r0,[sp,#0]
        0x00003dae:    0049        I.      LSLS     r1,r1,#1
        0x00003db0:    0849        I.      LSRS     r1,r1,#1
        0x00003db2:    910b        ..      STR      r1,[sp,#0x2c]
        0x00003db4:    9909        ..      LDR      r1,[sp,#0x24]
        0x00003db6:    9808        ..      LDR      r0,[sp,#0x20]
        0x00003db8:    46a6        .F      MOV      lr,r4
        0x00003dba:    4308        .C      ORRS     r0,r0,r1
        0x00003dbc:    d01c        ..      BEQ      0x3df8 ; __aeabi_dmul + 104
        0x00003dbe:    990b        ..      LDR      r1,[sp,#0x2c]
        0x00003dc0:    980a        ..      LDR      r0,[sp,#0x28]
        0x00003dc2:    4308        .C      ORRS     r0,r0,r1
        0x00003dc4:    d018        ..      BEQ      0x3df8 ; __aeabi_dmul + 104
        0x00003dc6:    9809        ..      LDR      r0,[sp,#0x24]
        0x00003dc8:    2401        .$      MOVS     r4,#1
        0x00003dca:    0040        @.      LSLS     r0,r0,#1
        0x00003dcc:    0d42        B.      LSRS     r2,r0,#21
        0x00003dce:    0048        H.      LSLS     r0,r1,#1
        0x00003dd0:    0d41        A.      LSRS     r1,r0,#21
        0x00003dd2:    9809        ..      LDR      r0,[sp,#0x24]
        0x00003dd4:    0524        $.      LSLS     r4,r4,#20
        0x00003dd6:    0300        ..      LSLS     r0,r0,#12
        0x00003dd8:    0b00        ..      LSRS     r0,r0,#12
        0x00003dda:    4320         C      ORRS     r0,r0,r4
        0x00003ddc:    9009        ..      STR      r0,[sp,#0x24]
        0x00003dde:    980b        ..      LDR      r0,[sp,#0x2c]
        0x00003de0:    0300        ..      LSLS     r0,r0,#12
        0x00003de2:    0b00        ..      LSRS     r0,r0,#12
        0x00003de4:    4320         C      ORRS     r0,r0,r4
        0x00003de6:    900b        ..      STR      r0,[sp,#0x2c]
        0x00003de8:    1850        P.      ADDS     r0,r2,r1
        0x00003dea:    491c        .I      LDR      r1,[pc,#112] ; [0x3e5c] = 0xfffffc0d
        0x00003dec:    1840        @.      ADDS     r0,r0,r1
        0x00003dee:    2200        ."      MOVS     r2,#0
        0x00003df0:    9001        ..      STR      r0,[sp,#4]
        0x00003df2:    4614        .F      MOV      r4,r2
        0x00003df4:    4610        .F      MOV      r0,r2
        0x00003df6:    e005        ..      B        0x3e04 ; __aeabi_dmul + 116
        0x00003df8:    2000        .       MOVS     r0,#0
        0x00003dfa:    4601        .F      MOV      r1,r0
        0x00003dfc:    b00d        ..      ADD      sp,sp,#0x34
        0x00003dfe:    bdf0        ..      POP      {r4-r7,pc}
        0x00003e00:    2803        .(      CMP      r0,#3
        0x00003e02:    da01        ..      BGE      0x3e08 ; __aeabi_dmul + 120
        0x00003e04:    4603        .F      MOV      r3,r0
        0x00003e06:    e000        ..      B        0x3e0a ; __aeabi_dmul + 122
        0x00003e08:    2303        .#      MOVS     r3,#3
        0x00003e0a:    469c        .F      MOV      r12,r3
        0x00003e0c:    1ac1        ..      SUBS     r1,r0,r3
        0x00003e0e:    ae0a        ..      ADD      r6,sp,#0x28
        0x00003e10:    e00a        ..      B        0x3e28 ; __aeabi_dmul + 152
        0x00003e12:    005f        _.      LSLS     r7,r3,#1
        0x00003e14:    ad08        ..      ADD      r5,sp,#0x20
        0x00003e16:    5bed        .[      LDRH     r5,[r5,r7]
        0x00003e18:    004f        O.      LSLS     r7,r1,#1
        0x00003e1a:    5bf7        .[      LDRH     r7,[r6,r7]
        0x00003e1c:    437d        }C      MULS     r5,r7,r5
        0x00003e1e:    2700        .'      MOVS     r7,#0
        0x00003e20:    18aa        ..      ADDS     r2,r5,r2
        0x00003e22:    417c        |A      ADCS     r4,r4,r7
        0x00003e24:    1c49        I.      ADDS     r1,r1,#1
        0x00003e26:    1e5b        [.      SUBS     r3,r3,#1
        0x00003e28:    4561        aE      CMP      r1,r12
        0x00003e2a:    ddf2        ..      BLE      0x3e12 ; __aeabi_dmul + 130
        0x00003e2c:    0041        A.      LSLS     r1,r0,#1
        0x00003e2e:    ab04        ..      ADD      r3,sp,#0x10
        0x00003e30:    525a        ZR      STRH     r2,[r3,r1]
        0x00003e32:    0421        !.      LSLS     r1,r4,#16
        0x00003e34:    0c12        ..      LSRS     r2,r2,#16
        0x00003e36:    430a        .C      ORRS     r2,r2,r1
        0x00003e38:    0c24        $.      LSRS     r4,r4,#16
        0x00003e3a:    1c40        @.      ADDS     r0,r0,#1
        0x00003e3c:    2808        .(      CMP      r0,#8
        0x00003e3e:    dbdf        ..      BLT      0x3e00 ; __aeabi_dmul + 112
        0x00003e40:    9801        ..      LDR      r0,[sp,#4]
        0x00003e42:    9002        ..      STR      r0,[sp,#8]
        0x00003e44:    9900        ..      LDR      r1,[sp,#0]
        0x00003e46:    4670        pF      MOV      r0,lr
        0x00003e48:    9101        ..      STR      r1,[sp,#4]
        0x00003e4a:    9000        ..      STR      r0,[sp,#0]
        0x00003e4c:    9b05        ..      LDR      r3,[sp,#0x14]
        0x00003e4e:    9a04        ..      LDR      r2,[sp,#0x10]
        0x00003e50:    9907        ..      LDR      r1,[sp,#0x1c]
        0x00003e52:    9806        ..      LDR      r0,[sp,#0x18]
        0x00003e54:    f000f984    ....    BL       _double_epilogue ; 0x4160
        0x00003e58:    e7d0        ..      B        0x3dfc ; __aeabi_dmul + 108
    $d
        0x00003e5a:    0000        ..      DCW    0
        0x00003e5c:    fffffc0d    ....    DCD    4294966285
    $t
    .text
    __aeabi_ddiv
        0x00003e60:    b5f0        ..      PUSH     {r4-r7,lr}
        0x00003e62:    460c        .F      MOV      r4,r1
        0x00003e64:    405c        \@      EORS     r4,r4,r3
        0x00003e66:    b085        ..      SUB      sp,sp,#0x14
        0x00003e68:    0fe4        ..      LSRS     r4,r4,#31
        0x00003e6a:    07e4        ..      LSLS     r4,r4,#31
        0x00003e6c:    9403        ..      STR      r4,[sp,#0xc]
        0x00003e6e:    004c        L.      LSLS     r4,r1,#1
        0x00003e70:    2600        .&      MOVS     r6,#0
        0x00003e72:    0864        d.      LSRS     r4,r4,#1
        0x00003e74:    0059        Y.      LSLS     r1,r3,#1
        0x00003e76:    4694        .F      MOV      r12,r2
        0x00003e78:    0849        I.      LSRS     r1,r1,#1
        0x00003e7a:    4602        .F      MOV      r2,r0
        0x00003e7c:    9602        ..      STR      r6,[sp,#8]
        0x00003e7e:    4322        "C      ORRS     r2,r2,r4
        0x00003e80:    d021        !.      BEQ      0x3ec6 ; __aeabi_ddiv + 102
        0x00003e82:    4662        bF      MOV      r2,r12
        0x00003e84:    430a        .C      ORRS     r2,r2,r1
        0x00003e86:    d01e        ..      BEQ      0x3ec6 ; __aeabi_ddiv + 102
        0x00003e88:    0062        b.      LSLS     r2,r4,#1
        0x00003e8a:    0d57        W.      LSRS     r7,r2,#21
        0x00003e8c:    004a        J.      LSLS     r2,r1,#1
        0x00003e8e:    030e        ..      LSLS     r6,r1,#12
        0x00003e90:    0323        #.      LSLS     r3,r4,#12
        0x00003e92:    0d55        U.      LSRS     r5,r2,#21
        0x00003e94:    2401        .$      MOVS     r4,#1
        0x00003e96:    4602        .F      MOV      r2,r0
        0x00003e98:    492c        ,I      LDR      r1,[pc,#176] ; [0x3f4c] = 0x3fd
        0x00003e9a:    0524        $.      LSLS     r4,r4,#20
        0x00003e9c:    1b78        x.      SUBS     r0,r7,r5
        0x00003e9e:    0b1b        ..      LSRS     r3,r3,#12
        0x00003ea0:    0b36        6.      LSRS     r6,r6,#12
        0x00003ea2:    1840        @.      ADDS     r0,r0,r1
        0x00003ea4:    4323        #C      ORRS     r3,r3,r4
        0x00003ea6:    4326        &C      ORRS     r6,r6,r4
        0x00003ea8:    4661        aF      MOV      r1,r12
        0x00003eaa:    9000        ..      STR      r0,[sp,#0]
        0x00003eac:    461c        .F      MOV      r4,r3
        0x00003eae:    1a50        P.      SUBS     r0,r2,r1
        0x00003eb0:    41b4        .A      SBCS     r4,r4,r6
        0x00003eb2:    d303        ..      BCC      0x3ebc ; __aeabi_ddiv + 92
        0x00003eb4:    9800        ..      LDR      r0,[sp,#0]
        0x00003eb6:    1c40        @.      ADDS     r0,r0,#1
        0x00003eb8:    9000        ..      STR      r0,[sp,#0]
        0x00003eba:    e002        ..      B        0x3ec2 ; __aeabi_ddiv + 98
        0x00003ebc:    1892        ..      ADDS     r2,r2,r2
        0x00003ebe:    9800        ..      LDR      r0,[sp,#0]
        0x00003ec0:    415b        [A      ADCS     r3,r3,r3
        0x00003ec2:    2800        .(      CMP      r0,#0
        0x00003ec4:    da03        ..      BGE      0x3ece ; __aeabi_ddiv + 110
        0x00003ec6:    2000        .       MOVS     r0,#0
        0x00003ec8:    4601        .F      MOV      r1,r0
        0x00003eca:    b005        ..      ADD      sp,sp,#0x14
        0x00003ecc:    bdf0        ..      POP      {r4-r7,pc}
        0x00003ece:    2000        .       MOVS     r0,#0
        0x00003ed0:    2101        .!      MOVS     r1,#1
        0x00003ed2:    0509        ..      LSLS     r1,r1,#20
        0x00003ed4:    4607        .F      MOV      r7,r0
        0x00003ed6:    4686        .F      MOV      lr,r0
        0x00003ed8:    e011        ..      B        0x3efe ; __aeabi_ddiv + 158
        0x00003eda:    4664        dF      MOV      r4,r12
        0x00003edc:    461d        .F      MOV      r5,r3
        0x00003ede:    1b14        ..      SUBS     r4,r2,r4
        0x00003ee0:    41b5        .A      SBCS     r5,r5,r6
        0x00003ee2:    d306        ..      BCC      0x3ef2 ; __aeabi_ddiv + 146
        0x00003ee4:    4665        eF      MOV      r5,r12
        0x00003ee6:    1b52        R.      SUBS     r2,r2,r5
        0x00003ee8:    41b3        .A      SBCS     r3,r3,r6
        0x00003eea:    4674        tF      MOV      r4,lr
        0x00003eec:    4307        .C      ORRS     r7,r7,r0
        0x00003eee:    430c        .C      ORRS     r4,r4,r1
        0x00003ef0:    46a6        .F      MOV      lr,r4
        0x00003ef2:    07cd        ..      LSLS     r5,r1,#31
        0x00003ef4:    0840        @.      LSRS     r0,r0,#1
        0x00003ef6:    0849        I.      LSRS     r1,r1,#1
        0x00003ef8:    4328        (C      ORRS     r0,r0,r5
        0x00003efa:    1892        ..      ADDS     r2,r2,r2
        0x00003efc:    415b        [A      ADCS     r3,r3,r3
        0x00003efe:    4605        .F      MOV      r5,r0
        0x00003f00:    430d        .C      ORRS     r5,r5,r1
        0x00003f02:    d1ea        ..      BNE      0x3eda ; __aeabi_ddiv + 122
        0x00003f04:    4610        .F      MOV      r0,r2
        0x00003f06:    4318        .C      ORRS     r0,r0,r3
        0x00003f08:    d013        ..      BEQ      0x3f32 ; __aeabi_ddiv + 210
        0x00003f0a:    4660        `F      MOV      r0,r12
        0x00003f0c:    4619        .F      MOV      r1,r3
        0x00003f0e:    4050        P@      EORS     r0,r0,r2
        0x00003f10:    4071        q@      EORS     r1,r1,r6
        0x00003f12:    4308        .C      ORRS     r0,r0,r1
        0x00003f14:    d006        ..      BEQ      0x3f24 ; __aeabi_ddiv + 196
        0x00003f16:    4660        `F      MOV      r0,r12
        0x00003f18:    1a10        ..      SUBS     r0,r2,r0
        0x00003f1a:    41b3        .A      SBCS     r3,r3,r6
        0x00003f1c:    d206        ..      BCS      0x3f2c ; __aeabi_ddiv + 204
        0x00003f1e:    2201        ."      MOVS     r2,#1
        0x00003f20:    2300        .#      MOVS     r3,#0
        0x00003f22:    e006        ..      B        0x3f32 ; __aeabi_ddiv + 210
        0x00003f24:    2200        ."      MOVS     r2,#0
        0x00003f26:    2301        .#      MOVS     r3,#1
        0x00003f28:    07db        ..      LSLS     r3,r3,#31
        0x00003f2a:    e002        ..      B        0x3f32 ; __aeabi_ddiv + 210
        0x00003f2c:    2201        ."      MOVS     r2,#1
        0x00003f2e:    43d2        .C      MVNS     r2,r2
        0x00003f30:    1053        S.      ASRS     r3,r2,#1
        0x00003f32:    9800        ..      LDR      r0,[sp,#0]
        0x00003f34:    4674        tF      MOV      r4,lr
        0x00003f36:    0501        ..      LSLS     r1,r0,#20
        0x00003f38:    1c38        8.      ADDS     r0,r7,#0
        0x00003f3a:    4161        aA      ADCS     r1,r1,r4
        0x00003f3c:    9c02        ..      LDR      r4,[sp,#8]
        0x00003f3e:    9d03        ..      LDR      r5,[sp,#0xc]
        0x00003f40:    1900        ..      ADDS     r0,r0,r4
        0x00003f42:    4169        iA      ADCS     r1,r1,r5
        0x00003f44:    f000f8ff    ....    BL       _double_round ; 0x4146
        0x00003f48:    e7bf        ..      B        0x3eca ; __aeabi_ddiv + 106
    $d
        0x00003f4a:    0000        ..      DCW    0
        0x00003f4c:    000003fd    ....    DCD    1021
    $t
    .text
    __aeabi_ui2f
        0x00003f50:    b510        ..      PUSH     {r4,lr}
        0x00003f52:    2200        ."      MOVS     r2,#0
        0x00003f54:    2396        .#      MOVS     r3,#0x96
        0x00003f56:    4611        .F      MOV      r1,r2
        0x00003f58:    f000f8bc    ....    BL       _float_epilogue ; 0x40d4
        0x00003f5c:    bd10        ..      POP      {r4,pc}
    .text
    __aeabi_f2d
        0x00003f5e:    0fc2        ..      LSRS     r2,r0,#31
        0x00003f60:    07d2        ..      LSLS     r2,r2,#31
        0x00003f62:    0040        @.      LSLS     r0,r0,#1
        0x00003f64:    0840        @.      LSRS     r0,r0,#1
        0x00003f66:    d00b        ..      BEQ      0x3f80 ; __aeabi_f2d + 34
        0x00003f68:    0dc1        ..      LSRS     r1,r0,#23
        0x00003f6a:    2307        .#      MOVS     r3,#7
        0x00003f6c:    01db        ..      LSLS     r3,r3,#7
        0x00003f6e:    18c9        ..      ADDS     r1,r1,r3
        0x00003f70:    0240        @.      LSLS     r0,r0,#9
        0x00003f72:    0509        ..      LSLS     r1,r1,#20
        0x00003f74:    0a40        @.      LSRS     r0,r0,#9
        0x00003f76:    4311        .C      ORRS     r1,r1,r2
        0x00003f78:    08c2        ..      LSRS     r2,r0,#3
        0x00003f7a:    0740        @.      LSLS     r0,r0,#29
        0x00003f7c:    4311        .C      ORRS     r1,r1,r2
        0x00003f7e:    4770        pG      BX       lr
        0x00003f80:    2000        .       MOVS     r0,#0
        0x00003f82:    4601        .F      MOV      r1,r0
        0x00003f84:    4770        pG      BX       lr
        0x00003f86:    0000        ..      MOVS     r0,r0
    .text
    __aeabi_cdcmpeq
    __aeabi_cdcmple
        0x00003f88:    b510        ..      PUSH     {r4,lr}
        0x00003f8a:    2900        .)      CMP      r1,#0
        0x00003f8c:    db04        ..      BLT      0x3f98 ; __aeabi_cdcmpeq + 16
        0x00003f8e:    2401        .$      MOVS     r4,#1
        0x00003f90:    07e4        ..      LSLS     r4,r4,#31
        0x00003f92:    4240        @B      RSBS     r0,r0,#0
        0x00003f94:    418c        .A      SBCS     r4,r4,r1
        0x00003f96:    4621        !F      MOV      r1,r4
        0x00003f98:    2b00        .+      CMP      r3,#0
        0x00003f9a:    db04        ..      BLT      0x3fa6 ; __aeabi_cdcmpeq + 30
        0x00003f9c:    461c        .F      MOV      r4,r3
        0x00003f9e:    2301        .#      MOVS     r3,#1
        0x00003fa0:    07db        ..      LSLS     r3,r3,#31
        0x00003fa2:    4252        RB      RSBS     r2,r2,#0
        0x00003fa4:    41a3        .A      SBCS     r3,r3,r4
        0x00003fa6:    428b        .B      CMP      r3,r1
        0x00003fa8:    d100        ..      BNE      0x3fac ; __aeabi_cdcmpeq + 36
        0x00003faa:    4282        .B      CMP      r2,r0
        0x00003fac:    bd10        ..      POP      {r4,pc}
    $d
        0x00003fae:    0000        ..      DCW    0
    $t
    .text
    __aeabi_cdrcmple
        0x00003fb0:    b510        ..      PUSH     {r4,lr}
        0x00003fb2:    2900        .)      CMP      r1,#0
        0x00003fb4:    db04        ..      BLT      0x3fc0 ; __aeabi_cdrcmple + 16
        0x00003fb6:    2401        .$      MOVS     r4,#1
        0x00003fb8:    07e4        ..      LSLS     r4,r4,#31
        0x00003fba:    4240        @B      RSBS     r0,r0,#0
        0x00003fbc:    418c        .A      SBCS     r4,r4,r1
        0x00003fbe:    4621        !F      MOV      r1,r4
        0x00003fc0:    2b00        .+      CMP      r3,#0
        0x00003fc2:    db04        ..      BLT      0x3fce ; __aeabi_cdrcmple + 30
        0x00003fc4:    461c        .F      MOV      r4,r3
        0x00003fc6:    2301        .#      MOVS     r3,#1
        0x00003fc8:    07db        ..      LSLS     r3,r3,#31
        0x00003fca:    4252        RB      RSBS     r2,r2,#0
        0x00003fcc:    41a3        .A      SBCS     r3,r3,r4
        0x00003fce:    4299        .B      CMP      r1,r3
        0x00003fd0:    d100        ..      BNE      0x3fd4 ; __aeabi_cdrcmple + 36
        0x00003fd2:    4290        .B      CMP      r0,r2
        0x00003fd4:    bd10        ..      POP      {r4,pc}
    $d
        0x00003fd6:    0000        ..      DCW    0
    $t
    .text
    __aeabi_d2f
        0x00003fd8:    0fcb        ..      LSRS     r3,r1,#31
        0x00003fda:    07db        ..      LSLS     r3,r3,#31
        0x00003fdc:    0049        I.      LSLS     r1,r1,#1
        0x00003fde:    b510        ..      PUSH     {r4,lr}
        0x00003fe0:    0849        I.      LSRS     r1,r1,#1
        0x00003fe2:    4602        .F      MOV      r2,r0
        0x00003fe4:    430a        .C      ORRS     r2,r2,r1
        0x00003fe6:    d007        ..      BEQ      0x3ff8 ; __aeabi_d2f + 32
        0x00003fe8:    0d0a        ..      LSRS     r2,r1,#20
        0x00003fea:    2407        .$      MOVS     r4,#7
        0x00003fec:    0309        ..      LSLS     r1,r1,#12
        0x00003fee:    01e4        ..      LSLS     r4,r4,#7
        0x00003ff0:    0b09        ..      LSRS     r1,r1,#12
        0x00003ff2:    1b12        ..      SUBS     r2,r2,r4
        0x00003ff4:    2a00        .*      CMP      r2,#0
        0x00003ff6:    dc01        ..      BGT      0x3ffc ; __aeabi_d2f + 36
        0x00003ff8:    2000        .       MOVS     r0,#0
        0x00003ffa:    bd10        ..      POP      {r4,pc}
        0x00003ffc:    00c9        ..      LSLS     r1,r1,#3
        0x00003ffe:    0f44        D.      LSRS     r4,r0,#29
        0x00004000:    430c        .C      ORRS     r4,r4,r1
        0x00004002:    00c1        ..      LSLS     r1,r0,#3
        0x00004004:    18e0        ..      ADDS     r0,r4,r3
        0x00004006:    05d2        ..      LSLS     r2,r2,#23
        0x00004008:    1880        ..      ADDS     r0,r0,r2
        0x0000400a:    f000f85b    ..[.    BL       __I$use$fp ; 0x40c4
        0x0000400e:    bd10        ..      POP      {r4,pc}
    .text
    __aeabi_llsl
    _ll_shift_l
        0x00004010:    b510        ..      PUSH     {r4,lr}
        0x00004012:    2a20         *      CMP      r2,#0x20
        0x00004014:    db04        ..      BLT      0x4020 ; __aeabi_llsl + 16
        0x00004016:    4601        .F      MOV      r1,r0
        0x00004018:    3a20         :      SUBS     r2,r2,#0x20
        0x0000401a:    4091        .@      LSLS     r1,r1,r2
        0x0000401c:    2000        .       MOVS     r0,#0
        0x0000401e:    bd10        ..      POP      {r4,pc}
        0x00004020:    4091        .@      LSLS     r1,r1,r2
        0x00004022:    2320         #      MOVS     r3,#0x20
        0x00004024:    1a9c        ..      SUBS     r4,r3,r2
        0x00004026:    4603        .F      MOV      r3,r0
        0x00004028:    40e3        .@      LSRS     r3,r3,r4
        0x0000402a:    4319        .C      ORRS     r1,r1,r3
        0x0000402c:    4090        .@      LSLS     r0,r0,r2
        0x0000402e:    bd10        ..      POP      {r4,pc}
    .text
    __aeabi_llsr
    _ll_ushift_r
        0x00004030:    b510        ..      PUSH     {r4,lr}
        0x00004032:    2a20         *      CMP      r2,#0x20
        0x00004034:    db04        ..      BLT      0x4040 ; __aeabi_llsr + 16
        0x00004036:    4608        .F      MOV      r0,r1
        0x00004038:    3a20         :      SUBS     r2,r2,#0x20
        0x0000403a:    40d0        .@      LSRS     r0,r0,r2
        0x0000403c:    2100        .!      MOVS     r1,#0
        0x0000403e:    bd10        ..      POP      {r4,pc}
        0x00004040:    460b        .F      MOV      r3,r1
        0x00004042:    40d3        .@      LSRS     r3,r3,r2
        0x00004044:    40d0        .@      LSRS     r0,r0,r2
        0x00004046:    2420         $      MOVS     r4,#0x20
        0x00004048:    1aa2        ..      SUBS     r2,r4,r2
        0x0000404a:    4091        .@      LSLS     r1,r1,r2
        0x0000404c:    4308        .C      ORRS     r0,r0,r1
        0x0000404e:    4619        .F      MOV      r1,r3
        0x00004050:    bd10        ..      POP      {r4,pc}
        0x00004052:    0000        ..      MOVS     r0,r0
    .text
    strtol
        0x00004054:    b5f7        ..      PUSH     {r0-r2,r4-r7,lr}
        0x00004056:    9c00        ..      LDR      r4,[sp,#0]
        0x00004058:    460f        .F      MOV      r7,r1
        0x0000405a:    2600        .&      MOVS     r6,#0
        0x0000405c:    7825        %x      LDRB     r5,[r4,#0]
        0x0000405e:    1c64        d.      ADDS     r4,r4,#1
        0x00004060:    2d00        .-      CMP      r5,#0
        0x00004062:    d005        ..      BEQ      0x4070 ; strtol + 28
        0x00004064:    f000f9c6    ....    BL       __rt_ctype_table ; 0x43f4
        0x00004068:    6800        .h      LDR      r0,[r0,#0]
        0x0000406a:    5d40        @]      LDRB     r0,[r0,r5]
        0x0000406c:    07c0        ..      LSLS     r0,r0,#31
        0x0000406e:    d1f5        ..      BNE      0x405c ; strtol + 8
        0x00004070:    2d2b        +-      CMP      r5,#0x2b
        0x00004072:    d002        ..      BEQ      0x407a ; strtol + 38
        0x00004074:    2d2d        --      CMP      r5,#0x2d
        0x00004076:    d018        ..      BEQ      0x40aa ; strtol + 86
        0x00004078:    1e64        d.      SUBS     r4,r4,#1
        0x0000407a:    4639        9F      MOV      r1,r7
        0x0000407c:    4620         F      MOV      r0,r4
        0x0000407e:    9a02        ..      LDR      r2,[sp,#8]
        0x00004080:    f000f9bc    ....    BL       _strtoul ; 0x43fc
        0x00004084:    2f00        ./      CMP      r7,#0
        0x00004086:    d004        ..      BEQ      0x4092 ; strtol + 62
        0x00004088:    6839        9h      LDR      r1,[r7,#0]
        0x0000408a:    42a1        .B      CMP      r1,r4
        0x0000408c:    d101        ..      BNE      0x4092 ; strtol + 62
        0x0000408e:    9900        ..      LDR      r1,[sp,#0]
        0x00004090:    6039        9`      STR      r1,[r7,#0]
        0x00004092:    0571        q.      LSLS     r1,r6,#21
        0x00004094:    2402        .$      MOVS     r4,#2
        0x00004096:    2900        .)      CMP      r1,#0
        0x00004098:    da0b        ..      BGE      0x40b2 ; strtol + 94
        0x0000409a:    4240        @B      RSBS     r0,r0,#0
        0x0000409c:    2800        .(      CMP      r0,#0
        0x0000409e:    dd03        ..      BLE      0x40a8 ; strtol + 84
        0x000040a0:    f000fafe    ....    BL       __aeabi_errno_addr ; 0x46a0
        0x000040a4:    6004        .`      STR      r4,[r0,#0]
        0x000040a6:    07a0        ..      LSLS     r0,r4,#30
        0x000040a8:    bdfe        ..      POP      {r1-r7,pc}
        0x000040aa:    2001        .       MOVS     r0,#1
        0x000040ac:    0280        ..      LSLS     r0,r0,#10
        0x000040ae:    4306        .C      ORRS     r6,r6,r0
        0x000040b0:    e7e3        ..      B        0x407a ; strtol + 38
        0x000040b2:    2800        .(      CMP      r0,#0
        0x000040b4:    daf8        ..      BGE      0x40a8 ; strtol + 84
        0x000040b6:    f000faf3    ....    BL       __aeabi_errno_addr ; 0x46a0
        0x000040ba:    6004        .`      STR      r4,[r0,#0]
        0x000040bc:    4800        .H      LDR      r0,[pc,#0] ; [0x40c0] = 0x7fffffff
        0x000040be:    bdfe        ..      POP      {r1-r7,pc}
    $d
        0x000040c0:    7fffffff    ....    DCD    2147483647
    $t
    .text
    .text
    __I$use$fp
    _float_round
        0x000040c4:    2900        .)      CMP      r1,#0
        0x000040c6:    da04        ..      BGE      0x40d2 ; __I$use$fp + 14
        0x000040c8:    1c40        @.      ADDS     r0,r0,#1
        0x000040ca:    0049        I.      LSLS     r1,r1,#1
        0x000040cc:    d101        ..      BNE      0x40d2 ; __I$use$fp + 14
        0x000040ce:    0840        @.      LSRS     r0,r0,#1
        0x000040d0:    0040        @.      LSLS     r0,r0,#1
        0x000040d2:    4770        pG      BX       lr
    _float_epilogue
        0x000040d4:    b470        p.      PUSH     {r4-r6}
        0x000040d6:    2400        .$      MOVS     r4,#0
        0x000040d8:    0c05        ..      LSRS     r5,r0,#16
        0x000040da:    d105        ..      BNE      0x40e8 ; _float_epilogue + 20
        0x000040dc:    2410        .$      MOVS     r4,#0x10
        0x000040de:    0400        ..      LSLS     r0,r0,#16
        0x000040e0:    d102        ..      BNE      0x40e8 ; _float_epilogue + 20
        0x000040e2:    2900        .)      CMP      r1,#0
        0x000040e4:    d021        !.      BEQ      0x412a ; _float_epilogue + 86
        0x000040e6:    2411        .$      MOVS     r4,#0x11
        0x000040e8:    0e05        ..      LSRS     r5,r0,#24
        0x000040ea:    d101        ..      BNE      0x40f0 ; _float_epilogue + 28
        0x000040ec:    0200        ..      LSLS     r0,r0,#8
        0x000040ee:    3408        .4      ADDS     r4,r4,#8
        0x000040f0:    0f05        ..      LSRS     r5,r0,#28
        0x000040f2:    d101        ..      BNE      0x40f8 ; _float_epilogue + 36
        0x000040f4:    0100        ..      LSLS     r0,r0,#4
        0x000040f6:    1d24        $.      ADDS     r4,r4,#4
        0x000040f8:    0f85        ..      LSRS     r5,r0,#30
        0x000040fa:    d101        ..      BNE      0x4100 ; _float_epilogue + 44
        0x000040fc:    0080        ..      LSLS     r0,r0,#2
        0x000040fe:    1ca4        ..      ADDS     r4,r4,#2
        0x00004100:    2800        .(      CMP      r0,#0
        0x00004102:    db01        ..      BLT      0x4108 ; _float_epilogue + 52
        0x00004104:    0040        @.      LSLS     r0,r0,#1
        0x00004106:    1c64        d.      ADDS     r4,r4,#1
        0x00004108:    2900        .)      CMP      r1,#0
        0x0000410a:    d008        ..      BEQ      0x411e ; _float_epilogue + 74
        0x0000410c:    2520         %      MOVS     r5,#0x20
        0x0000410e:    1b2e        ..      SUBS     r6,r5,r4
        0x00004110:    460d        .F      MOV      r5,r1
        0x00004112:    40f5        .@      LSRS     r5,r5,r6
        0x00004114:    40a1        .@      LSLS     r1,r1,r4
        0x00004116:    d000        ..      BEQ      0x411a ; _float_epilogue + 70
        0x00004118:    2101        .!      MOVS     r1,#1
        0x0000411a:    4329        )C      ORRS     r1,r1,r5
        0x0000411c:    4308        .C      ORRS     r0,r0,r1
        0x0000411e:    0601        ..      LSLS     r1,r0,#24
        0x00004120:    1b1b        ..      SUBS     r3,r3,r4
        0x00004122:    0a00        ..      LSRS     r0,r0,#8
        0x00004124:    1ddb        ..      ADDS     r3,r3,#7
        0x00004126:    d502        ..      BPL      0x412e ; _float_epilogue + 90
        0x00004128:    2000        .       MOVS     r0,#0
        0x0000412a:    bc70        p.      POP      {r4-r6}
        0x0000412c:    4770        pG      BX       lr
        0x0000412e:    05db        ..      LSLS     r3,r3,#23
        0x00004130:    1818        ..      ADDS     r0,r3,r0
        0x00004132:    1880        ..      ADDS     r0,r0,r2
        0x00004134:    2900        .)      CMP      r1,#0
        0x00004136:    daf8        ..      BGE      0x412a ; _float_epilogue + 86
        0x00004138:    1c40        @.      ADDS     r0,r0,#1
        0x0000413a:    0049        I.      LSLS     r1,r1,#1
        0x0000413c:    d1f5        ..      BNE      0x412a ; _float_epilogue + 86
        0x0000413e:    bc70        p.      POP      {r4-r6}
        0x00004140:    0840        @.      LSRS     r0,r0,#1
        0x00004142:    0040        @.      LSLS     r0,r0,#1
        0x00004144:    4770        pG      BX       lr
    .text
    _double_round
        0x00004146:    b510        ..      PUSH     {r4,lr}
        0x00004148:    2b00        .+      CMP      r3,#0
        0x0000414a:    da08        ..      BGE      0x415e ; _double_round + 24
        0x0000414c:    2400        .$      MOVS     r4,#0
        0x0000414e:    1c40        @.      ADDS     r0,r0,#1
        0x00004150:    4161        aA      ADCS     r1,r1,r4
        0x00004152:    1892        ..      ADDS     r2,r2,r2
        0x00004154:    415b        [A      ADCS     r3,r3,r3
        0x00004156:    431a        .C      ORRS     r2,r2,r3
        0x00004158:    d101        ..      BNE      0x415e ; _double_round + 24
        0x0000415a:    0840        @.      LSRS     r0,r0,#1
        0x0000415c:    0040        @.      LSLS     r0,r0,#1
        0x0000415e:    bd10        ..      POP      {r4,pc}
    _double_epilogue
        0x00004160:    b5f0        ..      PUSH     {r4-r7,lr}
        0x00004162:    b41f        ..      PUSH     {r0-r4}
        0x00004164:    b082        ..      SUB      sp,sp,#8
        0x00004166:    4605        .F      MOV      r5,r0
        0x00004168:    000c        ..      MOVS     r4,r1
        0x0000416a:    d003        ..      BEQ      0x4174 ; _double_epilogue + 20
        0x0000416c:    4608        .F      MOV      r0,r1
        0x0000416e:    f000fa67    ..g.    BL       __ARM_clz ; 0x4640
        0x00004172:    e002        ..      B        0x417a ; _double_epilogue + 26
        0x00004174:    f000fa64    ..d.    BL       __ARM_clz ; 0x4640
        0x00004178:    3020         0      ADDS     r0,r0,#0x20
        0x0000417a:    4602        .F      MOV      r2,r0
        0x0000417c:    9000        ..      STR      r0,[sp,#0]
        0x0000417e:    4621        !F      MOV      r1,r4
        0x00004180:    4628        (F      MOV      r0,r5
        0x00004182:    f7ffff45    ..E.    BL       __aeabi_llsl ; 0x4010
        0x00004186:    9b04        ..      LDR      r3,[sp,#0x10]
        0x00004188:    9a05        ..      LDR      r2,[sp,#0x14]
        0x0000418a:    4604        .F      MOV      r4,r0
        0x0000418c:    460f        .F      MOV      r7,r1
        0x0000418e:    4318        .C      ORRS     r0,r0,r3
        0x00004190:    4311        .C      ORRS     r1,r1,r2
        0x00004192:    4308        .C      ORRS     r0,r0,r1
        0x00004194:    d014        ..      BEQ      0x41c0 ; _double_epilogue + 96
        0x00004196:    4618        .F      MOV      r0,r3
        0x00004198:    4310        .C      ORRS     r0,r0,r2
        0x0000419a:    d01b        ..      BEQ      0x41d4 ; _double_epilogue + 116
        0x0000419c:    9800        ..      LDR      r0,[sp,#0]
        0x0000419e:    2140        @!      MOVS     r1,#0x40
        0x000041a0:    1a0a        ..      SUBS     r2,r1,r0
        0x000041a2:    4618        .F      MOV      r0,r3
        0x000041a4:    9905        ..      LDR      r1,[sp,#0x14]
        0x000041a6:    f7ffff43    ..C.    BL       __aeabi_llsr ; 0x4030
        0x000041aa:    4605        .F      MOV      r5,r0
        0x000041ac:    460e        .F      MOV      r6,r1
        0x000041ae:    9a00        ..      LDR      r2,[sp,#0]
        0x000041b0:    9905        ..      LDR      r1,[sp,#0x14]
        0x000041b2:    9804        ..      LDR      r0,[sp,#0x10]
        0x000041b4:    f7ffff2c    ..,.    BL       __aeabi_llsl ; 0x4010
        0x000041b8:    4308        .C      ORRS     r0,r0,r1
        0x000041ba:    d005        ..      BEQ      0x41c8 ; _double_epilogue + 104
        0x000041bc:    2001        .       MOVS     r0,#1
        0x000041be:    e004        ..      B        0x41ca ; _double_epilogue + 106
        0x000041c0:    4620         F      MOV      r0,r4
        0x000041c2:    4639        9F      MOV      r1,r7
        0x000041c4:    b007        ..      ADD      sp,sp,#0x1c
        0x000041c6:    bdf0        ..      POP      {r4-r7,pc}
        0x000041c8:    2000        .       MOVS     r0,#0
        0x000041ca:    17c1        ..      ASRS     r1,r0,#31
        0x000041cc:    4305        .C      ORRS     r5,r5,r0
        0x000041ce:    430e        .C      ORRS     r6,r6,r1
        0x000041d0:    432c        ,C      ORRS     r4,r4,r5
        0x000041d2:    4337        7C      ORRS     r7,r7,r6
        0x000041d4:    9900        ..      LDR      r1,[sp,#0]
        0x000041d6:    980e        ..      LDR      r0,[sp,#0x38]
        0x000041d8:    0563        c.      LSLS     r3,r4,#21
        0x000041da:    1a40        @.      SUBS     r0,r0,r1
        0x000041dc:    0579        y.      LSLS     r1,r7,#21
        0x000041de:    0ae4        ..      LSRS     r4,r4,#11
        0x000041e0:    2200        ."      MOVS     r2,#0
        0x000041e2:    430c        .C      ORRS     r4,r4,r1
        0x000041e4:    0afd        ..      LSRS     r5,r7,#11
        0x000041e6:    300a        .0      ADDS     r0,r0,#0xa
        0x000041e8:    d502        ..      BPL      0x41f0 ; _double_epilogue + 144
        0x000041ea:    2000        .       MOVS     r0,#0
        0x000041ec:    4601        .F      MOV      r1,r0
        0x000041ee:    e7e9        ..      B        0x41c4 ; _double_epilogue + 100
        0x000041f0:    0501        ..      LSLS     r1,r0,#20
        0x000041f2:    1910        ..      ADDS     r0,r2,r4
        0x000041f4:    4169        iA      ADCS     r1,r1,r5
        0x000041f6:    9c0c        ..      LDR      r4,[sp,#0x30]
        0x000041f8:    9d0d        ..      LDR      r5,[sp,#0x34]
        0x000041fa:    1900        ..      ADDS     r0,r0,r4
        0x000041fc:    4169        iA      ADCS     r1,r1,r5
        0x000041fe:    f7ffffa2    ....    BL       _double_round ; 0x4146
        0x00004202:    e7df        ..      B        0x41c4 ; _double_epilogue + 100
    .text
    __aeabi_dadd
        0x00004204:    b5f0        ..      PUSH     {r4-r7,lr}
        0x00004206:    4607        .F      MOV      r7,r0
        0x00004208:    4608        .F      MOV      r0,r1
        0x0000420a:    4058        X@      EORS     r0,r0,r3
        0x0000420c:    b087        ..      SUB      sp,sp,#0x1c
        0x0000420e:    0fc0        ..      LSRS     r0,r0,#31
        0x00004210:    9004        ..      STR      r0,[sp,#0x10]
        0x00004212:    0048        H.      LSLS     r0,r1,#1
        0x00004214:    460e        .F      MOV      r6,r1
        0x00004216:    0059        Y.      LSLS     r1,r3,#1
        0x00004218:    0840        @.      LSRS     r0,r0,#1
        0x0000421a:    0849        I.      LSRS     r1,r1,#1
        0x0000421c:    1abc        ..      SUBS     r4,r7,r2
        0x0000421e:    4188        .A      SBCS     r0,r0,r1
        0x00004220:    d205        ..      BCS      0x422e ; __aeabi_dadd + 42
        0x00004222:    4638        8F      MOV      r0,r7
        0x00004224:    4631        1F      MOV      r1,r6
        0x00004226:    461e        .F      MOV      r6,r3
        0x00004228:    4617        .F      MOV      r7,r2
        0x0000422a:    460b        .F      MOV      r3,r1
        0x0000422c:    4602        .F      MOV      r2,r0
        0x0000422e:    0058        X.      LSLS     r0,r3,#1
        0x00004230:    0840        @.      LSRS     r0,r0,#1
        0x00004232:    4310        .C      ORRS     r0,r0,r2
        0x00004234:    d04c        L.      BEQ      0x42d0 ; __aeabi_dadd + 204
        0x00004236:    0d30        0.      LSRS     r0,r6,#20
        0x00004238:    9003        ..      STR      r0,[sp,#0xc]
        0x0000423a:    0540        @.      LSLS     r0,r0,#21
        0x0000423c:    0059        Y.      LSLS     r1,r3,#1
        0x0000423e:    0d40        @.      LSRS     r0,r0,#21
        0x00004240:    0d49        I.      LSRS     r1,r1,#21
        0x00004242:    9005        ..      STR      r0,[sp,#0x14]
        0x00004244:    1a40        @.      SUBS     r0,r0,r1
        0x00004246:    9002        ..      STR      r0,[sp,#8]
        0x00004248:    2840        @(      CMP      r0,#0x40
        0x0000424a:    da72        r.      BGE      0x4332 ; __aeabi_dadd + 302
        0x0000424c:    0318        ..      LSLS     r0,r3,#12
        0x0000424e:    2101        .!      MOVS     r1,#1
        0x00004250:    0b00        ..      LSRS     r0,r0,#12
        0x00004252:    0509        ..      LSLS     r1,r1,#20
        0x00004254:    4308        .C      ORRS     r0,r0,r1
        0x00004256:    9001        ..      STR      r0,[sp,#4]
        0x00004258:    9804        ..      LDR      r0,[sp,#0x10]
        0x0000425a:    9200        ..      STR      r2,[sp,#0]
        0x0000425c:    2800        .(      CMP      r0,#0
        0x0000425e:    d005        ..      BEQ      0x426c ; __aeabi_dadd + 104
        0x00004260:    9901        ..      LDR      r1,[sp,#4]
        0x00004262:    4252        RB      RSBS     r2,r2,#0
        0x00004264:    2000        .       MOVS     r0,#0
        0x00004266:    4188        .A      SBCS     r0,r0,r1
        0x00004268:    9200        ..      STR      r2,[sp,#0]
        0x0000426a:    9001        ..      STR      r0,[sp,#4]
        0x0000426c:    9802        ..      LDR      r0,[sp,#8]
        0x0000426e:    2140        @!      MOVS     r1,#0x40
        0x00004270:    1a0a        ..      SUBS     r2,r1,r0
        0x00004272:    9901        ..      LDR      r1,[sp,#4]
        0x00004274:    9800        ..      LDR      r0,[sp,#0]
        0x00004276:    f7fffecb    ....    BL       __aeabi_llsl ; 0x4010
        0x0000427a:    4605        .F      MOV      r5,r0
        0x0000427c:    460c        .F      MOV      r4,r1
        0x0000427e:    466b        kF      MOV      r3,sp
        0x00004280:    cb07        ..      LDM      r3!,{r0-r2}
        0x00004282:    f000f8a3    ....    BL       __aeabi_lasr ; 0x43cc
        0x00004286:    19c0        ..      ADDS     r0,r0,r7
        0x00004288:    4171        qA      ADCS     r1,r1,r6
        0x0000428a:    9a03        ..      LDR      r2,[sp,#0xc]
        0x0000428c:    0d0e        ..      LSRS     r6,r1,#20
        0x0000428e:    2300        .#      MOVS     r3,#0
        0x00004290:    17d7        ..      ASRS     r7,r2,#31
        0x00004292:    4056        V@      EORS     r6,r6,r2
        0x00004294:    461a        .F      MOV      r2,r3
        0x00004296:    407a        z@      EORS     r2,r2,r7
        0x00004298:    4316        .C      ORRS     r6,r6,r2
        0x0000429a:    d044        D.      BEQ      0x4326 ; __aeabi_dadd + 290
        0x0000429c:    9a04        ..      LDR      r2,[sp,#0x10]
        0x0000429e:    2a00        .*      CMP      r2,#0
        0x000042a0:    d02d        -.      BEQ      0x42fe ; __aeabi_dadd + 250
        0x000042a2:    9a02        ..      LDR      r2,[sp,#8]
        0x000042a4:    2a01        .*      CMP      r2,#1
        0x000042a6:    9a03        ..      LDR      r2,[sp,#0xc]
        0x000042a8:    dc15        ..      BGT      0x42d6 ; __aeabi_dadd + 210
        0x000042aa:    0512        ..      LSLS     r2,r2,#20
        0x000042ac:    1ac0        ..      SUBS     r0,r0,r3
        0x000042ae:    4191        .A      SBCS     r1,r1,r2
        0x000042b0:    2601        .&      MOVS     r6,#1
        0x000042b2:    0536        6.      LSLS     r6,r6,#20
        0x000042b4:    1c00        ..      ADDS     r0,r0,#0
        0x000042b6:    4171        qA      ADCS     r1,r1,r6
        0x000042b8:    0fd2        ..      LSRS     r2,r2,#31
        0x000042ba:    9e05        ..      LDR      r6,[sp,#0x14]
        0x000042bc:    07d2        ..      LSLS     r2,r2,#31
        0x000042be:    9300        ..      STR      r3,[sp,#0]
        0x000042c0:    9201        ..      STR      r2,[sp,#4]
        0x000042c2:    9602        ..      STR      r6,[sp,#8]
        0x000042c4:    462a        *F      MOV      r2,r5
        0x000042c6:    4623        #F      MOV      r3,r4
        0x000042c8:    f7ffff4a    ..J.    BL       _double_epilogue ; 0x4160
        0x000042cc:    b007        ..      ADD      sp,sp,#0x1c
        0x000042ce:    bdf0        ..      POP      {r4-r7,pc}
        0x000042d0:    4638        8F      MOV      r0,r7
        0x000042d2:    4631        1F      MOV      r1,r6
        0x000042d4:    e7fa        ..      B        0x42cc ; __aeabi_dadd + 200
        0x000042d6:    0516        ..      LSLS     r6,r2,#20
        0x000042d8:    4a22        "J      LDR      r2,[pc,#136] ; [0x4364] = 0xffe00000
        0x000042da:    460f        .F      MOV      r7,r1
        0x000042dc:    18b2        ..      ADDS     r2,r6,r2
        0x000042de:    1ac0        ..      SUBS     r0,r0,r3
        0x000042e0:    41b7        .A      SBCS     r7,r7,r6
        0x000042e2:    2101        .!      MOVS     r1,#1
        0x000042e4:    0509        ..      LSLS     r1,r1,#20
        0x000042e6:    1c00        ..      ADDS     r0,r0,#0
        0x000042e8:    414f        OA      ADCS     r7,r7,r1
        0x000042ea:    1800        ..      ADDS     r0,r0,r0
        0x000042ec:    417f        .A      ADCS     r7,r7,r7
        0x000042ee:    4611        .F      MOV      r1,r2
        0x000042f0:    1818        ..      ADDS     r0,r3,r0
        0x000042f2:    4179        yA      ADCS     r1,r1,r7
        0x000042f4:    0fe2        ..      LSRS     r2,r4,#31
        0x000042f6:    4310        .C      ORRS     r0,r0,r2
        0x000042f8:    196d        m.      ADDS     r5,r5,r5
        0x000042fa:    4164        dA      ADCS     r4,r4,r4
        0x000042fc:    e013        ..      B        0x4326 ; __aeabi_dadd + 290
        0x000042fe:    07e2        ..      LSLS     r2,r4,#31
        0x00004300:    086d        m.      LSRS     r5,r5,#1
        0x00004302:    4315        .C      ORRS     r5,r5,r2
        0x00004304:    0864        d.      LSRS     r4,r4,#1
        0x00004306:    07c2        ..      LSLS     r2,r0,#31
        0x00004308:    4314        .C      ORRS     r4,r4,r2
        0x0000430a:    9a03        ..      LDR      r2,[sp,#0xc]
        0x0000430c:    2601        .&      MOVS     r6,#1
        0x0000430e:    0512        ..      LSLS     r2,r2,#20
        0x00004310:    1ac0        ..      SUBS     r0,r0,r3
        0x00004312:    4191        .A      SBCS     r1,r1,r2
        0x00004314:    0536        6.      LSLS     r6,r6,#20
        0x00004316:    1c00        ..      ADDS     r0,r0,#0
        0x00004318:    4171        qA      ADCS     r1,r1,r6
        0x0000431a:    07ce        ..      LSLS     r6,r1,#31
        0x0000431c:    0840        @.      LSRS     r0,r0,#1
        0x0000431e:    4330        0C      ORRS     r0,r0,r6
        0x00004320:    0849        I.      LSRS     r1,r1,#1
        0x00004322:    18c0        ..      ADDS     r0,r0,r3
        0x00004324:    4151        QA      ADCS     r1,r1,r2
        0x00004326:    462a        *F      MOV      r2,r5
        0x00004328:    4623        #F      MOV      r3,r4
        0x0000432a:    f7ffff0c    ....    BL       _double_round ; 0x4146
        0x0000432e:    e7cd        ..      B        0x42cc ; __aeabi_dadd + 200
        0x00004330:    e7ff        ..      B        0x4332 ; __aeabi_dadd + 302
        0x00004332:    9804        ..      LDR      r0,[sp,#0x10]
        0x00004334:    2201        ."      MOVS     r2,#1
        0x00004336:    0040        @.      LSLS     r0,r0,#1
        0x00004338:    17c1        ..      ASRS     r1,r0,#31
        0x0000433a:    1a12        ..      SUBS     r2,r2,r0
        0x0000433c:    2300        .#      MOVS     r3,#0
        0x0000433e:    418b        .A      SBCS     r3,r3,r1
        0x00004340:    9804        ..      LDR      r0,[sp,#0x10]
        0x00004342:    4631        1F      MOV      r1,r6
        0x00004344:    17c4        ..      ASRS     r4,r0,#31
        0x00004346:    1a38        8.      SUBS     r0,r7,r0
        0x00004348:    41a1        .A      SBCS     r1,r1,r4
        0x0000434a:    e7ee        ..      B        0x432a ; __aeabi_dadd + 294
    __aeabi_dsub
        0x0000434c:    b430        0.      PUSH     {r4,r5}
        0x0000434e:    2401        .$      MOVS     r4,#1
        0x00004350:    07e4        ..      LSLS     r4,r4,#31
        0x00004352:    4063        c@      EORS     r3,r3,r4
        0x00004354:    bc30        0.      POP      {r4,r5}
        0x00004356:    e755        U.      B        __aeabi_dadd ; 0x4204
    __aeabi_drsub
        0x00004358:    b430        0.      PUSH     {r4,r5}
        0x0000435a:    2401        .$      MOVS     r4,#1
        0x0000435c:    07e4        ..      LSLS     r4,r4,#31
        0x0000435e:    4061        a@      EORS     r1,r1,r4
        0x00004360:    bc30        0.      POP      {r4,r5}
        0x00004362:    e74f        O.      B        __aeabi_dadd ; 0x4204
    $d
        0x00004364:    ffe00000    ....    DCD    4292870144
    $t
    .text
    __aeabi_d2ulz
        0x00004368:    004a        J.      LSLS     r2,r1,#1
        0x0000436a:    0309        ..      LSLS     r1,r1,#12
        0x0000436c:    2301        .#      MOVS     r3,#1
        0x0000436e:    0b09        ..      LSRS     r1,r1,#12
        0x00004370:    051b        ..      LSLS     r3,r3,#20
        0x00004372:    4319        .C      ORRS     r1,r1,r3
        0x00004374:    4b0a        .K      LDR      r3,[pc,#40] ; [0x43a0] = 0x3ff
        0x00004376:    b510        ..      PUSH     {r4,lr}
        0x00004378:    0d52        R.      LSRS     r2,r2,#21
        0x0000437a:    429a        .B      CMP      r2,r3
        0x0000437c:    da02        ..      BGE      0x4384 ; __aeabi_d2ulz + 28
        0x0000437e:    2000        .       MOVS     r0,#0
        0x00004380:    4601        .F      MOV      r1,r0
        0x00004382:    bd10        ..      POP      {r4,pc}
        0x00004384:    4b06        .K      LDR      r3,[pc,#24] ; [0x43a0] = 0x3ff
        0x00004386:    3334        43      ADDS     r3,r3,#0x34
        0x00004388:    429a        .B      CMP      r2,r3
        0x0000438a:    dc03        ..      BGT      0x4394 ; __aeabi_d2ulz + 44
        0x0000438c:    1a9a        ..      SUBS     r2,r3,r2
        0x0000438e:    f7fffe4f    ..O.    BL       __aeabi_llsr ; 0x4030
        0x00004392:    bd10        ..      POP      {r4,pc}
        0x00004394:    4b03        .K      LDR      r3,[pc,#12] ; [0x43a4] = 0xfffffbcd
        0x00004396:    18d2        ..      ADDS     r2,r2,r3
        0x00004398:    f7fffe3a    ..:.    BL       __aeabi_llsl ; 0x4010
        0x0000439c:    bd10        ..      POP      {r4,pc}
    $d
        0x0000439e:    0000        ..      DCW    0
        0x000043a0:    000003ff    ....    DCD    1023
        0x000043a4:    fffffbcd    ....    DCD    4294966221
    $t
    .text
    __scatterload
    __scatterload_rt2
        0x000043a8:    4c06        .L      LDR      r4,[pc,#24] ; [0x43c4] = 0x6b04
        0x000043aa:    2501        .%      MOVS     r5,#1
        0x000043ac:    4e06        .N      LDR      r6,[pc,#24] ; [0x43c8] = 0x6b24
        0x000043ae:    e005        ..      B        0x43bc ; __scatterload + 20
        0x000043b0:    68e3        .h      LDR      r3,[r4,#0xc]
        0x000043b2:    cc07        ..      LDM      r4!,{r0-r2}
        0x000043b4:    432b        +C      ORRS     r3,r3,r5
        0x000043b6:    3c0c        .<      SUBS     r4,r4,#0xc
        0x000043b8:    4798        .G      BLX      r3
        0x000043ba:    3410        .4      ADDS     r4,r4,#0x10
        0x000043bc:    42b4        .B      CMP      r4,r6
        0x000043be:    d3f7        ..      BCC      0x43b0 ; __scatterload + 8
        0x000043c0:    f7fbfe82    ....    BL       __main_after_scatterload ; 0xc8
    $d
        0x000043c4:    00006b04    .k..    DCD    27396
        0x000043c8:    00006b24    $k..    DCD    27428
    $t
    .text
    __aeabi_lasr
    _ll_sshift_r
        0x000043cc:    b510        ..      PUSH     {r4,lr}
        0x000043ce:    2a20         *      CMP      r2,#0x20
        0x000043d0:    db06        ..      BLT      0x43e0 ; __aeabi_lasr + 20
        0x000043d2:    17cb        ..      ASRS     r3,r1,#31
        0x000043d4:    4608        .F      MOV      r0,r1
        0x000043d6:    3a20         :      SUBS     r2,r2,#0x20
        0x000043d8:    4110        .A      ASRS     r0,r0,r2
        0x000043da:    17c1        ..      ASRS     r1,r0,#31
        0x000043dc:    430b        .C      ORRS     r3,r3,r1
        0x000043de:    e006        ..      B        0x43ee ; __aeabi_lasr + 34
        0x000043e0:    460b        .F      MOV      r3,r1
        0x000043e2:    4113        .A      ASRS     r3,r3,r2
        0x000043e4:    40d0        .@      LSRS     r0,r0,r2
        0x000043e6:    2420         $      MOVS     r4,#0x20
        0x000043e8:    1aa2        ..      SUBS     r2,r4,r2
        0x000043ea:    4091        .@      LSLS     r1,r1,r2
        0x000043ec:    4308        .C      ORRS     r0,r0,r1
        0x000043ee:    4619        .F      MOV      r1,r3
        0x000043f0:    bd10        ..      POP      {r4,pc}
        0x000043f2:    0000        ..      MOVS     r0,r0
    .text
    __rt_ctype_table
        0x000043f4:    4800        .H      LDR      r0,[pc,#0] ; [0x43f8] = 0x6a80
        0x000043f6:    4770        pG      BX       lr
    $d
        0x000043f8:    00006a80    .j..    DCD    27264
    $t
    .text
    _strtoul
        0x000043fc:    b5f7        ..      PUSH     {r0-r2,r4-r7,lr}
        0x000043fe:    b082        ..      SUB      sp,sp,#8
        0x00004400:    9c02        ..      LDR      r4,[sp,#8]
        0x00004402:    2700        .'      MOVS     r7,#0
        0x00004404:    7820         x      LDRB     r0,[r4,#0]
        0x00004406:    1c64        d.      ADDS     r4,r4,#1
        0x00004408:    4615        .F      MOV      r5,r2
        0x0000440a:    9701        ..      STR      r7,[sp,#4]
        0x0000440c:    2830        0(      CMP      r0,#0x30
        0x0000440e:    d002        ..      BEQ      0x4416 ; _strtoul + 26
        0x00004410:    2d00        .-      CMP      r5,#0
        0x00004412:    d015        ..      BEQ      0x4440 ; _strtoul + 68
        0x00004414:    e015        ..      B        0x4442 ; _strtoul + 70
        0x00004416:    7820         x      LDRB     r0,[r4,#0]
        0x00004418:    2701        .'      MOVS     r7,#1
        0x0000441a:    1c64        d.      ADDS     r4,r4,#1
        0x0000441c:    2878        x(      CMP      r0,#0x78
        0x0000441e:    d004        ..      BEQ      0x442a ; _strtoul + 46
        0x00004420:    2858        X(      CMP      r0,#0x58
        0x00004422:    d002        ..      BEQ      0x442a ; _strtoul + 46
        0x00004424:    2d00        .-      CMP      r5,#0
        0x00004426:    d009        ..      BEQ      0x443c ; _strtoul + 64
        0x00004428:    e00b        ..      B        0x4442 ; _strtoul + 70
        0x0000442a:    2d00        .-      CMP      r5,#0
        0x0000442c:    d001        ..      BEQ      0x4432 ; _strtoul + 54
        0x0000442e:    2d10        .-      CMP      r5,#0x10
        0x00004430:    d107        ..      BNE      0x4442 ; _strtoul + 70
        0x00004432:    2700        .'      MOVS     r7,#0
        0x00004434:    2510        .%      MOVS     r5,#0x10
        0x00004436:    7820         x      LDRB     r0,[r4,#0]
        0x00004438:    1c64        d.      ADDS     r4,r4,#1
        0x0000443a:    e002        ..      B        0x4442 ; _strtoul + 70
        0x0000443c:    2508        .%      MOVS     r5,#8
        0x0000443e:    e000        ..      B        0x4442 ; _strtoul + 70
        0x00004440:    250a        .%      MOVS     r5,#0xa
        0x00004442:    2600        .&      MOVS     r6,#0
        0x00004444:    9600        ..      STR      r6,[sp,#0]
        0x00004446:    e010        ..      B        0x446a ; _strtoul + 110
        0x00004448:    9900        ..      LDR      r1,[sp,#0]
        0x0000444a:    2701        .'      MOVS     r7,#1
        0x0000444c:    4369        iC      MULS     r1,r5,r1
        0x0000444e:    1808        ..      ADDS     r0,r1,r0
        0x00004450:    0c02        ..      LSRS     r2,r0,#16
        0x00004452:    4629        )F      MOV      r1,r5
        0x00004454:    b280        ..      UXTH     r0,r0
        0x00004456:    4371        qC      MULS     r1,r6,r1
        0x00004458:    9000        ..      STR      r0,[sp,#0]
        0x0000445a:    188e        ..      ADDS     r6,r1,r2
        0x0000445c:    0438        8.      LSLS     r0,r7,#16
        0x0000445e:    4286        .B      CMP      r6,r0
        0x00004460:    d301        ..      BCC      0x4466 ; _strtoul + 106
        0x00004462:    2001        .       MOVS     r0,#1
        0x00004464:    9001        ..      STR      r0,[sp,#4]
        0x00004466:    7820         x      LDRB     r0,[r4,#0]
        0x00004468:    1c64        d.      ADDS     r4,r4,#1
        0x0000446a:    4629        )F      MOV      r1,r5
        0x0000446c:    f000f819    ....    BL       _chval ; 0x44a2
        0x00004470:    2800        .(      CMP      r0,#0
        0x00004472:    dae9        ..      BGE      0x4448 ; _strtoul + 76
        0x00004474:    9803        ..      LDR      r0,[sp,#0xc]
        0x00004476:    2800        .(      CMP      r0,#0
        0x00004478:    d005        ..      BEQ      0x4486 ; _strtoul + 138
        0x0000447a:    2f00        ./      CMP      r7,#0
        0x0000447c:    d001        ..      BEQ      0x4482 ; _strtoul + 134
        0x0000447e:    1e64        d.      SUBS     r4,r4,#1
        0x00004480:    e000        ..      B        0x4484 ; _strtoul + 136
        0x00004482:    9c02        ..      LDR      r4,[sp,#8]
        0x00004484:    6004        .`      STR      r4,[r0,#0]
        0x00004486:    9801        ..      LDR      r0,[sp,#4]
        0x00004488:    2800        .(      CMP      r0,#0
        0x0000448a:    d006        ..      BEQ      0x449a ; _strtoul + 158
        0x0000448c:    f000f908    ....    BL       __aeabi_errno_addr ; 0x46a0
        0x00004490:    2102        .!      MOVS     r1,#2
        0x00004492:    6001        .`      STR      r1,[r0,#0]
        0x00004494:    1ec8        ..      SUBS     r0,r1,#3
        0x00004496:    b005        ..      ADD      sp,sp,#0x14
        0x00004498:    bdf0        ..      POP      {r4-r7,pc}
        0x0000449a:    9900        ..      LDR      r1,[sp,#0]
        0x0000449c:    0430        0.      LSLS     r0,r6,#16
        0x0000449e:    4308        .C      ORRS     r0,r0,r1
        0x000044a0:    e7f9        ..      B        0x4496 ; _strtoul + 154
    .text
    _chval
        0x000044a2:    283a        :(      CMP      r0,#0x3a
        0x000044a4:    d200        ..      BCS      0x44a8 ; _chval + 6
        0x000044a6:    3830        08      SUBS     r0,r0,#0x30
        0x000044a8:    2320         #      MOVS     r3,#0x20
        0x000044aa:    4602        .F      MOV      r2,r0
        0x000044ac:    439a        .C      BICS     r2,r2,r3
        0x000044ae:    2a41        A*      CMP      r2,#0x41
        0x000044b0:    d301        ..      BCC      0x44b6 ; _chval + 20
        0x000044b2:    4610        .F      MOV      r0,r2
        0x000044b4:    3837        78      SUBS     r0,r0,#0x37
        0x000044b6:    4288        .B      CMP      r0,r1
        0x000044b8:    d301        ..      BCC      0x44be ; _chval + 28
        0x000044ba:    2000        .       MOVS     r0,#0
        0x000044bc:    43c0        .C      MVNS     r0,r0
        0x000044be:    4770        pG      BX       lr
    $d
    SVC_TABLE
    SVC_Count
        0x000044c0:    00000000    ....    DCD    0
    $t
    i.SYS_Init
    SVC_Table
    SYS_Init
        0x000044c4:    b510        ..      PUSH     {r4,lr}
        0x000044c6:    f7fdf903    ....    BL       SYS_UnlockReg ; 0x16d0
        0x000044ca:    4847        GH      LDR      r0,[pc,#284] ; [0x45e8] = 0x50000200
        0x000044cc:    6800        .h      LDR      r0,[r0,#0]
        0x000044ce:    2101        .!      MOVS     r1,#1
        0x000044d0:    4308        .C      ORRS     r0,r0,r1
        0x000044d2:    4945        EI      LDR      r1,[pc,#276] ; [0x45e8] = 0x50000200
        0x000044d4:    6008        .`      STR      r0,[r1,#0]
        0x000044d6:    2001        .       MOVS     r0,#1
        0x000044d8:    f7fefd88    ....    BL       CLK_WaitClockReady ; 0x2fec
        0x000044dc:    4842        BH      LDR      r0,[pc,#264] ; [0x45e8] = 0x50000200
        0x000044de:    6900        .i      LDR      r0,[r0,#0x10]
        0x000044e0:    08c0        ..      LSRS     r0,r0,#3
        0x000044e2:    00c0        ..      LSLS     r0,r0,#3
        0x000044e4:    4940        @I      LDR      r1,[pc,#256] ; [0x45e8] = 0x50000200
        0x000044e6:    6108        .a      STR      r0,[r1,#0x10]
        0x000044e8:    4608        .F      MOV      r0,r1
        0x000044ea:    6900        .i      LDR      r0,[r0,#0x10]
        0x000044ec:    6108        .a      STR      r0,[r1,#0x10]
        0x000044ee:    4608        .F      MOV      r0,r1
        0x000044f0:    6880        .h      LDR      r0,[r0,#8]
        0x000044f2:    01c9        ..      LSLS     r1,r1,#7
        0x000044f4:    4308        .C      ORRS     r0,r0,r1
        0x000044f6:    493c        <I      LDR      r1,[pc,#240] ; [0x45e8] = 0x50000200
        0x000044f8:    6088        .`      STR      r0,[r1,#8]
        0x000044fa:    4608        .F      MOV      r0,r1
        0x000044fc:    6880        .h      LDR      r0,[r0,#8]
        0x000044fe:    0209        ..      LSLS     r1,r1,#8
        0x00004500:    4308        .C      ORRS     r0,r0,r1
        0x00004502:    4939        9I      LDR      r1,[pc,#228] ; [0x45e8] = 0x50000200
        0x00004504:    6088        .`      STR      r0,[r1,#8]
        0x00004506:    4839        9H      LDR      r0,[pc,#228] ; [0x45ec] = 0xa623fe1c
        0x00004508:    f7fefead    ....    BL       CLK_EnableModuleClock ; 0x3266
        0x0000450c:    2007        .       MOVS     r0,#7
        0x0000450e:    0740        @.      LSLS     r0,r0,#29
        0x00004510:    f7fefea9    ....    BL       CLK_EnableModuleClock ; 0x3266
        0x00004514:    4834        4H      LDR      r0,[pc,#208] ; [0x45e8] = 0x50000200
        0x00004516:    6940        @i      LDR      r0,[r0,#0x14]
        0x00004518:    0880        ..      LSRS     r0,r0,#2
        0x0000451a:    0080        ..      LSLS     r0,r0,#2
        0x0000451c:    4932        2I      LDR      r1,[pc,#200] ; [0x45e8] = 0x50000200
        0x0000451e:    6148        Ha      STR      r0,[r1,#0x14]
        0x00004520:    4608        .F      MOV      r0,r1
        0x00004522:    6940        @i      LDR      r0,[r0,#0x14]
        0x00004524:    6148        Ha      STR      r0,[r1,#0x14]
        0x00004526:    2200        ."      MOVS     r2,#0
        0x00004528:    4611        .F      MOV      r1,r2
        0x0000452a:    2007        .       MOVS     r0,#7
        0x0000452c:    0740        @.      LSLS     r0,r0,#29
        0x0000452e:    f7fefe64    ..d.    BL       CLK_SetModuleClock ; 0x31fa
        0x00004532:    f7fbfef5    ....    BL       SystemCoreClockUpdate ; 0x320
        0x00004536:    2005        .       MOVS     r0,#5
        0x00004538:    0700        ..      LSLS     r0,r0,#28
        0x0000453a:    6b80        .k      LDR      r0,[r0,#0x38]
        0x0000453c:    2177        w!      MOVS     r1,#0x77
        0x0000453e:    4388        .C      BICS     r0,r0,r1
        0x00004540:    2105        .!      MOVS     r1,#5
        0x00004542:    0709        ..      LSLS     r1,r1,#28
        0x00004544:    6388        .c      STR      r0,[r1,#0x38]
        0x00004546:    4608        .F      MOV      r0,r1
        0x00004548:    6b80        .k      LDR      r0,[r0,#0x38]
        0x0000454a:    2111        .!      MOVS     r1,#0x11
        0x0000454c:    4308        .C      ORRS     r0,r0,r1
        0x0000454e:    2105        .!      MOVS     r1,#5
        0x00004550:    0709        ..      LSLS     r1,r1,#28
        0x00004552:    6388        .c      STR      r0,[r1,#0x38]
        0x00004554:    4608        .F      MOV      r0,r1
        0x00004556:    6b80        .k      LDR      r0,[r0,#0x38]
        0x00004558:    2177        w!      MOVS     r1,#0x77
        0x0000455a:    0409        ..      LSLS     r1,r1,#16
        0x0000455c:    4388        .C      BICS     r0,r0,r1
        0x0000455e:    2105        .!      MOVS     r1,#5
        0x00004560:    0709        ..      LSLS     r1,r1,#28
        0x00004562:    6388        .c      STR      r0,[r1,#0x38]
        0x00004564:    4608        .F      MOV      r0,r1
        0x00004566:    6b80        .k      LDR      r0,[r0,#0x38]
        0x00004568:    2111        .!      MOVS     r1,#0x11
        0x0000456a:    0409        ..      LSLS     r1,r1,#16
        0x0000456c:    4308        .C      ORRS     r0,r0,r1
        0x0000456e:    2105        .!      MOVS     r1,#5
        0x00004570:    0709        ..      LSLS     r1,r1,#28
        0x00004572:    6388        .c      STR      r0,[r1,#0x38]
        0x00004574:    4608        .F      MOV      r0,r1
        0x00004576:    6b40        @k      LDR      r0,[r0,#0x34]
        0x00004578:    2111        .!      MOVS     r1,#0x11
        0x0000457a:    0209        ..      LSLS     r1,r1,#8
        0x0000457c:    4308        .C      ORRS     r0,r0,r1
        0x0000457e:    2105        .!      MOVS     r1,#5
        0x00004580:    0709        ..      LSLS     r1,r1,#28
        0x00004582:    6348        Hc      STR      r0,[r1,#0x34]
        0x00004584:    4818        .H      LDR      r0,[pc,#96] ; [0x45e8] = 0x50000200
        0x00004586:    6880        .h      LDR      r0,[r0,#8]
        0x00004588:    2101        .!      MOVS     r1,#1
        0x0000458a:    0249        I.      LSLS     r1,r1,#9
        0x0000458c:    4308        .C      ORRS     r0,r0,r1
        0x0000458e:    4916        .I      LDR      r1,[pc,#88] ; [0x45e8] = 0x50000200
        0x00004590:    6088        .`      STR      r0,[r1,#8]
        0x00004592:    2005        .       MOVS     r0,#5
        0x00004594:    0700        ..      LSLS     r0,r0,#28
        0x00004596:    68c0        .h      LDR      r0,[r0,#0xc]
        0x00004598:    2101        .!      MOVS     r1,#1
        0x0000459a:    0249        I.      LSLS     r1,r1,#9
        0x0000459c:    4308        .C      ORRS     r0,r0,r1
        0x0000459e:    2105        .!      MOVS     r1,#5
        0x000045a0:    0709        ..      LSLS     r1,r1,#28
        0x000045a2:    60c8        .`      STR      r0,[r1,#0xc]
        0x000045a4:    4608        .F      MOV      r0,r1
        0x000045a6:    68c0        .h      LDR      r0,[r0,#0xc]
        0x000045a8:    2101        .!      MOVS     r1,#1
        0x000045aa:    0249        I.      LSLS     r1,r1,#9
        0x000045ac:    4388        .C      BICS     r0,r0,r1
        0x000045ae:    2105        .!      MOVS     r1,#5
        0x000045b0:    0709        ..      LSLS     r1,r1,#28
        0x000045b2:    60c8        .`      STR      r0,[r1,#0xc]
        0x000045b4:    4608        .F      MOV      r0,r1
        0x000045b6:    6b00        .k      LDR      r0,[r0,#0x30]
        0x000045b8:    08c0        ..      LSRS     r0,r0,#3
        0x000045ba:    00c0        ..      LSLS     r0,r0,#3
        0x000045bc:    6308        .c      STR      r0,[r1,#0x30]
        0x000045be:    4608        .F      MOV      r0,r1
        0x000045c0:    6b00        .k      LDR      r0,[r0,#0x30]
        0x000045c2:    2101        .!      MOVS     r1,#1
        0x000045c4:    4308        .C      ORRS     r0,r0,r1
        0x000045c6:    2105        .!      MOVS     r1,#5
        0x000045c8:    0709        ..      LSLS     r1,r1,#28
        0x000045ca:    6308        .c      STR      r0,[r1,#0x30]
        0x000045cc:    4808        .H      LDR      r0,[pc,#32] ; [0x45f0] = 0x50004000
        0x000045ce:    6840        @h      LDR      r0,[r0,#4]
        0x000045d0:    2101        .!      MOVS     r1,#1
        0x000045d2:    0409        ..      LSLS     r1,r1,#16
        0x000045d4:    4308        .C      ORRS     r0,r0,r1
        0x000045d6:    4906        .I      LDR      r1,[pc,#24] ; [0x45f0] = 0x50004000
        0x000045d8:    6048        H`      STR      r0,[r1,#4]
        0x000045da:    bf00        ..      NOP      
        0x000045dc:    2000        .       MOVS     r0,#0
        0x000045de:    4905        .I      LDR      r1,[pc,#20] ; [0x45f4] = 0x50000100
        0x000045e0:    6008        .`      STR      r0,[r1,#0]
        0x000045e2:    bf00        ..      NOP      
        0x000045e4:    bd10        ..      POP      {r4,pc}
    $d
        0x000045e6:    0000        ..      DCW    0
        0x000045e8:    50000200    ...P    DCD    1342177792
        0x000045ec:    a623fe1c    ..#.    DCD    2787376668
        0x000045f0:    50004000    .@.P    DCD    1342193664
        0x000045f4:    50000100    ...P    DCD    1342177536
    $t
    i.__0printf
    __0printf
    __1printf
    __2printf
    __c89printf
    printf
        0x000045f8:    b40f        ..      PUSH     {r0-r3}
        0x000045fa:    b510        ..      PUSH     {r4,lr}
        0x000045fc:    a903        ..      ADD      r1,sp,#0xc
        0x000045fe:    4b04        .K      LDR      r3,[pc,#16] ; [0x4610] = 0x37d1
        0x00004600:    4a04        .J      LDR      r2,[pc,#16] ; [0x4614] = 0x20000124
        0x00004602:    9802        ..      LDR      r0,[sp,#8]
        0x00004604:    f000f93e    ..>.    BL       _printf_core ; 0x4884
        0x00004608:    bc10        ..      POP      {r4}
        0x0000460a:    bc08        ..      POP      {r3}
        0x0000460c:    b004        ..      ADD      sp,sp,#0x10
        0x0000460e:    4718        .G      BX       r3
    $d
        0x00004610:    000037d1    .7..    DCD    14289
        0x00004614:    20000124    $..     DCD    536871204
    $t
    i.__0sprintf
    __0sprintf
    __1sprintf
    __2sprintf
    __c89sprintf
    sprintf
        0x00004618:    b40f        ..      PUSH     {r0-r3}
        0x0000461a:    b510        ..      PUSH     {r4,lr}
        0x0000461c:    a904        ..      ADD      r1,sp,#0x10
        0x0000461e:    4b07        .K      LDR      r3,[pc,#28] ; [0x463c] = 0x4fbd
        0x00004620:    aa02        ..      ADD      r2,sp,#8
        0x00004622:    9803        ..      LDR      r0,[sp,#0xc]
        0x00004624:    f000f92e    ....    BL       _printf_core ; 0x4884
        0x00004628:    4604        .F      MOV      r4,r0
        0x0000462a:    a902        ..      ADD      r1,sp,#8
        0x0000462c:    2000        .       MOVS     r0,#0
        0x0000462e:    f000fcc5    ....    BL       _sputc ; 0x4fbc
        0x00004632:    4620         F      MOV      r0,r4
        0x00004634:    bc10        ..      POP      {r4}
        0x00004636:    bc08        ..      POP      {r3}
        0x00004638:    b004        ..      ADD      sp,sp,#0x10
        0x0000463a:    4718        .G      BX       r3
    $d
        0x0000463c:    00004fbd    .O..    DCD    20413
    $t
    i.__ARM_clz
    __ARM_clz
        0x00004640:    2120         !      MOVS     r1,#0x20
        0x00004642:    0c02        ..      LSRS     r2,r0,#16
        0x00004644:    d001        ..      BEQ      0x464a ; __ARM_clz + 10
        0x00004646:    2110        .!      MOVS     r1,#0x10
        0x00004648:    4610        .F      MOV      r0,r2
        0x0000464a:    0a02        ..      LSRS     r2,r0,#8
        0x0000464c:    d001        ..      BEQ      0x4652 ; __ARM_clz + 18
        0x0000464e:    4610        .F      MOV      r0,r2
        0x00004650:    3908        .9      SUBS     r1,r1,#8
        0x00004652:    0902        ..      LSRS     r2,r0,#4
        0x00004654:    d001        ..      BEQ      0x465a ; __ARM_clz + 26
        0x00004656:    4610        .F      MOV      r0,r2
        0x00004658:    1f09        ..      SUBS     r1,r1,#4
        0x0000465a:    0882        ..      LSRS     r2,r0,#2
        0x0000465c:    d001        ..      BEQ      0x4662 ; __ARM_clz + 34
        0x0000465e:    4610        .F      MOV      r0,r2
        0x00004660:    1e89        ..      SUBS     r1,r1,#2
        0x00004662:    0842        B.      LSRS     r2,r0,#1
        0x00004664:    d001        ..      BEQ      0x466a ; __ARM_clz + 42
        0x00004666:    1e88        ..      SUBS     r0,r1,#2
        0x00004668:    4770        pG      BX       lr
        0x0000466a:    1a08        ..      SUBS     r0,r1,r0
        0x0000466c:    4770        pG      BX       lr
    i.__ARM_common_ll_muluu
    __ARM_common_ll_muluu
        0x0000466e:    b5f8        ..      PUSH     {r3-r7,lr}
        0x00004670:    0c04        ..      LSRS     r4,r0,#16
        0x00004672:    b28b        ..      UXTH     r3,r1
        0x00004674:    4626        &F      MOV      r6,r4
        0x00004676:    b282        ..      UXTH     r2,r0
        0x00004678:    435e        ^C      MULS     r6,r3,r6
        0x0000467a:    0c0d        ..      LSRS     r5,r1,#16
        0x0000467c:    4610        .F      MOV      r0,r2
        0x0000467e:    0c37        7.      LSRS     r7,r6,#16
        0x00004680:    4358        XC      MULS     r0,r3,r0
        0x00004682:    0436        6.      LSLS     r6,r6,#16
        0x00004684:    1980        ..      ADDS     r0,r0,r6
        0x00004686:    2100        .!      MOVS     r1,#0
        0x00004688:    4179        yA      ADCS     r1,r1,r7
        0x0000468a:    4616        .F      MOV      r6,r2
        0x0000468c:    436e        nC      MULS     r6,r5,r6
        0x0000468e:    0c37        7.      LSRS     r7,r6,#16
        0x00004690:    0436        6.      LSLS     r6,r6,#16
        0x00004692:    1980        ..      ADDS     r0,r0,r6
        0x00004694:    4179        yA      ADCS     r1,r1,r7
        0x00004696:    4626        &F      MOV      r6,r4
        0x00004698:    436e        nC      MULS     r6,r5,r6
        0x0000469a:    1989        ..      ADDS     r1,r1,r6
        0x0000469c:    bdf8        ..      POP      {r3-r7,pc}
        0x0000469e:    0000        ..      MOVS     r0,r0
    i.__aeabi_errno_addr
    __aeabi_errno_addr
    __rt_errno_addr
        0x000046a0:    4800        .H      LDR      r0,[pc,#0] ; [0x46a4] = 0x20000160
        0x000046a2:    4770        pG      BX       lr
    $d
        0x000046a4:    20000160    `..     DCD    536871264
    $t
    i.__scatterload_copy
    __scatterload_copy
        0x000046a8:    e002        ..      B        0x46b0 ; __scatterload_copy + 8
        0x000046aa:    c808        ..      LDM      r0!,{r3}
        0x000046ac:    1f12        ..      SUBS     r2,r2,#4
        0x000046ae:    c108        ..      STM      r1!,{r3}
        0x000046b0:    2a00        .*      CMP      r2,#0
        0x000046b2:    d1fa        ..      BNE      0x46aa ; __scatterload_copy + 2
        0x000046b4:    4770        pG      BX       lr
    i.__scatterload_null
    __scatterload_null
        0x000046b6:    4770        pG      BX       lr
    i.__scatterload_zeroinit
    __scatterload_zeroinit
        0x000046b8:    2000        .       MOVS     r0,#0
        0x000046ba:    e001        ..      B        0x46c0 ; __scatterload_zeroinit + 8
        0x000046bc:    c101        ..      STM      r1!,{r0}
        0x000046be:    1f12        ..      SUBS     r2,r2,#4
        0x000046c0:    2a00        .*      CMP      r2,#0
        0x000046c2:    d1fb        ..      BNE      0x46bc ; __scatterload_zeroinit + 4
        0x000046c4:    4770        pG      BX       lr
        0x000046c6:    0000        ..      MOVS     r0,r0
    i._fp_digits
    _fp_digits
        0x000046c8:    b5f0        ..      PUSH     {r4-r7,lr}
        0x000046ca:    b41f        ..      PUSH     {r0-r4}
        0x000046cc:    b086        ..      SUB      sp,sp,#0x18
        0x000046ce:    9809        ..      LDR      r0,[sp,#0x24]
        0x000046d0:    9a08        ..      LDR      r2,[sp,#0x20]
        0x000046d2:    0d03        ..      LSRS     r3,r0,#20
        0x000046d4:    2100        .!      MOVS     r1,#0
        0x000046d6:    4302        .C      ORRS     r2,r2,r0
        0x000046d8:    d014        ..      BEQ      0x4704 ; _fp_digits + 60
        0x000046da:    4851        QH      LDR      r0,[pc,#324] ; [0x4820] = 0xfffffc01
        0x000046dc:    4a51        QJ      LDR      r2,[pc,#324] ; [0x4824] = 0x4d10
        0x000046de:    1818        ..      ADDS     r0,r3,r0
        0x000046e0:    4350        PC      MULS     r0,r2,r0
        0x000046e2:    1405        ..      ASRS     r5,r0,#16
        0x000046e4:    9811        ..      LDR      r0,[sp,#0x44]
        0x000046e6:    2801        .(      CMP      r0,#1
        0x000046e8:    9810        ..      LDR      r0,[sp,#0x40]
        0x000046ea:    d01a        ..      BEQ      0x4722 ; _fp_digits + 90
        0x000046ec:    1a28        (.      SUBS     r0,r5,r0
        0x000046ee:    1c40        @.      ADDS     r0,r0,#1
        0x000046f0:    2600        .&      MOVS     r6,#0
        0x000046f2:    4f4d        MO      LDR      r7,[pc,#308] ; [0x4828] = 0x40140000
        0x000046f4:    494d        MI      LDR      r1,[pc,#308] ; [0x482c] = 0x3ff00000
        0x000046f6:    9600        ..      STR      r6,[sp,#0]
        0x000046f8:    9101        ..      STR      r1,[sp,#4]
        0x000046fa:    9004        ..      STR      r0,[sp,#0x10]
        0x000046fc:    2800        .(      CMP      r0,#0
        0x000046fe:    da12        ..      BGE      0x4726 ; _fp_digits + 94
        0x00004700:    4244        DB      RSBS     r4,r0,#0
        0x00004702:    e011        ..      B        0x4728 ; _fp_digits + 96
        0x00004704:    9811        ..      LDR      r0,[sp,#0x44]
        0x00004706:    2401        .$      MOVS     r4,#1
        0x00004708:    a349        I.      ADR      r3,{pc}+0x128 ; 0x4830
        0x0000470a:    2801        .(      CMP      r0,#1
        0x0000470c:    d101        ..      BNE      0x4712 ; _fp_digits + 74
        0x0000470e:    9810        ..      LDR      r0,[sp,#0x40]
        0x00004710:    43c1        .C      MVNS     r1,r0
        0x00004712:    9806        ..      LDR      r0,[sp,#0x18]
        0x00004714:    9a11        ..      LDR      r2,[sp,#0x44]
        0x00004716:    6084        .`      STR      r4,[r0,#8]
        0x00004718:    6003        .`      STR      r3,[r0,#0]
        0x0000471a:    60c2        .`      STR      r2,[r0,#0xc]
        0x0000471c:    6041        A`      STR      r1,[r0,#4]
        0x0000471e:    b00b        ..      ADD      sp,sp,#0x2c
        0x00004720:    bdf0        ..      POP      {r4-r7,pc}
        0x00004722:    4240        @B      RSBS     r0,r0,#0
        0x00004724:    e7e4        ..      B        0x46f0 ; _fp_digits + 40
        0x00004726:    4604        .F      MOV      r4,r0
        0x00004728:    0521        !.      LSLS     r1,r4,#20
        0x0000472a:    2000        .       MOVS     r0,#0
        0x0000472c:    4a3f        ?J      LDR      r2,[pc,#252] ; [0x482c] = 0x3ff00000
        0x0000472e:    1c00        ..      ADDS     r0,r0,#0
        0x00004730:    4151        QA      ADCS     r1,r1,r2
        0x00004732:    9103        ..      STR      r1,[sp,#0xc]
        0x00004734:    9002        ..      STR      r0,[sp,#8]
        0x00004736:    e012        ..      B        0x475e ; _fp_digits + 150
        0x00004738:    07e0        ..      LSLS     r0,r4,#31
        0x0000473a:    d007        ..      BEQ      0x474c ; _fp_digits + 132
        0x0000473c:    4632        2F      MOV      r2,r6
        0x0000473e:    463b        ;F      MOV      r3,r7
        0x00004740:    9901        ..      LDR      r1,[sp,#4]
        0x00004742:    9800        ..      LDR      r0,[sp,#0]
        0x00004744:    f7fffb24    ..$.    BL       __aeabi_dmul ; 0x3d90
        0x00004748:    9101        ..      STR      r1,[sp,#4]
        0x0000474a:    9000        ..      STR      r0,[sp,#0]
        0x0000474c:    4632        2F      MOV      r2,r6
        0x0000474e:    463b        ;F      MOV      r3,r7
        0x00004750:    4610        .F      MOV      r0,r2
        0x00004752:    4619        .F      MOV      r1,r3
        0x00004754:    f7fffb1c    ....    BL       __aeabi_dmul ; 0x3d90
        0x00004758:    4606        .F      MOV      r6,r0
        0x0000475a:    460f        .F      MOV      r7,r1
        0x0000475c:    1064        d.      ASRS     r4,r4,#1
        0x0000475e:    2c00        .,      CMP      r4,#0
        0x00004760:    d1ea        ..      BNE      0x4738 ; _fp_digits + 112
        0x00004762:    9804        ..      LDR      r0,[sp,#0x10]
        0x00004764:    9b03        ..      LDR      r3,[sp,#0xc]
        0x00004766:    2800        .(      CMP      r0,#0
        0x00004768:    9a02        ..      LDR      r2,[sp,#8]
        0x0000476a:    9909        ..      LDR      r1,[sp,#0x24]
        0x0000476c:    9808        ..      LDR      r0,[sp,#0x20]
        0x0000476e:    da06        ..      BGE      0x477e ; _fp_digits + 182
        0x00004770:    f7fffb0e    ....    BL       __aeabi_dmul ; 0x3d90
        0x00004774:    9b01        ..      LDR      r3,[sp,#4]
        0x00004776:    9a00        ..      LDR      r2,[sp,#0]
        0x00004778:    f7fffb0a    ....    BL       __aeabi_dmul ; 0x3d90
        0x0000477c:    e005        ..      B        0x478a ; _fp_digits + 194
        0x0000477e:    f7fffb6f    ..o.    BL       __aeabi_ddiv ; 0x3e60
        0x00004782:    9b01        ..      LDR      r3,[sp,#4]
        0x00004784:    9a00        ..      LDR      r2,[sp,#0]
        0x00004786:    f7fffb6b    ..k.    BL       __aeabi_ddiv ; 0x3e60
        0x0000478a:    4604        .F      MOV      r4,r0
        0x0000478c:    460e        .F      MOV      r6,r1
        0x0000478e:    2200        ."      MOVS     r2,#0
        0x00004790:    4b28        (K      LDR      r3,[pc,#160] ; [0x4834] = 0x43f00000
        0x00004792:    f7fffc0d    ....    BL       __aeabi_cdrcmple ; 0x3fb0
        0x00004796:    d803        ..      BHI      0x47a0 ; _fp_digits + 216
        0x00004798:    2000        .       MOVS     r0,#0
        0x0000479a:    43c0        .C      MVNS     r0,r0
        0x0000479c:    4601        .F      MOV      r1,r0
        0x0000479e:    e007        ..      B        0x47b0 ; _fp_digits + 232
        0x000047a0:    2200        ."      MOVS     r2,#0
        0x000047a2:    4b25        %K      LDR      r3,[pc,#148] ; [0x4838] = 0x3fe00000
        0x000047a4:    4620         F      MOV      r0,r4
        0x000047a6:    4631        1F      MOV      r1,r6
        0x000047a8:    f7fffd2c    ..,.    BL       __aeabi_dadd ; 0x4204
        0x000047ac:    f7fffddc    ....    BL       __aeabi_d2ulz ; 0x4368
        0x000047b0:    2410        .$      MOVS     r4,#0x10
        0x000047b2:    e009        ..      B        0x47c8 ; _fp_digits + 256
        0x000047b4:    2c00        .,      CMP      r4,#0
        0x000047b6:    db0a        ..      BLT      0x47ce ; _fp_digits + 262
        0x000047b8:    220a        ."      MOVS     r2,#0xa
        0x000047ba:    2300        .#      MOVS     r3,#0
        0x000047bc:    f7fffa72    ..r.    BL       __aeabi_uldivmod ; 0x3ca4
        0x000047c0:    9b07        ..      LDR      r3,[sp,#0x1c]
        0x000047c2:    3230        02      ADDS     r2,r2,#0x30
        0x000047c4:    551a        .U      STRB     r2,[r3,r4]
        0x000047c6:    1e64        d.      SUBS     r4,r4,#1
        0x000047c8:    4602        .F      MOV      r2,r0
        0x000047ca:    430a        .C      ORRS     r2,r2,r1
        0x000047cc:    d1f2        ..      BNE      0x47b4 ; _fp_digits + 236
        0x000047ce:    2211        ."      MOVS     r2,#0x11
        0x000047d0:    1c64        d.      ADDS     r4,r4,#1
        0x000047d2:    9b07        ..      LDR      r3,[sp,#0x1c]
        0x000047d4:    1b12        ..      SUBS     r2,r2,r4
        0x000047d6:    191c        ..      ADDS     r4,r3,r4
        0x000047d8:    9b11        ..      LDR      r3,[sp,#0x44]
        0x000047da:    2b01        .+      CMP      r3,#1
        0x000047dc:    d003        ..      BEQ      0x47e6 ; _fp_digits + 286
        0x000047de:    2301        .#      MOVS     r3,#1
        0x000047e0:    4308        .C      ORRS     r0,r0,r1
        0x000047e2:    d10e        ..      BNE      0x4802 ; _fp_digits + 314
        0x000047e4:    e00a        ..      B        0x47fc ; _fp_digits + 308
        0x000047e6:    4308        .C      ORRS     r0,r0,r1
        0x000047e8:    d004        ..      BEQ      0x47f4 ; _fp_digits + 300
        0x000047ea:    2011        .       MOVS     r0,#0x11
        0x000047ec:    9010        ..      STR      r0,[sp,#0x40]
        0x000047ee:    2000        .       MOVS     r0,#0
        0x000047f0:    9011        ..      STR      r0,[sp,#0x44]
        0x000047f2:    e777        w.      B        0x46e4 ; _fp_digits + 28
        0x000047f4:    9810        ..      LDR      r0,[sp,#0x40]
        0x000047f6:    1a15        ..      SUBS     r5,r2,r0
        0x000047f8:    1e6d        m.      SUBS     r5,r5,#1
        0x000047fa:    e00b        ..      B        0x4814 ; _fp_digits + 332
        0x000047fc:    9810        ..      LDR      r0,[sp,#0x40]
        0x000047fe:    4282        .B      CMP      r2,r0
        0x00004800:    dd02        ..      BLE      0x4808 ; _fp_digits + 320
        0x00004802:    2300        .#      MOVS     r3,#0
        0x00004804:    1c6d        m.      ADDS     r5,r5,#1
        0x00004806:    e003        ..      B        0x4810 ; _fp_digits + 328
        0x00004808:    4282        .B      CMP      r2,r0
        0x0000480a:    da01        ..      BGE      0x4810 ; _fp_digits + 328
        0x0000480c:    2300        .#      MOVS     r3,#0
        0x0000480e:    1e6d        m.      SUBS     r5,r5,#1
        0x00004810:    2b00        .+      CMP      r3,#0
        0x00004812:    d0ee        ..      BEQ      0x47f2 ; _fp_digits + 298
        0x00004814:    9806        ..      LDR      r0,[sp,#0x18]
        0x00004816:    9911        ..      LDR      r1,[sp,#0x44]
        0x00004818:    6082        .`      STR      r2,[r0,#8]
        0x0000481a:    60c1        .`      STR      r1,[r0,#0xc]
        0x0000481c:    c030        0.      STM      r0!,{r4,r5}
        0x0000481e:    e77e        ~.      B        0x471e ; _fp_digits + 86
    $d
        0x00004820:    fffffc01    ....    DCD    4294966273
        0x00004824:    00004d10    .M..    DCD    19728
        0x00004828:    40140000    ...@    DCD    1075052544
        0x0000482c:    3ff00000    ...?    DCD    1072693248
        0x00004830:    00000030    0...    DCD    48
        0x00004834:    43f00000    ...C    DCD    1139802112
        0x00004838:    3fe00000    ...?    DCD    1071644672
    $t
    i._init_box
    _init_box
        0x0000483c:    b510        ..      PUSH     {r4,lr}
        0x0000483e:    2a00        .*      CMP      r2,#0
        0x00004840:    da06        ..      BGE      0x4850 ; _init_box + 20
        0x00004842:    0052        R.      LSLS     r2,r2,#1
        0x00004844:    0852        R.      LSRS     r2,r2,#1
        0x00004846:    1dd2        ..      ADDS     r2,r2,#7
        0x00004848:    08d3        ..      LSRS     r3,r2,#3
        0x0000484a:    00db        ..      LSLS     r3,r3,#3
        0x0000484c:    2210        ."      MOVS     r2,#0x10
        0x0000484e:    e003        ..      B        0x4858 ; _init_box + 28
        0x00004850:    1cd2        ..      ADDS     r2,r2,#3
        0x00004852:    0893        ..      LSRS     r3,r2,#2
        0x00004854:    009b        ..      LSLS     r3,r3,#2
        0x00004856:    220c        ."      MOVS     r2,#0xc
        0x00004858:    2b00        .+      CMP      r3,#0
        0x0000485a:    d002        ..      BEQ      0x4862 ; _init_box + 38
        0x0000485c:    189c        ..      ADDS     r4,r3,r2
        0x0000485e:    428c        .B      CMP      r4,r1
        0x00004860:    d901        ..      BLS      0x4866 ; _init_box + 42
        0x00004862:    2001        .       MOVS     r0,#1
        0x00004864:    bd10        ..      POP      {r4,pc}
        0x00004866:    1882        ..      ADDS     r2,r0,r2
        0x00004868:    6083        .`      STR      r3,[r0,#8]
        0x0000486a:    1841        A.      ADDS     r1,r0,r1
        0x0000486c:    6002        .`      STR      r2,[r0,#0]
        0x0000486e:    6041        A`      STR      r1,[r0,#4]
        0x00004870:    1ac9        ..      SUBS     r1,r1,r3
        0x00004872:    18d0        ..      ADDS     r0,r2,r3
        0x00004874:    4288        .B      CMP      r0,r1
        0x00004876:    d802        ..      BHI      0x487e ; _init_box + 66
        0x00004878:    6010        .`      STR      r0,[r2,#0]
        0x0000487a:    4602        .F      MOV      r2,r0
        0x0000487c:    e7f9        ..      B        0x4872 ; _init_box + 54
        0x0000487e:    2000        .       MOVS     r0,#0
        0x00004880:    6010        .`      STR      r0,[r2,#0]
        0x00004882:    bd10        ..      POP      {r4,pc}
    i._printf_core
    _printf_core
        0x00004884:    b5ff        ..      PUSH     {r0-r7,lr}
        0x00004886:    b097        ..      SUB      sp,sp,#0x5c
        0x00004888:    4606        .F      MOV      r6,r0
        0x0000488a:    2500        .%      MOVS     r5,#0
        0x0000488c:    e218        ..      B        0x4cc0 ; _printf_core + 1084
        0x0000488e:    2825        %(      CMP      r0,#0x25
        0x00004890:    d177        w.      BNE      0x4982 ; _printf_core + 254
        0x00004892:    2400        .$      MOVS     r4,#0
        0x00004894:    4627        'F      MOV      r7,r4
        0x00004896:    49fd        .I      LDR      r1,[pc,#1012] ; [0x4c8c] = 0x12809
        0x00004898:    9404        ..      STR      r4,[sp,#0x10]
        0x0000489a:    e000        ..      B        0x489e ; _printf_core + 26
        0x0000489c:    4304        .C      ORRS     r4,r4,r0
        0x0000489e:    1c76        v.      ADDS     r6,r6,#1
        0x000048a0:    7832        2x      LDRB     r2,[r6,#0]
        0x000048a2:    2001        .       MOVS     r0,#1
        0x000048a4:    3a20         :      SUBS     r2,r2,#0x20
        0x000048a6:    4090        .@      LSLS     r0,r0,r2
        0x000048a8:    4208        .B      TST      r0,r1
        0x000048aa:    d1f7        ..      BNE      0x489c ; _printf_core + 24
        0x000048ac:    7830        0x      LDRB     r0,[r6,#0]
        0x000048ae:    282a        *(      CMP      r0,#0x2a
        0x000048b0:    d00e        ..      BEQ      0x48d0 ; _printf_core + 76
        0x000048b2:    2202        ."      MOVS     r2,#2
        0x000048b4:    7830        0x      LDRB     r0,[r6,#0]
        0x000048b6:    4601        .F      MOV      r1,r0
        0x000048b8:    3930        09      SUBS     r1,r1,#0x30
        0x000048ba:    2909        .)      CMP      r1,#9
        0x000048bc:    d816        ..      BHI      0x48ec ; _printf_core + 104
        0x000048be:    9904        ..      LDR      r1,[sp,#0x10]
        0x000048c0:    230a        .#      MOVS     r3,#0xa
        0x000048c2:    4359        YC      MULS     r1,r3,r1
        0x000048c4:    3930        09      SUBS     r1,r1,#0x30
        0x000048c6:    1840        @.      ADDS     r0,r0,r1
        0x000048c8:    4314        .C      ORRS     r4,r4,r2
        0x000048ca:    1c76        v.      ADDS     r6,r6,#1
        0x000048cc:    9004        ..      STR      r0,[sp,#0x10]
        0x000048ce:    e7f1        ..      B        0x48b4 ; _printf_core + 48
        0x000048d0:    9818        ..      LDR      r0,[sp,#0x60]
        0x000048d2:    c802        ..      LDM      r0!,{r1}
        0x000048d4:    9104        ..      STR      r1,[sp,#0x10]
        0x000048d6:    9018        ..      STR      r0,[sp,#0x60]
        0x000048d8:    2900        .)      CMP      r1,#0
        0x000048da:    da04        ..      BGE      0x48e6 ; _printf_core + 98
        0x000048dc:    2001        .       MOVS     r0,#1
        0x000048de:    0340        @.      LSLS     r0,r0,#13
        0x000048e0:    4304        .C      ORRS     r4,r4,r0
        0x000048e2:    4248        HB      RSBS     r0,r1,#0
        0x000048e4:    9004        ..      STR      r0,[sp,#0x10]
        0x000048e6:    2002        .       MOVS     r0,#2
        0x000048e8:    4304        .C      ORRS     r4,r4,r0
        0x000048ea:    1c76        v.      ADDS     r6,r6,#1
        0x000048ec:    7830        0x      LDRB     r0,[r6,#0]
        0x000048ee:    282e        .(      CMP      r0,#0x2e
        0x000048f0:    d114        ..      BNE      0x491c ; _printf_core + 152
        0x000048f2:    2004        .       MOVS     r0,#4
        0x000048f4:    4304        .C      ORRS     r4,r4,r0
        0x000048f6:    7870        px      LDRB     r0,[r6,#1]
        0x000048f8:    1c76        v.      ADDS     r6,r6,#1
        0x000048fa:    282a        *(      CMP      r0,#0x2a
        0x000048fc:    d109        ..      BNE      0x4912 ; _printf_core + 142
        0x000048fe:    9818        ..      LDR      r0,[sp,#0x60]
        0x00004900:    1c76        v.      ADDS     r6,r6,#1
        0x00004902:    c880        ..      LDM      r0!,{r7}
        0x00004904:    9018        ..      STR      r0,[sp,#0x60]
        0x00004906:    e009        ..      B        0x491c ; _printf_core + 152
        0x00004908:    210a        .!      MOVS     r1,#0xa
        0x0000490a:    434f        OC      MULS     r7,r1,r7
        0x0000490c:    3f30        0?      SUBS     r7,r7,#0x30
        0x0000490e:    19c7        ..      ADDS     r7,r0,r7
        0x00004910:    1c76        v.      ADDS     r6,r6,#1
        0x00004912:    7830        0x      LDRB     r0,[r6,#0]
        0x00004914:    4601        .F      MOV      r1,r0
        0x00004916:    3930        09      SUBS     r1,r1,#0x30
        0x00004918:    2909        .)      CMP      r1,#9
        0x0000491a:    d9f5        ..      BLS      0x4908 ; _printf_core + 132
        0x0000491c:    7830        0x      LDRB     r0,[r6,#0]
        0x0000491e:    286c        l(      CMP      r0,#0x6c
        0x00004920:    d010        ..      BEQ      0x4944 ; _printf_core + 192
        0x00004922:    dc06        ..      BGT      0x4932 ; _printf_core + 174
        0x00004924:    284c        L(      CMP      r0,#0x4c
        0x00004926:    d01a        ..      BEQ      0x495e ; _printf_core + 218
        0x00004928:    2868        h(      CMP      r0,#0x68
        0x0000492a:    d00e        ..      BEQ      0x494a ; _printf_core + 198
        0x0000492c:    286a        j(      CMP      r0,#0x6a
        0x0000492e:    d117        ..      BNE      0x4960 ; _printf_core + 220
        0x00004930:    e004        ..      B        0x493c ; _printf_core + 184
        0x00004932:    2874        t(      CMP      r0,#0x74
        0x00004934:    d013        ..      BEQ      0x495e ; _printf_core + 218
        0x00004936:    287a        z(      CMP      r0,#0x7a
        0x00004938:    d112        ..      BNE      0x4960 ; _printf_core + 220
        0x0000493a:    e010        ..      B        0x495e ; _printf_core + 218
        0x0000493c:    2001        .       MOVS     r0,#1
        0x0000493e:    0540        @.      LSLS     r0,r0,#21
        0x00004940:    4304        .C      ORRS     r4,r4,r0
        0x00004942:    e00c        ..      B        0x495e ; _printf_core + 218
        0x00004944:    2101        .!      MOVS     r1,#1
        0x00004946:    0509        ..      LSLS     r1,r1,#20
        0x00004948:    e001        ..      B        0x494e ; _printf_core + 202
        0x0000494a:    2103        .!      MOVS     r1,#3
        0x0000494c:    0509        ..      LSLS     r1,r1,#20
        0x0000494e:    430c        .C      ORRS     r4,r4,r1
        0x00004950:    7871        qx      LDRB     r1,[r6,#1]
        0x00004952:    4281        .B      CMP      r1,r0
        0x00004954:    d103        ..      BNE      0x495e ; _printf_core + 218
        0x00004956:    2001        .       MOVS     r0,#1
        0x00004958:    0500        ..      LSLS     r0,r0,#20
        0x0000495a:    1824        $.      ADDS     r4,r4,r0
        0x0000495c:    1c76        v.      ADDS     r6,r6,#1
        0x0000495e:    1c76        v.      ADDS     r6,r6,#1
        0x00004960:    7830        0x      LDRB     r0,[r6,#0]
        0x00004962:    9011        ..      STR      r0,[sp,#0x44]
        0x00004964:    2866        f(      CMP      r0,#0x66
        0x00004966:    d00b        ..      BEQ      0x4980 ; _printf_core + 252
        0x00004968:    dc13        ..      BGT      0x4992 ; _printf_core + 270
        0x0000496a:    2858        X(      CMP      r0,#0x58
        0x0000496c:    d07d        }.      BEQ      0x4a6a ; _printf_core + 486
        0x0000496e:    dc09        ..      BGT      0x4984 ; _printf_core + 256
        0x00004970:    2800        .(      CMP      r0,#0
        0x00004972:    d07b        {.      BEQ      0x4a6c ; _printf_core + 488
        0x00004974:    2845        E(      CMP      r0,#0x45
        0x00004976:    d0f6        ..      BEQ      0x4966 ; _printf_core + 226
        0x00004978:    2846        F(      CMP      r0,#0x46
        0x0000497a:    d0f4        ..      BEQ      0x4966 ; _printf_core + 226
        0x0000497c:    2847        G(      CMP      r0,#0x47
        0x0000497e:    d11a        ..      BNE      0x49b6 ; _printf_core + 306
        0x00004980:    e1a5        ..      B        0x4cce ; _printf_core + 1098
        0x00004982:    e018        ..      B        0x49b6 ; _printf_core + 306
        0x00004984:    2863        c(      CMP      r0,#0x63
        0x00004986:    d035        5.      BEQ      0x49f4 ; _printf_core + 368
        0x00004988:    2864        d(      CMP      r0,#0x64
        0x0000498a:    d070        p.      BEQ      0x4a6e ; _printf_core + 490
        0x0000498c:    2865        e(      CMP      r0,#0x65
        0x0000498e:    d112        ..      BNE      0x49b6 ; _printf_core + 306
        0x00004990:    e19d        ..      B        0x4cce ; _printf_core + 1098
        0x00004992:    2870        p(      CMP      r0,#0x70
        0x00004994:    d06c        l.      BEQ      0x4a70 ; _printf_core + 492
        0x00004996:    dc08        ..      BGT      0x49aa ; _printf_core + 294
        0x00004998:    2867        g(      CMP      r0,#0x67
        0x0000499a:    d0f1        ..      BEQ      0x4980 ; _printf_core + 252
        0x0000499c:    2869        i(      CMP      r0,#0x69
        0x0000499e:    d07b        {.      BEQ      0x4a98 ; _printf_core + 532
        0x000049a0:    286e        n(      CMP      r0,#0x6e
        0x000049a2:    d00d        ..      BEQ      0x49c0 ; _printf_core + 316
        0x000049a4:    286f        o(      CMP      r0,#0x6f
        0x000049a6:    d106        ..      BNE      0x49b6 ; _printf_core + 306
        0x000049a8:    e0ba        ..      B        0x4b20 ; _printf_core + 668
        0x000049aa:    2873        s(      CMP      r0,#0x73
        0x000049ac:    d02e        ..      BEQ      0x4a0c ; _printf_core + 392
        0x000049ae:    2875        u(      CMP      r0,#0x75
        0x000049b0:    d071        q.      BEQ      0x4a96 ; _printf_core + 530
        0x000049b2:    2878        x(      CMP      r0,#0x78
        0x000049b4:    d059        Y.      BEQ      0x4a6a ; _printf_core + 486
        0x000049b6:    9a1a        ..      LDR      r2,[sp,#0x68]
        0x000049b8:    9919        ..      LDR      r1,[sp,#0x64]
        0x000049ba:    4790        .G      BLX      r2
        0x000049bc:    1c6d        m.      ADDS     r5,r5,#1
        0x000049be:    e17e        ~.      B        0x4cbe ; _printf_core + 1082
        0x000049c0:    0260        `.      LSLS     r0,r4,#9
        0x000049c2:    0f40        @.      LSRS     r0,r0,#29
        0x000049c4:    2802        .(      CMP      r0,#2
        0x000049c6:    d009        ..      BEQ      0x49dc ; _printf_core + 344
        0x000049c8:    2803        .(      CMP      r0,#3
        0x000049ca:    d00d        ..      BEQ      0x49e8 ; _printf_core + 356
        0x000049cc:    2804        .(      CMP      r0,#4
        0x000049ce:    9818        ..      LDR      r0,[sp,#0x60]
        0x000049d0:    6801        .h      LDR      r1,[r0,#0]
        0x000049d2:    d00d        ..      BEQ      0x49f0 ; _printf_core + 364
        0x000049d4:    600d        .`      STR      r5,[r1,#0]
        0x000049d6:    1d00        ..      ADDS     r0,r0,#4
        0x000049d8:    9018        ..      STR      r0,[sp,#0x60]
        0x000049da:    e170        p.      B        0x4cbe ; _printf_core + 1082
        0x000049dc:    9818        ..      LDR      r0,[sp,#0x60]
        0x000049de:    17ea        ..      ASRS     r2,r5,#31
        0x000049e0:    6801        .h      LDR      r1,[r0,#0]
        0x000049e2:    600d        .`      STR      r5,[r1,#0]
        0x000049e4:    604a        J`      STR      r2,[r1,#4]
        0x000049e6:    e7f6        ..      B        0x49d6 ; _printf_core + 338
        0x000049e8:    9818        ..      LDR      r0,[sp,#0x60]
        0x000049ea:    6801        .h      LDR      r1,[r0,#0]
        0x000049ec:    800d        ..      STRH     r5,[r1,#0]
        0x000049ee:    e7f2        ..      B        0x49d6 ; _printf_core + 338
        0x000049f0:    700d        .p      STRB     r5,[r1,#0]
        0x000049f2:    e7f0        ..      B        0x49d6 ; _printf_core + 338
        0x000049f4:    9818        ..      LDR      r0,[sp,#0x60]
        0x000049f6:    466a        jF      MOV      r2,sp
        0x000049f8:    7801        .x      LDRB     r1,[r0,#0]
        0x000049fa:    7211        .r      STRB     r1,[r2,#8]
        0x000049fc:    1d00        ..      ADDS     r0,r0,#4
        0x000049fe:    9018        ..      STR      r0,[sp,#0x60]
        0x00004a00:    2000        .       MOVS     r0,#0
        0x00004a02:    7250        Pr      STRB     r0,[r2,#9]
        0x00004a04:    a802        ..      ADD      r0,sp,#8
        0x00004a06:    9000        ..      STR      r0,[sp,#0]
        0x00004a08:    2001        .       MOVS     r0,#1
        0x00004a0a:    e005        ..      B        0x4a18 ; _printf_core + 404
        0x00004a0c:    9818        ..      LDR      r0,[sp,#0x60]
        0x00004a0e:    c802        ..      LDM      r0!,{r1}
        0x00004a10:    9018        ..      STR      r0,[sp,#0x60]
        0x00004a12:    2000        .       MOVS     r0,#0
        0x00004a14:    9100        ..      STR      r1,[sp,#0]
        0x00004a16:    43c0        .C      MVNS     r0,r0
        0x00004a18:    0761        a.      LSLS     r1,r4,#29
        0x00004a1a:    d50d        ..      BPL      0x4a38 ; _printf_core + 436
        0x00004a1c:    2100        .!      MOVS     r1,#0
        0x00004a1e:    e001        ..      B        0x4a24 ; _printf_core + 416
        0x00004a20:    9901        ..      LDR      r1,[sp,#4]
        0x00004a22:    1c49        I.      ADDS     r1,r1,#1
        0x00004a24:    9101        ..      STR      r1,[sp,#4]
        0x00004a26:    42b9        .B      CMP      r1,r7
        0x00004a28:    da12        ..      BGE      0x4a50 ; _printf_core + 460
        0x00004a2a:    4281        .B      CMP      r1,r0
        0x00004a2c:    dbf8        ..      BLT      0x4a20 ; _printf_core + 412
        0x00004a2e:    9a00        ..      LDR      r2,[sp,#0]
        0x00004a30:    5c51        Q\      LDRB     r1,[r2,r1]
        0x00004a32:    2900        .)      CMP      r1,#0
        0x00004a34:    d1f4        ..      BNE      0x4a20 ; _printf_core + 412
        0x00004a36:    e00b        ..      B        0x4a50 ; _printf_core + 460
        0x00004a38:    2100        .!      MOVS     r1,#0
        0x00004a3a:    e001        ..      B        0x4a40 ; _printf_core + 444
        0x00004a3c:    9901        ..      LDR      r1,[sp,#4]
        0x00004a3e:    1c49        I.      ADDS     r1,r1,#1
        0x00004a40:    9101        ..      STR      r1,[sp,#4]
        0x00004a42:    4281        .B      CMP      r1,r0
        0x00004a44:    dbfa        ..      BLT      0x4a3c ; _printf_core + 440
        0x00004a46:    9a01        ..      LDR      r2,[sp,#4]
        0x00004a48:    9900        ..      LDR      r1,[sp,#0]
        0x00004a4a:    5c89        .\      LDRB     r1,[r1,r2]
        0x00004a4c:    2900        .)      CMP      r1,#0
        0x00004a4e:    d1f5        ..      BNE      0x4a3c ; _printf_core + 440
        0x00004a50:    9901        ..      LDR      r1,[sp,#4]
        0x00004a52:    9804        ..      LDR      r0,[sp,#0x10]
        0x00004a54:    9b1a        ..      LDR      r3,[sp,#0x68]
        0x00004a56:    1a47        G.      SUBS     r7,r0,r1
        0x00004a58:    4621        !F      MOV      r1,r4
        0x00004a5a:    4638        8F      MOV      r0,r7
        0x00004a5c:    9a19        ..      LDR      r2,[sp,#0x64]
        0x00004a5e:    f000fa97    ....    BL       _printf_pre_padding ; 0x4f90
        0x00004a62:    9901        ..      LDR      r1,[sp,#4]
        0x00004a64:    1940        @.      ADDS     r0,r0,r5
        0x00004a66:    1845        E.      ADDS     r5,r0,r1
        0x00004a68:    e00b        ..      B        0x4a82 ; _printf_core + 510
        0x00004a6a:    e04f        O.      B        0x4b0c ; _printf_core + 648
        0x00004a6c:    e12c        ,.      B        0x4cc8 ; _printf_core + 1092
        0x00004a6e:    e013        ..      B        0x4a98 ; _printf_core + 532
        0x00004a70:    e04e        N.      B        0x4b10 ; _printf_core + 652
        0x00004a72:    9800        ..      LDR      r0,[sp,#0]
        0x00004a74:    9900        ..      LDR      r1,[sp,#0]
        0x00004a76:    7800        .x      LDRB     r0,[r0,#0]
        0x00004a78:    1c49        I.      ADDS     r1,r1,#1
        0x00004a7a:    9100        ..      STR      r1,[sp,#0]
        0x00004a7c:    9a1a        ..      LDR      r2,[sp,#0x68]
        0x00004a7e:    9919        ..      LDR      r1,[sp,#0x64]
        0x00004a80:    4790        .G      BLX      r2
        0x00004a82:    9801        ..      LDR      r0,[sp,#4]
        0x00004a84:    1e40        @.      SUBS     r0,r0,#1
        0x00004a86:    9001        ..      STR      r0,[sp,#4]
        0x00004a88:    1c40        @.      ADDS     r0,r0,#1
        0x00004a8a:    d1f2        ..      BNE      0x4a72 ; _printf_core + 494
        0x00004a8c:    4621        !F      MOV      r1,r4
        0x00004a8e:    4638        8F      MOV      r0,r7
        0x00004a90:    9b1a        ..      LDR      r3,[sp,#0x68]
        0x00004a92:    9a19        ..      LDR      r2,[sp,#0x64]
        0x00004a94:    e110        ..      B        0x4cb8 ; _printf_core + 1076
        0x00004a96:    e037        7.      B        0x4b08 ; _printf_core + 644
        0x00004a98:    200a        .       MOVS     r0,#0xa
        0x00004a9a:    2100        .!      MOVS     r1,#0
        0x00004a9c:    9000        ..      STR      r0,[sp,#0]
        0x00004a9e:    9101        ..      STR      r1,[sp,#4]
        0x00004aa0:    0260        `.      LSLS     r0,r4,#9
        0x00004aa2:    0f41        A.      LSRS     r1,r0,#29
        0x00004aa4:    2902        .)      CMP      r1,#2
        0x00004aa6:    d007        ..      BEQ      0x4ab8 ; _printf_core + 564
        0x00004aa8:    9a18        ..      LDR      r2,[sp,#0x60]
        0x00004aaa:    ca01        ..      LDM      r2!,{r0}
        0x00004aac:    9218        ..      STR      r2,[sp,#0x60]
        0x00004aae:    17c2        ..      ASRS     r2,r0,#31
        0x00004ab0:    4694        .F      MOV      r12,r2
        0x00004ab2:    2903        .)      CMP      r1,#3
        0x00004ab4:    d008        ..      BEQ      0x4ac8 ; _printf_core + 580
        0x00004ab6:    e00a        ..      B        0x4ace ; _printf_core + 586
        0x00004ab8:    9818        ..      LDR      r0,[sp,#0x60]
        0x00004aba:    1dc0        ..      ADDS     r0,r0,#7
        0x00004abc:    08c1        ..      LSRS     r1,r0,#3
        0x00004abe:    00c9        ..      LSLS     r1,r1,#3
        0x00004ac0:    c905        ..      LDM      r1!,{r0,r2}
        0x00004ac2:    9118        ..      STR      r1,[sp,#0x60]
        0x00004ac4:    4694        .F      MOV      r12,r2
        0x00004ac6:    e007        ..      B        0x4ad8 ; _printf_core + 596
        0x00004ac8:    b200        ..      SXTH     r0,r0
        0x00004aca:    17c2        ..      ASRS     r2,r0,#31
        0x00004acc:    4694        .F      MOV      r12,r2
        0x00004ace:    2904        .)      CMP      r1,#4
        0x00004ad0:    d102        ..      BNE      0x4ad8 ; _printf_core + 596
        0x00004ad2:    b240        @.      SXTB     r0,r0
        0x00004ad4:    17c1        ..      ASRS     r1,r0,#31
        0x00004ad6:    468c        .F      MOV      r12,r1
        0x00004ad8:    2200        ."      MOVS     r2,#0
        0x00004ada:    4661        aF      MOV      r1,r12
        0x00004adc:    4594        .E      CMP      r12,r2
        0x00004ade:    da06        ..      BGE      0x4aee ; _printf_core + 618
        0x00004ae0:    460a        .F      MOV      r2,r1
        0x00004ae2:    2100        .!      MOVS     r1,#0
        0x00004ae4:    4240        @B      RSBS     r0,r0,#0
        0x00004ae6:    4191        .A      SBCS     r1,r1,r2
        0x00004ae8:    468c        .F      MOV      r12,r1
        0x00004aea:    212d        -!      MOVS     r1,#0x2d
        0x00004aec:    e002        ..      B        0x4af4 ; _printf_core + 624
        0x00004aee:    0521        !.      LSLS     r1,r4,#20
        0x00004af0:    d504        ..      BPL      0x4afc ; _printf_core + 632
        0x00004af2:    212b        +!      MOVS     r1,#0x2b
        0x00004af4:    466a        jF      MOV      r2,sp
        0x00004af6:    7311        .s      STRB     r1,[r2,#0xc]
        0x00004af8:    2101        .!      MOVS     r1,#1
        0x00004afa:    e003        ..      B        0x4b04 ; _printf_core + 640
        0x00004afc:    07e1        ..      LSLS     r1,r4,#31
        0x00004afe:    d001        ..      BEQ      0x4b04 ; _printf_core + 640
        0x00004b00:    2120         !      MOVS     r1,#0x20
        0x00004b02:    e7f7        ..      B        0x4af4 ; _printf_core + 624
        0x00004b04:    9102        ..      STR      r1,[sp,#8]
        0x00004b06:    e055        U.      B        0x4bb4 ; _printf_core + 816
        0x00004b08:    200a        .       MOVS     r0,#0xa
        0x00004b0a:    e00a        ..      B        0x4b22 ; _printf_core + 670
        0x00004b0c:    2010        .       MOVS     r0,#0x10
        0x00004b0e:    e008        ..      B        0x4b22 ; _printf_core + 670
        0x00004b10:    2010        .       MOVS     r0,#0x10
        0x00004b12:    9000        ..      STR      r0,[sp,#0]
        0x00004b14:    2100        .!      MOVS     r1,#0
        0x00004b16:    2004        .       MOVS     r0,#4
        0x00004b18:    4304        .C      ORRS     r4,r4,r0
        0x00004b1a:    9101        ..      STR      r1,[sp,#4]
        0x00004b1c:    2708        .'      MOVS     r7,#8
        0x00004b1e:    e003        ..      B        0x4b28 ; _printf_core + 676
        0x00004b20:    2008        .       MOVS     r0,#8
        0x00004b22:    2100        .!      MOVS     r1,#0
        0x00004b24:    9101        ..      STR      r1,[sp,#4]
        0x00004b26:    9000        ..      STR      r0,[sp,#0]
        0x00004b28:    0260        `.      LSLS     r0,r4,#9
        0x00004b2a:    0f41        A.      LSRS     r1,r0,#29
        0x00004b2c:    2902        .)      CMP      r1,#2
        0x00004b2e:    d007        ..      BEQ      0x4b40 ; _printf_core + 700
        0x00004b30:    9a18        ..      LDR      r2,[sp,#0x60]
        0x00004b32:    ca01        ..      LDM      r2!,{r0}
        0x00004b34:    9218        ..      STR      r2,[sp,#0x60]
        0x00004b36:    2200        ."      MOVS     r2,#0
        0x00004b38:    4694        .F      MOV      r12,r2
        0x00004b3a:    2903        .)      CMP      r1,#3
        0x00004b3c:    d008        ..      BEQ      0x4b50 ; _printf_core + 716
        0x00004b3e:    e008        ..      B        0x4b52 ; _printf_core + 718
        0x00004b40:    9818        ..      LDR      r0,[sp,#0x60]
        0x00004b42:    1dc0        ..      ADDS     r0,r0,#7
        0x00004b44:    08c1        ..      LSRS     r1,r0,#3
        0x00004b46:    00c9        ..      LSLS     r1,r1,#3
        0x00004b48:    c905        ..      LDM      r1!,{r0,r2}
        0x00004b4a:    9118        ..      STR      r1,[sp,#0x60]
        0x00004b4c:    4694        .F      MOV      r12,r2
        0x00004b4e:    e003        ..      B        0x4b58 ; _printf_core + 724
        0x00004b50:    b280        ..      UXTH     r0,r0
        0x00004b52:    2904        .)      CMP      r1,#4
        0x00004b54:    d100        ..      BNE      0x4b58 ; _printf_core + 724
        0x00004b56:    b2c0        ..      UXTB     r0,r0
        0x00004b58:    2100        .!      MOVS     r1,#0
        0x00004b5a:    9102        ..      STR      r1,[sp,#8]
        0x00004b5c:    0721        !.      LSLS     r1,r4,#28
        0x00004b5e:    d529        ).      BPL      0x4bb4 ; _printf_core + 816
        0x00004b60:    9911        ..      LDR      r1,[sp,#0x44]
        0x00004b62:    2970        p)      CMP      r1,#0x70
        0x00004b64:    d006        ..      BEQ      0x4b74 ; _printf_core + 752
        0x00004b66:    9a00        ..      LDR      r2,[sp,#0]
        0x00004b68:    2110        .!      MOVS     r1,#0x10
        0x00004b6a:    9b01        ..      LDR      r3,[sp,#4]
        0x00004b6c:    404a        J@      EORS     r2,r2,r1
        0x00004b6e:    431a        .C      ORRS     r2,r2,r3
        0x00004b70:    d005        ..      BEQ      0x4b7e ; _printf_core + 762
        0x00004b72:    e00e        ..      B        0x4b92 ; _printf_core + 782
        0x00004b74:    2140        @!      MOVS     r1,#0x40
        0x00004b76:    466a        jF      MOV      r2,sp
        0x00004b78:    7311        .s      STRB     r1,[r2,#0xc]
        0x00004b7a:    2101        .!      MOVS     r1,#1
        0x00004b7c:    e008        ..      B        0x4b90 ; _printf_core + 780
        0x00004b7e:    4661        aF      MOV      r1,r12
        0x00004b80:    4301        .C      ORRS     r1,r1,r0
        0x00004b82:    d006        ..      BEQ      0x4b92 ; _printf_core + 782
        0x00004b84:    2130        0!      MOVS     r1,#0x30
        0x00004b86:    466a        jF      MOV      r2,sp
        0x00004b88:    7311        .s      STRB     r1,[r2,#0xc]
        0x00004b8a:    9911        ..      LDR      r1,[sp,#0x44]
        0x00004b8c:    7351        Qs      STRB     r1,[r2,#0xd]
        0x00004b8e:    2102        .!      MOVS     r1,#2
        0x00004b90:    9102        ..      STR      r1,[sp,#8]
        0x00004b92:    9a00        ..      LDR      r2,[sp,#0]
        0x00004b94:    2108        .!      MOVS     r1,#8
        0x00004b96:    9b01        ..      LDR      r3,[sp,#4]
        0x00004b98:    404a        J@      EORS     r2,r2,r1
        0x00004b9a:    431a        .C      ORRS     r2,r2,r3
        0x00004b9c:    d10a        ..      BNE      0x4bb4 ; _printf_core + 816
        0x00004b9e:    4661        aF      MOV      r1,r12
        0x00004ba0:    4301        .C      ORRS     r1,r1,r0
        0x00004ba2:    d101        ..      BNE      0x4ba8 ; _printf_core + 804
        0x00004ba4:    0761        a.      LSLS     r1,r4,#29
        0x00004ba6:    d505        ..      BPL      0x4bb4 ; _printf_core + 816
        0x00004ba8:    2130        0!      MOVS     r1,#0x30
        0x00004baa:    466a        jF      MOV      r2,sp
        0x00004bac:    7311        .s      STRB     r1,[r2,#0xc]
        0x00004bae:    2101        .!      MOVS     r1,#1
        0x00004bb0:    1e7f        ..      SUBS     r7,r7,#1
        0x00004bb2:    9102        ..      STR      r1,[sp,#8]
        0x00004bb4:    9911        ..      LDR      r1,[sp,#0x44]
        0x00004bb6:    2958        X)      CMP      r1,#0x58
        0x00004bb8:    d004        ..      BEQ      0x4bc4 ; _printf_core + 832
        0x00004bba:    a135        5.      ADR      r1,{pc}+0xd6 ; 0x4c90
        0x00004bbc:    910e        ..      STR      r1,[sp,#0x38]
        0x00004bbe:    a90d        ..      ADD      r1,sp,#0x34
        0x00004bc0:    910d        ..      STR      r1,[sp,#0x34]
        0x00004bc2:    e00d        ..      B        0x4be0 ; _printf_core + 860
        0x00004bc4:    a137        7.      ADR      r1,{pc}+0xe0 ; 0x4ca4
        0x00004bc6:    e7f9        ..      B        0x4bbc ; _printf_core + 824
        0x00004bc8:    4661        aF      MOV      r1,r12
        0x00004bca:    9b01        ..      LDR      r3,[sp,#4]
        0x00004bcc:    9a00        ..      LDR      r2,[sp,#0]
        0x00004bce:    f7fff869    ..i.    BL       __aeabi_uldivmod ; 0x3ca4
        0x00004bd2:    9b0e        ..      LDR      r3,[sp,#0x38]
        0x00004bd4:    468c        .F      MOV      r12,r1
        0x00004bd6:    5c9b        .\      LDRB     r3,[r3,r2]
        0x00004bd8:    9a0d        ..      LDR      r2,[sp,#0x34]
        0x00004bda:    1e52        R.      SUBS     r2,r2,#1
        0x00004bdc:    920d        ..      STR      r2,[sp,#0x34]
        0x00004bde:    7013        .p      STRB     r3,[r2,#0]
        0x00004be0:    4661        aF      MOV      r1,r12
        0x00004be2:    4301        .C      ORRS     r1,r1,r0
        0x00004be4:    d1f0        ..      BNE      0x4bc8 ; _printf_core + 836
        0x00004be6:    980d        ..      LDR      r0,[sp,#0x34]
        0x00004be8:    a905        ..      ADD      r1,sp,#0x14
        0x00004bea:    1a08        ..      SUBS     r0,r1,r0
        0x00004bec:    3020         0      ADDS     r0,r0,#0x20
        0x00004bee:    9001        ..      STR      r0,[sp,#4]
        0x00004bf0:    0760        `.      LSLS     r0,r4,#29
        0x00004bf2:    d503        ..      BPL      0x4bfc ; _printf_core + 888
        0x00004bf4:    2001        .       MOVS     r0,#1
        0x00004bf6:    0400        ..      LSLS     r0,r0,#16
        0x00004bf8:    4384        .C      BICS     r4,r4,r0
        0x00004bfa:    e000        ..      B        0x4bfe ; _printf_core + 890
        0x00004bfc:    2701        .'      MOVS     r7,#1
        0x00004bfe:    9801        ..      LDR      r0,[sp,#4]
        0x00004c00:    4287        .B      CMP      r7,r0
        0x00004c02:    dd01        ..      BLE      0x4c08 ; _printf_core + 900
        0x00004c04:    1a38        8.      SUBS     r0,r7,r0
        0x00004c06:    e000        ..      B        0x4c0a ; _printf_core + 902
        0x00004c08:    2000        .       MOVS     r0,#0
        0x00004c0a:    9901        ..      LDR      r1,[sp,#4]
        0x00004c0c:    9000        ..      STR      r0,[sp,#0]
        0x00004c0e:    1841        A.      ADDS     r1,r0,r1
        0x00004c10:    9802        ..      LDR      r0,[sp,#8]
        0x00004c12:    1809        ..      ADDS     r1,r1,r0
        0x00004c14:    9804        ..      LDR      r0,[sp,#0x10]
        0x00004c16:    1a40        @.      SUBS     r0,r0,r1
        0x00004c18:    9004        ..      STR      r0,[sp,#0x10]
        0x00004c1a:    03e0        ..      LSLS     r0,r4,#15
        0x00004c1c:    d406        ..      BMI      0x4c2c ; _printf_core + 936
        0x00004c1e:    4621        !F      MOV      r1,r4
        0x00004c20:    9b1a        ..      LDR      r3,[sp,#0x68]
        0x00004c22:    9a19        ..      LDR      r2,[sp,#0x64]
        0x00004c24:    9804        ..      LDR      r0,[sp,#0x10]
        0x00004c26:    f000f9b3    ....    BL       _printf_pre_padding ; 0x4f90
        0x00004c2a:    1945        E.      ADDS     r5,r0,r5
        0x00004c2c:    2700        .'      MOVS     r7,#0
        0x00004c2e:    e006        ..      B        0x4c3e ; _printf_core + 954
        0x00004c30:    a803        ..      ADD      r0,sp,#0xc
        0x00004c32:    9a1a        ..      LDR      r2,[sp,#0x68]
        0x00004c34:    5dc0        .]      LDRB     r0,[r0,r7]
        0x00004c36:    9919        ..      LDR      r1,[sp,#0x64]
        0x00004c38:    4790        .G      BLX      r2
        0x00004c3a:    1c6d        m.      ADDS     r5,r5,#1
        0x00004c3c:    1c7f        ..      ADDS     r7,r7,#1
        0x00004c3e:    9802        ..      LDR      r0,[sp,#8]
        0x00004c40:    4287        .B      CMP      r7,r0
        0x00004c42:    dbf5        ..      BLT      0x4c30 ; _printf_core + 940
        0x00004c44:    03e0        ..      LSLS     r0,r4,#15
        0x00004c46:    d50c        ..      BPL      0x4c62 ; _printf_core + 990
        0x00004c48:    4621        !F      MOV      r1,r4
        0x00004c4a:    9b1a        ..      LDR      r3,[sp,#0x68]
        0x00004c4c:    9a19        ..      LDR      r2,[sp,#0x64]
        0x00004c4e:    9804        ..      LDR      r0,[sp,#0x10]
        0x00004c50:    f000f99e    ....    BL       _printf_pre_padding ; 0x4f90
        0x00004c54:    1945        E.      ADDS     r5,r0,r5
        0x00004c56:    e004        ..      B        0x4c62 ; _printf_core + 990
        0x00004c58:    9a1a        ..      LDR      r2,[sp,#0x68]
        0x00004c5a:    2030        0       MOVS     r0,#0x30
        0x00004c5c:    9919        ..      LDR      r1,[sp,#0x64]
        0x00004c5e:    4790        .G      BLX      r2
        0x00004c60:    1c6d        m.      ADDS     r5,r5,#1
        0x00004c62:    9900        ..      LDR      r1,[sp,#0]
        0x00004c64:    1e48        H.      SUBS     r0,r1,#1
        0x00004c66:    9000        ..      STR      r0,[sp,#0]
        0x00004c68:    2900        .)      CMP      r1,#0
        0x00004c6a:    dcf5        ..      BGT      0x4c58 ; _printf_core + 980
        0x00004c6c:    e008        ..      B        0x4c80 ; _printf_core + 1020
        0x00004c6e:    980d        ..      LDR      r0,[sp,#0x34]
        0x00004c70:    990d        ..      LDR      r1,[sp,#0x34]
        0x00004c72:    7800        .x      LDRB     r0,[r0,#0]
        0x00004c74:    1c49        I.      ADDS     r1,r1,#1
        0x00004c76:    910d        ..      STR      r1,[sp,#0x34]
        0x00004c78:    9a1a        ..      LDR      r2,[sp,#0x68]
        0x00004c7a:    9919        ..      LDR      r1,[sp,#0x64]
        0x00004c7c:    4790        .G      BLX      r2
        0x00004c7e:    1c6d        m.      ADDS     r5,r5,#1
        0x00004c80:    9901        ..      LDR      r1,[sp,#4]
        0x00004c82:    1e48        H.      SUBS     r0,r1,#1
        0x00004c84:    9001        ..      STR      r0,[sp,#4]
        0x00004c86:    2900        .)      CMP      r1,#0
        0x00004c88:    dcf1        ..      BGT      0x4c6e ; _printf_core + 1002
        0x00004c8a:    e163        c.      B        0x4f54 ; _printf_core + 1744
    $d
        0x00004c8c:    00012809    .(..    DCD    75785
        0x00004c90:    33323130    0123    DCD    858927408
        0x00004c94:    37363534    4567    DCD    926299444
        0x00004c98:    62613938    89ab    DCD    1650538808
        0x00004c9c:    66656463    cdef    DCD    1717920867
        0x00004ca0:    00000000    ....    DCD    0
        0x00004ca4:    33323130    0123    DCD    858927408
        0x00004ca8:    37363534    4567    DCD    926299444
        0x00004cac:    42413938    89AB    DCD    1111570744
        0x00004cb0:    46454443    CDEF    DCD    1178944579
        0x00004cb4:    00000000    ....    DCD    0
    $t
        0x00004cb8:    f000f95a    ..Z.    BL       _printf_post_padding ; 0x4f70
        0x00004cbc:    1945        E.      ADDS     r5,r0,r5
        0x00004cbe:    1c76        v.      ADDS     r6,r6,#1
        0x00004cc0:    7830        0x      LDRB     r0,[r6,#0]
        0x00004cc2:    2800        .(      CMP      r0,#0
        0x00004cc4:    d000        ..      BEQ      0x4cc8 ; _printf_core + 1092
        0x00004cc6:    e5e2        ..      B        0x488e ; _printf_core + 10
        0x00004cc8:    4628        (F      MOV      r0,r5
        0x00004cca:    b01b        ..      ADD      sp,sp,#0x6c
        0x00004ccc:    bdf0        ..      POP      {r4-r7,pc}
        0x00004cce:    0760        `.      LSLS     r0,r4,#29
        0x00004cd0:    d400        ..      BMI      0x4cd4 ; _printf_core + 1104
        0x00004cd2:    2706        .'      MOVS     r7,#6
        0x00004cd4:    9818        ..      LDR      r0,[sp,#0x60]
        0x00004cd6:    1dc0        ..      ADDS     r0,r0,#7
        0x00004cd8:    08c1        ..      LSRS     r1,r0,#3
        0x00004cda:    00c9        ..      LSLS     r1,r1,#3
        0x00004cdc:    6848        Hh      LDR      r0,[r1,#4]
        0x00004cde:    680a        .h      LDR      r2,[r1,#0]
        0x00004ce0:    3108        .1      ADDS     r1,r1,#8
        0x00004ce2:    0fc3        ..      LSRS     r3,r0,#31
        0x00004ce4:    07db        ..      LSLS     r3,r3,#31
        0x00004ce6:    9118        ..      STR      r1,[sp,#0x60]
        0x00004ce8:    0019        ..      MOVS     r1,r3
        0x00004cea:    d001        ..      BEQ      0x4cf0 ; _printf_core + 1132
        0x00004cec:    a19c        ..      ADR      r1,{pc}+0x274 ; 0x4f60
        0x00004cee:    e008        ..      B        0x4d02 ; _printf_core + 1150
        0x00004cf0:    0521        !.      LSLS     r1,r4,#20
        0x00004cf2:    d501        ..      BPL      0x4cf8 ; _printf_core + 1140
        0x00004cf4:    a19b        ..      ADR      r1,{pc}+0x270 ; 0x4f64
        0x00004cf6:    e004        ..      B        0x4d02 ; _printf_core + 1150
        0x00004cf8:    07e1        ..      LSLS     r1,r4,#31
        0x00004cfa:    d001        ..      BEQ      0x4d00 ; _printf_core + 1148
        0x00004cfc:    a19a        ..      ADR      r1,{pc}+0x26c ; 0x4f68
        0x00004cfe:    e000        ..      B        0x4d02 ; _printf_core + 1150
        0x00004d00:    a19a        ..      ADR      r1,{pc}+0x26c ; 0x4f6c
        0x00004d02:    0043        C.      LSLS     r3,r0,#1
        0x00004d04:    9811        ..      LDR      r0,[sp,#0x44]
        0x00004d06:    085b        [.      LSRS     r3,r3,#1
        0x00004d08:    9110        ..      STR      r1,[sp,#0x40]
        0x00004d0a:    2865        e(      CMP      r0,#0x65
        0x00004d0c:    d00c        ..      BEQ      0x4d28 ; _printf_core + 1188
        0x00004d0e:    dc06        ..      BGT      0x4d1e ; _printf_core + 1178
        0x00004d10:    2845        E(      CMP      r0,#0x45
        0x00004d12:    d009        ..      BEQ      0x4d28 ; _printf_core + 1188
        0x00004d14:    2846        F(      CMP      r0,#0x46
        0x00004d16:    d01d        ..      BEQ      0x4d54 ; _printf_core + 1232
        0x00004d18:    2847        G(      CMP      r0,#0x47
        0x00004d1a:    d141        A.      BNE      0x4da0 ; _printf_core + 1308
        0x00004d1c:    e041        A.      B        0x4da2 ; _printf_core + 1310
        0x00004d1e:    2866        f(      CMP      r0,#0x66
        0x00004d20:    d018        ..      BEQ      0x4d54 ; _printf_core + 1232
        0x00004d22:    2867        g(      CMP      r0,#0x67
        0x00004d24:    d13c        <.      BNE      0x4da0 ; _printf_core + 1308
        0x00004d26:    e03c        <.      B        0x4da2 ; _printf_core + 1310
        0x00004d28:    2100        .!      MOVS     r1,#0
        0x00004d2a:    2f11        ./      CMP      r7,#0x11
        0x00004d2c:    db01        ..      BLT      0x4d32 ; _printf_core + 1198
        0x00004d2e:    2011        .       MOVS     r0,#0x11
        0x00004d30:    e000        ..      B        0x4d34 ; _printf_core + 1200
        0x00004d32:    1c78        x.      ADDS     r0,r7,#1
        0x00004d34:    9101        ..      STR      r1,[sp,#4]
        0x00004d36:    9000        ..      STR      r0,[sp,#0]
        0x00004d38:    a908        ..      ADD      r1,sp,#0x20
        0x00004d3a:    a811        ..      ADD      r0,sp,#0x44
        0x00004d3c:    f7fffcc4    ....    BL       _fp_digits ; 0x46c8
        0x00004d40:    9913        ..      LDR      r1,[sp,#0x4c]
        0x00004d42:    9105        ..      STR      r1,[sp,#0x14]
        0x00004d44:    2100        .!      MOVS     r1,#0
        0x00004d46:    9a11        ..      LDR      r2,[sp,#0x44]
        0x00004d48:    9215        ..      STR      r2,[sp,#0x54]
        0x00004d4a:    1c7f        ..      ADDS     r7,r7,#1
        0x00004d4c:    9812        ..      LDR      r0,[sp,#0x48]
        0x00004d4e:    9701        ..      STR      r7,[sp,#4]
        0x00004d50:    9100        ..      STR      r1,[sp,#0]
        0x00004d52:    e050        P.      B        0x4df6 ; _printf_core + 1394
        0x00004d54:    2001        .       MOVS     r0,#1
        0x00004d56:    07c0        ..      LSLS     r0,r0,#31
        0x00004d58:    9003        ..      STR      r0,[sp,#0xc]
        0x00004d5a:    2001        .       MOVS     r0,#1
        0x00004d5c:    9001        ..      STR      r0,[sp,#4]
        0x00004d5e:    a908        ..      ADD      r1,sp,#0x20
        0x00004d60:    9700        ..      STR      r7,[sp,#0]
        0x00004d62:    a811        ..      ADD      r0,sp,#0x44
        0x00004d64:    f7fffcb0    ....    BL       _fp_digits ; 0x46c8
        0x00004d68:    9a13        ..      LDR      r2,[sp,#0x4c]
        0x00004d6a:    9914        ..      LDR      r1,[sp,#0x50]
        0x00004d6c:    9205        ..      STR      r2,[sp,#0x14]
        0x00004d6e:    2200        ."      MOVS     r2,#0
        0x00004d70:    9b11        ..      LDR      r3,[sp,#0x44]
        0x00004d72:    9200        ..      STR      r2,[sp,#0]
        0x00004d74:    9812        ..      LDR      r0,[sp,#0x48]
        0x00004d76:    9315        ..      STR      r3,[sp,#0x54]
        0x00004d78:    9a05        ..      LDR      r2,[sp,#0x14]
        0x00004d7a:    9201        ..      STR      r2,[sp,#4]
        0x00004d7c:    2900        .)      CMP      r1,#0
        0x00004d7e:    d001        ..      BEQ      0x4d84 ; _printf_core + 1280
        0x00004d80:    4610        .F      MOV      r0,r2
        0x00004d82:    e002        ..      B        0x4d8a ; _printf_core + 1286
        0x00004d84:    1c79        y.      ADDS     r1,r7,#1
        0x00004d86:    1840        @.      ADDS     r0,r0,r1
        0x00004d88:    9001        ..      STR      r0,[sp,#4]
        0x00004d8a:    1a38        8.      SUBS     r0,r7,r0
        0x00004d8c:    d501        ..      BPL      0x4d92 ; _printf_core + 1294
        0x00004d8e:    9801        ..      LDR      r0,[sp,#4]
        0x00004d90:    e004        ..      B        0x4d9c ; _printf_core + 1304
        0x00004d92:    4240        @B      RSBS     r0,r0,#0
        0x00004d94:    1e40        @.      SUBS     r0,r0,#1
        0x00004d96:    9000        ..      STR      r0,[sp,#0]
        0x00004d98:    1c78        x.      ADDS     r0,r7,#1
        0x00004d9a:    9001        ..      STR      r0,[sp,#4]
        0x00004d9c:    1bc0        ..      SUBS     r0,r0,r7
        0x00004d9e:    9002        ..      STR      r0,[sp,#8]
        0x00004da0:    e043        C.      B        0x4e2a ; _printf_core + 1446
        0x00004da2:    2f01        ./      CMP      r7,#1
        0x00004da4:    da00        ..      BGE      0x4da8 ; _printf_core + 1316
        0x00004da6:    2701        .'      MOVS     r7,#1
        0x00004da8:    2100        .!      MOVS     r1,#0
        0x00004daa:    2f11        ./      CMP      r7,#0x11
        0x00004dac:    dd01        ..      BLE      0x4db2 ; _printf_core + 1326
        0x00004dae:    2011        .       MOVS     r0,#0x11
        0x00004db0:    e000        ..      B        0x4db4 ; _printf_core + 1328
        0x00004db2:    4638        8F      MOV      r0,r7
        0x00004db4:    9101        ..      STR      r1,[sp,#4]
        0x00004db6:    9000        ..      STR      r0,[sp,#0]
        0x00004db8:    a908        ..      ADD      r1,sp,#0x20
        0x00004dba:    a811        ..      ADD      r0,sp,#0x44
        0x00004dbc:    f7fffc84    ....    BL       _fp_digits ; 0x46c8
        0x00004dc0:    9913        ..      LDR      r1,[sp,#0x4c]
        0x00004dc2:    9105        ..      STR      r1,[sp,#0x14]
        0x00004dc4:    9a11        ..      LDR      r2,[sp,#0x44]
        0x00004dc6:    2100        .!      MOVS     r1,#0
        0x00004dc8:    9812        ..      LDR      r0,[sp,#0x48]
        0x00004dca:    9215        ..      STR      r2,[sp,#0x54]
        0x00004dcc:    9100        ..      STR      r1,[sp,#0]
        0x00004dce:    9701        ..      STR      r7,[sp,#4]
        0x00004dd0:    0721        !.      LSLS     r1,r4,#28
        0x00004dd2:    d40c        ..      BMI      0x4dee ; _printf_core + 1386
        0x00004dd4:    9905        ..      LDR      r1,[sp,#0x14]
        0x00004dd6:    42b9        .B      CMP      r1,r7
        0x00004dd8:    db01        ..      BLT      0x4dde ; _printf_core + 1370
        0x00004dda:    9901        ..      LDR      r1,[sp,#4]
        0x00004ddc:    e000        ..      B        0x4de0 ; _printf_core + 1372
        0x00004dde:    9101        ..      STR      r1,[sp,#4]
        0x00004de0:    2901        .)      CMP      r1,#1
        0x00004de2:    dd04        ..      BLE      0x4dee ; _printf_core + 1386
        0x00004de4:    9a15        ..      LDR      r2,[sp,#0x54]
        0x00004de6:    1e49        I.      SUBS     r1,r1,#1
        0x00004de8:    5c51        Q\      LDRB     r1,[r2,r1]
        0x00004dea:    2930        0)      CMP      r1,#0x30
        0x00004dec:    d006        ..      BEQ      0x4dfc ; _printf_core + 1400
        0x00004dee:    42b8        .B      CMP      r0,r7
        0x00004df0:    da01        ..      BGE      0x4df6 ; _printf_core + 1394
        0x00004df2:    1d01        ..      ADDS     r1,r0,#4
        0x00004df4:    da05        ..      BGE      0x4e02 ; _printf_core + 1406
        0x00004df6:    2101        .!      MOVS     r1,#1
        0x00004df8:    9102        ..      STR      r1,[sp,#8]
        0x00004dfa:    e015        ..      B        0x4e28 ; _printf_core + 1444
        0x00004dfc:    9901        ..      LDR      r1,[sp,#4]
        0x00004dfe:    1e49        I.      SUBS     r1,r1,#1
        0x00004e00:    e7ed        ..      B        0x4dde ; _printf_core + 1370
        0x00004e02:    2800        .(      CMP      r0,#0
        0x00004e04:    dc05        ..      BGT      0x4e12 ; _printf_core + 1422
        0x00004e06:    9900        ..      LDR      r1,[sp,#0]
        0x00004e08:    1841        A.      ADDS     r1,r0,r1
        0x00004e0a:    9100        ..      STR      r1,[sp,#0]
        0x00004e0c:    9901        ..      LDR      r1,[sp,#4]
        0x00004e0e:    1a09        ..      SUBS     r1,r1,r0
        0x00004e10:    e003        ..      B        0x4e1a ; _printf_core + 1430
        0x00004e12:    9a01        ..      LDR      r2,[sp,#4]
        0x00004e14:    1c41        A.      ADDS     r1,r0,#1
        0x00004e16:    4291        .B      CMP      r1,r2
        0x00004e18:    dd00        ..      BLE      0x4e1c ; _printf_core + 1432
        0x00004e1a:    9101        ..      STR      r1,[sp,#4]
        0x00004e1c:    9900        ..      LDR      r1,[sp,#0]
        0x00004e1e:    1a40        @.      SUBS     r0,r0,r1
        0x00004e20:    1c40        @.      ADDS     r0,r0,#1
        0x00004e22:    9002        ..      STR      r0,[sp,#8]
        0x00004e24:    2001        .       MOVS     r0,#1
        0x00004e26:    07c0        ..      LSLS     r0,r0,#31
        0x00004e28:    9003        ..      STR      r0,[sp,#0xc]
        0x00004e2a:    0720         .      LSLS     r0,r4,#28
        0x00004e2c:    d406        ..      BMI      0x4e3c ; _printf_core + 1464
        0x00004e2e:    9902        ..      LDR      r1,[sp,#8]
        0x00004e30:    9801        ..      LDR      r0,[sp,#4]
        0x00004e32:    4281        .B      CMP      r1,r0
        0x00004e34:    db02        ..      BLT      0x4e3c ; _printf_core + 1464
        0x00004e36:    2000        .       MOVS     r0,#0
        0x00004e38:    43c0        .C      MVNS     r0,r0
        0x00004e3a:    9002        ..      STR      r0,[sp,#8]
        0x00004e3c:    2000        .       MOVS     r0,#0
        0x00004e3e:    4669        iF      MOV      r1,sp
        0x00004e40:    77c8        .w      STRB     r0,[r1,#0x1f]
        0x00004e42:    af07        ..      ADD      r7,sp,#0x1c
        0x00004e44:    2101        .!      MOVS     r1,#1
        0x00004e46:    9803        ..      LDR      r0,[sp,#0xc]
        0x00004e48:    3703        .7      ADDS     r7,#3
        0x00004e4a:    07c9        ..      LSLS     r1,r1,#31
        0x00004e4c:    4288        .B      CMP      r0,r1
        0x00004e4e:    d024        $.      BEQ      0x4e9a ; _printf_core + 1558
        0x00004e50:    2002        .       MOVS     r0,#2
        0x00004e52:    9011        ..      STR      r0,[sp,#0x44]
        0x00004e54:    202b        +       MOVS     r0,#0x2b
        0x00004e56:    9012        ..      STR      r0,[sp,#0x48]
        0x00004e58:    9803        ..      LDR      r0,[sp,#0xc]
        0x00004e5a:    2800        .(      CMP      r0,#0
        0x00004e5c:    da0c        ..      BGE      0x4e78 ; _printf_core + 1524
        0x00004e5e:    4240        @B      RSBS     r0,r0,#0
        0x00004e60:    9003        ..      STR      r0,[sp,#0xc]
        0x00004e62:    202d        -       MOVS     r0,#0x2d
        0x00004e64:    9012        ..      STR      r0,[sp,#0x48]
        0x00004e66:    e007        ..      B        0x4e78 ; _printf_core + 1524
        0x00004e68:    210a        .!      MOVS     r1,#0xa
        0x00004e6a:    9803        ..      LDR      r0,[sp,#0xc]
        0x00004e6c:    f7fefef0    ....    BL       __aeabi_uidiv ; 0x3c50
        0x00004e70:    3130        01      ADDS     r1,r1,#0x30
        0x00004e72:    1e7f        ..      SUBS     r7,r7,#1
        0x00004e74:    9003        ..      STR      r0,[sp,#0xc]
        0x00004e76:    7039        9p      STRB     r1,[r7,#0]
        0x00004e78:    9911        ..      LDR      r1,[sp,#0x44]
        0x00004e7a:    1e48        H.      SUBS     r0,r1,#1
        0x00004e7c:    9011        ..      STR      r0,[sp,#0x44]
        0x00004e7e:    2900        .)      CMP      r1,#0
        0x00004e80:    dcf2        ..      BGT      0x4e68 ; _printf_core + 1508
        0x00004e82:    9803        ..      LDR      r0,[sp,#0xc]
        0x00004e84:    2800        .(      CMP      r0,#0
        0x00004e86:    d1ef        ..      BNE      0x4e68 ; _printf_core + 1508
        0x00004e88:    1e79        y.      SUBS     r1,r7,#1
        0x00004e8a:    9812        ..      LDR      r0,[sp,#0x48]
        0x00004e8c:    7008        .p      STRB     r0,[r1,#0]
        0x00004e8e:    7830        0x      LDRB     r0,[r6,#0]
        0x00004e90:    2120         !      MOVS     r1,#0x20
        0x00004e92:    4008        .@      ANDS     r0,r0,r1
        0x00004e94:    3045        E0      ADDS     r0,r0,#0x45
        0x00004e96:    1ebf        ..      SUBS     r7,r7,#2
        0x00004e98:    7038        8p      STRB     r0,[r7,#0]
        0x00004e9a:    a806        ..      ADD      r0,sp,#0x18
        0x00004e9c:    1bc0        ..      SUBS     r0,r0,r7
        0x00004e9e:    1dc0        ..      ADDS     r0,r0,#7
        0x00004ea0:    9003        ..      STR      r0,[sp,#0xc]
        0x00004ea2:    9810        ..      LDR      r0,[sp,#0x40]
        0x00004ea4:    7800        .x      LDRB     r0,[r0,#0]
        0x00004ea6:    2800        .(      CMP      r0,#0
        0x00004ea8:    d000        ..      BEQ      0x4eac ; _printf_core + 1576
        0x00004eaa:    2001        .       MOVS     r0,#1
        0x00004eac:    9901        ..      LDR      r1,[sp,#4]
        0x00004eae:    1841        A.      ADDS     r1,r0,r1
        0x00004eb0:    9802        ..      LDR      r0,[sp,#8]
        0x00004eb2:    17c0        ..      ASRS     r0,r0,#31
        0x00004eb4:    1809        ..      ADDS     r1,r1,r0
        0x00004eb6:    9803        ..      LDR      r0,[sp,#0xc]
        0x00004eb8:    1809        ..      ADDS     r1,r1,r0
        0x00004eba:    9804        ..      LDR      r0,[sp,#0x10]
        0x00004ebc:    1a40        @.      SUBS     r0,r0,r1
        0x00004ebe:    1e40        @.      SUBS     r0,r0,#1
        0x00004ec0:    9004        ..      STR      r0,[sp,#0x10]
        0x00004ec2:    03e0        ..      LSLS     r0,r4,#15
        0x00004ec4:    d406        ..      BMI      0x4ed4 ; _printf_core + 1616
        0x00004ec6:    4621        !F      MOV      r1,r4
        0x00004ec8:    9b1a        ..      LDR      r3,[sp,#0x68]
        0x00004eca:    9a19        ..      LDR      r2,[sp,#0x64]
        0x00004ecc:    9804        ..      LDR      r0,[sp,#0x10]
        0x00004ece:    f000f85f    .._.    BL       _printf_pre_padding ; 0x4f90
        0x00004ed2:    1945        E.      ADDS     r5,r0,r5
        0x00004ed4:    9810        ..      LDR      r0,[sp,#0x40]
        0x00004ed6:    7800        .x      LDRB     r0,[r0,#0]
        0x00004ed8:    2800        .(      CMP      r0,#0
        0x00004eda:    d003        ..      BEQ      0x4ee4 ; _printf_core + 1632
        0x00004edc:    9a1a        ..      LDR      r2,[sp,#0x68]
        0x00004ede:    9919        ..      LDR      r1,[sp,#0x64]
        0x00004ee0:    4790        .G      BLX      r2
        0x00004ee2:    1c6d        m.      ADDS     r5,r5,#1
        0x00004ee4:    03e0        ..      LSLS     r0,r4,#15
        0x00004ee6:    d524        $.      BPL      0x4f32 ; _printf_core + 1710
        0x00004ee8:    4621        !F      MOV      r1,r4
        0x00004eea:    9b1a        ..      LDR      r3,[sp,#0x68]
        0x00004eec:    9a19        ..      LDR      r2,[sp,#0x64]
        0x00004eee:    9804        ..      LDR      r0,[sp,#0x10]
        0x00004ef0:    f000f84e    ..N.    BL       _printf_pre_padding ; 0x4f90
        0x00004ef4:    1945        E.      ADDS     r5,r0,r5
        0x00004ef6:    e01c        ..      B        0x4f32 ; _printf_core + 1710
        0x00004ef8:    9800        ..      LDR      r0,[sp,#0]
        0x00004efa:    2800        .(      CMP      r0,#0
        0x00004efc:    db07        ..      BLT      0x4f0e ; _printf_core + 1674
        0x00004efe:    9900        ..      LDR      r1,[sp,#0]
        0x00004f00:    9805        ..      LDR      r0,[sp,#0x14]
        0x00004f02:    4288        .B      CMP      r0,r1
        0x00004f04:    dd03        ..      BLE      0x4f0e ; _printf_core + 1674
        0x00004f06:    9815        ..      LDR      r0,[sp,#0x54]
        0x00004f08:    5c40        @\      LDRB     r0,[r0,r1]
        0x00004f0a:    9919        ..      LDR      r1,[sp,#0x64]
        0x00004f0c:    e001        ..      B        0x4f12 ; _printf_core + 1678
        0x00004f0e:    9919        ..      LDR      r1,[sp,#0x64]
        0x00004f10:    2030        0       MOVS     r0,#0x30
        0x00004f12:    9a1a        ..      LDR      r2,[sp,#0x68]
        0x00004f14:    4790        .G      BLX      r2
        0x00004f16:    9800        ..      LDR      r0,[sp,#0]
        0x00004f18:    1c6d        m.      ADDS     r5,r5,#1
        0x00004f1a:    1c40        @.      ADDS     r0,r0,#1
        0x00004f1c:    9000        ..      STR      r0,[sp,#0]
        0x00004f1e:    9802        ..      LDR      r0,[sp,#8]
        0x00004f20:    1e40        @.      SUBS     r0,r0,#1
        0x00004f22:    9002        ..      STR      r0,[sp,#8]
        0x00004f24:    2800        .(      CMP      r0,#0
        0x00004f26:    d104        ..      BNE      0x4f32 ; _printf_core + 1710
        0x00004f28:    9a1a        ..      LDR      r2,[sp,#0x68]
        0x00004f2a:    202e        .       MOVS     r0,#0x2e
        0x00004f2c:    9919        ..      LDR      r1,[sp,#0x64]
        0x00004f2e:    4790        .G      BLX      r2
        0x00004f30:    1c6d        m.      ADDS     r5,r5,#1
        0x00004f32:    9901        ..      LDR      r1,[sp,#4]
        0x00004f34:    1e48        H.      SUBS     r0,r1,#1
        0x00004f36:    9001        ..      STR      r0,[sp,#4]
        0x00004f38:    2900        .)      CMP      r1,#0
        0x00004f3a:    dcdd        ..      BGT      0x4ef8 ; _printf_core + 1652
        0x00004f3c:    e005        ..      B        0x4f4a ; _printf_core + 1734
        0x00004f3e:    7838        8x      LDRB     r0,[r7,#0]
        0x00004f40:    9a1a        ..      LDR      r2,[sp,#0x68]
        0x00004f42:    1c7f        ..      ADDS     r7,r7,#1
        0x00004f44:    9919        ..      LDR      r1,[sp,#0x64]
        0x00004f46:    4790        .G      BLX      r2
        0x00004f48:    1c6d        m.      ADDS     r5,r5,#1
        0x00004f4a:    9903        ..      LDR      r1,[sp,#0xc]
        0x00004f4c:    1e48        H.      SUBS     r0,r1,#1
        0x00004f4e:    9003        ..      STR      r0,[sp,#0xc]
        0x00004f50:    2900        .)      CMP      r1,#0
        0x00004f52:    dcf4        ..      BGT      0x4f3e ; _printf_core + 1722
        0x00004f54:    4621        !F      MOV      r1,r4
        0x00004f56:    9b1a        ..      LDR      r3,[sp,#0x68]
        0x00004f58:    9a19        ..      LDR      r2,[sp,#0x64]
        0x00004f5a:    9804        ..      LDR      r0,[sp,#0x10]
        0x00004f5c:    e6ac        ..      B        0x4cb8 ; _printf_core + 1076
    $d
        0x00004f5e:    0000        ..      DCW    0
        0x00004f60:    0000002d    -...    DCD    45
        0x00004f64:    0000002b    +...    DCD    43
        0x00004f68:    00000020     ...    DCD    32
        0x00004f6c:    00000000    ....    DCD    0
    $t
    i._printf_post_padding
    _printf_post_padding
        0x00004f70:    b5f8        ..      PUSH     {r3-r7,lr}
        0x00004f72:    4604        .F      MOV      r4,r0
        0x00004f74:    2500        .%      MOVS     r5,#0
        0x00004f76:    461e        .F      MOV      r6,r3
        0x00004f78:    4617        .F      MOV      r7,r2
        0x00004f7a:    0488        ..      LSLS     r0,r1,#18
        0x00004f7c:    d404        ..      BMI      0x4f88 ; _printf_post_padding + 24
        0x00004f7e:    e005        ..      B        0x4f8c ; _printf_post_padding + 28
        0x00004f80:    4639        9F      MOV      r1,r7
        0x00004f82:    2020                MOVS     r0,#0x20
        0x00004f84:    47b0        .G      BLX      r6
        0x00004f86:    1c6d        m.      ADDS     r5,r5,#1
        0x00004f88:    1e64        d.      SUBS     r4,r4,#1
        0x00004f8a:    d5f9        ..      BPL      0x4f80 ; _printf_post_padding + 16
        0x00004f8c:    4628        (F      MOV      r0,r5
        0x00004f8e:    bdf8        ..      POP      {r3-r7,pc}
    i._printf_pre_padding
    _printf_pre_padding
        0x00004f90:    b5ff        ..      PUSH     {r0-r7,lr}
        0x00004f92:    4604        .F      MOV      r4,r0
        0x00004f94:    2500        .%      MOVS     r5,#0
        0x00004f96:    b081        ..      SUB      sp,sp,#4
        0x00004f98:    461e        .F      MOV      r6,r3
        0x00004f9a:    03c8        ..      LSLS     r0,r1,#15
        0x00004f9c:    d501        ..      BPL      0x4fa2 ; _printf_pre_padding + 18
        0x00004f9e:    2730        0'      MOVS     r7,#0x30
        0x00004fa0:    e000        ..      B        0x4fa4 ; _printf_pre_padding + 20
        0x00004fa2:    2720         '      MOVS     r7,#0x20
        0x00004fa4:    0488        ..      LSLS     r0,r1,#18
        0x00004fa6:    d504        ..      BPL      0x4fb2 ; _printf_pre_padding + 34
        0x00004fa8:    e005        ..      B        0x4fb6 ; _printf_pre_padding + 38
        0x00004faa:    4638        8F      MOV      r0,r7
        0x00004fac:    9903        ..      LDR      r1,[sp,#0xc]
        0x00004fae:    47b0        .G      BLX      r6
        0x00004fb0:    1c6d        m.      ADDS     r5,r5,#1
        0x00004fb2:    1e64        d.      SUBS     r4,r4,#1
        0x00004fb4:    d5f9        ..      BPL      0x4faa ; _printf_pre_padding + 26
        0x00004fb6:    4628        (F      MOV      r0,r5
        0x00004fb8:    b005        ..      ADD      sp,sp,#0x14
        0x00004fba:    bdf0        ..      POP      {r4-r7,pc}
    i._sputc
    _sputc
        0x00004fbc:    680a        .h      LDR      r2,[r1,#0]
        0x00004fbe:    1c53        S.      ADDS     r3,r2,#1
        0x00004fc0:    600b        .`      STR      r3,[r1,#0]
        0x00004fc2:    7010        .p      STRB     r0,[r2,#0]
        0x00004fc4:    4770        pG      BX       lr
        0x00004fc6:    0000        ..      MOVS     r0,r0
    i.batteryind
    batteryind
        0x00004fc8:    b570        p.      PUSH     {r4-r6,lr}
        0x00004fca:    4849        IH      LDR      r0,[pc,#292] ; [0x50f0] = 0x20000060
        0x00004fcc:    7800        .x      LDRB     r0,[r0,#0]
        0x00004fce:    1c40        @.      ADDS     r0,r0,#1
        0x00004fd0:    b240        @.      SXTB     r0,r0
        0x00004fd2:    4947        GI      LDR      r1,[pc,#284] ; [0x50f0] = 0x20000060
        0x00004fd4:    7008        .p      STRB     r0,[r1,#0]
        0x00004fd6:    4608        .F      MOV      r0,r1
        0x00004fd8:    7800        .x      LDRB     r0,[r0,#0]
        0x00004fda:    2801        .(      CMP      r0,#1
        0x00004fdc:    d106        ..      BNE      0x4fec ; batteryind + 36
        0x00004fde:    2000        .       MOVS     r0,#0
        0x00004fe0:    4944        DI      LDR      r1,[pc,#272] ; [0x50f4] = 0x50004200
        0x00004fe2:    60c8        .`      STR      r0,[r1,#0xc]
        0x00004fe4:    6108        .a      STR      r0,[r1,#0x10]
        0x00004fe6:    6148        Ha      STR      r0,[r1,#0x14]
        0x00004fe8:    6188        .a      STR      r0,[r1,#0x18]
        0x00004fea:    e07f        ..      B        0x50ec ; batteryind + 292
        0x00004fec:    4842        BH      LDR      r0,[pc,#264] ; [0x50f8] = 0x200000b0
        0x00004fee:    6800        .h      LDR      r0,[r0,#0]
        0x00004ff0:    f7feffb5    ....    BL       __aeabi_f2d ; 0x3f5e
        0x00004ff4:    4604        .F      MOV      r4,r0
        0x00004ff6:    4a41        AJ      LDR      r2,[pc,#260] ; [0x50fc] = 0x66666666
        0x00004ff8:    4b41        AK      LDR      r3,[pc,#260] ; [0x5100] = 0x40126666
        0x00004ffa:    f7feffd9    ....    BL       __aeabi_cdrcmple ; 0x3fb0
        0x00004ffe:    d209        ..      BCS      0x5014 ; batteryind + 76
        0x00005000:    483c        <H      LDR      r0,[pc,#240] ; [0x50f4] = 0x50004200
        0x00005002:    6980        .i      LDR      r0,[r0,#0x18]
        0x00005004:    2101        .!      MOVS     r1,#1
        0x00005006:    4048        H@      EORS     r0,r0,r1
        0x00005008:    493a        :I      LDR      r1,[pc,#232] ; [0x50f4] = 0x50004200
        0x0000500a:    6188        .a      STR      r0,[r1,#0x18]
        0x0000500c:    6148        Ha      STR      r0,[r1,#0x14]
        0x0000500e:    6108        .a      STR      r0,[r1,#0x10]
        0x00005010:    60c8        .`      STR      r0,[r1,#0xc]
        0x00005012:    e068        h.      B        0x50e6 ; batteryind + 286
        0x00005014:    4838        8H      LDR      r0,[pc,#224] ; [0x50f8] = 0x200000b0
        0x00005016:    6800        .h      LDR      r0,[r0,#0]
        0x00005018:    f7feffa1    ....    BL       __aeabi_f2d ; 0x3f5e
        0x0000501c:    4604        .F      MOV      r4,r0
        0x0000501e:    2200        ."      MOVS     r2,#0
        0x00005020:    4b38        8K      LDR      r3,[pc,#224] ; [0x5104] = 0x400a0000
        0x00005022:    f7feffb1    ....    BL       __aeabi_cdcmpeq ; 0x3f88
        0x00005026:    d209        ..      BCS      0x503c ; batteryind + 116
        0x00005028:    4832        2H      LDR      r0,[pc,#200] ; [0x50f4] = 0x50004200
        0x0000502a:    68c0        .h      LDR      r0,[r0,#0xc]
        0x0000502c:    2101        .!      MOVS     r1,#1
        0x0000502e:    4048        H@      EORS     r0,r0,r1
        0x00005030:    4930        0I      LDR      r1,[pc,#192] ; [0x50f4] = 0x50004200
        0x00005032:    60c8        .`      STR      r0,[r1,#0xc]
        0x00005034:    2000        .       MOVS     r0,#0
        0x00005036:    4934        4I      LDR      r1,[pc,#208] ; [0x5108] = 0x200000b8
        0x00005038:    7008        .p      STRB     r0,[r1,#0]
        0x0000503a:    e054        T.      B        0x50e6 ; batteryind + 286
        0x0000503c:    482e        .H      LDR      r0,[pc,#184] ; [0x50f8] = 0x200000b0
        0x0000503e:    6800        .h      LDR      r0,[r0,#0]
        0x00005040:    f7feff8d    ....    BL       __aeabi_f2d ; 0x3f5e
        0x00005044:    4604        .F      MOV      r4,r0
        0x00005046:    2200        ."      MOVS     r2,#0
        0x00005048:    4b30        0K      LDR      r3,[pc,#192] ; [0x510c] = 0x400c0000
        0x0000504a:    f7feff9d    ....    BL       __aeabi_cdcmpeq ; 0x3f88
        0x0000504e:    d20f        ..      BCS      0x5070 ; batteryind + 168
        0x00005050:    4828        (H      LDR      r0,[pc,#160] ; [0x50f4] = 0x50004200
        0x00005052:    68c0        .h      LDR      r0,[r0,#0xc]
        0x00005054:    2101        .!      MOVS     r1,#1
        0x00005056:    4048        H@      EORS     r0,r0,r1
        0x00005058:    4926        &I      LDR      r1,[pc,#152] ; [0x50f4] = 0x50004200
        0x0000505a:    60c8        .`      STR      r0,[r1,#0xc]
        0x0000505c:    4608        .F      MOV      r0,r1
        0x0000505e:    6900        .i      LDR      r0,[r0,#0x10]
        0x00005060:    2101        .!      MOVS     r1,#1
        0x00005062:    4048        H@      EORS     r0,r0,r1
        0x00005064:    4923        #I      LDR      r1,[pc,#140] ; [0x50f4] = 0x50004200
        0x00005066:    6108        .a      STR      r0,[r1,#0x10]
        0x00005068:    2000        .       MOVS     r0,#0
        0x0000506a:    4927        'I      LDR      r1,[pc,#156] ; [0x5108] = 0x200000b8
        0x0000506c:    7008        .p      STRB     r0,[r1,#0]
        0x0000506e:    e03a        :.      B        0x50e6 ; batteryind + 286
        0x00005070:    4821        !H      LDR      r0,[pc,#132] ; [0x50f8] = 0x200000b0
        0x00005072:    6800        .h      LDR      r0,[r0,#0]
        0x00005074:    f7feff73    ..s.    BL       __aeabi_f2d ; 0x3f5e
        0x00005078:    4604        .F      MOV      r4,r0
        0x0000507a:    2200        ."      MOVS     r2,#0
        0x0000507c:    4b24        $K      LDR      r3,[pc,#144] ; [0x5110] = 0x400e0000
        0x0000507e:    f7feff83    ....    BL       __aeabi_cdcmpeq ; 0x3f88
        0x00005082:    d215        ..      BCS      0x50b0 ; batteryind + 232
        0x00005084:    481b        .H      LDR      r0,[pc,#108] ; [0x50f4] = 0x50004200
        0x00005086:    68c0        .h      LDR      r0,[r0,#0xc]
        0x00005088:    2101        .!      MOVS     r1,#1
        0x0000508a:    4048        H@      EORS     r0,r0,r1
        0x0000508c:    4919        .I      LDR      r1,[pc,#100] ; [0x50f4] = 0x50004200
        0x0000508e:    60c8        .`      STR      r0,[r1,#0xc]
        0x00005090:    4608        .F      MOV      r0,r1
        0x00005092:    6900        .i      LDR      r0,[r0,#0x10]
        0x00005094:    2101        .!      MOVS     r1,#1
        0x00005096:    4048        H@      EORS     r0,r0,r1
        0x00005098:    4916        .I      LDR      r1,[pc,#88] ; [0x50f4] = 0x50004200
        0x0000509a:    6108        .a      STR      r0,[r1,#0x10]
        0x0000509c:    4608        .F      MOV      r0,r1
        0x0000509e:    6940        @i      LDR      r0,[r0,#0x14]
        0x000050a0:    2101        .!      MOVS     r1,#1
        0x000050a2:    4048        H@      EORS     r0,r0,r1
        0x000050a4:    4913        .I      LDR      r1,[pc,#76] ; [0x50f4] = 0x50004200
        0x000050a6:    6148        Ha      STR      r0,[r1,#0x14]
        0x000050a8:    2000        .       MOVS     r0,#0
        0x000050aa:    4917        .I      LDR      r1,[pc,#92] ; [0x5108] = 0x200000b8
        0x000050ac:    7008        .p      STRB     r0,[r1,#0]
        0x000050ae:    e01a        ..      B        0x50e6 ; batteryind + 286
        0x000050b0:    4810        .H      LDR      r0,[pc,#64] ; [0x50f4] = 0x50004200
        0x000050b2:    68c0        .h      LDR      r0,[r0,#0xc]
        0x000050b4:    2101        .!      MOVS     r1,#1
        0x000050b6:    4048        H@      EORS     r0,r0,r1
        0x000050b8:    490e        .I      LDR      r1,[pc,#56] ; [0x50f4] = 0x50004200
        0x000050ba:    60c8        .`      STR      r0,[r1,#0xc]
        0x000050bc:    4608        .F      MOV      r0,r1
        0x000050be:    6900        .i      LDR      r0,[r0,#0x10]
        0x000050c0:    2101        .!      MOVS     r1,#1
        0x000050c2:    4048        H@      EORS     r0,r0,r1
        0x000050c4:    490b        .I      LDR      r1,[pc,#44] ; [0x50f4] = 0x50004200
        0x000050c6:    6108        .a      STR      r0,[r1,#0x10]
        0x000050c8:    4608        .F      MOV      r0,r1
        0x000050ca:    6940        @i      LDR      r0,[r0,#0x14]
        0x000050cc:    2101        .!      MOVS     r1,#1
        0x000050ce:    4048        H@      EORS     r0,r0,r1
        0x000050d0:    4908        .I      LDR      r1,[pc,#32] ; [0x50f4] = 0x50004200
        0x000050d2:    6148        Ha      STR      r0,[r1,#0x14]
        0x000050d4:    4608        .F      MOV      r0,r1
        0x000050d6:    6980        .i      LDR      r0,[r0,#0x18]
        0x000050d8:    2101        .!      MOVS     r1,#1
        0x000050da:    4048        H@      EORS     r0,r0,r1
        0x000050dc:    4905        .I      LDR      r1,[pc,#20] ; [0x50f4] = 0x50004200
        0x000050de:    6188        .a      STR      r0,[r1,#0x18]
        0x000050e0:    2000        .       MOVS     r0,#0
        0x000050e2:    4909        .I      LDR      r1,[pc,#36] ; [0x5108] = 0x200000b8
        0x000050e4:    7008        .p      STRB     r0,[r1,#0]
        0x000050e6:    2000        .       MOVS     r0,#0
        0x000050e8:    4901        .I      LDR      r1,[pc,#4] ; [0x50f0] = 0x20000060
        0x000050ea:    7008        .p      STRB     r0,[r1,#0]
        0x000050ec:    bd70        p.      POP      {r4-r6,pc}
    $d
        0x000050ee:    0000        ..      DCW    0
        0x000050f0:    20000060    `..     DCD    536871008
        0x000050f4:    50004200    .B.P    DCD    1342194176
        0x000050f8:    200000b0    ...     DCD    536871088
        0x000050fc:    66666666    ffff    DCD    1717986918
        0x00005100:    40126666    ff.@    DCD    1074947686
        0x00005104:    400a0000    ...@    DCD    1074397184
        0x00005108:    200000b8    ...     DCD    536871096
        0x0000510c:    400c0000    ...@    DCD    1074528256
        0x00005110:    400e0000    ...@    DCD    1074659328
    $t
    i.checkallnumsinstring
    checkallnumsinstring
        0x00005114:    b5f8        ..      PUSH     {r3-r7,lr}
        0x00005116:    4605        .F      MOV      r5,r0
        0x00005118:    2700        .'      MOVS     r7,#0
        0x0000511a:    4628        (F      MOV      r0,r5
        0x0000511c:    f7fefe24    ..$.    BL       strlen ; 0x3d68
        0x00005120:    4607        .F      MOV      r7,r0
        0x00005122:    2400        .$      MOVS     r4,#0
        0x00005124:    e00a        ..      B        0x513c ; checkallnumsinstring + 40
        0x00005126:    5d28        (]      LDRB     r0,[r5,r4]
        0x00005128:    282f        /(      CMP      r0,#0x2f
        0x0000512a:    dd04        ..      BLE      0x5136 ; checkallnumsinstring + 34
        0x0000512c:    5d28        (]      LDRB     r0,[r5,r4]
        0x0000512e:    283a        :(      CMP      r0,#0x3a
        0x00005130:    da01        ..      BGE      0x5136 ; checkallnumsinstring + 34
        0x00005132:    2600        .&      MOVS     r6,#0
        0x00005134:    e001        ..      B        0x513a ; checkallnumsinstring + 38
        0x00005136:    2601        .&      MOVS     r6,#1
        0x00005138:    e002        ..      B        0x5140 ; checkallnumsinstring + 44
        0x0000513a:    1c64        d.      ADDS     r4,r4,#1
        0x0000513c:    42bc        .B      CMP      r4,r7
        0x0000513e:    dbf2        ..      BLT      0x5126 ; checkallnumsinstring + 18
        0x00005140:    bf00        ..      NOP      
        0x00005142:    b270        p.      SXTB     r0,r6
        0x00005144:    bdf8        ..      POP      {r3-r7,pc}
    i.feild_response
    feild_response
        0x00005146:    b510        ..      PUSH     {r4,lr}
        0x00005148:    2300        .#      MOVS     r3,#0
        0x0000514a:    bf00        ..      NOP      
        0x0000514c:    1c40        @.      ADDS     r0,r0,#1
        0x0000514e:    7804        .x      LDRB     r4,[r0,#0]
        0x00005150:    2c2c        ,,      CMP      r4,#0x2c
        0x00005152:    d100        ..      BNE      0x5156 ; feild_response + 16
        0x00005154:    1c5b        [.      ADDS     r3,r3,#1
        0x00005156:    428b        .B      CMP      r3,r1
        0x00005158:    d1f8        ..      BNE      0x514c ; feild_response + 6
        0x0000515a:    1c40        @.      ADDS     r0,r0,#1
        0x0000515c:    bf00        ..      NOP      
        0x0000515e:    7804        .x      LDRB     r4,[r0,#0]
        0x00005160:    7014        .p      STRB     r4,[r2,#0]
        0x00005162:    1c52        R.      ADDS     r2,r2,#1
        0x00005164:    1c40        @.      ADDS     r0,r0,#1
        0x00005166:    7804        .x      LDRB     r4,[r0,#0]
        0x00005168:    2c2c        ,,      CMP      r4,#0x2c
        0x0000516a:    d1f8        ..      BNE      0x515e ; feild_response + 24
        0x0000516c:    bd10        ..      POP      {r4,pc}
        0x0000516e:    0000        ..      MOVS     r0,r0
    i.fileopen
    fileopen
        0x00005170:    b51c        ..      PUSH     {r2-r4,lr}
        0x00005172:    4821        !H      LDR      r0,[pc,#132] ; [0x51f8] = 0x200001e6
        0x00005174:    f7fefdf8    ....    BL       strlen ; 0x3d68
        0x00005178:    2807        .(      CMP      r0,#7
        0x0000517a:    d23c        <.      BCS      0x51f6 ; fileopen + 134
        0x0000517c:    200a        .       MOVS     r0,#0xa
        0x0000517e:    4b1f        .K      LDR      r3,[pc,#124] ; [0x51fc] = 0x6ad8
        0x00005180:    4a1f        .J      LDR      r2,[pc,#124] ; [0x5200] = 0x6ad0
        0x00005182:    4920         I      LDR      r1,[pc,#128] ; [0x5204] = 0x6ae0
        0x00005184:    9000        ..      STR      r0,[sp,#0]
        0x00005186:    4820         H      LDR      r0,[pc,#128] ; [0x5208] = 0x6aac
        0x00005188:    f7fcfac0    ....    BL       SendAT ; 0x170c
        0x0000518c:    491f        .I      LDR      r1,[pc,#124] ; [0x520c] = 0x6ad4
        0x0000518e:    4820         H      LDR      r0,[pc,#128] ; [0x5210] = 0x200010d0
        0x00005190:    f7fefdd6    ....    BL       strstr ; 0x3d40
        0x00005194:    2800        .(      CMP      r0,#0
        0x00005196:    d017        ..      BEQ      0x51c8 ; fileopen + 88
        0x00005198:    2001        .       MOVS     r0,#1
        0x0000519a:    491e        .I      LDR      r1,[pc,#120] ; [0x5214] = 0x50004200
        0x0000519c:    6348        Hc      STR      r0,[r1,#0x34]
        0x0000519e:    481e        .H      LDR      r0,[pc,#120] ; [0x5218] = 0x6a84
        0x000051a0:    f7fffa2a    ..*.    BL       __0printf ; 0x45f8
        0x000051a4:    2064        d       MOVS     r0,#0x64
        0x000051a6:    f000f8bd    ....    BL       manualdelay ; 0x5324
        0x000051aa:    2000        .       MOVS     r0,#0
        0x000051ac:    4919        .I      LDR      r1,[pc,#100] ; [0x5214] = 0x50004200
        0x000051ae:    6348        Hc      STR      r0,[r1,#0x34]
        0x000051b0:    2114        .!      MOVS     r1,#0x14
        0x000051b2:    4811        .H      LDR      r0,[pc,#68] ; [0x51f8] = 0x200001e6
        0x000051b4:    f7fefdad    ....    BL       __aeabi_memclr ; 0x3d12
        0x000051b8:    200a        .       MOVS     r0,#0xa
        0x000051ba:    4b10        .K      LDR      r3,[pc,#64] ; [0x51fc] = 0x6ad8
        0x000051bc:    4a10        .J      LDR      r2,[pc,#64] ; [0x5200] = 0x6ad0
        0x000051be:    4911        .I      LDR      r1,[pc,#68] ; [0x5204] = 0x6ae0
        0x000051c0:    9000        ..      STR      r0,[sp,#0]
        0x000051c2:    4811        .H      LDR      r0,[pc,#68] ; [0x5208] = 0x6aac
        0x000051c4:    f7fcfaa2    ....    BL       SendAT ; 0x170c
        0x000051c8:    480b        .H      LDR      r0,[pc,#44] ; [0x51f8] = 0x200001e6
        0x000051ca:    210a        .!      MOVS     r1,#0xa
        0x000051cc:    2320         #      MOVS     r3,#0x20
        0x000051ce:    2202        ."      MOVS     r2,#2
        0x000051d0:    9100        ..      STR      r1,[sp,#0]
        0x000051d2:    9001        ..      STR      r0,[sp,#4]
        0x000051d4:    2101        .!      MOVS     r1,#1
        0x000051d6:    480e        .H      LDR      r0,[pc,#56] ; [0x5210] = 0x200010d0
        0x000051d8:    f000f9fc    ....    BL       parse_g ; 0x55d4
        0x000051dc:    220a        ."      MOVS     r2,#0xa
        0x000051de:    210d        .!      MOVS     r1,#0xd
        0x000051e0:    4805        .H      LDR      r0,[pc,#20] ; [0x51f8] = 0x200001e6
        0x000051e2:    f7fbf8db    ....    BL       remove_all_chars ; 0x39c
        0x000051e6:    2005        .       MOVS     r0,#5
        0x000051e8:    4b0c        .K      LDR      r3,[pc,#48] ; [0x521c] = 0x6ac8
        0x000051ea:    4a04        .J      LDR      r2,[pc,#16] ; [0x51fc] = 0x6ad8
        0x000051ec:    4904        .I      LDR      r1,[pc,#16] ; [0x5200] = 0x6ad0
        0x000051ee:    9000        ..      STR      r0,[sp,#0]
        0x000051f0:    480b        .H      LDR      r0,[pc,#44] ; [0x5220] = 0x6a98
        0x000051f2:    f7fcfa8b    ....    BL       SendAT ; 0x170c
        0x000051f6:    bd1c        ..      POP      {r2-r4,pc}
    $d
        0x000051f8:    200001e6    ...     DCD    536871398
        0x000051fc:    00006ad8    .j..    DCD    27352
        0x00005200:    00006ad0    .j..    DCD    27344
        0x00005204:    00006ae0    .j..    DCD    27360
        0x00005208:    00006aac    .j..    DCD    27308
        0x0000520c:    00006ad4    .j..    DCD    27348
        0x00005210:    200010d0    ...     DCD    536875216
        0x00005214:    50004200    .B.P    DCD    1342194176
        0x00005218:    00006a84    .j..    DCD    27268
        0x0000521c:    00006ac8    .j..    DCD    27336
        0x00005220:    00006a98    .j..    DCD    27288
    $t
    i.isrMessageGet
    isrMessageGet
        0x00005224:    b50e        ..      PUSH     {r1-r3,lr}
        0x00005226:    4602        .F      MOV      r2,r0
        0x00005228:    2080        .       MOVS     r0,#0x80
        0x0000522a:    2a00        .*      CMP      r2,#0
        0x0000522c:    d00d        ..      BEQ      0x524a ; isrMessageGet + 38
        0x0000522e:    2900        .)      CMP      r1,#0
        0x00005230:    d10b        ..      BNE      0x524a ; isrMessageGet + 38
        0x00005232:    7811        .x      LDRB     r1,[r2,#0]
        0x00005234:    2901        .)      CMP      r1,#1
        0x00005236:    d108        ..      BNE      0x524a ; isrMessageGet + 38
        0x00005238:    4610        .F      MOV      r0,r2
        0x0000523a:    a901        ..      ADD      r1,sp,#4
        0x0000523c:    f000f846    ..F.    BL       isr_mbx_receive ; 0x52cc
        0x00005240:    2804        .(      CMP      r0,#4
        0x00005242:    d001        ..      BEQ      0x5248 ; isrMessageGet + 36
        0x00005244:    2000        .       MOVS     r0,#0
        0x00005246:    e000        ..      B        0x524a ; isrMessageGet + 38
        0x00005248:    2010        .       MOVS     r0,#0x10
        0x0000524a:    9a02        ..      LDR      r2,[sp,#8]
        0x0000524c:    9901        ..      LDR      r1,[sp,#4]
        0x0000524e:    b003        ..      ADD      sp,sp,#0xc
        0x00005250:    bd00        ..      POP      {pc}
    i.isrMessagePut
    isrMessagePut
        0x00005252:    b570        p.      PUSH     {r4-r6,lr}
        0x00005254:    460d        .F      MOV      r5,r1
        0x00005256:    0004        ..      MOVS     r4,r0
        0x00005258:    d004        ..      BEQ      0x5264 ; isrMessagePut + 18
        0x0000525a:    2a00        .*      CMP      r2,#0
        0x0000525c:    d102        ..      BNE      0x5264 ; isrMessagePut + 18
        0x0000525e:    7820         x      LDRB     r0,[r4,#0]
        0x00005260:    2801        .(      CMP      r0,#1
        0x00005262:    d001        ..      BEQ      0x5268 ; isrMessagePut + 22
        0x00005264:    2080        .       MOVS     r0,#0x80
        0x00005266:    bd70        p.      POP      {r4-r6,pc}
        0x00005268:    4620         F      MOV      r0,r4
        0x0000526a:    f000fc13    ....    BL       rt_mbx_check ; 0x5a94
        0x0000526e:    2800        .(      CMP      r0,#0
        0x00005270:    d005        ..      BEQ      0x527e ; isrMessagePut + 44
        0x00005272:    4629        )F      MOV      r1,r5
        0x00005274:    4620         F      MOV      r0,r4
        0x00005276:    f000f84f    ..O.    BL       isr_mbx_send ; 0x5318
        0x0000527a:    2000        .       MOVS     r0,#0
        0x0000527c:    bd70        p.      POP      {r4-r6,pc}
        0x0000527e:    2081        .       MOVS     r0,#0x81
        0x00005280:    bd70        p.      POP      {r4-r6,pc}
    i.isrSignalSet
    isrSignalSet
        0x00005282:    b570        p.      PUSH     {r4-r6,lr}
        0x00005284:    460c        .F      MOV      r4,r1
        0x00005286:    f000ffa1    ....    BL       rt_tid2ptcb ; 0x61cc
        0x0000528a:    2101        .!      MOVS     r1,#1
        0x0000528c:    07c9        ..      LSLS     r1,r1,#31
        0x0000528e:    2800        .(      CMP      r0,#0
        0x00005290:    d001        ..      BEQ      0x5296 ; isrSignalSet + 20
        0x00005292:    0c22        ".      LSRS     r2,r4,#16
        0x00005294:    d001        ..      BEQ      0x529a ; isrSignalSet + 24
        0x00005296:    4608        .F      MOV      r0,r1
        0x00005298:    bd70        p.      POP      {r4-r6,pc}
        0x0000529a:    8b05        ..      LDRH     r5,[r0,#0x18]
        0x0000529c:    78c1        .x      LDRB     r1,[r0,#3]
        0x0000529e:    b2a0        ..      UXTH     r0,r4
        0x000052a0:    f000f802    ....    BL       isr_evt_set ; 0x52a8
        0x000052a4:    4628        (F      MOV      r0,r5
        0x000052a6:    bd70        p.      POP      {r4-r6,pc}
    i.isr_evt_set
    isr_evt_set
        0x000052a8:    460a        .F      MOV      r2,r1
        0x000052aa:    4601        .F      MOV      r1,r0
        0x000052ac:    0090        ..      LSLS     r0,r2,#2
        0x000052ae:    4a06        .J      LDR      r2,[pc,#24] ; [0x52c8] = 0x2000334c
        0x000052b0:    b510        ..      PUSH     {r4,lr}
        0x000052b2:    1880        ..      ADDS     r0,r0,r2
        0x000052b4:    3880        .8      SUBS     r0,r0,#0x80
        0x000052b6:    6fc0        .o      LDR      r0,[r0,#0x7c]
        0x000052b8:    2800        .(      CMP      r0,#0
        0x000052ba:    d003        ..      BEQ      0x52c4 ; isr_evt_set + 28
        0x000052bc:    f000fdde    ....    BL       rt_psq_enq ; 0x5e7c
        0x000052c0:    f000fdcc    ....    BL       rt_psh_req ; 0x5e5c
        0x000052c4:    bd10        ..      POP      {r4,pc}
    $d
        0x000052c6:    0000        ..      DCW    0
        0x000052c8:    2000334c    L3.     DCD    536884044
    $t
    i.isr_mbx_receive
    isr_mbx_receive
        0x000052cc:    b510        ..      PUSH     {r4,lr}
        0x000052ce:    4604        .F      MOV      r4,r0
        0x000052d0:    8980        ..      LDRH     r0,[r0,#0xc]
        0x000052d2:    2800        .(      CMP      r0,#0
        0x000052d4:    d01f        ..      BEQ      0x5316 ; isr_mbx_receive + 74
        0x000052d6:    8960        `.      LDRH     r0,[r4,#0xa]
        0x000052d8:    0080        ..      LSLS     r0,r0,#2
        0x000052da:    1900        ..      ADDS     r0,r0,r4
        0x000052dc:    6900        .i      LDR      r0,[r0,#0x10]
        0x000052de:    6008        .`      STR      r0,[r1,#0]
        0x000052e0:    6860        `h      LDR      r0,[r4,#4]
        0x000052e2:    2800        .(      CMP      r0,#0
        0x000052e4:    d008        ..      BEQ      0x52f8 ; isr_mbx_receive + 44
        0x000052e6:    7860        `x      LDRB     r0,[r4,#1]
        0x000052e8:    2802        .(      CMP      r0,#2
        0x000052ea:    d105        ..      BNE      0x52f8 ; isr_mbx_receive + 44
        0x000052ec:    2100        .!      MOVS     r1,#0
        0x000052ee:    4620         F      MOV      r0,r4
        0x000052f0:    f000fdc4    ....    BL       rt_psq_enq ; 0x5e7c
        0x000052f4:    f000fdb2    ....    BL       rt_psh_req ; 0x5e5c
        0x000052f8:    b672        r.      CPSID    i
        0x000052fa:    89a0        ..      LDRH     r0,[r4,#0xc]
        0x000052fc:    1e40        @.      SUBS     r0,r0,#1
        0x000052fe:    81a0        ..      STRH     r0,[r4,#0xc]
        0x00005300:    b662        b.      CPSIE    i
        0x00005302:    8960        `.      LDRH     r0,[r4,#0xa]
        0x00005304:    1c40        @.      ADDS     r0,r0,#1
        0x00005306:    b280        ..      UXTH     r0,r0
        0x00005308:    8160        `.      STRH     r0,[r4,#0xa]
        0x0000530a:    89e1        ..      LDRH     r1,[r4,#0xe]
        0x0000530c:    4288        .B      CMP      r0,r1
        0x0000530e:    d101        ..      BNE      0x5314 ; isr_mbx_receive + 72
        0x00005310:    2000        .       MOVS     r0,#0
        0x00005312:    8160        `.      STRH     r0,[r4,#0xa]
        0x00005314:    2004        .       MOVS     r0,#4
        0x00005316:    bd10        ..      POP      {r4,pc}
    i.isr_mbx_send
    isr_mbx_send
        0x00005318:    b510        ..      PUSH     {r4,lr}
        0x0000531a:    f000fdaf    ....    BL       rt_psq_enq ; 0x5e7c
        0x0000531e:    f000fd9d    ....    BL       rt_psh_req ; 0x5e5c
        0x00005322:    bd10        ..      POP      {r4,pc}
    i.manualdelay
    manualdelay
        0x00005324:    2100        .!      MOVS     r1,#0
        0x00005326:    e006        ..      B        0x5336 ; manualdelay + 18
        0x00005328:    2200        ."      MOVS     r2,#0
        0x0000532a:    e000        ..      B        0x532e ; manualdelay + 10
        0x0000532c:    1c52        R.      ADDS     r2,r2,#1
        0x0000532e:    4b03        .K      LDR      r3,[pc,#12] ; [0x533c] = 0xffff
        0x00005330:    429a        .B      CMP      r2,r3
        0x00005332:    dbfb        ..      BLT      0x532c ; manualdelay + 8
        0x00005334:    1c49        I.      ADDS     r1,r1,#1
        0x00005336:    4281        .B      CMP      r1,r0
        0x00005338:    dbf6        ..      BLT      0x5328 ; manualdelay + 4
        0x0000533a:    4770        pG      BX       lr
    $d
        0x0000533c:    0000ffff    ....    DCD    65535
    $t
    i.osDelay
    osDelay
        0x00005340:    b580        ..      PUSH     {r7,lr}
        0x00005342:    f3ef8105    ....    MRS      r1,IPSR
        0x00005346:    2900        .)      CMP      r1,#0
        0x00005348:    d001        ..      BEQ      0x534e ; osDelay + 14
        0x0000534a:    2082        .       MOVS     r0,#0x82
        0x0000534c:    bd80        ..      POP      {r7,pc}
        0x0000534e:    4f02        .O      LDR      r7,[pc,#8] ; [0x5358] = 0x64d7
        0x00005350:    46bc        .F      MOV      r12,r7
        0x00005352:    df00        ..      SVC      #0x0 ; formerly SWI
        0x00005354:    bd80        ..      POP      {r7,pc}
    $d
        0x00005356:    0000        ..      DCW    0
        0x00005358:    000064d7    .d..    DCD    25815
    $t
    i.osKernelInitialize
    osKernelInitialize
        0x0000535c:    b580        ..      PUSH     {r7,lr}
        0x0000535e:    f3ef8005    ....    MRS      r0,IPSR
        0x00005362:    2800        .(      CMP      r0,#0
        0x00005364:    d001        ..      BEQ      0x536a ; osKernelInitialize + 14
        0x00005366:    2082        .       MOVS     r0,#0x82
        0x00005368:    bd80        ..      POP      {r7,pc}
        0x0000536a:    f3ef8014    ....    MRS      r0,CONTROL
        0x0000536e:    07c0        ..      LSLS     r0,r0,#31
        0x00005370:    d003        ..      BEQ      0x537a ; osKernelInitialize + 30
        0x00005372:    4f03        .O      LDR      r7,[pc,#12] ; [0x5380] = 0x64e9
        0x00005374:    46bc        .F      MOV      r12,r7
        0x00005376:    df00        ..      SVC      #0x0 ; formerly SWI
        0x00005378:    bd80        ..      POP      {r7,pc}
        0x0000537a:    f001f8b5    ....    BL       svcKernelInitialize ; 0x64e8
        0x0000537e:    bd80        ..      POP      {r7,pc}
    $d
        0x00005380:    000064e9    .d..    DCD    25833
    $t
    i.osKernelStart
    osKernelStart
        0x00005384:    b580        ..      PUSH     {r7,lr}
        0x00005386:    b088        ..      SUB      sp,sp,#0x20
        0x00005388:    f3ef8005    ....    MRS      r0,IPSR
        0x0000538c:    2800        .(      CMP      r0,#0
        0x0000538e:    d002        ..      BEQ      0x5396 ; osKernelStart + 18
        0x00005390:    2082        .       MOVS     r0,#0x82
        0x00005392:    b008        ..      ADD      sp,sp,#0x20
        0x00005394:    bd80        ..      POP      {r7,pc}
        0x00005396:    f3ef8014    ....    MRS      r0,CONTROL
        0x0000539a:    0781        ..      LSLS     r1,r0,#30
        0x0000539c:    4812        .H      LDR      r0,[pc,#72] ; [0x53e8] = 0x69ac
        0x0000539e:    0f89        ..      LSRS     r1,r1,#30
        0x000053a0:    d006        ..      BEQ      0x53b0 ; osKernelStart + 44
        0x000053a2:    2901        .)      CMP      r1,#1
        0x000053a4:    d01a        ..      BEQ      0x53dc ; osKernelStart + 88
        0x000053a6:    2902        .)      CMP      r1,#2
        0x000053a8:    d010        ..      BEQ      0x53cc ; osKernelStart + 72
        0x000053aa:    2903        .)      CMP      r1,#3
        0x000053ac:    d118        ..      BNE      0x53e0 ; osKernelStart + 92
        0x000053ae:    e012        ..      B        0x53d6 ; osKernelStart + 82
        0x000053b0:    a908        ..      ADD      r1,sp,#0x20
        0x000053b2:    f3818809    ....    MSR      PSP,r1
        0x000053b6:    7800        .x      LDRB     r0,[r0,#0]
        0x000053b8:    07c0        ..      LSLS     r0,r0,#31
        0x000053ba:    d00a        ..      BEQ      0x53d2 ; osKernelStart + 78
        0x000053bc:    2002        .       MOVS     r0,#2
        0x000053be:    f3808814    ....    MSR      CONTROL,r0
        0x000053c2:    f3bf8f4f    ..O.    DSB      
        0x000053c6:    f3bf8f6f    ..o.    ISB      
        0x000053ca:    e009        ..      B        0x53e0 ; osKernelStart + 92
        0x000053cc:    7800        .x      LDRB     r0,[r0,#0]
        0x000053ce:    07c0        ..      LSLS     r0,r0,#31
        0x000053d0:    d106        ..      BNE      0x53e0 ; osKernelStart + 92
        0x000053d2:    2003        .       MOVS     r0,#3
        0x000053d4:    e7f3        ..      B        0x53be ; osKernelStart + 58
        0x000053d6:    7800        .x      LDRB     r0,[r0,#0]
        0x000053d8:    07c0        ..      LSLS     r0,r0,#31
        0x000053da:    d001        ..      BEQ      0x53e0 ; osKernelStart + 92
        0x000053dc:    20ff        .       MOVS     r0,#0xff
        0x000053de:    e7d8        ..      B        0x5392 ; osKernelStart + 14
        0x000053e0:    4f02        .O      LDR      r7,[pc,#8] ; [0x53ec] = 0x6561
        0x000053e2:    46bc        .F      MOV      r12,r7
        0x000053e4:    df00        ..      SVC      #0x0 ; formerly SWI
        0x000053e6:    e7d4        ..      B        0x5392 ; osKernelStart + 14
    $d
        0x000053e8:    000069ac    .i..    DCD    27052
        0x000053ec:    00006561    ae..    DCD    25953
    $t
    i.osMessageGet
    osMessageGet
        0x000053f0:    b580        ..      PUSH     {r7,lr}
        0x000053f2:    f3ef8205    ....    MRS      r2,IPSR
        0x000053f6:    2a00        .*      CMP      r2,#0
        0x000053f8:    d002        ..      BEQ      0x5400 ; osMessageGet + 16
        0x000053fa:    f7ffff13    ....    BL       isrMessageGet ; 0x5224
        0x000053fe:    bd80        ..      POP      {r7,pc}
        0x00005400:    4f01        .O      LDR      r7,[pc,#4] ; [0x5408] = 0x65d7
        0x00005402:    46bc        .F      MOV      r12,r7
        0x00005404:    df00        ..      SVC      #0x0 ; formerly SWI
        0x00005406:    bd80        ..      POP      {r7,pc}
    $d
        0x00005408:    000065d7    .e..    DCD    26071
    $t
    i.osMutexCreate
    osMutexCreate
        0x0000540c:    b580        ..      PUSH     {r7,lr}
        0x0000540e:    f3ef8105    ....    MRS      r1,IPSR
        0x00005412:    2900        .)      CMP      r1,#0
        0x00005414:    d001        ..      BEQ      0x541a ; osMutexCreate + 14
        0x00005416:    2000        .       MOVS     r0,#0
        0x00005418:    bd80        ..      POP      {r7,pc}
        0x0000541a:    f3ef8114    ....    MRS      r1,CONTROL
        0x0000541e:    07c9        ..      LSLS     r1,r1,#31
        0x00005420:    d103        ..      BNE      0x542a ; osMutexCreate + 30
        0x00005422:    4905        .I      LDR      r1,[pc,#20] ; [0x5438] = 0x2000013c
        0x00005424:    7849        Ix      LDRB     r1,[r1,#1]
        0x00005426:    2900        .)      CMP      r1,#0
        0x00005428:    d003        ..      BEQ      0x5432 ; osMutexCreate + 38
        0x0000542a:    4f04        .O      LDR      r7,[pc,#16] ; [0x543c] = 0x6613
        0x0000542c:    46bc        .F      MOV      r12,r7
        0x0000542e:    df00        ..      SVC      #0x0 ; formerly SWI
        0x00005430:    bd80        ..      POP      {r7,pc}
        0x00005432:    f001f8ee    ....    BL       svcMutexCreate ; 0x6612
        0x00005436:    bd80        ..      POP      {r7,pc}
    $d
        0x00005438:    2000013c    <..     DCD    536871228
        0x0000543c:    00006613    .f..    DCD    26131
    $t
    i.osMutexRelease
    osMutexRelease
        0x00005440:    b580        ..      PUSH     {r7,lr}
        0x00005442:    f3ef8105    ....    MRS      r1,IPSR
        0x00005446:    2900        .)      CMP      r1,#0
        0x00005448:    d001        ..      BEQ      0x544e ; osMutexRelease + 14
        0x0000544a:    2082        .       MOVS     r0,#0x82
        0x0000544c:    bd80        ..      POP      {r7,pc}
        0x0000544e:    4f02        .O      LDR      r7,[pc,#8] ; [0x5458] = 0x6633
        0x00005450:    46bc        .F      MOV      r12,r7
        0x00005452:    df00        ..      SVC      #0x0 ; formerly SWI
        0x00005454:    bd80        ..      POP      {r7,pc}
    $d
        0x00005456:    0000        ..      DCW    0
        0x00005458:    00006633    3f..    DCD    26163
    $t
    i.osMutexWait
    osMutexWait
        0x0000545c:    b580        ..      PUSH     {r7,lr}
        0x0000545e:    f3ef8205    ....    MRS      r2,IPSR
        0x00005462:    2a00        .*      CMP      r2,#0
        0x00005464:    d001        ..      BEQ      0x546a ; osMutexWait + 14
        0x00005466:    2082        .       MOVS     r0,#0x82
        0x00005468:    bd80        ..      POP      {r7,pc}
        0x0000546a:    4f02        .O      LDR      r7,[pc,#8] ; [0x5474] = 0x6657
        0x0000546c:    46bc        .F      MOV      r12,r7
        0x0000546e:    df00        ..      SVC      #0x0 ; formerly SWI
        0x00005470:    bd80        ..      POP      {r7,pc}
    $d
        0x00005472:    0000        ..      DCW    0
        0x00005474:    00006657    Wf..    DCD    26199
    $t
    i.osSignalClear
    osSignalClear
        0x00005478:    b580        ..      PUSH     {r7,lr}
        0x0000547a:    f3ef8205    ....    MRS      r2,IPSR
        0x0000547e:    2a00        .*      CMP      r2,#0
        0x00005480:    d002        ..      BEQ      0x5488 ; osSignalClear + 16
        0x00005482:    2001        .       MOVS     r0,#1
        0x00005484:    07c0        ..      LSLS     r0,r0,#31
        0x00005486:    bd80        ..      POP      {r7,pc}
        0x00005488:    4f01        .O      LDR      r7,[pc,#4] ; [0x5490] = 0x6693
        0x0000548a:    46bc        .F      MOV      r12,r7
        0x0000548c:    df00        ..      SVC      #0x0 ; formerly SWI
        0x0000548e:    bd80        ..      POP      {r7,pc}
    $d
        0x00005490:    00006693    .f..    DCD    26259
    $t
    i.osSignalSet
    osSignalSet
        0x00005494:    b580        ..      PUSH     {r7,lr}
        0x00005496:    f3ef8205    ....    MRS      r2,IPSR
        0x0000549a:    2a00        .*      CMP      r2,#0
        0x0000549c:    d002        ..      BEQ      0x54a4 ; osSignalSet + 16
        0x0000549e:    f7fffef0    ....    BL       isrSignalSet ; 0x5282
        0x000054a2:    bd80        ..      POP      {r7,pc}
        0x000054a4:    4f01        .O      LDR      r7,[pc,#4] ; [0x54ac] = 0x66b9
        0x000054a6:    46bc        .F      MOV      r12,r7
        0x000054a8:    df00        ..      SVC      #0x0 ; formerly SWI
        0x000054aa:    bd80        ..      POP      {r7,pc}
    $d
        0x000054ac:    000066b9    .f..    DCD    26297
    $t
    i.osSignalWait
    osSignalWait
        0x000054b0:    b580        ..      PUSH     {r7,lr}
        0x000054b2:    f3ef8305    ....    MRS      r3,IPSR
        0x000054b6:    2b00        .+      CMP      r3,#0
        0x000054b8:    d001        ..      BEQ      0x54be ; osSignalWait + 14
        0x000054ba:    2082        .       MOVS     r0,#0x82
        0x000054bc:    bd80        ..      POP      {r7,pc}
        0x000054be:    4f02        .O      LDR      r7,[pc,#8] ; [0x54c8] = 0x66e1
        0x000054c0:    46bc        .F      MOV      r12,r7
        0x000054c2:    df00        ..      SVC      #0x0 ; formerly SWI
        0x000054c4:    bd80        ..      POP      {r7,pc}
    $d
        0x000054c6:    0000        ..      DCW    0
        0x000054c8:    000066e1    .f..    DCD    26337
    $t
    i.osThreadCreate
    osThreadCreate
        0x000054cc:    b580        ..      PUSH     {r7,lr}
        0x000054ce:    f3ef8205    ....    MRS      r2,IPSR
        0x000054d2:    2a00        .*      CMP      r2,#0
        0x000054d4:    d001        ..      BEQ      0x54da ; osThreadCreate + 14
        0x000054d6:    2000        .       MOVS     r0,#0
        0x000054d8:    bd80        ..      POP      {r7,pc}
        0x000054da:    f3ef8214    ....    MRS      r2,CONTROL
        0x000054de:    07d2        ..      LSLS     r2,r2,#31
        0x000054e0:    d103        ..      BNE      0x54ea ; osThreadCreate + 30
        0x000054e2:    4a05        .J      LDR      r2,[pc,#20] ; [0x54f8] = 0x2000013c
        0x000054e4:    7852        Rx      LDRB     r2,[r2,#1]
        0x000054e6:    2a00        .*      CMP      r2,#0
        0x000054e8:    d003        ..      BEQ      0x54f2 ; osThreadCreate + 38
        0x000054ea:    4f04        .O      LDR      r7,[pc,#16] ; [0x54fc] = 0x673d
        0x000054ec:    46bc        .F      MOV      r12,r7
        0x000054ee:    df00        ..      SVC      #0x0 ; formerly SWI
        0x000054f0:    bd80        ..      POP      {r7,pc}
        0x000054f2:    f001f923    ..#.    BL       svcThreadCreate ; 0x673c
        0x000054f6:    bd80        ..      POP      {r7,pc}
    $d
        0x000054f8:    2000013c    <..     DCD    536871228
        0x000054fc:    0000673d    =g..    DCD    26429
    $t
    i.osThreadExit
    osThreadExit
        0x00005500:    4f03        .O      LDR      r7,[pc,#12] ; [0x5510] = 0x67b1
        0x00005502:    46bc        .F      MOV      r12,r7
        0x00005504:    df00        ..      SVC      #0x0 ; formerly SWI
        0x00005506:    4f03        .O      LDR      r7,[pc,#12] ; [0x5514] = 0x67cd
        0x00005508:    46bc        .F      MOV      r12,r7
        0x0000550a:    df00        ..      SVC      #0x0 ; formerly SWI
        0x0000550c:    e7fe        ..      B        0x550c ; osThreadExit + 12
    $d
        0x0000550e:    0000        ..      DCW    0
        0x00005510:    000067b1    .g..    DCD    26545
        0x00005514:    000067cd    .g..    DCD    26573
    $t
    i.osTimerCall
    osTimerCall
        0x00005518:    b580        ..      PUSH     {r7,lr}
        0x0000551a:    4f02        .O      LDR      r7,[pc,#8] ; [0x5524] = 0x6809
        0x0000551c:    46bc        .F      MOV      r12,r7
        0x0000551e:    df00        ..      SVC      #0x0 ; formerly SWI
        0x00005520:    bd80        ..      POP      {r7,pc}
    $d
        0x00005522:    0000        ..      DCW    0
        0x00005524:    00006809    .h..    DCD    26633
    $t
    i.osTimerCreate
    osTimerCreate
        0x00005528:    b580        ..      PUSH     {r7,lr}
        0x0000552a:    f3ef8305    ....    MRS      r3,IPSR
        0x0000552e:    2b00        .+      CMP      r3,#0
        0x00005530:    d001        ..      BEQ      0x5536 ; osTimerCreate + 14
        0x00005532:    2000        .       MOVS     r0,#0
        0x00005534:    bd80        ..      POP      {r7,pc}
        0x00005536:    f3ef8314    ....    MRS      r3,CONTROL
        0x0000553a:    07db        ..      LSLS     r3,r3,#31
        0x0000553c:    d103        ..      BNE      0x5546 ; osTimerCreate + 30
        0x0000553e:    4b05        .K      LDR      r3,[pc,#20] ; [0x5554] = 0x2000013c
        0x00005540:    785b        [x      LDRB     r3,[r3,#1]
        0x00005542:    2b00        .+      CMP      r3,#0
        0x00005544:    d003        ..      BEQ      0x554e ; osTimerCreate + 38
        0x00005546:    4f04        .O      LDR      r7,[pc,#16] ; [0x5558] = 0x6825
        0x00005548:    46bc        .F      MOV      r12,r7
        0x0000554a:    df00        ..      SVC      #0x0 ; formerly SWI
        0x0000554c:    bd80        ..      POP      {r7,pc}
        0x0000554e:    f001f969    ..i.    BL       svcTimerCreate ; 0x6824
        0x00005552:    bd80        ..      POP      {r7,pc}
    $d
        0x00005554:    2000013c    <..     DCD    536871228
        0x00005558:    00006825    %h..    DCD    26661
    $t
    i.osTimerStart
    osTimerStart
        0x0000555c:    b580        ..      PUSH     {r7,lr}
        0x0000555e:    f3ef8205    ....    MRS      r2,IPSR
        0x00005562:    2a00        .*      CMP      r2,#0
        0x00005564:    d001        ..      BEQ      0x556a ; osTimerStart + 14
        0x00005566:    2082        .       MOVS     r0,#0x82
        0x00005568:    bd80        ..      POP      {r7,pc}
        0x0000556a:    4f02        .O      LDR      r7,[pc,#8] ; [0x5574] = 0x6865
        0x0000556c:    46bc        .F      MOV      r12,r7
        0x0000556e:    df00        ..      SVC      #0x0 ; formerly SWI
        0x00005570:    bd80        ..      POP      {r7,pc}
    $d
        0x00005572:    0000        ..      DCW    0
        0x00005574:    00006865    eh..    DCD    26725
    $t
    i.osTimerThread
    osTimerThread
        0x00005578:    2500        .%      MOVS     r5,#0
        0x0000557a:    4c09        .L      LDR      r4,[pc,#36] ; [0x55a0] = 0x20000130
        0x0000557c:    43ed        .C      MVNS     r5,r5
        0x0000557e:    4629        )F      MOV      r1,r5
        0x00005580:    6820         h      LDR      r0,[r4,#0]
        0x00005582:    f7ffff35    ..5.    BL       osMessageGet ; 0x53f0
        0x00005586:    4602        .F      MOV      r2,r0
        0x00005588:    4608        .F      MOV      r0,r1
        0x0000558a:    2a10        .*      CMP      r2,#0x10
        0x0000558c:    d1f7        ..      BNE      0x557e ; osTimerThread + 6
        0x0000558e:    f7ffffc3    ....    BL       osTimerCall ; 0x5518
        0x00005592:    2800        .(      CMP      r0,#0
        0x00005594:    d0f3        ..      BEQ      0x557e ; osTimerThread + 6
        0x00005596:    4602        .F      MOV      r2,r0
        0x00005598:    4608        .F      MOV      r0,r1
        0x0000559a:    4790        .G      BLX      r2
        0x0000559c:    e7ef        ..      B        0x557e ; osTimerThread + 6
    $d
        0x0000559e:    0000        ..      DCW    0
        0x000055a0:    20000130    0..     DCD    536871216
    $t
    i.os_tick_init
    os_tick_init
        0x000055a4:    4807        .H      LDR      r0,[pc,#28] ; [0x55c4] = 0x69a8
        0x000055a6:    6801        .h      LDR      r1,[r0,#0]
        0x000055a8:    4807        .H      LDR      r0,[pc,#28] ; [0x55c8] = 0xe000e000
        0x000055aa:    6141        Aa      STR      r1,[r0,#0x14]
        0x000055ac:    2100        .!      MOVS     r1,#0
        0x000055ae:    6181        .a      STR      r1,[r0,#0x18]
        0x000055b0:    2107        .!      MOVS     r1,#7
        0x000055b2:    6101        .a      STR      r1,[r0,#0x10]
        0x000055b4:    4805        .H      LDR      r0,[pc,#20] ; [0x55cc] = 0xe000ed00
        0x000055b6:    6a01        .j      LDR      r1,[r0,#0x20]
        0x000055b8:    22ff        ."      MOVS     r2,#0xff
        0x000055ba:    0612        ..      LSLS     r2,r2,#24
        0x000055bc:    4311        .C      ORRS     r1,r1,r2
        0x000055be:    6201        .b      STR      r1,[r0,#0x20]
        0x000055c0:    1740        @.      ASRS     r0,r0,#29
        0x000055c2:    4770        pG      BX       lr
    $d
        0x000055c4:    000069a8    .i..    DCD    27048
        0x000055c8:    e000e000    ....    DCD    3758153728
        0x000055cc:    e000ed00    ....    DCD    3758157056
    $t
    i.os_tick_irqack
    os_tick_irqack
        0x000055d0:    4770        pG      BX       lr
        0x000055d2:    0000        ..      MOVS     r0,r0
    i.parse_g
    parse_g
        0x000055d4:    b5ff        ..      PUSH     {r0-r7,lr}
        0x000055d6:    b085        ..      SUB      sp,sp,#0x14
        0x000055d8:    4606        .F      MOV      r6,r0
        0x000055da:    461f        .F      MOV      r7,r3
        0x000055dc:    4639        9F      MOV      r1,r7
        0x000055de:    4630        0F      MOV      r0,r6
        0x000055e0:    f7fcfa21    ..!.    BL       mystrstr ; 0x1a26
        0x000055e4:    2800        .(      CMP      r0,#0
        0x000055e6:    d041        A.      BEQ      0x566c ; parse_g + 152
        0x000055e8:    4630        0F      MOV      r0,r6
        0x000055ea:    990e        ..      LDR      r1,[sp,#0x38]
        0x000055ec:    f7fcfa1b    ....    BL       mystrstr ; 0x1a26
        0x000055f0:    2800        .(      CMP      r0,#0
        0x000055f2:    d03b        ;.      BEQ      0x566c ; parse_g + 152
        0x000055f4:    4630        0F      MOV      r0,r6
        0x000055f6:    f7fefbb7    ....    BL       strlen ; 0x3d68
        0x000055fa:    9004        ..      STR      r0,[sp,#0x10]
        0x000055fc:    980f        ..      LDR      r0,[sp,#0x3c]
        0x000055fe:    f7fefbb3    ....    BL       strlen ; 0x3d68
        0x00005602:    9003        ..      STR      r0,[sp,#0xc]
        0x00005604:    9903        ..      LDR      r1,[sp,#0xc]
        0x00005606:    980f        ..      LDR      r0,[sp,#0x3c]
        0x00005608:    f7fefb83    ....    BL       __aeabi_memclr ; 0x3d12
        0x0000560c:    2400        .$      MOVS     r4,#0
        0x0000560e:    2500        .%      MOVS     r5,#0
        0x00005610:    e00a        ..      B        0x5628 ; parse_g + 84
        0x00005612:    5d31        1]      LDRB     r1,[r6,r4]
        0x00005614:    980e        ..      LDR      r0,[sp,#0x38]
        0x00005616:    4281        .B      CMP      r1,r0
        0x00005618:    d101        ..      BNE      0x561e ; parse_g + 74
        0x0000561a:    1c6d        m.      ADDS     r5,r5,#1
        0x0000561c:    9402        ..      STR      r4,[sp,#8]
        0x0000561e:    9807        ..      LDR      r0,[sp,#0x1c]
        0x00005620:    4285        .B      CMP      r5,r0
        0x00005622:    db00        ..      BLT      0x5626 ; parse_g + 82
        0x00005624:    4c12        .L      LDR      r4,[pc,#72] ; [0x5670] = 0x26ac
        0x00005626:    1c64        d.      ADDS     r4,r4,#1
        0x00005628:    9804        ..      LDR      r0,[sp,#0x10]
        0x0000562a:    4284        .B      CMP      r4,r0
        0x0000562c:    dbf1        ..      BLT      0x5612 ; parse_g + 62
        0x0000562e:    2400        .$      MOVS     r4,#0
        0x00005630:    2500        .%      MOVS     r5,#0
        0x00005632:    e009        ..      B        0x5648 ; parse_g + 116
        0x00005634:    5d30        0]      LDRB     r0,[r6,r4]
        0x00005636:    42b8        .B      CMP      r0,r7
        0x00005638:    d101        ..      BNE      0x563e ; parse_g + 106
        0x0000563a:    1c6d        m.      ADDS     r5,r5,#1
        0x0000563c:    9401        ..      STR      r4,[sp,#4]
        0x0000563e:    9806        ..      LDR      r0,[sp,#0x18]
        0x00005640:    4285        .B      CMP      r5,r0
        0x00005642:    db00        ..      BLT      0x5646 ; parse_g + 114
        0x00005644:    4c0a        .L      LDR      r4,[pc,#40] ; [0x5670] = 0x26ac
        0x00005646:    1c64        d.      ADDS     r4,r4,#1
        0x00005648:    9804        ..      LDR      r0,[sp,#0x10]
        0x0000564a:    4284        .B      CMP      r4,r0
        0x0000564c:    dbf2        ..      BLT      0x5634 ; parse_g + 96
        0x0000564e:    2400        .$      MOVS     r4,#0
        0x00005650:    e006        ..      B        0x5660 ; parse_g + 140
        0x00005652:    9801        ..      LDR      r0,[sp,#4]
        0x00005654:    1900        ..      ADDS     r0,r0,r4
        0x00005656:    1c40        @.      ADDS     r0,r0,#1
        0x00005658:    5c31        1\      LDRB     r1,[r6,r0]
        0x0000565a:    980f        ..      LDR      r0,[sp,#0x3c]
        0x0000565c:    5501        .U      STRB     r1,[r0,r4]
        0x0000565e:    1c64        d.      ADDS     r4,r4,#1
        0x00005660:    9901        ..      LDR      r1,[sp,#4]
        0x00005662:    9802        ..      LDR      r0,[sp,#8]
        0x00005664:    1a40        @.      SUBS     r0,r0,r1
        0x00005666:    1e40        @.      SUBS     r0,r0,#1
        0x00005668:    42a0        .B      CMP      r0,r4
        0x0000566a:    dcf2        ..      BGT      0x5652 ; parse_g + 126
        0x0000566c:    b009        ..      ADD      sp,sp,#0x24
        0x0000566e:    bdf0        ..      POP      {r4-r7,pc}
    $d
        0x00005670:    000026ac    .&..    DCD    9900
    $t
    i.rt_alloc_box
    rt_alloc_box
        0x00005674:    4601        .F      MOV      r1,r0
        0x00005676:    f3ef8010    ....    MRS      r0,PRIMASK
        0x0000567a:    07c2        ..      LSLS     r2,r0,#31
        0x0000567c:    0fd2        ..      LSRS     r2,r2,#31
        0x0000567e:    b672        r.      CPSID    i
        0x00005680:    6808        .h      LDR      r0,[r1,#0]
        0x00005682:    2800        .(      CMP      r0,#0
        0x00005684:    d001        ..      BEQ      0x568a ; rt_alloc_box + 22
        0x00005686:    6803        .h      LDR      r3,[r0,#0]
        0x00005688:    600b        .`      STR      r3,[r1,#0]
        0x0000568a:    2a00        .*      CMP      r2,#0
        0x0000568c:    d100        ..      BNE      0x5690 ; rt_alloc_box + 28
        0x0000568e:    b662        b.      CPSIE    i
        0x00005690:    4770        pG      BX       lr
    i.rt_alloc_mem
    rt_alloc_mem
        0x00005692:    b510        ..      PUSH     {r4,lr}
        0x00005694:    2800        .(      CMP      r0,#0
        0x00005696:    d00e        ..      BEQ      0x56b6 ; rt_alloc_mem + 36
        0x00005698:    2900        .)      CMP      r1,#0
        0x0000569a:    d00c        ..      BEQ      0x56b6 ; rt_alloc_mem + 36
        0x0000569c:    310b        .1      ADDS     r1,r1,#0xb
        0x0000569e:    088a        ..      LSRS     r2,r1,#2
        0x000056a0:    0092        ..      LSLS     r2,r2,#2
        0x000056a2:    6801        .h      LDR      r1,[r0,#0]
        0x000056a4:    6844        Dh      LDR      r4,[r0,#4]
        0x000056a6:    1a0b        ..      SUBS     r3,r1,r0
        0x000056a8:    1b1b        ..      SUBS     r3,r3,r4
        0x000056aa:    4293        .B      CMP      r3,r2
        0x000056ac:    d205        ..      BCS      0x56ba ; rt_alloc_mem + 40
        0x000056ae:    4608        .F      MOV      r0,r1
        0x000056b0:    6809        .h      LDR      r1,[r1,#0]
        0x000056b2:    2900        .)      CMP      r1,#0
        0x000056b4:    d1f5        ..      BNE      0x56a2 ; rt_alloc_mem + 16
        0x000056b6:    2000        .       MOVS     r0,#0
        0x000056b8:    bd10        ..      POP      {r4,pc}
        0x000056ba:    0021        !.      MOVS     r1,r4
        0x000056bc:    d007        ..      BEQ      0x56ce ; rt_alloc_mem + 60
        0x000056be:    1821        !.      ADDS     r1,r4,r0
        0x000056c0:    6803        .h      LDR      r3,[r0,#0]
        0x000056c2:    600b        .`      STR      r3,[r1,#0]
        0x000056c4:    604a        J`      STR      r2,[r1,#4]
        0x000056c6:    6001        .`      STR      r1,[r0,#0]
        0x000056c8:    4608        .F      MOV      r0,r1
        0x000056ca:    3008        .0      ADDS     r0,r0,#8
        0x000056cc:    bd10        ..      POP      {r4,pc}
        0x000056ce:    6042        B`      STR      r2,[r0,#4]
        0x000056d0:    3008        .0      ADDS     r0,r0,#8
        0x000056d2:    bd10        ..      POP      {r4,pc}
    i.rt_block
    rt_block
        0x000056d4:    b570        p.      PUSH     {r4-r6,lr}
        0x000056d6:    460d        .F      MOV      r5,r1
        0x000056d8:    2800        .(      CMP      r0,#0
        0x000056da:    d00f        ..      BEQ      0x56fc ; rt_block + 40
        0x000056dc:    4908        .I      LDR      r1,[pc,#32] ; [0x5700] = 0xffff
        0x000056de:    4c09        .L      LDR      r4,[pc,#36] ; [0x5704] = 0x20000144
        0x000056e0:    4288        .B      CMP      r0,r1
        0x000056e2:    d204        ..      BCS      0x56ee ; rt_block + 26
        0x000056e4:    6822        "h      LDR      r2,[r4,#0]
        0x000056e6:    4601        .F      MOV      r1,r0
        0x000056e8:    4610        .F      MOV      r0,r2
        0x000056ea:    f000fbe7    ....    BL       rt_put_dly ; 0x5ebc
        0x000056ee:    6820         h      LDR      r0,[r4,#0]
        0x000056f0:    7045        Ep      STRB     r5,[r0,#1]
        0x000056f2:    4805        .H      LDR      r0,[pc,#20] ; [0x5708] = 0x200033ac
        0x000056f4:    f000f93b    ..;.    BL       rt_get_first ; 0x596e
        0x000056f8:    f000fcac    ....    BL       rt_switch_req ; 0x6054
        0x000056fc:    bd70        p.      POP      {r4-r6,pc}
    $d
        0x000056fe:    0000        ..      DCW    0
        0x00005700:    0000ffff    ....    DCD    65535
        0x00005704:    20000144    D..     DCD    536871236
        0x00005708:    200033ac    .3.     DCD    536884140
    $t
    i.rt_chk_robin
    rt_chk_robin
        0x0000570c:    b510        ..      PUSH     {r4,lr}
        0x0000570e:    480e        .H      LDR      r0,[pc,#56] ; [0x5748] = 0x200033ac
        0x00005710:    490c        .I      LDR      r1,[pc,#48] ; [0x5744] = 0x20000158
        0x00005712:    6842        Bh      LDR      r2,[r0,#4]
        0x00005714:    480d        .H      LDR      r0,[pc,#52] ; [0x574c] = 0x20000154
        0x00005716:    680b        .h      LDR      r3,[r1,#0]
        0x00005718:    6800        .h      LDR      r0,[r0,#0]
        0x0000571a:    4293        .B      CMP      r3,r2
        0x0000571c:    d004        ..      BEQ      0x5728 ; rt_chk_robin + 28
        0x0000571e:    600a        .`      STR      r2,[r1,#0]
        0x00005720:    88cb        ..      LDRH     r3,[r1,#6]
        0x00005722:    1e42        B.      SUBS     r2,r0,#1
        0x00005724:    189a        ..      ADDS     r2,r3,r2
        0x00005726:    808a        ..      STRH     r2,[r1,#4]
        0x00005728:    888a        ..      LDRH     r2,[r1,#4]
        0x0000572a:    b280        ..      UXTH     r0,r0
        0x0000572c:    4282        .B      CMP      r2,r0
        0x0000572e:    d108        ..      BNE      0x5742 ; rt_chk_robin + 54
        0x00005730:    2000        .       MOVS     r0,#0
        0x00005732:    6008        .`      STR      r0,[r1,#0]
        0x00005734:    4804        .H      LDR      r0,[pc,#16] ; [0x5748] = 0x200033ac
        0x00005736:    f000f91a    ....    BL       rt_get_first ; 0x596e
        0x0000573a:    4601        .F      MOV      r1,r0
        0x0000573c:    4802        .H      LDR      r0,[pc,#8] ; [0x5748] = 0x200033ac
        0x0000573e:    f000fbe5    ....    BL       rt_put_prio ; 0x5f0c
        0x00005742:    bd10        ..      POP      {r4,pc}
    $d
        0x00005744:    20000158    X..     DCD    536871256
        0x00005748:    200033ac    .3.     DCD    536884140
        0x0000574c:    20000154    T..     DCD    536871252
    $t
    i.rt_dec_dly
    rt_dec_dly
        0x00005750:    b570        p.      PUSH     {r4-r6,lr}
        0x00005752:    4d1a        .M      LDR      r5,[pc,#104] ; [0x57bc] = 0x200033c4
        0x00005754:    68e8        .h      LDR      r0,[r5,#0xc]
        0x00005756:    2800        .(      CMP      r0,#0
        0x00005758:    d02f        /.      BEQ      0x57ba ; rt_dec_dly + 106
        0x0000575a:    8aa8        ..      LDRH     r0,[r5,#0x14]
        0x0000575c:    1e40        @.      SUBS     r0,r0,#1
        0x0000575e:    82a8        ..      STRH     r0,[r5,#0x14]
        0x00005760:    2600        .&      MOVS     r6,#0
        0x00005762:    e024        $.      B        0x57ae ; rt_dec_dly + 94
        0x00005764:    68a0        .h      LDR      r0,[r4,#8]
        0x00005766:    2800        .(      CMP      r0,#0
        0x00005768:    d008        ..      BEQ      0x577c ; rt_dec_dly + 44
        0x0000576a:    6861        ah      LDR      r1,[r4,#4]
        0x0000576c:    6041        A`      STR      r1,[r0,#4]
        0x0000576e:    6860        `h      LDR      r0,[r4,#4]
        0x00005770:    2800        .(      CMP      r0,#0
        0x00005772:    d002        ..      BEQ      0x577a ; rt_dec_dly + 42
        0x00005774:    68a1        .h      LDR      r1,[r4,#8]
        0x00005776:    6081        .`      STR      r1,[r0,#8]
        0x00005778:    6066        f`      STR      r6,[r4,#4]
        0x0000577a:    60a6        .`      STR      r6,[r4,#8]
        0x0000577c:    480f        .H      LDR      r0,[pc,#60] ; [0x57bc] = 0x200033c4
        0x0000577e:    4621        !F      MOV      r1,r4
        0x00005780:    3818        .8      SUBS     r0,r0,#0x18
        0x00005782:    f000fbc3    ....    BL       rt_put_prio ; 0x5f0c
        0x00005786:    8aa0        ..      LDRH     r0,[r4,#0x14]
        0x00005788:    82a8        ..      STRH     r0,[r5,#0x14]
        0x0000578a:    7860        `x      LDRB     r0,[r4,#1]
        0x0000578c:    2804        .(      CMP      r0,#4
        0x0000578e:    d104        ..      BNE      0x579a ; rt_dec_dly + 74
        0x00005790:    490b        .I      LDR      r1,[pc,#44] ; [0x57c0] = 0x20000154
        0x00005792:    8ae0        ..      LDRH     r0,[r4,#0x16]
        0x00005794:    8809        ..      LDRH     r1,[r1,#0]
        0x00005796:    1840        @.      ADDS     r0,r0,r1
        0x00005798:    82a0        ..      STRH     r0,[r4,#0x14]
        0x0000579a:    2001        .       MOVS     r0,#1
        0x0000579c:    7060        `p      STRB     r0,[r4,#1]
        0x0000579e:    68e0        .h      LDR      r0,[r4,#0xc]
        0x000057a0:    60e8        .`      STR      r0,[r5,#0xc]
        0x000057a2:    68e0        .h      LDR      r0,[r4,#0xc]
        0x000057a4:    2800        .(      CMP      r0,#0
        0x000057a6:    d001        ..      BEQ      0x57ac ; rt_dec_dly + 92
        0x000057a8:    6105        .a      STR      r5,[r0,#0x10]
        0x000057aa:    60e6        .`      STR      r6,[r4,#0xc]
        0x000057ac:    6126        &a      STR      r6,[r4,#0x10]
        0x000057ae:    8aa8        ..      LDRH     r0,[r5,#0x14]
        0x000057b0:    2800        .(      CMP      r0,#0
        0x000057b2:    d102        ..      BNE      0x57ba ; rt_dec_dly + 106
        0x000057b4:    68ec        .h      LDR      r4,[r5,#0xc]
        0x000057b6:    2c00        .,      CMP      r4,#0
        0x000057b8:    d1d4        ..      BNE      0x5764 ; rt_dec_dly + 20
        0x000057ba:    bd70        p.      POP      {r4-r6,pc}
    $d
        0x000057bc:    200033c4    .3.     DCD    536884164
        0x000057c0:    20000154    T..     DCD    536871252
    $t
    i.rt_dispatch
    rt_dispatch
        0x000057c4:    b570        p.      PUSH     {r4-r6,lr}
        0x000057c6:    0004        ..      MOVS     r4,r0
        0x000057c8:    d00e        ..      BEQ      0x57e8 ; rt_dispatch + 36
        0x000057ca:    4d0c        .M      LDR      r5,[pc,#48] ; [0x57fc] = 0x20000144
        0x000057cc:    78a1        .x      LDRB     r1,[r4,#2]
        0x000057ce:    6828        (h      LDR      r0,[r5,#0]
        0x000057d0:    2601        .&      MOVS     r6,#1
        0x000057d2:    7882        .x      LDRB     r2,[r0,#2]
        0x000057d4:    4291        .B      CMP      r1,r2
        0x000057d6:    d90b        ..      BLS      0x57f0 ; rt_dispatch + 44
        0x000057d8:    f000fbb6    ....    BL       rt_put_rdy_first ; 0x5f48
        0x000057dc:    6828        (h      LDR      r0,[r5,#0]
        0x000057de:    7046        Fp      STRB     r6,[r0,#1]
        0x000057e0:    4620         F      MOV      r0,r4
        0x000057e2:    f000fc37    ..7.    BL       rt_switch_req ; 0x6054
        0x000057e6:    bd70        p.      POP      {r4-r6,pc}
        0x000057e8:    4805        .H      LDR      r0,[pc,#20] ; [0x5800] = 0x200033ac
        0x000057ea:    f000f8c0    ....    BL       rt_get_first ; 0x596e
        0x000057ee:    e7f8        ..      B        0x57e2 ; rt_dispatch + 30
        0x000057f0:    7066        fp      STRB     r6,[r4,#1]
        0x000057f2:    4621        !F      MOV      r1,r4
        0x000057f4:    4802        .H      LDR      r0,[pc,#8] ; [0x5800] = 0x200033ac
        0x000057f6:    f000fb89    ....    BL       rt_put_prio ; 0x5f0c
        0x000057fa:    bd70        p.      POP      {r4-r6,pc}
    $d
        0x000057fc:    20000144    D..     DCD    536871236
        0x00005800:    200033ac    .3.     DCD    536884140
    $t
    i.rt_dly_wait
    rt_dly_wait
        0x00005804:    b510        ..      PUSH     {r4,lr}
        0x00005806:    2103        .!      MOVS     r1,#3
        0x00005808:    f7ffff64    ..d.    BL       rt_block ; 0x56d4
        0x0000580c:    bd10        ..      POP      {r4,pc}
        0x0000580e:    0000        ..      MOVS     r0,r0
    i.rt_evt_clr
    rt_evt_clr
        0x00005810:    4a05        .J      LDR      r2,[pc,#20] ; [0x5828] = 0x2000334c
        0x00005812:    0089        ..      LSLS     r1,r1,#2
        0x00005814:    1889        ..      ADDS     r1,r1,r2
        0x00005816:    3980        .9      SUBS     r1,r1,#0x80
        0x00005818:    6fc9        .o      LDR      r1,[r1,#0x7c]
        0x0000581a:    2900        .)      CMP      r1,#0
        0x0000581c:    d002        ..      BEQ      0x5824 ; rt_evt_clr + 20
        0x0000581e:    8b0a        ..      LDRH     r2,[r1,#0x18]
        0x00005820:    4382        .C      BICS     r2,r2,r0
        0x00005822:    830a        ..      STRH     r2,[r1,#0x18]
        0x00005824:    4770        pG      BX       lr
    $d
        0x00005826:    0000        ..      DCW    0
        0x00005828:    2000334c    L3.     DCD    536884044
    $t
    i.rt_evt_psh
    rt_evt_psh
        0x0000582c:    b510        ..      PUSH     {r4,lr}
        0x0000582e:    4604        .F      MOV      r4,r0
        0x00005830:    8b00        ..      LDRH     r0,[r0,#0x18]
        0x00005832:    4308        .C      ORRS     r0,r0,r1
        0x00005834:    8320         .      STRH     r0,[r4,#0x18]
        0x00005836:    7862        bx      LDRB     r2,[r4,#1]
        0x00005838:    8b61        a.      LDRH     r1,[r4,#0x1a]
        0x0000583a:    2a06        .*      CMP      r2,#6
        0x0000583c:    d017        ..      BEQ      0x586e ; rt_evt_psh + 66
        0x0000583e:    2a05        .*      CMP      r2,#5
        0x00005840:    d114        ..      BNE      0x586c ; rt_evt_psh + 64
        0x00005842:    4208        .B      TST      r0,r1
        0x00005844:    d012        ..      BEQ      0x586c ; rt_evt_psh + 64
        0x00005846:    460a        .F      MOV      r2,r1
        0x00005848:    4002        .@      ANDS     r2,r2,r0
        0x0000584a:    8362        b.      STRH     r2,[r4,#0x1a]
        0x0000584c:    4388        .C      BICS     r0,r0,r1
        0x0000584e:    8320         .      STRH     r0,[r4,#0x18]
        0x00005850:    4620         F      MOV      r0,r4
        0x00005852:    f000fba2    ....    BL       rt_rmv_dly ; 0x5f9a
        0x00005856:    2001        .       MOVS     r0,#1
        0x00005858:    7060        `p      STRB     r0,[r4,#1]
        0x0000585a:    8b62        b.      LDRH     r2,[r4,#0x1a]
        0x0000585c:    2108        .!      MOVS     r1,#8
        0x0000585e:    4620         F      MOV      r0,r4
        0x00005860:    f000fb97    ....    BL       rt_ret_val2 ; 0x5f92
        0x00005864:    4621        !F      MOV      r1,r4
        0x00005866:    4804        .H      LDR      r0,[pc,#16] ; [0x5878] = 0x200033ac
        0x00005868:    f000fb50    ..P.    BL       rt_put_prio ; 0x5f0c
        0x0000586c:    bd10        ..      POP      {r4,pc}
        0x0000586e:    460a        .F      MOV      r2,r1
        0x00005870:    4382        .C      BICS     r2,r2,r0
        0x00005872:    d0eb        ..      BEQ      0x584c ; rt_evt_psh + 32
        0x00005874:    bd10        ..      POP      {r4,pc}
    $d
        0x00005876:    0000        ..      DCW    0
        0x00005878:    200033ac    .3.     DCD    536884140
    $t
    i.rt_evt_set
    rt_evt_set
        0x0000587c:    4602        .F      MOV      r2,r0
        0x0000587e:    0088        ..      LSLS     r0,r1,#2
        0x00005880:    4914        .I      LDR      r1,[pc,#80] ; [0x58d4] = 0x2000334c
        0x00005882:    b510        ..      PUSH     {r4,lr}
        0x00005884:    1840        @.      ADDS     r0,r0,r1
        0x00005886:    3880        .8      SUBS     r0,r0,#0x80
        0x00005888:    6fc4        .o      LDR      r4,[r0,#0x7c]
        0x0000588a:    2c00        .,      CMP      r4,#0
        0x0000588c:    d01c        ..      BEQ      0x58c8 ; rt_evt_set + 76
        0x0000588e:    8b20         .      LDRH     r0,[r4,#0x18]
        0x00005890:    4310        .C      ORRS     r0,r0,r2
        0x00005892:    8320         .      STRH     r0,[r4,#0x18]
        0x00005894:    7862        bx      LDRB     r2,[r4,#1]
        0x00005896:    8b61        a.      LDRH     r1,[r4,#0x1a]
        0x00005898:    2a06        .*      CMP      r2,#6
        0x0000589a:    d016        ..      BEQ      0x58ca ; rt_evt_set + 78
        0x0000589c:    2a05        .*      CMP      r2,#5
        0x0000589e:    d113        ..      BNE      0x58c8 ; rt_evt_set + 76
        0x000058a0:    4208        .B      TST      r0,r1
        0x000058a2:    d011        ..      BEQ      0x58c8 ; rt_evt_set + 76
        0x000058a4:    460a        .F      MOV      r2,r1
        0x000058a6:    4002        .@      ANDS     r2,r2,r0
        0x000058a8:    8362        b.      STRH     r2,[r4,#0x1a]
        0x000058aa:    4388        .C      BICS     r0,r0,r1
        0x000058ac:    8320         .      STRH     r0,[r4,#0x18]
        0x000058ae:    4620         F      MOV      r0,r4
        0x000058b0:    f000fb73    ..s.    BL       rt_rmv_dly ; 0x5f9a
        0x000058b4:    2001        .       MOVS     r0,#1
        0x000058b6:    7060        `p      STRB     r0,[r4,#1]
        0x000058b8:    8b62        b.      LDRH     r2,[r4,#0x1a]
        0x000058ba:    2108        .!      MOVS     r1,#8
        0x000058bc:    4620         F      MOV      r0,r4
        0x000058be:    f000fb68    ..h.    BL       rt_ret_val2 ; 0x5f92
        0x000058c2:    4620         F      MOV      r0,r4
        0x000058c4:    f7ffff7e    ..~.    BL       rt_dispatch ; 0x57c4
        0x000058c8:    bd10        ..      POP      {r4,pc}
        0x000058ca:    460a        .F      MOV      r2,r1
        0x000058cc:    4382        .C      BICS     r2,r2,r0
        0x000058ce:    d0ec        ..      BEQ      0x58aa ; rt_evt_set + 46
        0x000058d0:    bd10        ..      POP      {r4,pc}
    $d
        0x000058d2:    0000        ..      DCW    0
        0x000058d4:    2000334c    L3.     DCD    536884044
    $t
    i.rt_evt_wait
    rt_evt_wait
        0x000058d8:    b570        p.      PUSH     {r4-r6,lr}
        0x000058da:    4603        .F      MOV      r3,r0
        0x000058dc:    480d        .H      LDR      r0,[pc,#52] ; [0x5914] = 0x20000144
        0x000058de:    460d        .F      MOV      r5,r1
        0x000058e0:    6804        .h      LDR      r4,[r0,#0]
        0x000058e2:    2a00        .*      CMP      r2,#0
        0x000058e4:    8b20         .      LDRH     r0,[r4,#0x18]
        0x000058e6:    d008        ..      BEQ      0x58fa ; rt_evt_wait + 34
        0x000058e8:    4619        .F      MOV      r1,r3
        0x000058ea:    4381        .C      BICS     r1,r1,r0
        0x000058ec:    d001        ..      BEQ      0x58f2 ; rt_evt_wait + 26
        0x000058ee:    2106        .!      MOVS     r1,#6
        0x000058f0:    e009        ..      B        0x5906 ; rt_evt_wait + 46
        0x000058f2:    4398        .C      BICS     r0,r0,r3
        0x000058f4:    8320         .      STRH     r0,[r4,#0x18]
        0x000058f6:    2002        .       MOVS     r0,#2
        0x000058f8:    bd70        p.      POP      {r4-r6,pc}
        0x000058fa:    4601        .F      MOV      r1,r0
        0x000058fc:    4019        .@      ANDS     r1,r1,r3
        0x000058fe:    d001        ..      BEQ      0x5904 ; rt_evt_wait + 44
        0x00005900:    8361        a.      STRH     r1,[r4,#0x1a]
        0x00005902:    e7f6        ..      B        0x58f2 ; rt_evt_wait + 26
        0x00005904:    2105        .!      MOVS     r1,#5
        0x00005906:    8363        c.      STRH     r3,[r4,#0x1a]
        0x00005908:    4628        (F      MOV      r0,r5
        0x0000590a:    f7fffee3    ....    BL       rt_block ; 0x56d4
        0x0000590e:    2001        .       MOVS     r0,#1
        0x00005910:    bd70        p.      POP      {r4-r6,pc}
    $d
        0x00005912:    0000        ..      DCW    0
        0x00005914:    20000144    D..     DCD    536871236
    $t
    i.rt_free_box
    rt_free_box
        0x00005918:    4281        .B      CMP      r1,r0
        0x0000591a:    d302        ..      BCC      0x5922 ; rt_free_box + 10
        0x0000591c:    6842        Bh      LDR      r2,[r0,#4]
        0x0000591e:    428a        .B      CMP      r2,r1
        0x00005920:    d801        ..      BHI      0x5926 ; rt_free_box + 14
        0x00005922:    2001        .       MOVS     r0,#1
        0x00005924:    4770        pG      BX       lr
        0x00005926:    f3ef8210    ....    MRS      r2,PRIMASK
        0x0000592a:    07d2        ..      LSLS     r2,r2,#31
        0x0000592c:    0fd2        ..      LSRS     r2,r2,#31
        0x0000592e:    b672        r.      CPSID    i
        0x00005930:    6803        .h      LDR      r3,[r0,#0]
        0x00005932:    600b        .`      STR      r3,[r1,#0]
        0x00005934:    6001        .`      STR      r1,[r0,#0]
        0x00005936:    d100        ..      BNE      0x593a ; rt_free_box + 34
        0x00005938:    b662        b.      CPSIE    i
        0x0000593a:    2000        .       MOVS     r0,#0
        0x0000593c:    4770        pG      BX       lr
    i.rt_free_mem
    rt_free_mem
        0x0000593e:    2800        .(      CMP      r0,#0
        0x00005940:    d010        ..      BEQ      0x5964 ; rt_free_mem + 38
        0x00005942:    2900        .)      CMP      r1,#0
        0x00005944:    d00e        ..      BEQ      0x5964 ; rt_free_mem + 38
        0x00005946:    2200        ."      MOVS     r2,#0
        0x00005948:    3908        .9      SUBS     r1,r1,#8
        0x0000594a:    e003        ..      B        0x5954 ; rt_free_mem + 22
        0x0000594c:    4602        .F      MOV      r2,r0
        0x0000594e:    6800        .h      LDR      r0,[r0,#0]
        0x00005950:    2800        .(      CMP      r0,#0
        0x00005952:    d007        ..      BEQ      0x5964 ; rt_free_mem + 38
        0x00005954:    4288        .B      CMP      r0,r1
        0x00005956:    d1f9        ..      BNE      0x594c ; rt_free_mem + 14
        0x00005958:    2a00        .*      CMP      r2,#0
        0x0000595a:    d005        ..      BEQ      0x5968 ; rt_free_mem + 42
        0x0000595c:    6800        .h      LDR      r0,[r0,#0]
        0x0000595e:    6010        .`      STR      r0,[r2,#0]
        0x00005960:    2000        .       MOVS     r0,#0
        0x00005962:    4770        pG      BX       lr
        0x00005964:    2001        .       MOVS     r0,#1
        0x00005966:    4770        pG      BX       lr
        0x00005968:    2100        .!      MOVS     r1,#0
        0x0000596a:    6041        A`      STR      r1,[r0,#4]
        0x0000596c:    e7f8        ..      B        0x5960 ; rt_free_mem + 34
    i.rt_get_first
    rt_get_first
        0x0000596e:    4601        .F      MOV      r1,r0
        0x00005970:    6840        @h      LDR      r0,[r0,#4]
        0x00005972:    6842        Bh      LDR      r2,[r0,#4]
        0x00005974:    604a        J`      STR      r2,[r1,#4]
        0x00005976:    780b        .x      LDRB     r3,[r1,#0]
        0x00005978:    2200        ."      MOVS     r2,#0
        0x0000597a:    2b02        .+      CMP      r3,#2
        0x0000597c:    d005        ..      BEQ      0x598a ; rt_get_first + 28
        0x0000597e:    2b01        .+      CMP      r3,#1
        0x00005980:    d003        ..      BEQ      0x598a ; rt_get_first + 28
        0x00005982:    2b03        .+      CMP      r3,#3
        0x00005984:    d001        ..      BEQ      0x598a ; rt_get_first + 28
        0x00005986:    6042        B`      STR      r2,[r0,#4]
        0x00005988:    4770        pG      BX       lr
        0x0000598a:    6843        Ch      LDR      r3,[r0,#4]
        0x0000598c:    2b00        .+      CMP      r3,#0
        0x0000598e:    d001        ..      BEQ      0x5994 ; rt_get_first + 38
        0x00005990:    6099        .`      STR      r1,[r3,#8]
        0x00005992:    6042        B`      STR      r2,[r0,#4]
        0x00005994:    6082        .`      STR      r2,[r0,#8]
        0x00005996:    4770        pG      BX       lr
    i.rt_id2obj
    rt_id2obj
        0x00005998:    0781        ..      LSLS     r1,r0,#30
        0x0000599a:    d000        ..      BEQ      0x599e ; rt_id2obj + 6
        0x0000599c:    2000        .       MOVS     r0,#0
        0x0000599e:    4770        pG      BX       lr
    i.rt_init_context
    rt_init_context
        0x000059a0:    b570        p.      PUSH     {r4-r6,lr}
        0x000059a2:    4604        .F      MOV      r4,r0
        0x000059a4:    4615        .F      MOV      r5,r2
        0x000059a6:    2000        .       MOVS     r0,#0
        0x000059a8:    7020         p      STRB     r0,[r4,#0]
        0x000059aa:    2201        ."      MOVS     r2,#1
        0x000059ac:    7062        bp      STRB     r2,[r4,#1]
        0x000059ae:    4622        "F      MOV      r2,r4
        0x000059b0:    70a1        .p      STRB     r1,[r4,#2]
        0x000059b2:    3220         2      ADDS     r2,r2,#0x20
        0x000059b4:    7111        .q      STRB     r1,[r2,#4]
        0x000059b6:    6060        ``      STR      r0,[r4,#4]
        0x000059b8:    60a0        .`      STR      r0,[r4,#8]
        0x000059ba:    60e0        .`      STR      r0,[r4,#0xc]
        0x000059bc:    6120         a      STR      r0,[r4,#0x10]
        0x000059be:    6220         b      STR      r0,[r4,#0x20]
        0x000059c0:    82a0        ..      STRH     r0,[r4,#0x14]
        0x000059c2:    82e0        ..      STRH     r0,[r4,#0x16]
        0x000059c4:    8320         .      STRH     r0,[r4,#0x18]
        0x000059c6:    8360        `.      STRH     r0,[r4,#0x1a]
        0x000059c8:    7150        Pq      STRB     r0,[r2,#5]
        0x000059ca:    8ce0        ..      LDRH     r0,[r4,#0x26]
        0x000059cc:    2800        .(      CMP      r0,#0
        0x000059ce:    d103        ..      BNE      0x59d8 ; rt_init_context + 56
        0x000059d0:    4804        .H      LDR      r0,[pc,#16] ; [0x59e4] = 0x200014d8
        0x000059d2:    f7fffe4f    ..O.    BL       rt_alloc_box ; 0x5674
        0x000059d6:    62e0        .b      STR      r0,[r4,#0x2c]
        0x000059d8:    4629        )F      MOV      r1,r5
        0x000059da:    4620         F      MOV      r0,r4
        0x000059dc:    f000f81e    ....    BL       rt_init_stack ; 0x5a1c
        0x000059e0:    bd70        p.      POP      {r4-r6,pc}
    $d
        0x000059e2:    0000        ..      DCW    0
        0x000059e4:    200014d8    ...     DCD    536876248
    $t
    i.rt_init_mem
    rt_init_mem
        0x000059e8:    2800        .(      CMP      r0,#0
        0x000059ea:    d001        ..      BEQ      0x59f0 ; rt_init_mem + 8
        0x000059ec:    2908        .)      CMP      r1,#8
        0x000059ee:    d201        ..      BCS      0x59f4 ; rt_init_mem + 12
        0x000059f0:    2001        .       MOVS     r0,#1
        0x000059f2:    4770        pG      BX       lr
        0x000059f4:    1841        A.      ADDS     r1,r0,r1
        0x000059f6:    1f09        ..      SUBS     r1,r1,#4
        0x000059f8:    2200        ."      MOVS     r2,#0
        0x000059fa:    6001        .`      STR      r1,[r0,#0]
        0x000059fc:    600a        .`      STR      r2,[r1,#0]
        0x000059fe:    6042        B`      STR      r2,[r0,#4]
        0x00005a00:    4610        .F      MOV      r0,r2
        0x00005a02:    4770        pG      BX       lr
    i.rt_init_robin
    rt_init_robin
        0x00005a04:    4803        .H      LDR      r0,[pc,#12] ; [0x5a14] = 0x20000158
        0x00005a06:    2100        .!      MOVS     r1,#0
        0x00005a08:    6001        .`      STR      r1,[r0,#0]
        0x00005a0a:    4903        .I      LDR      r1,[pc,#12] ; [0x5a18] = 0x699c
        0x00005a0c:    8809        ..      LDRH     r1,[r1,#0]
        0x00005a0e:    80c1        ..      STRH     r1,[r0,#6]
        0x00005a10:    4770        pG      BX       lr
    $d
        0x00005a12:    0000        ..      DCW    0
        0x00005a14:    20000158    X..     DCD    536871256
        0x00005a18:    0000699c    .i..    DCD    27036
    $t
    i.rt_init_stack
    rt_init_stack
        0x00005a1c:    b5f0        ..      PUSH     {r4-r7,lr}
        0x00005a1e:    8cc2        ..      LDRH     r2,[r0,#0x26]
        0x00005a20:    4d19        .M      LDR      r5,[pc,#100] ; [0x5a88] = 0x6998
        0x00005a22:    0893        ..      LSRS     r3,r2,#2
        0x00005a24:    d102        ..      BNE      0x5a2c ; rt_init_stack + 16
        0x00005a26:    882a        *.      LDRH     r2,[r5,#0]
        0x00005a28:    0412        ..      LSLS     r2,r2,#16
        0x00005a2a:    0c93        ..      LSRS     r3,r2,#18
        0x00005a2c:    6ac2        .j      LDR      r2,[r0,#0x2c]
        0x00005a2e:    009c        ..      LSLS     r4,r3,#2
        0x00005a30:    1912        ..      ADDS     r2,r2,r4
        0x00005a32:    0754        T.      LSLS     r4,r2,#29
        0x00005a34:    d500        ..      BPL      0x5a38 ; rt_init_stack + 28
        0x00005a36:    1f12        ..      SUBS     r2,r2,#4
        0x00005a38:    2401        .$      MOVS     r4,#1
        0x00005a3a:    0624        $.      LSLS     r4,r4,#24
        0x00005a3c:    3a40        @:      SUBS     r2,r2,#0x40
        0x00005a3e:    63d4        .c      STR      r4,[r2,#0x3c]
        0x00005a40:    2400        .$      MOVS     r4,#0
        0x00005a42:    6391        .c      STR      r1,[r2,#0x38]
        0x00005a44:    4626        &F      MOV      r6,r4
        0x00005a46:    00a7        ..      LSLS     r7,r4,#2
        0x00005a48:    1c64        d.      ADDS     r4,r4,#1
        0x00005a4a:    51d6        .Q      STR      r6,[r2,r7]
        0x00005a4c:    2c0e        .,      CMP      r4,#0xe
        0x00005a4e:    d3fa        ..      BCC      0x5a46 ; rt_init_stack + 42
        0x00005a50:    69c4        .i      LDR      r4,[r0,#0x1c]
        0x00005a52:    6214        .b      STR      r4,[r2,#0x20]
        0x00005a54:    6282        .b      STR      r2,[r0,#0x28]
        0x00005a56:    6301        .c      STR      r1,[r0,#0x30]
        0x00005a58:    6829        )h      LDR      r1,[r5,#0]
        0x00005a5a:    00c9        ..      LSLS     r1,r1,#3
        0x00005a5c:    d50f        ..      BPL      0x5a7e ; rt_init_stack + 98
        0x00005a5e:    2b11        .+      CMP      r3,#0x11
        0x00005a60:    d90d        ..      BLS      0x5a7e ; rt_init_stack + 98
        0x00005a62:    3b10        .;      SUBS     r3,r3,#0x10
        0x00005a64:    0859        Y.      LSRS     r1,r3,#1
        0x00005a66:    4b09        .K      LDR      r3,[pc,#36] ; [0x5a8c] = 0xcccccccc
        0x00005a68:    e002        ..      B        0x5a70 ; rt_init_stack + 84
        0x00005a6a:    3a08        .:      SUBS     r2,r2,#8
        0x00005a6c:    6053        S`      STR      r3,[r2,#4]
        0x00005a6e:    6013        .`      STR      r3,[r2,#0]
        0x00005a70:    1e49        I.      SUBS     r1,r1,#1
        0x00005a72:    d1fa        ..      BNE      0x5a6a ; rt_init_stack + 78
        0x00005a74:    6ac1        .j      LDR      r1,[r0,#0x2c]
        0x00005a76:    1f12        ..      SUBS     r2,r2,#4
        0x00005a78:    428a        .B      CMP      r2,r1
        0x00005a7a:    d900        ..      BLS      0x5a7e ; rt_init_stack + 98
        0x00005a7c:    6013        .`      STR      r3,[r2,#0]
        0x00005a7e:    6ac0        .j      LDR      r0,[r0,#0x2c]
        0x00005a80:    4903        .I      LDR      r1,[pc,#12] ; [0x5a90] = 0xe25a2ea5
        0x00005a82:    6001        .`      STR      r1,[r0,#0]
        0x00005a84:    bdf0        ..      POP      {r4-r7,pc}
    $d
        0x00005a86:    0000        ..      DCW    0
        0x00005a88:    00006998    .i..    DCD    27032
        0x00005a8c:    cccccccc    ....    DCD    3435973836
        0x00005a90:    e25a2ea5    ..Z.    DCD    3797560997
    $t
    i.rt_mbx_check
    rt_mbx_check
        0x00005a94:    89c1        ..      LDRH     r1,[r0,#0xe]
        0x00005a96:    8980        ..      LDRH     r0,[r0,#0xc]
        0x00005a98:    1a08        ..      SUBS     r0,r1,r0
        0x00005a9a:    4770        pG      BX       lr
    i.rt_mbx_init
    rt_mbx_init
        0x00005a9c:    2201        ."      MOVS     r2,#1
        0x00005a9e:    7002        .p      STRB     r2,[r0,#0]
        0x00005aa0:    2200        ."      MOVS     r2,#0
        0x00005aa2:    7042        Bp      STRB     r2,[r0,#1]
        0x00005aa4:    7082        .p      STRB     r2,[r0,#2]
        0x00005aa6:    6042        B`      STR      r2,[r0,#4]
        0x00005aa8:    8102        ..      STRH     r2,[r0,#8]
        0x00005aaa:    8142        B.      STRH     r2,[r0,#0xa]
        0x00005aac:    8182        ..      STRH     r2,[r0,#0xc]
        0x00005aae:    4a03        .J      LDR      r2,[pc,#12] ; [0x5abc] = 0xfffc0000
        0x00005ab0:    0389        ..      LSLS     r1,r1,#14
        0x00005ab2:    1889        ..      ADDS     r1,r1,r2
        0x00005ab4:    0c09        ..      LSRS     r1,r1,#16
        0x00005ab6:    81c1        ..      STRH     r1,[r0,#0xe]
        0x00005ab8:    4770        pG      BX       lr
    $d
        0x00005aba:    0000        ..      DCW    0
        0x00005abc:    fffc0000    ....    DCD    4294705152
    $t
    i.rt_mbx_psh
    rt_mbx_psh
        0x00005ac0:    b5f8        ..      PUSH     {r3-r7,lr}
        0x00005ac2:    4604        .F      MOV      r4,r0
        0x00005ac4:    6840        @h      LDR      r0,[r0,#4]
        0x00005ac6:    2700        .'      MOVS     r7,#0
        0x00005ac8:    460d        .F      MOV      r5,r1
        0x00005aca:    2800        .(      CMP      r0,#0
        0x00005acc:    d044        D.      BEQ      0x5b58 ; rt_mbx_psh + 152
        0x00005ace:    7860        `x      LDRB     r0,[r4,#1]
        0x00005ad0:    2601        .&      MOVS     r6,#1
        0x00005ad2:    2801        .(      CMP      r0,#1
        0x00005ad4:    d037        7.      BEQ      0x5b46 ; rt_mbx_psh + 134
        0x00005ad6:    2802        .(      CMP      r0,#2
        0x00005ad8:    d013        ..      BEQ      0x5b02 ; rt_mbx_psh + 66
        0x00005ada:    2803        .(      CMP      r0,#3
        0x00005adc:    d132        2.      BNE      0x5b44 ; rt_mbx_psh + 132
        0x00005ade:    4608        .F      MOV      r0,r1
        0x00005ae0:    f7fffdc8    ....    BL       rt_alloc_box ; 0x5674
        0x00005ae4:    0005        ..      MOVS     r5,r0
        0x00005ae6:    d02d        -.      BEQ      0x5b44 ; rt_mbx_psh + 132
        0x00005ae8:    4620         F      MOV      r0,r4
        0x00005aea:    f7ffff40    ..@.    BL       rt_get_first ; 0x596e
        0x00005aee:    4604        .F      MOV      r4,r0
        0x00005af0:    4629        )F      MOV      r1,r5
        0x00005af2:    f000fa4b    ..K.    BL       rt_ret_val ; 0x5f8c
        0x00005af6:    7066        fp      STRB     r6,[r4,#1]
        0x00005af8:    4620         F      MOV      r0,r4
        0x00005afa:    f000fa4e    ..N.    BL       rt_rmv_dly ; 0x5f9a
        0x00005afe:    4621        !F      MOV      r1,r4
        0x00005b00:    e01d        ..      B        0x5b3e ; rt_mbx_psh + 126
        0x00005b02:    4620         F      MOV      r0,r4
        0x00005b04:    f7ffff33    ..3.    BL       rt_get_first ; 0x596e
        0x00005b08:    4605        .F      MOV      r5,r0
        0x00005b0a:    2100        .!      MOVS     r1,#0
        0x00005b0c:    f000fa3e    ..>.    BL       rt_ret_val ; 0x5f8c
        0x00005b10:    8921        !.      LDRH     r1,[r4,#8]
        0x00005b12:    69e8        .i      LDR      r0,[r5,#0x1c]
        0x00005b14:    0089        ..      LSLS     r1,r1,#2
        0x00005b16:    1909        ..      ADDS     r1,r1,r4
        0x00005b18:    6108        .a      STR      r0,[r1,#0x10]
        0x00005b1a:    b672        r.      CPSID    i
        0x00005b1c:    89a0        ..      LDRH     r0,[r4,#0xc]
        0x00005b1e:    1c40        @.      ADDS     r0,r0,#1
        0x00005b20:    81a0        ..      STRH     r0,[r4,#0xc]
        0x00005b22:    b662        b.      CPSIE    i
        0x00005b24:    8920         .      LDRH     r0,[r4,#8]
        0x00005b26:    1c40        @.      ADDS     r0,r0,#1
        0x00005b28:    b280        ..      UXTH     r0,r0
        0x00005b2a:    8120         .      STRH     r0,[r4,#8]
        0x00005b2c:    89e1        ..      LDRH     r1,[r4,#0xe]
        0x00005b2e:    4288        .B      CMP      r0,r1
        0x00005b30:    d100        ..      BNE      0x5b34 ; rt_mbx_psh + 116
        0x00005b32:    8127        '.      STRH     r7,[r4,#8]
        0x00005b34:    706e        np      STRB     r6,[r5,#1]
        0x00005b36:    4628        (F      MOV      r0,r5
        0x00005b38:    f000fa2f    ../.    BL       rt_rmv_dly ; 0x5f9a
        0x00005b3c:    4629        )F      MOV      r1,r5
        0x00005b3e:    4813        .H      LDR      r0,[pc,#76] ; [0x5b8c] = 0x200033ac
        0x00005b40:    f000f9e4    ....    BL       rt_put_prio ; 0x5f0c
        0x00005b44:    bdf8        ..      POP      {r3-r7,pc}
        0x00005b46:    4620         F      MOV      r0,r4
        0x00005b48:    f7ffff11    ....    BL       rt_get_first ; 0x596e
        0x00005b4c:    4604        .F      MOV      r4,r0
        0x00005b4e:    462a        *F      MOV      r2,r5
        0x00005b50:    2110        .!      MOVS     r1,#0x10
        0x00005b52:    f000fa1e    ....    BL       rt_ret_val2 ; 0x5f92
        0x00005b56:    e7ce        ..      B        0x5af6 ; rt_mbx_psh + 54
        0x00005b58:    89a0        ..      LDRH     r0,[r4,#0xc]
        0x00005b5a:    89e1        ..      LDRH     r1,[r4,#0xe]
        0x00005b5c:    4288        .B      CMP      r0,r1
        0x00005b5e:    d211        ..      BCS      0x5b84 ; rt_mbx_psh + 196
        0x00005b60:    8920         .      LDRH     r0,[r4,#8]
        0x00005b62:    0080        ..      LSLS     r0,r0,#2
        0x00005b64:    1900        ..      ADDS     r0,r0,r4
        0x00005b66:    6105        .a      STR      r5,[r0,#0x10]
        0x00005b68:    b672        r.      CPSID    i
        0x00005b6a:    89a0        ..      LDRH     r0,[r4,#0xc]
        0x00005b6c:    1c40        @.      ADDS     r0,r0,#1
        0x00005b6e:    81a0        ..      STRH     r0,[r4,#0xc]
        0x00005b70:    b662        b.      CPSIE    i
        0x00005b72:    8920         .      LDRH     r0,[r4,#8]
        0x00005b74:    1c40        @.      ADDS     r0,r0,#1
        0x00005b76:    b280        ..      UXTH     r0,r0
        0x00005b78:    8120         .      STRH     r0,[r4,#8]
        0x00005b7a:    89e1        ..      LDRH     r1,[r4,#0xe]
        0x00005b7c:    4288        .B      CMP      r0,r1
        0x00005b7e:    d1e1        ..      BNE      0x5b44 ; rt_mbx_psh + 132
        0x00005b80:    8127        '.      STRH     r7,[r4,#8]
        0x00005b82:    bdf8        ..      POP      {r3-r7,pc}
        0x00005b84:    2003        .       MOVS     r0,#3
        0x00005b86:    f7fef84f    ..O.    BL       os_error ; 0x3c28
        0x00005b8a:    bdf8        ..      POP      {r3-r7,pc}
    $d
        0x00005b8c:    200033ac    .3.     DCD    536884140
    $t
    i.rt_mbx_wait
    rt_mbx_wait
        0x00005b90:    b570        p.      PUSH     {r4-r6,lr}
        0x00005b92:    4604        .F      MOV      r4,r0
        0x00005b94:    8980        ..      LDRH     r0,[r0,#0xc]
        0x00005b96:    2600        .&      MOVS     r6,#0
        0x00005b98:    4615        .F      MOV      r5,r2
        0x00005b9a:    2800        .(      CMP      r0,#0
        0x00005b9c:    d034        4.      BEQ      0x5c08 ; rt_mbx_wait + 120
        0x00005b9e:    8960        `.      LDRH     r0,[r4,#0xa]
        0x00005ba0:    0080        ..      LSLS     r0,r0,#2
        0x00005ba2:    1900        ..      ADDS     r0,r0,r4
        0x00005ba4:    6900        .i      LDR      r0,[r0,#0x10]
        0x00005ba6:    6008        .`      STR      r0,[r1,#0]
        0x00005ba8:    8960        `.      LDRH     r0,[r4,#0xa]
        0x00005baa:    1c40        @.      ADDS     r0,r0,#1
        0x00005bac:    b280        ..      UXTH     r0,r0
        0x00005bae:    8160        `.      STRH     r0,[r4,#0xa]
        0x00005bb0:    89e1        ..      LDRH     r1,[r4,#0xe]
        0x00005bb2:    4288        .B      CMP      r0,r1
        0x00005bb4:    d100        ..      BNE      0x5bb8 ; rt_mbx_wait + 40
        0x00005bb6:    8166        f.      STRH     r6,[r4,#0xa]
        0x00005bb8:    6860        `h      LDR      r0,[r4,#4]
        0x00005bba:    2800        .(      CMP      r0,#0
        0x00005bbc:    d002        ..      BEQ      0x5bc4 ; rt_mbx_wait + 52
        0x00005bbe:    7860        `x      LDRB     r0,[r4,#1]
        0x00005bc0:    2802        .(      CMP      r0,#2
        0x00005bc2:    d006        ..      BEQ      0x5bd2 ; rt_mbx_wait + 66
        0x00005bc4:    b672        r.      CPSID    i
        0x00005bc6:    89a0        ..      LDRH     r0,[r4,#0xc]
        0x00005bc8:    1e40        @.      SUBS     r0,r0,#1
        0x00005bca:    81a0        ..      STRH     r0,[r4,#0xc]
        0x00005bcc:    b662        b.      CPSIE    i
        0x00005bce:    2000        .       MOVS     r0,#0
        0x00005bd0:    bd70        p.      POP      {r4-r6,pc}
        0x00005bd2:    4620         F      MOV      r0,r4
        0x00005bd4:    f7fffecb    ....    BL       rt_get_first ; 0x596e
        0x00005bd8:    4605        .F      MOV      r5,r0
        0x00005bda:    2100        .!      MOVS     r1,#0
        0x00005bdc:    f000f9d6    ....    BL       rt_ret_val ; 0x5f8c
        0x00005be0:    8921        !.      LDRH     r1,[r4,#8]
        0x00005be2:    69e8        .i      LDR      r0,[r5,#0x1c]
        0x00005be4:    0089        ..      LSLS     r1,r1,#2
        0x00005be6:    1909        ..      ADDS     r1,r1,r4
        0x00005be8:    6108        .a      STR      r0,[r1,#0x10]
        0x00005bea:    8920         .      LDRH     r0,[r4,#8]
        0x00005bec:    1c40        @.      ADDS     r0,r0,#1
        0x00005bee:    b280        ..      UXTH     r0,r0
        0x00005bf0:    8120         .      STRH     r0,[r4,#8]
        0x00005bf2:    89e1        ..      LDRH     r1,[r4,#0xe]
        0x00005bf4:    4288        .B      CMP      r0,r1
        0x00005bf6:    d100        ..      BNE      0x5bfa ; rt_mbx_wait + 106
        0x00005bf8:    8126        &.      STRH     r6,[r4,#8]
        0x00005bfa:    4628        (F      MOV      r0,r5
        0x00005bfc:    f000f9cd    ....    BL       rt_rmv_dly ; 0x5f9a
        0x00005c00:    4628        (F      MOV      r0,r5
        0x00005c02:    f7fffddf    ....    BL       rt_dispatch ; 0x57c4
        0x00005c06:    e7e2        ..      B        0x5bce ; rt_mbx_wait + 62
        0x00005c08:    2d00        .-      CMP      r5,#0
        0x00005c0a:    d008        ..      BEQ      0x5c1e ; rt_mbx_wait + 142
        0x00005c0c:    480b        .H      LDR      r0,[pc,#44] ; [0x5c3c] = 0x20000144
        0x00005c0e:    6862        bh      LDR      r2,[r4,#4]
        0x00005c10:    6801        .h      LDR      r1,[r0,#0]
        0x00005c12:    2a00        .*      CMP      r2,#0
        0x00005c14:    d005        ..      BEQ      0x5c22 ; rt_mbx_wait + 146
        0x00005c16:    4620         F      MOV      r0,r4
        0x00005c18:    f000f978    ..x.    BL       rt_put_prio ; 0x5f0c
        0x00005c1c:    e008        ..      B        0x5c30 ; rt_mbx_wait + 160
        0x00005c1e:    2001        .       MOVS     r0,#1
        0x00005c20:    bd70        p.      POP      {r4-r6,pc}
        0x00005c22:    6061        a`      STR      r1,[r4,#4]
        0x00005c24:    6801        .h      LDR      r1,[r0,#0]
        0x00005c26:    604e        N`      STR      r6,[r1,#4]
        0x00005c28:    6800        .h      LDR      r0,[r0,#0]
        0x00005c2a:    6084        .`      STR      r4,[r0,#8]
        0x00005c2c:    2001        .       MOVS     r0,#1
        0x00005c2e:    7060        `p      STRB     r0,[r4,#1]
        0x00005c30:    2108        .!      MOVS     r1,#8
        0x00005c32:    4628        (F      MOV      r0,r5
        0x00005c34:    f7fffd4e    ..N.    BL       rt_block ; 0x56d4
        0x00005c38:    e7f1        ..      B        0x5c1e ; rt_mbx_wait + 142
    $d
        0x00005c3a:    0000        ..      DCW    0
        0x00005c3c:    20000144    D..     DCD    536871236
    $t
    i.rt_ms2tick
    rt_ms2tick
        0x00005c40:    b510        ..      PUSH     {r4,lr}
        0x00005c42:    2800        .(      CMP      r0,#0
        0x00005c44:    d012        ..      BEQ      0x5c6c ; rt_ms2tick + 44
        0x00005c46:    1c41        A.      ADDS     r1,r0,#1
        0x00005c48:    d011        ..      BEQ      0x5c6e ; rt_ms2tick + 46
        0x00005c4a:    490b        .I      LDR      r1,[pc,#44] ; [0x5c78] = 0x3d0900
        0x00005c4c:    4c0b        .L      LDR      r4,[pc,#44] ; [0x5c7c] = 0xfffe
        0x00005c4e:    4288        .B      CMP      r0,r1
        0x00005c50:    d80b        ..      BHI      0x5c6a ; rt_ms2tick + 42
        0x00005c52:    217d        }!      MOVS     r1,#0x7d
        0x00005c54:    00c9        ..      LSLS     r1,r1,#3
        0x00005c56:    4348        HC      MULS     r0,r1,r0
        0x00005c58:    4909        .I      LDR      r1,[pc,#36] ; [0x5c80] = 0x69b8
        0x00005c5a:    680a        .h      LDR      r2,[r1,#0]
        0x00005c5c:    1880        ..      ADDS     r0,r0,r2
        0x00005c5e:    4611        .F      MOV      r1,r2
        0x00005c60:    1e40        @.      SUBS     r0,r0,#1
        0x00005c62:    f7fdfff5    ....    BL       __aeabi_uidiv ; 0x3c50
        0x00005c66:    42a0        .B      CMP      r0,r4
        0x00005c68:    d904        ..      BLS      0x5c74 ; rt_ms2tick + 52
        0x00005c6a:    4620         F      MOV      r0,r4
        0x00005c6c:    bd10        ..      POP      {r4,pc}
        0x00005c6e:    4803        .H      LDR      r0,[pc,#12] ; [0x5c7c] = 0xfffe
        0x00005c70:    1c40        @.      ADDS     r0,r0,#1
        0x00005c72:    bd10        ..      POP      {r4,pc}
        0x00005c74:    b280        ..      UXTH     r0,r0
        0x00005c76:    bd10        ..      POP      {r4,pc}
    $d
        0x00005c78:    003d0900    ..=.    DCD    4000000
        0x00005c7c:    0000fffe    ....    DCD    65534
        0x00005c80:    000069b8    .i..    DCD    27064
    $t
    i.rt_mut_init
    rt_mut_init
        0x00005c84:    2103        .!      MOVS     r1,#3
        0x00005c86:    7001        .p      STRB     r1,[r0,#0]
        0x00005c88:    2100        .!      MOVS     r1,#0
        0x00005c8a:    8041        A.      STRH     r1,[r0,#2]
        0x00005c8c:    6041        A`      STR      r1,[r0,#4]
        0x00005c8e:    6081        .`      STR      r1,[r0,#8]
        0x00005c90:    60c1        .`      STR      r1,[r0,#0xc]
        0x00005c92:    4770        pG      BX       lr
    i.rt_mut_release
    rt_mut_release
        0x00005c94:    b5f8        ..      PUSH     {r3-r7,lr}
        0x00005c96:    4604        .F      MOV      r4,r0
        0x00005c98:    8840        @.      LDRH     r0,[r0,#2]
        0x00005c9a:    2800        .(      CMP      r0,#0
        0x00005c9c:    d004        ..      BEQ      0x5ca8 ; rt_mut_release + 20
        0x00005c9e:    4d31        1M      LDR      r5,[pc,#196] ; [0x5d64] = 0x20000144
        0x00005ca0:    68a1        .h      LDR      r1,[r4,#8]
        0x00005ca2:    682a        *h      LDR      r2,[r5,#0]
        0x00005ca4:    4291        .B      CMP      r1,r2
        0x00005ca6:    d001        ..      BEQ      0x5cac ; rt_mut_release + 24
        0x00005ca8:    20ff        .       MOVS     r0,#0xff
        0x00005caa:    bdf8        ..      POP      {r3-r7,pc}
        0x00005cac:    1e40        @.      SUBS     r0,r0,#1
        0x00005cae:    0400        ..      LSLS     r0,r0,#16
        0x00005cb0:    0c00        ..      LSRS     r0,r0,#16
        0x00005cb2:    8060        `.      STRH     r0,[r4,#2]
        0x00005cb4:    d153        S.      BNE      0x5d5e ; rt_mut_release + 202
        0x00005cb6:    6829        )h      LDR      r1,[r5,#0]
        0x00005cb8:    6a08        .j      LDR      r0,[r1,#0x20]
        0x00005cba:    42a0        .B      CMP      r0,r4
        0x00005cbc:    d109        ..      BNE      0x5cd2 ; rt_mut_release + 62
        0x00005cbe:    68e0        .h      LDR      r0,[r4,#0xc]
        0x00005cc0:    6208        .b      STR      r0,[r1,#0x20]
        0x00005cc2:    e008        ..      B        0x5cd6 ; rt_mut_release + 66
        0x00005cc4:    68c2        .h      LDR      r2,[r0,#0xc]
        0x00005cc6:    42a2        .B      CMP      r2,r4
        0x00005cc8:    d102        ..      BNE      0x5cd0 ; rt_mut_release + 60
        0x00005cca:    68e2        .h      LDR      r2,[r4,#0xc]
        0x00005ccc:    60c2        .`      STR      r2,[r0,#0xc]
        0x00005cce:    e002        ..      B        0x5cd6 ; rt_mut_release + 66
        0x00005cd0:    4610        .F      MOV      r0,r2
        0x00005cd2:    2800        .(      CMP      r0,#0
        0x00005cd4:    d1f6        ..      BNE      0x5cc4 ; rt_mut_release + 48
        0x00005cd6:    2024        $       MOVS     r0,#0x24
        0x00005cd8:    5c40        @\      LDRB     r0,[r0,r1]
        0x00005cda:    6a0a        .j      LDR      r2,[r1,#0x20]
        0x00005cdc:    e007        ..      B        0x5cee ; rt_mut_release + 90
        0x00005cde:    6853        Sh      LDR      r3,[r2,#4]
        0x00005ce0:    2b00        .+      CMP      r3,#0
        0x00005ce2:    d003        ..      BEQ      0x5cec ; rt_mut_release + 88
        0x00005ce4:    789b        .x      LDRB     r3,[r3,#2]
        0x00005ce6:    4283        .B      CMP      r3,r0
        0x00005ce8:    d900        ..      BLS      0x5cec ; rt_mut_release + 88
        0x00005cea:    4618        .F      MOV      r0,r3
        0x00005cec:    68d2        .h      LDR      r2,[r2,#0xc]
        0x00005cee:    2a00        .*      CMP      r2,#0
        0x00005cf0:    d1f5        ..      BNE      0x5cde ; rt_mut_release + 74
        0x00005cf2:    7088        .p      STRB     r0,[r1,#2]
        0x00005cf4:    6861        ah      LDR      r1,[r4,#4]
        0x00005cf6:    2601        .&      MOVS     r6,#1
        0x00005cf8:    2900        .)      CMP      r1,#0
        0x00005cfa:    d022        ".      BEQ      0x5d42 ; rt_mut_release + 174
        0x00005cfc:    4620         F      MOV      r0,r4
        0x00005cfe:    f7fffe36    ..6.    BL       rt_get_first ; 0x596e
        0x00005d02:    4607        .F      MOV      r7,r0
        0x00005d04:    2100        .!      MOVS     r1,#0
        0x00005d06:    f000f941    ..A.    BL       rt_ret_val ; 0x5f8c
        0x00005d0a:    4638        8F      MOV      r0,r7
        0x00005d0c:    f000f945    ..E.    BL       rt_rmv_dly ; 0x5f9a
        0x00005d10:    8066        f.      STRH     r6,[r4,#2]
        0x00005d12:    60a7        .`      STR      r7,[r4,#8]
        0x00005d14:    6a38        8j      LDR      r0,[r7,#0x20]
        0x00005d16:    60e0        .`      STR      r0,[r4,#0xc]
        0x00005d18:    623c        <b      STR      r4,[r7,#0x20]
        0x00005d1a:    4813        .H      LDR      r0,[pc,#76] ; [0x5d68] = 0x200033ac
        0x00005d1c:    6829        )h      LDR      r1,[r5,#0]
        0x00005d1e:    6840        @h      LDR      r0,[r0,#4]
        0x00005d20:    788a        .x      LDRB     r2,[r1,#2]
        0x00005d22:    7880        .x      LDRB     r0,[r0,#2]
        0x00005d24:    4282        .B      CMP      r2,r0
        0x00005d26:    d301        ..      BCC      0x5d2c ; rt_mut_release + 152
        0x00005d28:    4638        8F      MOV      r0,r7
        0x00005d2a:    e016        ..      B        0x5d5a ; rt_mut_release + 198
        0x00005d2c:    480e        .H      LDR      r0,[pc,#56] ; [0x5d68] = 0x200033ac
        0x00005d2e:    f000f8ed    ....    BL       rt_put_prio ; 0x5f0c
        0x00005d32:    4639        9F      MOV      r1,r7
        0x00005d34:    480c        .H      LDR      r0,[pc,#48] ; [0x5d68] = 0x200033ac
        0x00005d36:    f000f8e9    ....    BL       rt_put_prio ; 0x5f0c
        0x00005d3a:    6828        (h      LDR      r0,[r5,#0]
        0x00005d3c:    7046        Fp      STRB     r6,[r0,#1]
        0x00005d3e:    707e        ~p      STRB     r6,[r7,#1]
        0x00005d40:    e00a        ..      B        0x5d58 ; rt_mut_release + 196
        0x00005d42:    4909        .I      LDR      r1,[pc,#36] ; [0x5d68] = 0x200033ac
        0x00005d44:    6849        Ih      LDR      r1,[r1,#4]
        0x00005d46:    788a        .x      LDRB     r2,[r1,#2]
        0x00005d48:    6829        )h      LDR      r1,[r5,#0]
        0x00005d4a:    4282        .B      CMP      r2,r0
        0x00005d4c:    d907        ..      BLS      0x5d5e ; rt_mut_release + 202
        0x00005d4e:    4806        .H      LDR      r0,[pc,#24] ; [0x5d68] = 0x200033ac
        0x00005d50:    f000f8dc    ....    BL       rt_put_prio ; 0x5f0c
        0x00005d54:    6828        (h      LDR      r0,[r5,#0]
        0x00005d56:    7046        Fp      STRB     r6,[r0,#1]
        0x00005d58:    2000        .       MOVS     r0,#0
        0x00005d5a:    f7fffd33    ..3.    BL       rt_dispatch ; 0x57c4
        0x00005d5e:    2000        .       MOVS     r0,#0
        0x00005d60:    bdf8        ..      POP      {r3-r7,pc}
    $d
        0x00005d62:    0000        ..      DCW    0
        0x00005d64:    20000144    D..     DCD    536871236
        0x00005d68:    200033ac    .3.     DCD    536884140
    $t
    i.rt_mut_wait
    rt_mut_wait
        0x00005d6c:    b570        p.      PUSH     {r4-r6,lr}
        0x00005d6e:    460e        .F      MOV      r6,r1
        0x00005d70:    4d1c        .M      LDR      r5,[pc,#112] ; [0x5de4] = 0x20000144
        0x00005d72:    4604        .F      MOV      r4,r0
        0x00005d74:    8841        A.      LDRH     r1,[r0,#2]
        0x00005d76:    6828        (h      LDR      r0,[r5,#0]
        0x00005d78:    2900        .)      CMP      r1,#0
        0x00005d7a:    d007        ..      BEQ      0x5d8c ; rt_mut_wait + 32
        0x00005d7c:    68a2        .h      LDR      r2,[r4,#8]
        0x00005d7e:    4282        .B      CMP      r2,r0
        0x00005d80:    d10f        ..      BNE      0x5da2 ; rt_mut_wait + 54
        0x00005d82:    4819        .H      LDR      r0,[pc,#100] ; [0x5de8] = 0xffff
        0x00005d84:    4281        .B      CMP      r1,r0
        0x00005d86:    d108        ..      BNE      0x5d9a ; rt_mut_wait + 46
        0x00005d88:    20ff        .       MOVS     r0,#0xff
        0x00005d8a:    bd70        p.      POP      {r4-r6,pc}
        0x00005d8c:    60a0        .`      STR      r0,[r4,#8]
        0x00005d8e:    6a01        .j      LDR      r1,[r0,#0x20]
        0x00005d90:    60e1        .`      STR      r1,[r4,#0xc]
        0x00005d92:    6204        .b      STR      r4,[r0,#0x20]
        0x00005d94:    2001        .       MOVS     r0,#1
        0x00005d96:    8060        `.      STRH     r0,[r4,#2]
        0x00005d98:    e001        ..      B        0x5d9e ; rt_mut_wait + 50
        0x00005d9a:    1c49        I.      ADDS     r1,r1,#1
        0x00005d9c:    8061        a.      STRH     r1,[r4,#2]
        0x00005d9e:    2000        .       MOVS     r0,#0
        0x00005da0:    bd70        p.      POP      {r4-r6,pc}
        0x00005da2:    2e00        ..      CMP      r6,#0
        0x00005da4:    d00f        ..      BEQ      0x5dc6 ; rt_mut_wait + 90
        0x00005da6:    7891        .x      LDRB     r1,[r2,#2]
        0x00005da8:    7880        .x      LDRB     r0,[r0,#2]
        0x00005daa:    4281        .B      CMP      r1,r0
        0x00005dac:    d203        ..      BCS      0x5db6 ; rt_mut_wait + 74
        0x00005dae:    7090        .p      STRB     r0,[r2,#2]
        0x00005db0:    68a0        .h      LDR      r0,[r4,#8]
        0x00005db2:    f000f8d3    ....    BL       rt_resort_prio ; 0x5f5c
        0x00005db6:    6860        `h      LDR      r0,[r4,#4]
        0x00005db8:    2800        .(      CMP      r0,#0
        0x00005dba:    d006        ..      BEQ      0x5dca ; rt_mut_wait + 94
        0x00005dbc:    4620         F      MOV      r0,r4
        0x00005dbe:    6829        )h      LDR      r1,[r5,#0]
        0x00005dc0:    f000f8a4    ....    BL       rt_put_prio ; 0x5f0c
        0x00005dc4:    e008        ..      B        0x5dd8 ; rt_mut_wait + 108
        0x00005dc6:    2001        .       MOVS     r0,#1
        0x00005dc8:    bd70        p.      POP      {r4-r6,pc}
        0x00005dca:    6828        (h      LDR      r0,[r5,#0]
        0x00005dcc:    6060        ``      STR      r0,[r4,#4]
        0x00005dce:    6829        )h      LDR      r1,[r5,#0]
        0x00005dd0:    2000        .       MOVS     r0,#0
        0x00005dd2:    6048        H`      STR      r0,[r1,#4]
        0x00005dd4:    6828        (h      LDR      r0,[r5,#0]
        0x00005dd6:    6084        .`      STR      r4,[r0,#8]
        0x00005dd8:    2109        .!      MOVS     r1,#9
        0x00005dda:    4630        0F      MOV      r0,r6
        0x00005ddc:    f7fffc7a    ..z.    BL       rt_block ; 0x56d4
        0x00005de0:    e7f1        ..      B        0x5dc6 ; rt_mut_wait + 90
    $d
        0x00005de2:    0000        ..      DCW    0
        0x00005de4:    20000144    D..     DCD    536871236
        0x00005de8:    0000ffff    ....    DCD    65535
    $t
    i.rt_pop_req
    rt_pop_req
        0x00005dec:    b570        p.      PUSH     {r4-r6,lr}
        0x00005dee:    4818        .H      LDR      r0,[pc,#96] ; [0x5e50] = 0x20000144
        0x00005df0:    2101        .!      MOVS     r1,#1
        0x00005df2:    6802        .h      LDR      r2,[r0,#0]
        0x00005df4:    7051        Qp      STRB     r1,[r2,#1]
        0x00005df6:    6800        .h      LDR      r0,[r0,#0]
        0x00005df8:    f000f8a6    ....    BL       rt_put_rdy_first ; 0x5f48
        0x00005dfc:    4c15        .L      LDR      r4,[pc,#84] ; [0x5e54] = 0x200032c8
        0x00005dfe:    7865        ex      LDRB     r5,[r4,#1]
        0x00005e00:    e013        ..      B        0x5e2a ; rt_pop_req + 62
        0x00005e02:    00e8        ..      LSLS     r0,r5,#3
        0x00005e04:    1901        ..      ADDS     r1,r0,r4
        0x00005e06:    6848        Hh      LDR      r0,[r1,#4]
        0x00005e08:    7802        .x      LDRB     r2,[r0,#0]
        0x00005e0a:    2a00        .*      CMP      r2,#0
        0x00005e0c:    d017        ..      BEQ      0x5e3e ; rt_pop_req + 82
        0x00005e0e:    2a01        .*      CMP      r2,#1
        0x00005e10:    d01a        ..      BEQ      0x5e48 ; rt_pop_req + 92
        0x00005e12:    f000f8f1    ....    BL       rt_sem_psh ; 0x5ff8
        0x00005e16:    78e0        .x      LDRB     r0,[r4,#3]
        0x00005e18:    1c6d        m.      ADDS     r5,r5,#1
        0x00005e1a:    4285        .B      CMP      r5,r0
        0x00005e1c:    d100        ..      BNE      0x5e20 ; rt_pop_req + 52
        0x00005e1e:    2500        .%      MOVS     r5,#0
        0x00005e20:    b672        r.      CPSID    i
        0x00005e22:    78a0        .x      LDRB     r0,[r4,#2]
        0x00005e24:    1e40        @.      SUBS     r0,r0,#1
        0x00005e26:    70a0        .p      STRB     r0,[r4,#2]
        0x00005e28:    b662        b.      CPSIE    i
        0x00005e2a:    78a0        .x      LDRB     r0,[r4,#2]
        0x00005e2c:    2800        .(      CMP      r0,#0
        0x00005e2e:    d1e8        ..      BNE      0x5e02 ; rt_pop_req + 22
        0x00005e30:    7065        ep      STRB     r5,[r4,#1]
        0x00005e32:    4809        .H      LDR      r0,[pc,#36] ; [0x5e58] = 0x200033ac
        0x00005e34:    f7fffd9b    ....    BL       rt_get_first ; 0x596e
        0x00005e38:    f000f90c    ....    BL       rt_switch_req ; 0x6054
        0x00005e3c:    bd70        p.      POP      {r4-r6,pc}
        0x00005e3e:    8909        ..      LDRH     r1,[r1,#8]
        0x00005e40:    b289        ..      UXTH     r1,r1
        0x00005e42:    f7fffcf3    ....    BL       rt_evt_psh ; 0x582c
        0x00005e46:    e7e6        ..      B        0x5e16 ; rt_pop_req + 42
        0x00005e48:    6889        .h      LDR      r1,[r1,#8]
        0x00005e4a:    f7fffe39    ..9.    BL       rt_mbx_psh ; 0x5ac0
        0x00005e4e:    e7e2        ..      B        0x5e16 ; rt_pop_req + 42
    $d
        0x00005e50:    20000144    D..     DCD    536871236
        0x00005e54:    200032c8    .2.     DCD    536883912
        0x00005e58:    200033ac    .3.     DCD    536884140
    $t
    i.rt_psh_req
    rt_psh_req
        0x00005e5c:    4805        .H      LDR      r0,[pc,#20] ; [0x5e74] = 0x2000014c
        0x00005e5e:    7801        .x      LDRB     r1,[r0,#0]
        0x00005e60:    2900        .)      CMP      r1,#0
        0x00005e62:    d002        ..      BEQ      0x5e6a ; rt_psh_req + 14
        0x00005e64:    2101        .!      MOVS     r1,#1
        0x00005e66:    7041        Ap      STRB     r1,[r0,#1]
        0x00005e68:    4770        pG      BX       lr
        0x00005e6a:    2001        .       MOVS     r0,#1
        0x00005e6c:    4902        .I      LDR      r1,[pc,#8] ; [0x5e78] = 0xe000ed00
        0x00005e6e:    0700        ..      LSLS     r0,r0,#28
        0x00005e70:    6048        H`      STR      r0,[r1,#4]
        0x00005e72:    4770        pG      BX       lr
    $d
        0x00005e74:    2000014c    L..     DCD    536871244
        0x00005e78:    e000ed00    ....    DCD    3758157056
    $t
    i.rt_psq_enq
    rt_psq_enq
        0x00005e7c:    b570        p.      PUSH     {r4-r6,lr}
        0x00005e7e:    4b0e        .K      LDR      r3,[pc,#56] ; [0x5eb8] = 0x200032c8
        0x00005e80:    78dd        .x      LDRB     r5,[r3,#3]
        0x00005e82:    1c9c        ..      ADDS     r4,r3,#2
        0x00005e84:    461e        .F      MOV      r6,r3
        0x00005e86:    b672        r.      CPSID    i
        0x00005e88:    789a        .x      LDRB     r2,[r3,#2]
        0x00005e8a:    42aa        .B      CMP      r2,r5
        0x00005e8c:    d207        ..      BCS      0x5e9e ; rt_psq_enq + 34
        0x00005e8e:    1c52        R.      ADDS     r2,r2,#1
        0x00005e90:    7022        "p      STRB     r2,[r4,#0]
        0x00005e92:    7832        2x      LDRB     r2,[r6,#0]
        0x00005e94:    1c54        T.      ADDS     r4,r2,#1
        0x00005e96:    42ac        .B      CMP      r4,r5
        0x00005e98:    d100        ..      BNE      0x5e9c ; rt_psq_enq + 32
        0x00005e9a:    2400        .$      MOVS     r4,#0
        0x00005e9c:    7034        4p      STRB     r4,[r6,#0]
        0x00005e9e:    b662        b.      CPSIE    i
        0x00005ea0:    78dc        .x      LDRB     r4,[r3,#3]
        0x00005ea2:    4294        .B      CMP      r4,r2
        0x00005ea4:    d904        ..      BLS      0x5eb0 ; rt_psq_enq + 52
        0x00005ea6:    00d2        ..      LSLS     r2,r2,#3
        0x00005ea8:    18d2        ..      ADDS     r2,r2,r3
        0x00005eaa:    6091        .`      STR      r1,[r2,#8]
        0x00005eac:    6050        P`      STR      r0,[r2,#4]
        0x00005eae:    bd70        p.      POP      {r4-r6,pc}
        0x00005eb0:    2002        .       MOVS     r0,#2
        0x00005eb2:    f7fdfeb9    ....    BL       os_error ; 0x3c28
        0x00005eb6:    bd70        p.      POP      {r4-r6,pc}
    $d
        0x00005eb8:    200032c8    .2.     DCD    536883912
    $t
    i.rt_put_dly
    rt_put_dly
        0x00005ebc:    b510        ..      PUSH     {r4,lr}
        0x00005ebe:    4a12        .J      LDR      r2,[pc,#72] ; [0x5f08] = 0x200033c4
        0x00005ec0:    68d3        .h      LDR      r3,[r2,#0xc]
        0x00005ec2:    2b00        .+      CMP      r3,#0
        0x00005ec4:    d017        ..      BEQ      0x5ef6 ; rt_put_dly + 58
        0x00005ec6:    4613        .F      MOV      r3,r2
        0x00005ec8:    8a9b        ..      LDRH     r3,[r3,#0x14]
        0x00005eca:    e004        ..      B        0x5ed6 ; rt_put_dly + 26
        0x00005ecc:    2c00        .,      CMP      r4,#0
        0x00005ece:    d012        ..      BEQ      0x5ef6 ; rt_put_dly + 58
        0x00005ed0:    4622        "F      MOV      r2,r4
        0x00005ed2:    8aa4        ..      LDRH     r4,[r4,#0x14]
        0x00005ed4:    18e3        ..      ADDS     r3,r4,r3
        0x00005ed6:    68d4        .h      LDR      r4,[r2,#0xc]
        0x00005ed8:    428b        .B      CMP      r3,r1
        0x00005eda:    d3f7        ..      BCC      0x5ecc ; rt_put_dly + 16
        0x00005edc:    60c4        .`      STR      r4,[r0,#0xc]
        0x00005ede:    60d0        .`      STR      r0,[r2,#0xc]
        0x00005ee0:    6102        .a      STR      r2,[r0,#0x10]
        0x00005ee2:    68c4        .h      LDR      r4,[r0,#0xc]
        0x00005ee4:    2c00        .,      CMP      r4,#0
        0x00005ee6:    d000        ..      BEQ      0x5eea ; rt_put_dly + 46
        0x00005ee8:    6120         a      STR      r0,[r4,#0x10]
        0x00005eea:    1a59        Y.      SUBS     r1,r3,r1
        0x00005eec:    8281        ..      STRH     r1,[r0,#0x14]
        0x00005eee:    8a90        ..      LDRH     r0,[r2,#0x14]
        0x00005ef0:    1a40        @.      SUBS     r0,r0,r1
        0x00005ef2:    8290        ..      STRH     r0,[r2,#0x14]
        0x00005ef4:    bd10        ..      POP      {r4,pc}
        0x00005ef6:    2400        .$      MOVS     r4,#0
        0x00005ef8:    60c4        .`      STR      r4,[r0,#0xc]
        0x00005efa:    60d0        .`      STR      r0,[r2,#0xc]
        0x00005efc:    1ac9        ..      SUBS     r1,r1,r3
        0x00005efe:    6102        .a      STR      r2,[r0,#0x10]
        0x00005f00:    8291        ..      STRH     r1,[r2,#0x14]
        0x00005f02:    8284        ..      STRH     r4,[r0,#0x14]
        0x00005f04:    bd10        ..      POP      {r4,pc}
    $d
        0x00005f06:    0000        ..      DCW    0
        0x00005f08:    200033c4    .3.     DCD    536884164
    $t
    i.rt_put_prio
    rt_put_prio
        0x00005f0c:    b530        0.      PUSH     {r4,r5,lr}
        0x00005f0e:    7802        .x      LDRB     r2,[r0,#0]
        0x00005f10:    2300        .#      MOVS     r3,#0
        0x00005f12:    2a02        .*      CMP      r2,#2
        0x00005f14:    d003        ..      BEQ      0x5f1e ; rt_put_prio + 18
        0x00005f16:    2a01        .*      CMP      r2,#1
        0x00005f18:    d001        ..      BEQ      0x5f1e ; rt_put_prio + 18
        0x00005f1a:    2a03        .*      CMP      r2,#3
        0x00005f1c:    d100        ..      BNE      0x5f20 ; rt_put_prio + 20
        0x00005f1e:    2301        .#      MOVS     r3,#1
        0x00005f20:    788c        .x      LDRB     r4,[r1,#2]
        0x00005f22:    e000        ..      B        0x5f26 ; rt_put_prio + 26
        0x00005f24:    4610        .F      MOV      r0,r2
        0x00005f26:    6842        Bh      LDR      r2,[r0,#4]
        0x00005f28:    2a00        .*      CMP      r2,#0
        0x00005f2a:    d002        ..      BEQ      0x5f32 ; rt_put_prio + 38
        0x00005f2c:    7895        .x      LDRB     r5,[r2,#2]
        0x00005f2e:    42a5        .B      CMP      r5,r4
        0x00005f30:    d2f8        ..      BCS      0x5f24 ; rt_put_prio + 24
        0x00005f32:    604a        J`      STR      r2,[r1,#4]
        0x00005f34:    6041        A`      STR      r1,[r0,#4]
        0x00005f36:    2b00        .+      CMP      r3,#0
        0x00005f38:    d004        ..      BEQ      0x5f44 ; rt_put_prio + 56
        0x00005f3a:    2a00        .*      CMP      r2,#0
        0x00005f3c:    d000        ..      BEQ      0x5f40 ; rt_put_prio + 52
        0x00005f3e:    6091        .`      STR      r1,[r2,#8]
        0x00005f40:    6088        .`      STR      r0,[r1,#8]
        0x00005f42:    bd30        0.      POP      {r4,r5,pc}
        0x00005f44:    2000        .       MOVS     r0,#0
        0x00005f46:    e7fb        ..      B        0x5f40 ; rt_put_prio + 52
    i.rt_put_rdy_first
    rt_put_rdy_first
        0x00005f48:    4903        .I      LDR      r1,[pc,#12] ; [0x5f58] = 0x200033ac
        0x00005f4a:    684a        Jh      LDR      r2,[r1,#4]
        0x00005f4c:    6042        B`      STR      r2,[r0,#4]
        0x00005f4e:    2200        ."      MOVS     r2,#0
        0x00005f50:    6082        .`      STR      r2,[r0,#8]
        0x00005f52:    6048        H`      STR      r0,[r1,#4]
        0x00005f54:    4770        pG      BX       lr
    $d
        0x00005f56:    0000        ..      DCW    0
        0x00005f58:    200033ac    .3.     DCD    536884140
    $t
    i.rt_resort_prio
    rt_resort_prio
        0x00005f5c:    b510        ..      PUSH     {r4,lr}
        0x00005f5e:    6883        .h      LDR      r3,[r0,#8]
        0x00005f60:    4604        .F      MOV      r4,r0
        0x00005f62:    2b00        .+      CMP      r3,#0
        0x00005f64:    d105        ..      BNE      0x5f72 ; rt_resort_prio + 22
        0x00005f66:    7860        `x      LDRB     r0,[r4,#1]
        0x00005f68:    2801        .(      CMP      r0,#1
        0x00005f6a:    d10c        ..      BNE      0x5f86 ; rt_resort_prio + 42
        0x00005f6c:    4b06        .K      LDR      r3,[pc,#24] ; [0x5f88] = 0x200033ac
        0x00005f6e:    e003        ..      B        0x5f78 ; rt_resort_prio + 28
        0x00005f70:    689b        .h      LDR      r3,[r3,#8]
        0x00005f72:    7818        .x      LDRB     r0,[r3,#0]
        0x00005f74:    2800        .(      CMP      r0,#0
        0x00005f76:    d0fb        ..      BEQ      0x5f70 ; rt_resort_prio + 20
        0x00005f78:    4620         F      MOV      r0,r4
        0x00005f7a:    f000f823    ..#.    BL       rt_rmv_list ; 0x5fc4
        0x00005f7e:    4621        !F      MOV      r1,r4
        0x00005f80:    4618        .F      MOV      r0,r3
        0x00005f82:    f7ffffc3    ....    BL       rt_put_prio ; 0x5f0c
        0x00005f86:    bd10        ..      POP      {r4,pc}
    $d
        0x00005f88:    200033ac    .3.     DCD    536884140
    $t
    i.rt_ret_val
    rt_ret_val
        0x00005f8c:    6a80        .j      LDR      r0,[r0,#0x28]
        0x00005f8e:    6201        .b      STR      r1,[r0,#0x20]
        0x00005f90:    4770        pG      BX       lr
    i.rt_ret_val2
    rt_ret_val2
        0x00005f92:    6a80        .j      LDR      r0,[r0,#0x28]
        0x00005f94:    6242        Bb      STR      r2,[r0,#0x24]
        0x00005f96:    6201        .b      STR      r1,[r0,#0x20]
        0x00005f98:    4770        pG      BX       lr
    i.rt_rmv_dly
    rt_rmv_dly
        0x00005f9a:    b510        ..      PUSH     {r4,lr}
        0x00005f9c:    6901        .i      LDR      r1,[r0,#0x10]
        0x00005f9e:    2900        .)      CMP      r1,#0
        0x00005fa0:    d00f        ..      BEQ      0x5fc2 ; rt_rmv_dly + 40
        0x00005fa2:    68c2        .h      LDR      r2,[r0,#0xc]
        0x00005fa4:    60ca        .`      STR      r2,[r1,#0xc]
        0x00005fa6:    68c3        .h      LDR      r3,[r0,#0xc]
        0x00005fa8:    2200        ."      MOVS     r2,#0
        0x00005faa:    2b00        .+      CMP      r3,#0
        0x00005fac:    d007        ..      BEQ      0x5fbe ; rt_rmv_dly + 36
        0x00005fae:    8a8b        ..      LDRH     r3,[r1,#0x14]
        0x00005fb0:    8a84        ..      LDRH     r4,[r0,#0x14]
        0x00005fb2:    191b        ..      ADDS     r3,r3,r4
        0x00005fb4:    828b        ..      STRH     r3,[r1,#0x14]
        0x00005fb6:    68c3        .h      LDR      r3,[r0,#0xc]
        0x00005fb8:    6119        .a      STR      r1,[r3,#0x10]
        0x00005fba:    60c2        .`      STR      r2,[r0,#0xc]
        0x00005fbc:    e000        ..      B        0x5fc0 ; rt_rmv_dly + 38
        0x00005fbe:    828a        ..      STRH     r2,[r1,#0x14]
        0x00005fc0:    6102        .a      STR      r2,[r0,#0x10]
        0x00005fc2:    bd10        ..      POP      {r4,pc}
    i.rt_rmv_list
    rt_rmv_list
        0x00005fc4:    6881        .h      LDR      r1,[r0,#8]
        0x00005fc6:    2900        .)      CMP      r1,#0
        0x00005fc8:    d007        ..      BEQ      0x5fda ; rt_rmv_list + 22
        0x00005fca:    6842        Bh      LDR      r2,[r0,#4]
        0x00005fcc:    604a        J`      STR      r2,[r1,#4]
        0x00005fce:    6841        Ah      LDR      r1,[r0,#4]
        0x00005fd0:    2900        .)      CMP      r1,#0
        0x00005fd2:    d001        ..      BEQ      0x5fd8 ; rt_rmv_list + 20
        0x00005fd4:    6880        .h      LDR      r0,[r0,#8]
        0x00005fd6:    6088        .`      STR      r0,[r1,#8]
        0x00005fd8:    4770        pG      BX       lr
        0x00005fda:    4906        .I      LDR      r1,[pc,#24] ; [0x5ff4] = 0x200033ac
        0x00005fdc:    e006        ..      B        0x5fec ; rt_rmv_list + 40
        0x00005fde:    684a        Jh      LDR      r2,[r1,#4]
        0x00005fe0:    4282        .B      CMP      r2,r0
        0x00005fe2:    d102        ..      BNE      0x5fea ; rt_rmv_list + 38
        0x00005fe4:    6840        @h      LDR      r0,[r0,#4]
        0x00005fe6:    6048        H`      STR      r0,[r1,#4]
        0x00005fe8:    4770        pG      BX       lr
        0x00005fea:    4611        .F      MOV      r1,r2
        0x00005fec:    2900        .)      CMP      r1,#0
        0x00005fee:    d1f6        ..      BNE      0x5fde ; rt_rmv_list + 26
        0x00005ff0:    4770        pG      BX       lr
    $d
        0x00005ff2:    0000        ..      DCW    0
        0x00005ff4:    200033ac    .3.     DCD    536884140
    $t
    i.rt_sem_psh
    rt_sem_psh
        0x00005ff8:    b510        ..      PUSH     {r4,lr}
        0x00005ffa:    6841        Ah      LDR      r1,[r0,#4]
        0x00005ffc:    2900        .)      CMP      r1,#0
        0x00005ffe:    d00f        ..      BEQ      0x6020 ; rt_sem_psh + 40
        0x00006000:    f7fffcb5    ....    BL       rt_get_first ; 0x596e
        0x00006004:    4604        .F      MOV      r4,r0
        0x00006006:    f7ffffc8    ....    BL       rt_rmv_dly ; 0x5f9a
        0x0000600a:    2001        .       MOVS     r0,#1
        0x0000600c:    7060        `p      STRB     r0,[r4,#1]
        0x0000600e:    4601        .F      MOV      r1,r0
        0x00006010:    4620         F      MOV      r0,r4
        0x00006012:    f7ffffbb    ....    BL       rt_ret_val ; 0x5f8c
        0x00006016:    4621        !F      MOV      r1,r4
        0x00006018:    4803        .H      LDR      r0,[pc,#12] ; [0x6028] = 0x200033ac
        0x0000601a:    f7ffff77    ..w.    BL       rt_put_prio ; 0x5f0c
        0x0000601e:    bd10        ..      POP      {r4,pc}
        0x00006020:    8841        A.      LDRH     r1,[r0,#2]
        0x00006022:    1c49        I.      ADDS     r1,r1,#1
        0x00006024:    8041        A.      STRH     r1,[r0,#2]
        0x00006026:    bd10        ..      POP      {r4,pc}
    $d
        0x00006028:    200033ac    .3.     DCD    536884140
    $t
    i.rt_stk_check
    rt_stk_check
        0x0000602c:    b510        ..      PUSH     {r4,lr}
        0x0000602e:    4807        .H      LDR      r0,[pc,#28] ; [0x604c] = 0x20000144
        0x00006030:    6800        .h      LDR      r0,[r0,#0]
        0x00006032:    6a81        .j      LDR      r1,[r0,#0x28]
        0x00006034:    6ac0        .j      LDR      r0,[r0,#0x2c]
        0x00006036:    4281        .B      CMP      r1,r0
        0x00006038:    d303        ..      BCC      0x6042 ; rt_stk_check + 22
        0x0000603a:    6800        .h      LDR      r0,[r0,#0]
        0x0000603c:    4904        .I      LDR      r1,[pc,#16] ; [0x6050] = 0xe25a2ea5
        0x0000603e:    4288        .B      CMP      r0,r1
        0x00006040:    d002        ..      BEQ      0x6048 ; rt_stk_check + 28
        0x00006042:    2001        .       MOVS     r0,#1
        0x00006044:    f7fdfdf0    ....    BL       os_error ; 0x3c28
        0x00006048:    bd10        ..      POP      {r4,pc}
    $d
        0x0000604a:    0000        ..      DCW    0
        0x0000604c:    20000144    D..     DCD    536871236
        0x00006050:    e25a2ea5    ..Z.    DCD    3797560997
    $t
    i.rt_switch_req
    rt_switch_req
        0x00006054:    4902        .I      LDR      r1,[pc,#8] ; [0x6060] = 0x20000144
        0x00006056:    6048        H`      STR      r0,[r1,#4]
        0x00006058:    2102        .!      MOVS     r1,#2
        0x0000605a:    7041        Ap      STRB     r1,[r0,#1]
        0x0000605c:    4770        pG      BX       lr
    $d
        0x0000605e:    0000        ..      DCW    0
        0x00006060:    20000144    D..     DCD    536871236
    $t
    i.rt_sys_init
    rt_sys_init
        0x00006064:    b570        p.      PUSH     {r4-r6,lr}
        0x00006066:    2000        .       MOVS     r0,#0
        0x00006068:    4604        .F      MOV      r4,r0
        0x0000606a:    4920         I      LDR      r1,[pc,#128] ; [0x60ec] = 0x2000334c
        0x0000606c:    4a20         J      LDR      r2,[pc,#128] ; [0x60f0] = 0x6994
        0x0000606e:    e002        ..      B        0x6076 ; rt_sys_init + 18
        0x00006070:    0083        ..      LSLS     r3,r0,#2
        0x00006072:    50cc        .P      STR      r4,[r1,r3]
        0x00006074:    1c40        @.      ADDS     r0,r0,#1
        0x00006076:    8813        ..      LDRH     r3,[r2,#0]
        0x00006078:    4298        .B      CMP      r0,r3
        0x0000607a:    d3f9        ..      BCC      0x6070 ; rt_sys_init + 12
        0x0000607c:    481d        .H      LDR      r0,[pc,#116] ; [0x60f4] = 0x69c0
        0x0000607e:    2234        4"      MOVS     r2,#0x34
        0x00006080:    8801        ..      LDRH     r1,[r0,#0]
        0x00006082:    481d        .H      LDR      r0,[pc,#116] ; [0x60f8] = 0x20001430
        0x00006084:    f7fefbda    ....    BL       _init_box ; 0x483c
        0x00006088:    481c        .H      LDR      r0,[pc,#112] ; [0x60fc] = 0x6998
        0x0000608a:    2101        .!      MOVS     r1,#1
        0x0000608c:    8800        ..      LDRH     r0,[r0,#0]
        0x0000608e:    07c9        ..      LSLS     r1,r1,#31
        0x00006090:    b280        ..      UXTH     r0,r0
        0x00006092:    1842        B.      ADDS     r2,r0,r1
        0x00006094:    481a        .H      LDR      r0,[pc,#104] ; [0x6100] = 0x69c4
        0x00006096:    6801        .h      LDR      r1,[r0,#0]
        0x00006098:    481a        .H      LDR      r0,[pc,#104] ; [0x6104] = 0x200014d8
        0x0000609a:    f7fefbcf    ....    BL       _init_box ; 0x483c
        0x0000609e:    481a        .H      LDR      r0,[pc,#104] ; [0x6108] = 0x69e8
        0x000060a0:    2208        ."      MOVS     r2,#8
        0x000060a2:    8801        ..      LDRH     r1,[r0,#0]
        0x000060a4:    4819        .H      LDR      r0,[pc,#100] ; [0x610c] = 0x20000138
        0x000060a6:    6800        .h      LDR      r0,[r0,#0]
        0x000060a8:    f7fefbc8    ....    BL       _init_box ; 0x483c
        0x000060ac:    4d18        .M      LDR      r5,[pc,#96] ; [0x6110] = 0x20003378
        0x000060ae:    20ff        .       MOVS     r0,#0xff
        0x000060b0:    70e8        .p      STRB     r0,[r5,#3]
        0x000060b2:    84ec        ..      STRH     r4,[r5,#0x26]
        0x000060b4:    4a17        .J      LDR      r2,[pc,#92] ; [0x6114] = 0x3c25
        0x000060b6:    2100        .!      MOVS     r1,#0
        0x000060b8:    4628        (F      MOV      r0,r5
        0x000060ba:    f7fffc71    ..q.    BL       rt_init_context ; 0x59a0
        0x000060be:    4816        .H      LDR      r0,[pc,#88] ; [0x6118] = 0x200033ac
        0x000060c0:    2104        .!      MOVS     r1,#4
        0x000060c2:    7001        .p      STRB     r1,[r0,#0]
        0x000060c4:    6044        D`      STR      r4,[r0,#4]
        0x000060c6:    4815        .H      LDR      r0,[pc,#84] ; [0x611c] = 0x200033c4
        0x000060c8:    7001        .p      STRB     r1,[r0,#0]
        0x000060ca:    60c4        .`      STR      r4,[r0,#0xc]
        0x000060cc:    6104        .a      STR      r4,[r0,#0x10]
        0x000060ce:    8284        ..      STRH     r4,[r0,#0x14]
        0x000060d0:    4813        .H      LDR      r0,[pc,#76] ; [0x6120] = 0x20000144
        0x000060d2:    4915        .I      LDR      r1,[pc,#84] ; [0x6128] = 0x69cc
        0x000060d4:    6005        .`      STR      r5,[r0,#0]
        0x000060d6:    2002        .       MOVS     r0,#2
        0x000060d8:    7068        hp      STRB     r0,[r5,#1]
        0x000060da:    4812        .H      LDR      r0,[pc,#72] ; [0x6124] = 0x200032c8
        0x000060dc:    7004        .p      STRB     r4,[r0,#0]
        0x000060de:    7044        Dp      STRB     r4,[r0,#1]
        0x000060e0:    7809        .x      LDRB     r1,[r1,#0]
        0x000060e2:    70c1        .p      STRB     r1,[r0,#3]
        0x000060e4:    f7fffc8e    ....    BL       rt_init_robin ; 0x5a04
        0x000060e8:    bd70        p.      POP      {r4-r6,pc}
    $d
        0x000060ea:    0000        ..      DCW    0
        0x000060ec:    2000334c    L3.     DCD    536884044
        0x000060f0:    00006994    .i..    DCD    27028
        0x000060f4:    000069c0    .i..    DCD    27072
        0x000060f8:    20001430    0..     DCD    536876080
        0x000060fc:    00006998    .i..    DCD    27032
        0x00006100:    000069c4    .i..    DCD    27076
        0x00006104:    200014d8    ...     DCD    536876248
        0x00006108:    000069e8    .i..    DCD    27112
        0x0000610c:    20000138    8..     DCD    536871224
        0x00006110:    20003378    x3.     DCD    536884088
        0x00006114:    00003c25    %<..    DCD    15397
        0x00006118:    200033ac    .3.     DCD    536884140
        0x0000611c:    200033c4    .3.     DCD    536884164
        0x00006120:    20000144    D..     DCD    536871236
        0x00006124:    200032c8    .2.     DCD    536883912
        0x00006128:    000069cc    .i..    DCD    27084
    $t
    i.rt_sys_start
    rt_sys_start
        0x0000612c:    b510        ..      PUSH     {r4,lr}
        0x0000612e:    4814        .H      LDR      r0,[pc,#80] ; [0x6180] = 0xe000ed00
        0x00006130:    6a01        .j      LDR      r1,[r0,#0x20]
        0x00006132:    22ff        ."      MOVS     r2,#0xff
        0x00006134:    0412        ..      LSLS     r2,r2,#16
        0x00006136:    4311        .C      ORRS     r1,r1,r2
        0x00006138:    6201        .b      STR      r1,[r0,#0x20]
        0x0000613a:    69c1        .i      LDR      r1,[r0,#0x1c]
        0x0000613c:    6a02        .j      LDR      r2,[r0,#0x20]
        0x0000613e:    0252        R.      LSLS     r2,r2,#9
        0x00006140:    0e92        ..      LSRS     r2,r2,#26
        0x00006142:    0692        ..      LSLS     r2,r2,#26
        0x00006144:    4311        .C      ORRS     r1,r1,r2
        0x00006146:    61c1        .a      STR      r1,[r0,#0x1c]
        0x00006148:    f7fffa2c    ..,.    BL       os_tick_init ; 0x55a4
        0x0000614c:    490d        .I      LDR      r1,[pc,#52] ; [0x6184] = 0x20000150
        0x0000614e:    2800        .(      CMP      r0,#0
        0x00006150:    6008        .`      STR      r0,[r1,#0]
        0x00006152:    db13        ..      BLT      0x617c ; rt_sys_start + 80
        0x00006154:    0882        ..      LSRS     r2,r0,#2
        0x00006156:    490c        .I      LDR      r1,[pc,#48] ; [0x6188] = 0xe000e400
        0x00006158:    0092        ..      LSLS     r2,r2,#2
        0x0000615a:    1851        Q.      ADDS     r1,r2,r1
        0x0000615c:    680a        .h      LDR      r2,[r1,#0]
        0x0000615e:    0783        ..      LSLS     r3,r0,#30
        0x00006160:    0edc        ..      LSRS     r4,r3,#27
        0x00006162:    23ff        .#      MOVS     r3,#0xff
        0x00006164:    40a3        .@      LSLS     r3,r3,r4
        0x00006166:    431a        .C      ORRS     r2,r2,r3
        0x00006168:    600a        .`      STR      r2,[r1,#0]
        0x0000616a:    06c2        ..      LSLS     r2,r0,#27
        0x0000616c:    0ed2        ..      LSRS     r2,r2,#27
        0x0000616e:    2101        .!      MOVS     r1,#1
        0x00006170:    4091        .@      LSLS     r1,r1,r2
        0x00006172:    0940        @.      LSRS     r0,r0,#5
        0x00006174:    4a05        .J      LDR      r2,[pc,#20] ; [0x618c] = 0xe000e100
        0x00006176:    0080        ..      LSLS     r0,r0,#2
        0x00006178:    1880        ..      ADDS     r0,r0,r2
        0x0000617a:    6001        .`      STR      r1,[r0,#0]
        0x0000617c:    bd10        ..      POP      {r4,pc}
    $d
        0x0000617e:    0000        ..      DCW    0
        0x00006180:    e000ed00    ....    DCD    3758157056
        0x00006184:    20000150    P..     DCD    536871248
        0x00006188:    e000e400    ....    DCD    3758154752
        0x0000618c:    e000e100    ....    DCD    3758153984
    $t
    i.rt_systick
    rt_systick
        0x00006190:    b510        ..      PUSH     {r4,lr}
        0x00006192:    480b        .H      LDR      r0,[pc,#44] ; [0x61c0] = 0x20000144
        0x00006194:    2101        .!      MOVS     r1,#1
        0x00006196:    6802        .h      LDR      r2,[r0,#0]
        0x00006198:    7051        Qp      STRB     r1,[r2,#1]
        0x0000619a:    6800        .h      LDR      r0,[r0,#0]
        0x0000619c:    f7fffed4    ....    BL       rt_put_rdy_first ; 0x5f48
        0x000061a0:    f7fffab4    ....    BL       rt_chk_robin ; 0x570c
        0x000061a4:    4807        .H      LDR      r0,[pc,#28] ; [0x61c4] = 0x20000154
        0x000061a6:    6801        .h      LDR      r1,[r0,#0]
        0x000061a8:    1c49        I.      ADDS     r1,r1,#1
        0x000061aa:    6001        .`      STR      r1,[r0,#0]
        0x000061ac:    f7fffad0    ....    BL       rt_dec_dly ; 0x5750
        0x000061b0:    f000fb8e    ....    BL       sysTimerTick ; 0x68d0
        0x000061b4:    4804        .H      LDR      r0,[pc,#16] ; [0x61c8] = 0x200033ac
        0x000061b6:    f7fffbda    ....    BL       rt_get_first ; 0x596e
        0x000061ba:    f7ffff4b    ..K.    BL       rt_switch_req ; 0x6054
        0x000061be:    bd10        ..      POP      {r4,pc}
    $d
        0x000061c0:    20000144    D..     DCD    536871236
        0x000061c4:    20000154    T..     DCD    536871252
        0x000061c8:    200033ac    .3.     DCD    536884140
    $t
    i.rt_tid2ptcb
    rt_tid2ptcb
        0x000061cc:    2800        .(      CMP      r0,#0
        0x000061ce:    d005        ..      BEQ      0x61dc ; rt_tid2ptcb + 16
        0x000061d0:    0781        ..      LSLS     r1,r0,#30
        0x000061d2:    d102        ..      BNE      0x61da ; rt_tid2ptcb + 14
        0x000061d4:    7801        .x      LDRB     r1,[r0,#0]
        0x000061d6:    2900        .)      CMP      r1,#0
        0x000061d8:    d000        ..      BEQ      0x61dc ; rt_tid2ptcb + 16
        0x000061da:    2000        .       MOVS     r0,#0
        0x000061dc:    4770        pG      BX       lr
        0x000061de:    0000        ..      MOVS     r0,r0
    i.rt_timer_insert
    rt_timer_insert
        0x000061e0:    b530        0.      PUSH     {r4,r5,lr}
        0x000061e2:    4c0c        .L      LDR      r4,[pc,#48] ; [0x6214] = 0x2000013c
        0x000061e4:    2300        .#      MOVS     r3,#0
        0x000061e6:    6862        bh      LDR      r2,[r4,#4]
        0x000061e8:    e005        ..      B        0x61f6 ; rt_timer_insert + 22
        0x000061ea:    6895        .h      LDR      r5,[r2,#8]
        0x000061ec:    428d        .B      CMP      r5,r1
        0x000061ee:    d804        ..      BHI      0x61fa ; rt_timer_insert + 26
        0x000061f0:    4613        .F      MOV      r3,r2
        0x000061f2:    6812        .h      LDR      r2,[r2,#0]
        0x000061f4:    1b49        I.      SUBS     r1,r1,r5
        0x000061f6:    2a00        .*      CMP      r2,#0
        0x000061f8:    d1f7        ..      BNE      0x61ea ; rt_timer_insert + 10
        0x000061fa:    6002        .`      STR      r2,[r0,#0]
        0x000061fc:    6081        .`      STR      r1,[r0,#8]
        0x000061fe:    2a00        .*      CMP      r2,#0
        0x00006200:    d002        ..      BEQ      0x6208 ; rt_timer_insert + 40
        0x00006202:    6895        .h      LDR      r5,[r2,#8]
        0x00006204:    1a69        i.      SUBS     r1,r5,r1
        0x00006206:    6091        .`      STR      r1,[r2,#8]
        0x00006208:    2b00        .+      CMP      r3,#0
        0x0000620a:    d001        ..      BEQ      0x6210 ; rt_timer_insert + 48
        0x0000620c:    6018        .`      STR      r0,[r3,#0]
        0x0000620e:    bd30        0.      POP      {r4,r5,pc}
        0x00006210:    6060        ``      STR      r0,[r4,#4]
        0x00006212:    bd30        0.      POP      {r4,r5,pc}
    $d
        0x00006214:    2000013c    <..     DCD    536871228
    $t
    i.rt_timer_remove
    rt_timer_remove
        0x00006218:    4b0f        .K      LDR      r3,[pc,#60] ; [0x6258] = 0x2000013c
        0x0000621a:    2200        ."      MOVS     r2,#0
        0x0000621c:    6859        Yh      LDR      r1,[r3,#4]
        0x0000621e:    e003        ..      B        0x6228 ; rt_timer_remove + 16
        0x00006220:    4281        .B      CMP      r1,r0
        0x00006222:    d004        ..      BEQ      0x622e ; rt_timer_remove + 22
        0x00006224:    460a        .F      MOV      r2,r1
        0x00006226:    6809        .h      LDR      r1,[r1,#0]
        0x00006228:    2900        .)      CMP      r1,#0
        0x0000622a:    d1f9        ..      BNE      0x6220 ; rt_timer_remove + 8
        0x0000622c:    e006        ..      B        0x623c ; rt_timer_remove + 36
        0x0000622e:    2900        .)      CMP      r1,#0
        0x00006230:    d004        ..      BEQ      0x623c ; rt_timer_remove + 36
        0x00006232:    6801        .h      LDR      r1,[r0,#0]
        0x00006234:    2a00        .*      CMP      r2,#0
        0x00006236:    d004        ..      BEQ      0x6242 ; rt_timer_remove + 42
        0x00006238:    6011        .`      STR      r1,[r2,#0]
        0x0000623a:    e003        ..      B        0x6244 ; rt_timer_remove + 44
        0x0000623c:    2000        .       MOVS     r0,#0
        0x0000623e:    43c0        .C      MVNS     r0,r0
        0x00006240:    4770        pG      BX       lr
        0x00006242:    6059        Y`      STR      r1,[r3,#4]
        0x00006244:    6801        .h      LDR      r1,[r0,#0]
        0x00006246:    2900        .)      CMP      r1,#0
        0x00006248:    d003        ..      BEQ      0x6252 ; rt_timer_remove + 58
        0x0000624a:    688a        .h      LDR      r2,[r1,#8]
        0x0000624c:    6880        .h      LDR      r0,[r0,#8]
        0x0000624e:    1810        ..      ADDS     r0,r2,r0
        0x00006250:    6088        .`      STR      r0,[r1,#8]
        0x00006252:    2000        .       MOVS     r0,#0
        0x00006254:    4770        pG      BX       lr
    $d
        0x00006256:    0000        ..      DCW    0
        0x00006258:    2000013c    <..     DCD    536871228
    $t
    i.rt_tsk_create
    rt_tsk_create
        0x0000625c:    b5ff        ..      PUSH     {r0-r7,lr}
        0x0000625e:    0608        ..      LSLS     r0,r1,#24
        0x00006260:    b081        ..      SUB      sp,sp,#4
        0x00006262:    461e        .F      MOV      r6,r3
        0x00006264:    4617        .F      MOV      r7,r2
        0x00006266:    460d        .F      MOV      r5,r1
        0x00006268:    0e00        ..      LSRS     r0,r0,#24
        0x0000626a:    d100        ..      BNE      0x626e ; rt_tsk_create + 18
        0x0000626c:    1c4d        M.      ADDS     r5,r1,#1
        0x0000626e:    4816        .H      LDR      r0,[pc,#88] ; [0x62c8] = 0x20001430
        0x00006270:    f7fffa00    ....    BL       rt_alloc_box ; 0x5674
        0x00006274:    1e04        ..      SUBS     r4,r0,#0
        0x00006276:    d018        ..      BEQ      0x62aa ; rt_tsk_create + 78
        0x00006278:    0228        (.      LSLS     r0,r5,#8
        0x0000627a:    0c00        ..      LSRS     r0,r0,#16
        0x0000627c:    62e7        .b      STR      r7,[r4,#0x2c]
        0x0000627e:    84e0        ..      STRH     r0,[r4,#0x26]
        0x00006280:    61e6        .a      STR      r6,[r4,#0x1c]
        0x00006282:    b2e9        ..      UXTB     r1,r5
        0x00006284:    4620         F      MOV      r0,r4
        0x00006286:    9a01        ..      LDR      r2,[sp,#4]
        0x00006288:    f7fffb8a    ....    BL       rt_init_context ; 0x59a0
        0x0000628c:    2501        .%      MOVS     r5,#1
        0x0000628e:    480f        .H      LDR      r0,[pc,#60] ; [0x62cc] = 0x2000334c
        0x00006290:    490f        .I      LDR      r1,[pc,#60] ; [0x62d0] = 0x6994
        0x00006292:    e006        ..      B        0x62a2 ; rt_tsk_create + 70
        0x00006294:    00aa        ..      LSLS     r2,r5,#2
        0x00006296:    1812        ..      ADDS     r2,r2,r0
        0x00006298:    3a80        .:      SUBS     r2,r2,#0x80
        0x0000629a:    6fd2        .o      LDR      r2,[r2,#0x7c]
        0x0000629c:    2a00        .*      CMP      r2,#0
        0x0000629e:    d006        ..      BEQ      0x62ae ; rt_tsk_create + 82
        0x000062a0:    1c6d        m.      ADDS     r5,r5,#1
        0x000062a2:    880a        ..      LDRH     r2,[r1,#0]
        0x000062a4:    4295        .B      CMP      r5,r2
        0x000062a6:    d9f5        ..      BLS      0x6294 ; rt_tsk_create + 56
        0x000062a8:    2000        .       MOVS     r0,#0
        0x000062aa:    b005        ..      ADD      sp,sp,#0x14
        0x000062ac:    bdf0        ..      POP      {r4-r7,pc}
        0x000062ae:    2d00        .-      CMP      r5,#0
        0x000062b0:    d0fa        ..      BEQ      0x62a8 ; rt_tsk_create + 76
        0x000062b2:    00a9        ..      LSLS     r1,r5,#2
        0x000062b4:    1808        ..      ADDS     r0,r1,r0
        0x000062b6:    3880        .8      SUBS     r0,r0,#0x80
        0x000062b8:    67c4        .g      STR      r4,[r0,#0x7c]
        0x000062ba:    70e5        .p      STRB     r5,[r4,#3]
        0x000062bc:    4620         F      MOV      r0,r4
        0x000062be:    f7fffa81    ....    BL       rt_dispatch ; 0x57c4
        0x000062c2:    4628        (F      MOV      r0,r5
        0x000062c4:    e7f1        ..      B        0x62aa ; rt_tsk_create + 78
    $d
        0x000062c6:    0000        ..      DCW    0
        0x000062c8:    20001430    0..     DCD    536876080
        0x000062cc:    2000334c    L3.     DCD    536884044
        0x000062d0:    00006994    .i..    DCD    27028
    $t
    i.rt_tsk_delete
    rt_tsk_delete
        0x000062d4:    b5f8        ..      PUSH     {r3-r7,lr}
        0x000062d6:    4d4f        OM      LDR      r5,[pc,#316] ; [0x6414] = 0x20000144
        0x000062d8:    2600        .&      MOVS     r6,#0
        0x000062da:    6829        )h      LDR      r1,[r5,#0]
        0x000062dc:    2800        .(      CMP      r0,#0
        0x000062de:    d002        ..      BEQ      0x62e6 ; rt_tsk_delete + 18
        0x000062e0:    78ca        .x      LDRB     r2,[r1,#3]
        0x000062e2:    4282        .B      CMP      r2,r0
        0x000062e4:    d13e        >.      BNE      0x6364 ; rt_tsk_delete + 144
        0x000062e6:    704e        Np      STRB     r6,[r1,#1]
        0x000062e8:    f7f9ff0d    ....    BL       rt_get_PSP ; 0x106
        0x000062ec:    6829        )h      LDR      r1,[r5,#0]
        0x000062ee:    6288        .b      STR      r0,[r1,#0x28]
        0x000062f0:    f7fffe9c    ....    BL       rt_stk_check ; 0x602c
        0x000062f4:    6828        (h      LDR      r0,[r5,#0]
        0x000062f6:    6a04        .j      LDR      r4,[r0,#0x20]
        0x000062f8:    e020         .      B        0x633c ; rt_tsk_delete + 104
        0x000062fa:    6860        `h      LDR      r0,[r4,#4]
        0x000062fc:    2800        .(      CMP      r0,#0
        0x000062fe:    d018        ..      BEQ      0x6332 ; rt_tsk_delete + 94
        0x00006300:    4620         F      MOV      r0,r4
        0x00006302:    f7fffb34    ..4.    BL       rt_get_first ; 0x596e
        0x00006306:    4607        .F      MOV      r7,r0
        0x00006308:    2100        .!      MOVS     r1,#0
        0x0000630a:    f7fffe3f    ..?.    BL       rt_ret_val ; 0x5f8c
        0x0000630e:    4638        8F      MOV      r0,r7
        0x00006310:    f7fffe43    ..C.    BL       rt_rmv_dly ; 0x5f9a
        0x00006314:    2001        .       MOVS     r0,#1
        0x00006316:    7078        xp      STRB     r0,[r7,#1]
        0x00006318:    4639        9F      MOV      r1,r7
        0x0000631a:    483f        ?H      LDR      r0,[pc,#252] ; [0x6418] = 0x200033ac
        0x0000631c:    f7fffdf6    ....    BL       rt_put_prio ; 0x5f0c
        0x00006320:    2001        .       MOVS     r0,#1
        0x00006322:    68e1        .h      LDR      r1,[r4,#0xc]
        0x00006324:    8060        `.      STRH     r0,[r4,#2]
        0x00006326:    60a7        .`      STR      r7,[r4,#8]
        0x00006328:    6a38        8j      LDR      r0,[r7,#0x20]
        0x0000632a:    60e0        .`      STR      r0,[r4,#0xc]
        0x0000632c:    623c        <b      STR      r4,[r7,#0x20]
        0x0000632e:    460c        .F      MOV      r4,r1
        0x00006330:    e004        ..      B        0x633c ; rt_tsk_delete + 104
        0x00006332:    68e0        .h      LDR      r0,[r4,#0xc]
        0x00006334:    8066        f.      STRH     r6,[r4,#2]
        0x00006336:    60a6        .`      STR      r6,[r4,#8]
        0x00006338:    60e6        .`      STR      r6,[r4,#0xc]
        0x0000633a:    4604        .F      MOV      r4,r0
        0x0000633c:    2c00        .,      CMP      r4,#0
        0x0000633e:    d1dc        ..      BNE      0x62fa ; rt_tsk_delete + 38
        0x00006340:    6828        (h      LDR      r0,[r5,#0]
        0x00006342:    78c1        .x      LDRB     r1,[r0,#3]
        0x00006344:    008a        ..      LSLS     r2,r1,#2
        0x00006346:    4935        5I      LDR      r1,[pc,#212] ; [0x641c] = 0x2000334c
        0x00006348:    1851        Q.      ADDS     r1,r2,r1
        0x0000634a:    3980        .9      SUBS     r1,r1,#0x80
        0x0000634c:    67ce        .g      STR      r6,[r1,#0x7c]
        0x0000634e:    6ac1        .j      LDR      r1,[r0,#0x2c]
        0x00006350:    4833        3H      LDR      r0,[pc,#204] ; [0x6420] = 0x200014d8
        0x00006352:    f7fffae1    ....    BL       rt_free_box ; 0x5918
        0x00006356:    6829        )h      LDR      r1,[r5,#0]
        0x00006358:    4832        2H      LDR      r0,[pc,#200] ; [0x6424] = 0x20001430
        0x0000635a:    62ce        .b      STR      r6,[r1,#0x2c]
        0x0000635c:    f7fffadc    ....    BL       rt_free_box ; 0x5918
        0x00006360:    602e        .`      STR      r6,[r5,#0]
        0x00006362:    e051        Q.      B        0x6408 ; rt_tsk_delete + 308
        0x00006364:    4930        0I      LDR      r1,[pc,#192] ; [0x6428] = 0x6994
        0x00006366:    8809        ..      LDRH     r1,[r1,#0]
        0x00006368:    4288        .B      CMP      r0,r1
        0x0000636a:    d80f        ..      BHI      0x638c ; rt_tsk_delete + 184
        0x0000636c:    0081        ..      LSLS     r1,r0,#2
        0x0000636e:    482b        +H      LDR      r0,[pc,#172] ; [0x641c] = 0x2000334c
        0x00006370:    1808        ..      ADDS     r0,r1,r0
        0x00006372:    3880        .8      SUBS     r0,r0,#0x80
        0x00006374:    9000        ..      STR      r0,[sp,#0]
        0x00006376:    6fc5        .o      LDR      r5,[r0,#0x7c]
        0x00006378:    2d00        .-      CMP      r5,#0
        0x0000637a:    d007        ..      BEQ      0x638c ; rt_tsk_delete + 184
        0x0000637c:    4628        (F      MOV      r0,r5
        0x0000637e:    f7fffe21    ..!.    BL       rt_rmv_list ; 0x5fc4
        0x00006382:    4628        (F      MOV      r0,r5
        0x00006384:    f7fffe09    ....    BL       rt_rmv_dly ; 0x5f9a
        0x00006388:    6a2c        ,j      LDR      r4,[r5,#0x20]
        0x0000638a:    e022        ".      B        0x63d2 ; rt_tsk_delete + 254
        0x0000638c:    20ff        .       MOVS     r0,#0xff
        0x0000638e:    bdf8        ..      POP      {r3-r7,pc}
        0x00006390:    6860        `h      LDR      r0,[r4,#4]
        0x00006392:    2800        .(      CMP      r0,#0
        0x00006394:    d018        ..      BEQ      0x63c8 ; rt_tsk_delete + 244
        0x00006396:    4620         F      MOV      r0,r4
        0x00006398:    f7fffae9    ....    BL       rt_get_first ; 0x596e
        0x0000639c:    4607        .F      MOV      r7,r0
        0x0000639e:    2100        .!      MOVS     r1,#0
        0x000063a0:    f7fffdf4    ....    BL       rt_ret_val ; 0x5f8c
        0x000063a4:    4638        8F      MOV      r0,r7
        0x000063a6:    f7fffdf8    ....    BL       rt_rmv_dly ; 0x5f9a
        0x000063aa:    2001        .       MOVS     r0,#1
        0x000063ac:    7078        xp      STRB     r0,[r7,#1]
        0x000063ae:    4639        9F      MOV      r1,r7
        0x000063b0:    4819        .H      LDR      r0,[pc,#100] ; [0x6418] = 0x200033ac
        0x000063b2:    f7fffdab    ....    BL       rt_put_prio ; 0x5f0c
        0x000063b6:    2001        .       MOVS     r0,#1
        0x000063b8:    68e1        .h      LDR      r1,[r4,#0xc]
        0x000063ba:    8060        `.      STRH     r0,[r4,#2]
        0x000063bc:    60a7        .`      STR      r7,[r4,#8]
        0x000063be:    6a38        8j      LDR      r0,[r7,#0x20]
        0x000063c0:    60e0        .`      STR      r0,[r4,#0xc]
        0x000063c2:    623c        <b      STR      r4,[r7,#0x20]
        0x000063c4:    460c        .F      MOV      r4,r1
        0x000063c6:    e004        ..      B        0x63d2 ; rt_tsk_delete + 254
        0x000063c8:    68e0        .h      LDR      r0,[r4,#0xc]
        0x000063ca:    8066        f.      STRH     r6,[r4,#2]
        0x000063cc:    60a6        .`      STR      r6,[r4,#8]
        0x000063ce:    60e6        .`      STR      r6,[r4,#0xc]
        0x000063d0:    4604        .F      MOV      r4,r0
        0x000063d2:    2c00        .,      CMP      r4,#0
        0x000063d4:    d1dc        ..      BNE      0x6390 ; rt_tsk_delete + 188
        0x000063d6:    9800        ..      LDR      r0,[sp,#0]
        0x000063d8:    67c6        .g      STR      r6,[r0,#0x7c]
        0x000063da:    4811        .H      LDR      r0,[pc,#68] ; [0x6420] = 0x200014d8
        0x000063dc:    6ae9        .j      LDR      r1,[r5,#0x2c]
        0x000063de:    f7fffa9b    ....    BL       rt_free_box ; 0x5918
        0x000063e2:    4629        )F      MOV      r1,r5
        0x000063e4:    480f        .H      LDR      r0,[pc,#60] ; [0x6424] = 0x20001430
        0x000063e6:    62ee        .b      STR      r6,[r5,#0x2c]
        0x000063e8:    f7fffa96    ....    BL       rt_free_box ; 0x5918
        0x000063ec:    480a        .H      LDR      r0,[pc,#40] ; [0x6418] = 0x200033ac
        0x000063ee:    6840        @h      LDR      r0,[r0,#4]
        0x000063f0:    7881        .x      LDRB     r1,[r0,#2]
        0x000063f2:    4808        .H      LDR      r0,[pc,#32] ; [0x6414] = 0x20000144
        0x000063f4:    6802        .h      LDR      r2,[r0,#0]
        0x000063f6:    7893        .x      LDRB     r3,[r2,#2]
        0x000063f8:    4299        .B      CMP      r1,r3
        0x000063fa:    d908        ..      BLS      0x640e ; rt_tsk_delete + 314
        0x000063fc:    2101        .!      MOVS     r1,#1
        0x000063fe:    7051        Qp      STRB     r1,[r2,#1]
        0x00006400:    6801        .h      LDR      r1,[r0,#0]
        0x00006402:    4805        .H      LDR      r0,[pc,#20] ; [0x6418] = 0x200033ac
        0x00006404:    f7fffd82    ....    BL       rt_put_prio ; 0x5f0c
        0x00006408:    2000        .       MOVS     r0,#0
        0x0000640a:    f7fff9db    ....    BL       rt_dispatch ; 0x57c4
        0x0000640e:    2000        .       MOVS     r0,#0
        0x00006410:    bdf8        ..      POP      {r3-r7,pc}
    $d
        0x00006412:    0000        ..      DCW    0
        0x00006414:    20000144    D..     DCD    536871236
        0x00006418:    200033ac    .3.     DCD    536884140
        0x0000641c:    2000334c    L3.     DCD    536884044
        0x00006420:    200014d8    ...     DCD    536876248
        0x00006424:    20001430    0..     DCD    536876080
        0x00006428:    00006994    .i..    DCD    27028
    $t
    i.rt_tsk_prio
    rt_tsk_prio
        0x0000642c:    b570        p.      PUSH     {r4-r6,lr}
        0x0000642e:    4d1b        .M      LDR      r5,[pc,#108] ; [0x649c] = 0x20000144
        0x00006430:    2800        .(      CMP      r0,#0
        0x00006432:    d011        ..      BEQ      0x6458 ; rt_tsk_prio + 44
        0x00006434:    4a1a        .J      LDR      r2,[pc,#104] ; [0x64a0] = 0x6994
        0x00006436:    8812        ..      LDRH     r2,[r2,#0]
        0x00006438:    4290        .B      CMP      r0,r2
        0x0000643a:    d820         .      BHI      0x647e ; rt_tsk_prio + 82
        0x0000643c:    0082        ..      LSLS     r2,r0,#2
        0x0000643e:    4819        .H      LDR      r0,[pc,#100] ; [0x64a4] = 0x2000334c
        0x00006440:    1810        ..      ADDS     r0,r2,r0
        0x00006442:    3880        .8      SUBS     r0,r0,#0x80
        0x00006444:    6fc4        .o      LDR      r4,[r0,#0x7c]
        0x00006446:    2c00        .,      CMP      r4,#0
        0x00006448:    d019        ..      BEQ      0x647e ; rt_tsk_prio + 82
        0x0000644a:    70a1        .p      STRB     r1,[r4,#2]
        0x0000644c:    2024        $       MOVS     r0,#0x24
        0x0000644e:    5501        .U      STRB     r1,[r0,r4]
        0x00006450:    6828        (h      LDR      r0,[r5,#0]
        0x00006452:    42a0        .B      CMP      r0,r4
        0x00006454:    d005        ..      BEQ      0x6462 ; rt_tsk_prio + 54
        0x00006456:    e014        ..      B        0x6482 ; rt_tsk_prio + 86
        0x00006458:    6828        (h      LDR      r0,[r5,#0]
        0x0000645a:    7081        .p      STRB     r1,[r0,#2]
        0x0000645c:    6828        (h      LDR      r0,[r5,#0]
        0x0000645e:    3020         0      ADDS     r0,r0,#0x20
        0x00006460:    7101        .q      STRB     r1,[r0,#4]
        0x00006462:    4811        .H      LDR      r0,[pc,#68] ; [0x64a8] = 0x200033ac
        0x00006464:    6840        @h      LDR      r0,[r0,#4]
        0x00006466:    7880        .x      LDRB     r0,[r0,#2]
        0x00006468:    4288        .B      CMP      r0,r1
        0x0000646a:    d915        ..      BLS      0x6498 ; rt_tsk_prio + 108
        0x0000646c:    480e        .H      LDR      r0,[pc,#56] ; [0x64a8] = 0x200033ac
        0x0000646e:    6829        )h      LDR      r1,[r5,#0]
        0x00006470:    f7fffd4c    ..L.    BL       rt_put_prio ; 0x5f0c
        0x00006474:    6829        )h      LDR      r1,[r5,#0]
        0x00006476:    2001        .       MOVS     r0,#1
        0x00006478:    7048        Hp      STRB     r0,[r1,#1]
        0x0000647a:    2000        .       MOVS     r0,#0
        0x0000647c:    e00a        ..      B        0x6494 ; rt_tsk_prio + 104
        0x0000647e:    20ff        .       MOVS     r0,#0xff
        0x00006480:    bd70        p.      POP      {r4-r6,pc}
        0x00006482:    4620         F      MOV      r0,r4
        0x00006484:    f7fffd6a    ..j.    BL       rt_resort_prio ; 0x5f5c
        0x00006488:    7860        `x      LDRB     r0,[r4,#1]
        0x0000648a:    2801        .(      CMP      r0,#1
        0x0000648c:    d104        ..      BNE      0x6498 ; rt_tsk_prio + 108
        0x0000648e:    4806        .H      LDR      r0,[pc,#24] ; [0x64a8] = 0x200033ac
        0x00006490:    f7fffa6d    ..m.    BL       rt_get_first ; 0x596e
        0x00006494:    f7fff996    ....    BL       rt_dispatch ; 0x57c4
        0x00006498:    2000        .       MOVS     r0,#0
        0x0000649a:    bd70        p.      POP      {r4-r6,pc}
    $d
        0x0000649c:    20000144    D..     DCD    536871236
        0x000064a0:    00006994    .i..    DCD    27028
        0x000064a4:    2000334c    L3.     DCD    536884044
        0x000064a8:    200033ac    .3.     DCD    536884140
    $t
    i.rt_tsk_self
    rt_tsk_self
        0x000064ac:    4802        .H      LDR      r0,[pc,#8] ; [0x64b8] = 0x20000144
        0x000064ae:    6800        .h      LDR      r0,[r0,#0]
        0x000064b0:    2800        .(      CMP      r0,#0
        0x000064b2:    d000        ..      BEQ      0x64b6 ; rt_tsk_self + 10
        0x000064b4:    78c0        .x      LDRB     r0,[r0,#3]
        0x000064b6:    4770        pG      BX       lr
    $d
        0x000064b8:    20000144    D..     DCD    536871236
    $t
    i.strreplace
    strreplace
        0x000064bc:    b510        ..      PUSH     {r4,lr}
        0x000064be:    460b        .F      MOV      r3,r1
        0x000064c0:    2100        .!      MOVS     r1,#0
        0x000064c2:    e004        ..      B        0x64ce ; strreplace + 18
        0x000064c4:    5c44        D\      LDRB     r4,[r0,r1]
        0x000064c6:    429c        .B      CMP      r4,r3
        0x000064c8:    d100        ..      BNE      0x64cc ; strreplace + 16
        0x000064ca:    5442        BT      STRB     r2,[r0,r1]
        0x000064cc:    1c49        I.      ADDS     r1,r1,#1
        0x000064ce:    5c44        D\      LDRB     r4,[r0,r1]
        0x000064d0:    2c00        .,      CMP      r4,#0
        0x000064d2:    d1f7        ..      BNE      0x64c4 ; strreplace + 8
        0x000064d4:    bd10        ..      POP      {r4,pc}
    i.svcDelay
    svcDelay
        0x000064d6:    b510        ..      PUSH     {r4,lr}
        0x000064d8:    2800        .(      CMP      r0,#0
        0x000064da:    d004        ..      BEQ      0x64e6 ; svcDelay + 16
        0x000064dc:    f7fffbb0    ....    BL       rt_ms2tick ; 0x5c40
        0x000064e0:    f7fff990    ....    BL       rt_dly_wait ; 0x5804
        0x000064e4:    2040        @       MOVS     r0,#0x40
        0x000064e6:    bd10        ..      POP      {r4,pc}
    i.svcKernelInitialize
    svcKernelInitialize
        0x000064e8:    b510        ..      PUSH     {r4,lr}
        0x000064ea:    4c15        .L      LDR      r4,[pc,#84] ; [0x6540] = 0x2000013c
        0x000064ec:    7820         x      LDRB     r0,[r4,#0]
        0x000064ee:    2800        .(      CMP      r0,#0
        0x000064f0:    d10d        ..      BNE      0x650e ; svcKernelInitialize + 38
        0x000064f2:    4814        .H      LDR      r0,[pc,#80] ; [0x6544] = 0x20001db8
        0x000064f4:    0740        @.      LSLS     r0,r0,#29
        0x000064f6:    d106        ..      BNE      0x6506 ; svcKernelInitialize + 30
        0x000064f8:    4813        .H      LDR      r0,[pc,#76] ; [0x6548] = 0x69c8
        0x000064fa:    6801        .h      LDR      r1,[r0,#0]
        0x000064fc:    4811        .H      LDR      r0,[pc,#68] ; [0x6544] = 0x20001db8
        0x000064fe:    f7fffa73    ..s.    BL       rt_init_mem ; 0x59e8
        0x00006502:    2800        .(      CMP      r0,#0
        0x00006504:    d001        ..      BEQ      0x650a ; svcKernelInitialize + 34
        0x00006506:    2085        .       MOVS     r0,#0x85
        0x00006508:    bd10        ..      POP      {r4,pc}
        0x0000650a:    f7fffdab    ....    BL       rt_sys_init ; 0x6064
        0x0000650e:    490f        .I      LDR      r1,[pc,#60] ; [0x654c] = 0x20000144
        0x00006510:    20ff        .       MOVS     r0,#0xff
        0x00006512:    6809        .h      LDR      r1,[r1,#0]
        0x00006514:    7088        .p      STRB     r0,[r1,#2]
        0x00006516:    7820         x      LDRB     r0,[r4,#0]
        0x00006518:    2800        .(      CMP      r0,#0
        0x0000651a:    d10b        ..      BNE      0x6534 ; svcKernelInitialize + 76
        0x0000651c:    2100        .!      MOVS     r1,#0
        0x0000651e:    480c        .H      LDR      r0,[pc,#48] ; [0x6550] = 0x69e0
        0x00006520:    f000f844    ..D.    BL       svcMessageCreate ; 0x65ac
        0x00006524:    490b        .I      LDR      r1,[pc,#44] ; [0x6554] = 0x20000130
        0x00006526:    6008        .`      STR      r0,[r1,#0]
        0x00006528:    2100        .!      MOVS     r1,#0
        0x0000652a:    480b        .H      LDR      r0,[pc,#44] ; [0x6558] = 0x69d0
        0x0000652c:    f000f906    ....    BL       svcThreadCreate ; 0x673c
        0x00006530:    490a        .I      LDR      r1,[pc,#40] ; [0x655c] = 0x2000012c
        0x00006532:    6008        .`      STR      r0,[r1,#0]
        0x00006534:    2001        .       MOVS     r0,#1
        0x00006536:    7020         p      STRB     r0,[r4,#0]
        0x00006538:    2000        .       MOVS     r0,#0
        0x0000653a:    7060        `p      STRB     r0,[r4,#1]
        0x0000653c:    bd10        ..      POP      {r4,pc}
    $d
        0x0000653e:    0000        ..      DCW    0
        0x00006540:    2000013c    <..     DCD    536871228
        0x00006544:    20001db8    ...     DCD    536878520
        0x00006548:    000069c8    .i..    DCD    27080
        0x0000654c:    20000144    D..     DCD    536871236
        0x00006550:    000069e0    .i..    DCD    27104
        0x00006554:    20000130    0..     DCD    536871216
        0x00006558:    000069d0    .i..    DCD    27088
        0x0000655c:    2000012c    ,..     DCD    536871212
    $t
    i.svcKernelStart
    svcKernelStart
        0x00006560:    b570        p.      PUSH     {r4-r6,lr}
        0x00006562:    4d10        .M      LDR      r5,[pc,#64] ; [0x65a4] = 0x2000013c
        0x00006564:    7868        hx      LDRB     r0,[r5,#1]
        0x00006566:    2800        .(      CMP      r0,#0
        0x00006568:    d001        ..      BEQ      0x656e ; svcKernelStart + 14
        0x0000656a:    2000        .       MOVS     r0,#0
        0x0000656c:    bd70        p.      POP      {r4-r6,pc}
        0x0000656e:    4c0e        .L      LDR      r4,[pc,#56] ; [0x65a8] = 0x20000144
        0x00006570:    6820         h      LDR      r0,[r4,#0]
        0x00006572:    3020         0      ADDS     r0,r0,#0x20
        0x00006574:    7901        .y      LDRB     r1,[r0,#4]
        0x00006576:    2000        .       MOVS     r0,#0
        0x00006578:    f7ffff58    ..X.    BL       rt_tsk_prio ; 0x642c
        0x0000657c:    6820         h      LDR      r0,[r4,#0]
        0x0000657e:    78c1        .x      LDRB     r1,[r0,#3]
        0x00006580:    29ff        .)      CMP      r1,#0xff
        0x00006582:    d103        ..      BNE      0x658c ; svcKernelStart + 44
        0x00006584:    6a81        .j      LDR      r1,[r0,#0x28]
        0x00006586:    3120         1      ADDS     r1,r1,#0x20
        0x00006588:    f3818809    ....    MSR      PSP,r1
        0x0000658c:    6861        ah      LDR      r1,[r4,#4]
        0x0000658e:    2900        .)      CMP      r1,#0
        0x00006590:    d102        ..      BNE      0x6598 ; svcKernelStart + 56
        0x00006592:    6060        ``      STR      r0,[r4,#4]
        0x00006594:    2000        .       MOVS     r0,#0
        0x00006596:    6020         `      STR      r0,[r4,#0]
        0x00006598:    f7fffdc8    ....    BL       rt_sys_start ; 0x612c
        0x0000659c:    2001        .       MOVS     r0,#1
        0x0000659e:    7068        hp      STRB     r0,[r5,#1]
        0x000065a0:    e7e3        ..      B        0x656a ; svcKernelStart + 10
    $d
        0x000065a2:    0000        ..      DCW    0
        0x000065a4:    2000013c    <..     DCD    536871228
        0x000065a8:    20000144    D..     DCD    536871236
    $t
    i.svcMessageCreate
    svcMessageCreate
        0x000065ac:    b510        ..      PUSH     {r4,lr}
        0x000065ae:    0004        ..      MOVS     r4,r0
        0x000065b0:    d008        ..      BEQ      0x65c4 ; svcMessageCreate + 24
        0x000065b2:    6821        !h      LDR      r1,[r4,#0]
        0x000065b4:    2900        .)      CMP      r1,#0
        0x000065b6:    d005        ..      BEQ      0x65c4 ; svcMessageCreate + 24
        0x000065b8:    6860        `h      LDR      r0,[r4,#4]
        0x000065ba:    2800        .(      CMP      r0,#0
        0x000065bc:    d002        ..      BEQ      0x65c4 ; svcMessageCreate + 24
        0x000065be:    7802        .x      LDRB     r2,[r0,#0]
        0x000065c0:    2a00        .*      CMP      r2,#0
        0x000065c2:    d001        ..      BEQ      0x65c8 ; svcMessageCreate + 28
        0x000065c4:    2000        .       MOVS     r0,#0
        0x000065c6:    bd10        ..      POP      {r4,pc}
        0x000065c8:    0089        ..      LSLS     r1,r1,#2
        0x000065ca:    3110        .1      ADDS     r1,r1,#0x10
        0x000065cc:    b289        ..      UXTH     r1,r1
        0x000065ce:    f7fffa65    ..e.    BL       rt_mbx_init ; 0x5a9c
        0x000065d2:    6860        `h      LDR      r0,[r4,#4]
        0x000065d4:    bd10        ..      POP      {r4,pc}
    i.svcMessageGet
    svcMessageGet
        0x000065d6:    b53e        >.      PUSH     {r1-r5,lr}
        0x000065d8:    4604        .F      MOV      r4,r0
        0x000065da:    2080        .       MOVS     r0,#0x80
        0x000065dc:    460d        .F      MOV      r5,r1
        0x000065de:    2c00        .,      CMP      r4,#0
        0x000065e0:    d013        ..      BEQ      0x660a ; svcMessageGet + 52
        0x000065e2:    7821        !x      LDRB     r1,[r4,#0]
        0x000065e4:    2901        .)      CMP      r1,#1
        0x000065e6:    d110        ..      BNE      0x660a ; svcMessageGet + 52
        0x000065e8:    4628        (F      MOV      r0,r5
        0x000065ea:    f7fffb29    ..).    BL       rt_ms2tick ; 0x5c40
        0x000065ee:    4602        .F      MOV      r2,r0
        0x000065f0:    4620         F      MOV      r0,r4
        0x000065f2:    a901        ..      ADD      r1,sp,#4
        0x000065f4:    f7fffacc    ....    BL       rt_mbx_wait ; 0x5b90
        0x000065f8:    2801        .(      CMP      r0,#1
        0x000065fa:    d001        ..      BEQ      0x6600 ; svcMessageGet + 42
        0x000065fc:    2010        .       MOVS     r0,#0x10
        0x000065fe:    e004        ..      B        0x660a ; svcMessageGet + 52
        0x00006600:    2d00        .-      CMP      r5,#0
        0x00006602:    d001        ..      BEQ      0x6608 ; svcMessageGet + 50
        0x00006604:    2040        @       MOVS     r0,#0x40
        0x00006606:    e000        ..      B        0x660a ; svcMessageGet + 52
        0x00006608:    2000        .       MOVS     r0,#0
        0x0000660a:    9a02        ..      LDR      r2,[sp,#8]
        0x0000660c:    9901        ..      LDR      r1,[sp,#4]
        0x0000660e:    b003        ..      ADD      sp,sp,#0xc
        0x00006610:    bd30        0.      POP      {r4,r5,pc}
    i.svcMutexCreate
    svcMutexCreate
        0x00006612:    b510        ..      PUSH     {r4,lr}
        0x00006614:    2800        .(      CMP      r0,#0
        0x00006616:    d006        ..      BEQ      0x6626 ; svcMutexCreate + 20
        0x00006618:    6804        .h      LDR      r4,[r0,#0]
        0x0000661a:    2c00        .,      CMP      r4,#0
        0x0000661c:    d002        ..      BEQ      0x6624 ; svcMutexCreate + 18
        0x0000661e:    7820         x      LDRB     r0,[r4,#0]
        0x00006620:    2800        .(      CMP      r0,#0
        0x00006622:    d001        ..      BEQ      0x6628 ; svcMutexCreate + 22
        0x00006624:    2000        .       MOVS     r0,#0
        0x00006626:    bd10        ..      POP      {r4,pc}
        0x00006628:    4620         F      MOV      r0,r4
        0x0000662a:    f7fffb2b    ..+.    BL       rt_mut_init ; 0x5c84
        0x0000662e:    4620         F      MOV      r0,r4
        0x00006630:    bd10        ..      POP      {r4,pc}
    i.svcMutexRelease
    svcMutexRelease
        0x00006632:    b510        ..      PUSH     {r4,lr}
        0x00006634:    f7fff9b0    ....    BL       rt_id2obj ; 0x5998
        0x00006638:    2800        .(      CMP      r0,#0
        0x0000663a:    d002        ..      BEQ      0x6642 ; svcMutexRelease + 16
        0x0000663c:    7801        .x      LDRB     r1,[r0,#0]
        0x0000663e:    2903        .)      CMP      r1,#3
        0x00006640:    d001        ..      BEQ      0x6646 ; svcMutexRelease + 20
        0x00006642:    2080        .       MOVS     r0,#0x80
        0x00006644:    bd10        ..      POP      {r4,pc}
        0x00006646:    f7fffb25    ..%.    BL       rt_mut_release ; 0x5c94
        0x0000664a:    28ff        .(      CMP      r0,#0xff
        0x0000664c:    d001        ..      BEQ      0x6652 ; svcMutexRelease + 32
        0x0000664e:    2000        .       MOVS     r0,#0
        0x00006650:    bd10        ..      POP      {r4,pc}
        0x00006652:    2081        .       MOVS     r0,#0x81
        0x00006654:    bd10        ..      POP      {r4,pc}
    i.svcMutexWait
    svcMutexWait
        0x00006656:    b570        p.      PUSH     {r4-r6,lr}
        0x00006658:    460d        .F      MOV      r5,r1
        0x0000665a:    f7fff99d    ....    BL       rt_id2obj ; 0x5998
        0x0000665e:    0004        ..      MOVS     r4,r0
        0x00006660:    d002        ..      BEQ      0x6668 ; svcMutexWait + 18
        0x00006662:    7820         x      LDRB     r0,[r4,#0]
        0x00006664:    2803        .(      CMP      r0,#3
        0x00006666:    d001        ..      BEQ      0x666c ; svcMutexWait + 22
        0x00006668:    2080        .       MOVS     r0,#0x80
        0x0000666a:    bd70        p.      POP      {r4-r6,pc}
        0x0000666c:    4628        (F      MOV      r0,r5
        0x0000666e:    f7fffae7    ....    BL       rt_ms2tick ; 0x5c40
        0x00006672:    4601        .F      MOV      r1,r0
        0x00006674:    4620         F      MOV      r0,r4
        0x00006676:    f7fffb79    ..y.    BL       rt_mut_wait ; 0x5d6c
        0x0000667a:    2801        .(      CMP      r0,#1
        0x0000667c:    d003        ..      BEQ      0x6686 ; svcMutexWait + 48
        0x0000667e:    28ff        .(      CMP      r0,#0xff
        0x00006680:    d005        ..      BEQ      0x668e ; svcMutexWait + 56
        0x00006682:    2000        .       MOVS     r0,#0
        0x00006684:    bd70        p.      POP      {r4-r6,pc}
        0x00006686:    2d00        .-      CMP      r5,#0
        0x00006688:    d001        ..      BEQ      0x668e ; svcMutexWait + 56
        0x0000668a:    20c1        .       MOVS     r0,#0xc1
        0x0000668c:    bd70        p.      POP      {r4-r6,pc}
        0x0000668e:    2081        .       MOVS     r0,#0x81
        0x00006690:    bd70        p.      POP      {r4-r6,pc}
    i.svcSignalClear
    svcSignalClear
        0x00006692:    b570        p.      PUSH     {r4-r6,lr}
        0x00006694:    460c        .F      MOV      r4,r1
        0x00006696:    f7fffd99    ....    BL       rt_tid2ptcb ; 0x61cc
        0x0000669a:    2101        .!      MOVS     r1,#1
        0x0000669c:    07c9        ..      LSLS     r1,r1,#31
        0x0000669e:    2800        .(      CMP      r0,#0
        0x000066a0:    d001        ..      BEQ      0x66a6 ; svcSignalClear + 20
        0x000066a2:    0c22        ".      LSRS     r2,r4,#16
        0x000066a4:    d001        ..      BEQ      0x66aa ; svcSignalClear + 24
        0x000066a6:    4608        .F      MOV      r0,r1
        0x000066a8:    bd70        p.      POP      {r4-r6,pc}
        0x000066aa:    8b05        ..      LDRH     r5,[r0,#0x18]
        0x000066ac:    78c1        .x      LDRB     r1,[r0,#3]
        0x000066ae:    b2a0        ..      UXTH     r0,r4
        0x000066b0:    f7fff8ae    ....    BL       rt_evt_clr ; 0x5810
        0x000066b4:    4628        (F      MOV      r0,r5
        0x000066b6:    bd70        p.      POP      {r4-r6,pc}
    i.svcSignalSet
    svcSignalSet
        0x000066b8:    b570        p.      PUSH     {r4-r6,lr}
        0x000066ba:    460c        .F      MOV      r4,r1
        0x000066bc:    f7fffd86    ....    BL       rt_tid2ptcb ; 0x61cc
        0x000066c0:    2101        .!      MOVS     r1,#1
        0x000066c2:    07c9        ..      LSLS     r1,r1,#31
        0x000066c4:    2800        .(      CMP      r0,#0
        0x000066c6:    d001        ..      BEQ      0x66cc ; svcSignalSet + 20
        0x000066c8:    0c22        ".      LSRS     r2,r4,#16
        0x000066ca:    d001        ..      BEQ      0x66d0 ; svcSignalSet + 24
        0x000066cc:    4608        .F      MOV      r0,r1
        0x000066ce:    bd70        p.      POP      {r4-r6,pc}
        0x000066d0:    8b05        ..      LDRH     r5,[r0,#0x18]
        0x000066d2:    78c1        .x      LDRB     r1,[r0,#3]
        0x000066d4:    b2a0        ..      UXTH     r0,r4
        0x000066d6:    f7fff8d1    ....    BL       rt_evt_set ; 0x587c
        0x000066da:    4628        (F      MOV      r0,r5
        0x000066dc:    bd70        p.      POP      {r4-r6,pc}
        0x000066de:    0000        ..      MOVS     r0,r0
    i.svcSignalWait
    svcSignalWait
        0x000066e0:    b570        p.      PUSH     {r4-r6,lr}
        0x000066e2:    4604        .F      MOV      r4,r0
        0x000066e4:    460e        .F      MOV      r6,r1
        0x000066e6:    0c00        ..      LSRS     r0,r0,#16
        0x000066e8:    d001        ..      BEQ      0x66ee ; svcSignalWait + 14
        0x000066ea:    2086        .       MOVS     r0,#0x86
        0x000066ec:    e01f        ..      B        0x672e ; svcSignalWait + 78
        0x000066ee:    2c00        .,      CMP      r4,#0
        0x000066f0:    4608        .F      MOV      r0,r1
        0x000066f2:    d005        ..      BEQ      0x6700 ; svcSignalWait + 32
        0x000066f4:    f7fffaa4    ....    BL       rt_ms2tick ; 0x5c40
        0x000066f8:    4601        .F      MOV      r1,r0
        0x000066fa:    b2a0        ..      UXTH     r0,r4
        0x000066fc:    2201        ."      MOVS     r2,#1
        0x000066fe:    e004        ..      B        0x670a ; svcSignalWait + 42
        0x00006700:    f7fffa9e    ....    BL       rt_ms2tick ; 0x5c40
        0x00006704:    4601        .F      MOV      r1,r0
        0x00006706:    2200        ."      MOVS     r2,#0
        0x00006708:    480a        .H      LDR      r0,[pc,#40] ; [0x6734] = 0xffff
        0x0000670a:    f7fff8e5    ....    BL       rt_evt_wait ; 0x58d8
        0x0000670e:    2802        .(      CMP      r0,#2
        0x00006710:    d003        ..      BEQ      0x671a ; svcSignalWait + 58
        0x00006712:    2e00        ..      CMP      r6,#0
        0x00006714:    d009        ..      BEQ      0x672a ; svcSignalWait + 74
        0x00006716:    2040        @       MOVS     r0,#0x40
        0x00006718:    e008        ..      B        0x672c ; svcSignalWait + 76
        0x0000671a:    2008        .       MOVS     r0,#8
        0x0000671c:    2c00        .,      CMP      r4,#0
        0x0000671e:    d102        ..      BNE      0x6726 ; svcSignalWait + 70
        0x00006720:    4905        .I      LDR      r1,[pc,#20] ; [0x6738] = 0x20000144
        0x00006722:    6809        .h      LDR      r1,[r1,#0]
        0x00006724:    8b4c        L.      LDRH     r4,[r1,#0x1a]
        0x00006726:    4621        !F      MOV      r1,r4
        0x00006728:    e001        ..      B        0x672e ; svcSignalWait + 78
        0x0000672a:    2000        .       MOVS     r0,#0
        0x0000672c:    2100        .!      MOVS     r1,#0
        0x0000672e:    462a        *F      MOV      r2,r5
        0x00006730:    bd70        p.      POP      {r4-r6,pc}
    $d
        0x00006732:    0000        ..      DCW    0
        0x00006734:    0000ffff    ....    DCD    65535
        0x00006738:    20000144    D..     DCD    536871236
    $t
    i.svcThreadCreate
    svcThreadCreate
        0x0000673c:    b570        p.      PUSH     {r4-r6,lr}
        0x0000673e:    460e        .F      MOV      r6,r1
        0x00006740:    0004        ..      MOVS     r4,r0
        0x00006742:    d02c        ,.      BEQ      0x679e ; svcThreadCreate + 98
        0x00006744:    6820         h      LDR      r0,[r4,#0]
        0x00006746:    2800        .(      CMP      r0,#0
        0x00006748:    d029        ).      BEQ      0x679e ; svcThreadCreate + 98
        0x0000674a:    6860        `h      LDR      r0,[r4,#4]
        0x0000674c:    1cc1        ..      ADDS     r1,r0,#3
        0x0000674e:    db26        &.      BLT      0x679e ; svcThreadCreate + 98
        0x00006750:    2803        .(      CMP      r0,#3
        0x00006752:    dc24        $.      BGT      0x679e ; svcThreadCreate + 98
        0x00006754:    68e1        .h      LDR      r1,[r4,#0xc]
        0x00006756:    2900        .)      CMP      r1,#0
        0x00006758:    d005        ..      BEQ      0x6766 ; svcThreadCreate + 42
        0x0000675a:    4812        .H      LDR      r0,[pc,#72] ; [0x67a4] = 0x20001db8
        0x0000675c:    f7feff99    ....    BL       rt_alloc_mem ; 0x5692
        0x00006760:    1e05        ..      SUBS     r5,r0,#0
        0x00006762:    d015        ..      BEQ      0x6790 ; svcThreadCreate + 84
        0x00006764:    e000        ..      B        0x6768 ; svcThreadCreate + 44
        0x00006766:    2500        .%      MOVS     r5,#0
        0x00006768:    68e0        .h      LDR      r0,[r4,#0xc]
        0x0000676a:    6861        ah      LDR      r1,[r4,#4]
        0x0000676c:    0200        ..      LSLS     r0,r0,#8
        0x0000676e:    1d09        ..      ADDS     r1,r1,#4
        0x00006770:    4301        .C      ORRS     r1,r1,r0
        0x00006772:    4633        3F      MOV      r3,r6
        0x00006774:    462a        *F      MOV      r2,r5
        0x00006776:    6820         h      LDR      r0,[r4,#0]
        0x00006778:    f7fffd70    ..p.    BL       rt_tsk_create ; 0x625c
        0x0000677c:    2800        .(      CMP      r0,#0
        0x0000677e:    d008        ..      BEQ      0x6792 ; svcThreadCreate + 86
        0x00006780:    4909        .I      LDR      r1,[pc,#36] ; [0x67a8] = 0x2000334c
        0x00006782:    0080        ..      LSLS     r0,r0,#2
        0x00006784:    1840        @.      ADDS     r0,r0,r1
        0x00006786:    3880        .8      SUBS     r0,r0,#0x80
        0x00006788:    6fc0        .o      LDR      r0,[r0,#0x7c]
        0x0000678a:    4908        .I      LDR      r1,[pc,#32] ; [0x67ac] = 0x5501
        0x0000678c:    6a82        .j      LDR      r2,[r0,#0x28]
        0x0000678e:    6351        Qc      STR      r1,[r2,#0x34]
        0x00006790:    bd70        p.      POP      {r4-r6,pc}
        0x00006792:    2d00        .-      CMP      r5,#0
        0x00006794:    d003        ..      BEQ      0x679e ; svcThreadCreate + 98
        0x00006796:    4629        )F      MOV      r1,r5
        0x00006798:    4802        .H      LDR      r0,[pc,#8] ; [0x67a4] = 0x20001db8
        0x0000679a:    f7fff8d0    ....    BL       rt_free_mem ; 0x593e
        0x0000679e:    2000        .       MOVS     r0,#0
        0x000067a0:    bd70        p.      POP      {r4-r6,pc}
    $d
        0x000067a2:    0000        ..      DCW    0
        0x000067a4:    20001db8    ...     DCD    536878520
        0x000067a8:    2000334c    L3.     DCD    536884044
        0x000067ac:    00005501    .U..    DCD    21761
    $t
    i.svcThreadGetId
    svcThreadGetId
        0x000067b0:    b510        ..      PUSH     {r4,lr}
        0x000067b2:    f7fffe7b    ..{.    BL       rt_tsk_self ; 0x64ac
        0x000067b6:    2800        .(      CMP      r0,#0
        0x000067b8:    d004        ..      BEQ      0x67c4 ; svcThreadGetId + 20
        0x000067ba:    4903        .I      LDR      r1,[pc,#12] ; [0x67c8] = 0x2000334c
        0x000067bc:    0080        ..      LSLS     r0,r0,#2
        0x000067be:    1840        @.      ADDS     r0,r0,r1
        0x000067c0:    3880        .8      SUBS     r0,r0,#0x80
        0x000067c2:    6fc0        .o      LDR      r0,[r0,#0x7c]
        0x000067c4:    bd10        ..      POP      {r4,pc}
    $d
        0x000067c6:    0000        ..      DCW    0
        0x000067c8:    2000334c    L3.     DCD    536884044
    $t
    i.svcThreadTerminate
    svcThreadTerminate
        0x000067cc:    b510        ..      PUSH     {r4,lr}
        0x000067ce:    f7fffcfd    ....    BL       rt_tid2ptcb ; 0x61cc
        0x000067d2:    2800        .(      CMP      r0,#0
        0x000067d4:    d004        ..      BEQ      0x67e0 ; svcThreadTerminate + 20
        0x000067d6:    8cc1        ..      LDRH     r1,[r0,#0x26]
        0x000067d8:    2900        .)      CMP      r1,#0
        0x000067da:    d003        ..      BEQ      0x67e4 ; svcThreadTerminate + 24
        0x000067dc:    6ac4        .j      LDR      r4,[r0,#0x2c]
        0x000067de:    e002        ..      B        0x67e6 ; svcThreadTerminate + 26
        0x000067e0:    2080        .       MOVS     r0,#0x80
        0x000067e2:    bd10        ..      POP      {r4,pc}
        0x000067e4:    2400        .$      MOVS     r4,#0
        0x000067e6:    78c0        .x      LDRB     r0,[r0,#3]
        0x000067e8:    f7fffd74    ..t.    BL       rt_tsk_delete ; 0x62d4
        0x000067ec:    28ff        .(      CMP      r0,#0xff
        0x000067ee:    d007        ..      BEQ      0x6800 ; svcThreadTerminate + 52
        0x000067f0:    2c00        .,      CMP      r4,#0
        0x000067f2:    d003        ..      BEQ      0x67fc ; svcThreadTerminate + 48
        0x000067f4:    4621        !F      MOV      r1,r4
        0x000067f6:    4803        .H      LDR      r0,[pc,#12] ; [0x6804] = 0x20001db8
        0x000067f8:    f7fff8a1    ....    BL       rt_free_mem ; 0x593e
        0x000067fc:    2000        .       MOVS     r0,#0
        0x000067fe:    bd10        ..      POP      {r4,pc}
        0x00006800:    2081        .       MOVS     r0,#0x81
        0x00006802:    bd10        ..      POP      {r4,pc}
    $d
        0x00006804:    20001db8    ...     DCD    536878520
    $t
    i.svcTimerCall
    svcTimerCall
        0x00006808:    b510        ..      PUSH     {r4,lr}
        0x0000680a:    f7fff8c5    ....    BL       rt_id2obj ; 0x5998
        0x0000680e:    2800        .(      CMP      r0,#0
        0x00006810:    d005        ..      BEQ      0x681e ; svcTimerCall + 22
        0x00006812:    6941        Ai      LDR      r1,[r0,#0x14]
        0x00006814:    6902        .i      LDR      r2,[r0,#0x10]
        0x00006816:    6809        .h      LDR      r1,[r1,#0]
        0x00006818:    4608        .F      MOV      r0,r1
        0x0000681a:    4611        .F      MOV      r1,r2
        0x0000681c:    bd10        ..      POP      {r4,pc}
        0x0000681e:    2000        .       MOVS     r0,#0
        0x00006820:    4601        .F      MOV      r1,r0
        0x00006822:    bd10        ..      POP      {r4,pc}
    i.svcTimerCreate
    svcTimerCreate
        0x00006824:    b510        ..      PUSH     {r4,lr}
        0x00006826:    0003        ..      MOVS     r3,r0
        0x00006828:    d010        ..      BEQ      0x684c ; svcTimerCreate + 40
        0x0000682a:    6818        .h      LDR      r0,[r3,#0]
        0x0000682c:    2800        .(      CMP      r0,#0
        0x0000682e:    d00d        ..      BEQ      0x684c ; svcTimerCreate + 40
        0x00006830:    6858        Xh      LDR      r0,[r3,#4]
        0x00006832:    2800        .(      CMP      r0,#0
        0x00006834:    d00b        ..      BEQ      0x684e ; svcTimerCreate + 42
        0x00006836:    2900        .)      CMP      r1,#0
        0x00006838:    d001        ..      BEQ      0x683e ; svcTimerCreate + 26
        0x0000683a:    2901        .)      CMP      r1,#1
        0x0000683c:    d106        ..      BNE      0x684c ; svcTimerCreate + 40
        0x0000683e:    4c08        .L      LDR      r4,[pc,#32] ; [0x6860] = 0x2000012c
        0x00006840:    6824        $h      LDR      r4,[r4,#0]
        0x00006842:    2c00        .,      CMP      r4,#0
        0x00006844:    d002        ..      BEQ      0x684c ; svcTimerCreate + 40
        0x00006846:    7904        .y      LDRB     r4,[r0,#4]
        0x00006848:    2c00        .,      CMP      r4,#0
        0x0000684a:    d001        ..      BEQ      0x6850 ; svcTimerCreate + 44
        0x0000684c:    2000        .       MOVS     r0,#0
        0x0000684e:    bd10        ..      POP      {r4,pc}
        0x00006850:    2400        .$      MOVS     r4,#0
        0x00006852:    6004        .`      STR      r4,[r0,#0]
        0x00006854:    2401        .$      MOVS     r4,#1
        0x00006856:    7104        .q      STRB     r4,[r0,#4]
        0x00006858:    7141        Aq      STRB     r1,[r0,#5]
        0x0000685a:    6143        Ca      STR      r3,[r0,#0x14]
        0x0000685c:    6102        .a      STR      r2,[r0,#0x10]
        0x0000685e:    bd10        ..      POP      {r4,pc}
    $d
        0x00006860:    2000012c    ,..     DCD    536871212
    $t
    i.svcTimerStart
    svcTimerStart
        0x00006864:    b570        p.      PUSH     {r4-r6,lr}
        0x00006866:    460d        .F      MOV      r5,r1
        0x00006868:    f7fff896    ....    BL       rt_id2obj ; 0x5998
        0x0000686c:    0004        ..      MOVS     r4,r0
        0x0000686e:    d019        ..      BEQ      0x68a4 ; svcTimerStart + 64
        0x00006870:    2d00        .-      CMP      r5,#0
        0x00006872:    d019        ..      BEQ      0x68a8 ; svcTimerStart + 68
        0x00006874:    217d        }!      MOVS     r1,#0x7d
        0x00006876:    4628        (F      MOV      r0,r5
        0x00006878:    00c9        ..      LSLS     r1,r1,#3
        0x0000687a:    f7fdfef8    ....    BL       __ARM_common_ll_muluu ; 0x466e
        0x0000687e:    4b13        .K      LDR      r3,[pc,#76] ; [0x68cc] = 0x69b8
        0x00006880:    2200        ."      MOVS     r2,#0
        0x00006882:    681d        .h      LDR      r5,[r3,#0]
        0x00006884:    1e56        V.      SUBS     r6,r2,#1
        0x00006886:    1e6d        m.      SUBS     r5,r5,#1
        0x00006888:    4172        rA      ADCS     r2,r2,r6
        0x0000688a:    1940        @.      ADDS     r0,r0,r5
        0x0000688c:    4151        QA      ADCS     r1,r1,r2
        0x0000688e:    681a        .h      LDR      r2,[r3,#0]
        0x00006890:    2300        .#      MOVS     r3,#0
        0x00006892:    f7fdfa07    ....    BL       __aeabi_uldivmod ; 0x3ca4
        0x00006896:    4605        .F      MOV      r5,r0
        0x00006898:    7920         y      LDRB     r0,[r4,#4]
        0x0000689a:    2801        .(      CMP      r0,#1
        0x0000689c:    d00d        ..      BEQ      0x68ba ; svcTimerStart + 86
        0x0000689e:    2802        .(      CMP      r0,#2
        0x000068a0:    d109        ..      BNE      0x68b6 ; svcTimerStart + 82
        0x000068a2:    e003        ..      B        0x68ac ; svcTimerStart + 72
        0x000068a4:    2080        .       MOVS     r0,#0x80
        0x000068a6:    bd70        p.      POP      {r4-r6,pc}
        0x000068a8:    2086        .       MOVS     r0,#0x86
        0x000068aa:    bd70        p.      POP      {r4-r6,pc}
        0x000068ac:    4620         F      MOV      r0,r4
        0x000068ae:    f7fffcb3    ....    BL       rt_timer_remove ; 0x6218
        0x000068b2:    2800        .(      CMP      r0,#0
        0x000068b4:    d004        ..      BEQ      0x68c0 ; svcTimerStart + 92
        0x000068b6:    2081        .       MOVS     r0,#0x81
        0x000068b8:    bd70        p.      POP      {r4-r6,pc}
        0x000068ba:    2002        .       MOVS     r0,#2
        0x000068bc:    7120         q      STRB     r0,[r4,#4]
        0x000068be:    60e5        .`      STR      r5,[r4,#0xc]
        0x000068c0:    4629        )F      MOV      r1,r5
        0x000068c2:    4620         F      MOV      r0,r4
        0x000068c4:    f7fffc8c    ....    BL       rt_timer_insert ; 0x61e0
        0x000068c8:    2000        .       MOVS     r0,#0
        0x000068ca:    bd70        p.      POP      {r4-r6,pc}
    $d
        0x000068cc:    000069b8    .i..    DCD    27064
    $t
    i.sysTimerTick
    sysTimerTick
        0x000068d0:    b5f8        ..      PUSH     {r3-r7,lr}
        0x000068d2:    4e13        .N      LDR      r6,[pc,#76] ; [0x6920] = 0x2000013c
        0x000068d4:    6874        th      LDR      r4,[r6,#4]
        0x000068d6:    2c00        .,      CMP      r4,#0
        0x000068d8:    d01b        ..      BEQ      0x6912 ; sysTimerTick + 66
        0x000068da:    68a0        .h      LDR      r0,[r4,#8]
        0x000068dc:    4f11        .O      LDR      r7,[pc,#68] ; [0x6924] = 0x20000130
        0x000068de:    1e40        @.      SUBS     r0,r0,#1
        0x000068e0:    60a0        .`      STR      r0,[r4,#8]
        0x000068e2:    e013        ..      B        0x690c ; sysTimerTick + 60
        0x000068e4:    4625        %F      MOV      r5,r4
        0x000068e6:    6824        $h      LDR      r4,[r4,#0]
        0x000068e8:    6074        t`      STR      r4,[r6,#4]
        0x000068ea:    2200        ."      MOVS     r2,#0
        0x000068ec:    4629        )F      MOV      r1,r5
        0x000068ee:    6838        8h      LDR      r0,[r7,#0]
        0x000068f0:    f7fefcaf    ....    BL       isrMessagePut ; 0x5252
        0x000068f4:    2800        .(      CMP      r0,#0
        0x000068f6:    d002        ..      BEQ      0x68fe ; sysTimerTick + 46
        0x000068f8:    2004        .       MOVS     r0,#4
        0x000068fa:    f7fdf995    ....    BL       os_error ; 0x3c28
        0x000068fe:    7968        hy      LDRB     r0,[r5,#5]
        0x00006900:    2801        .(      CMP      r0,#1
        0x00006902:    d007        ..      BEQ      0x6914 ; sysTimerTick + 68
        0x00006904:    2001        .       MOVS     r0,#1
        0x00006906:    7128        (q      STRB     r0,[r5,#4]
        0x00006908:    2c00        .,      CMP      r4,#0
        0x0000690a:    d002        ..      BEQ      0x6912 ; sysTimerTick + 66
        0x0000690c:    68a0        .h      LDR      r0,[r4,#8]
        0x0000690e:    2800        .(      CMP      r0,#0
        0x00006910:    d0e8        ..      BEQ      0x68e4 ; sysTimerTick + 20
        0x00006912:    bdf8        ..      POP      {r3-r7,pc}
        0x00006914:    4628        (F      MOV      r0,r5
        0x00006916:    68e9        .h      LDR      r1,[r5,#0xc]
        0x00006918:    f7fffc62    ..b.    BL       rt_timer_insert ; 0x61e0
        0x0000691c:    e7f4        ..      B        0x6908 ; sysTimerTick + 56
    $d
        0x0000691e:    0000        ..      DCW    0
        0x00006920:    2000013c    <..     DCD    536871228
        0x00006924:    20000130    0..     DCD    536871216
    $d.realdata
    .constdata
    os_thread_def_Thread
        0x00006928:    00001025    %...    DCD    4133
        0x0000692c:    00000000    ....    DCD    0
        0x00006930:    00000001    ....    DCD    1
        0x00006934:    000008ca    ....    DCD    2250
    .constdata
    os_timer_def_Timer1
        0x00006938:    00001625    %...    DCD    5669
        0x0000693c:    200002c4    ...     DCD    536871620
    os_timer_def_Timer2
        0x00006940:    00001627    '...    DCD    5671
        0x00006944:    200002dc    ...     DCD    536871644
    .constdata
    os_mutex_def_uart_mutex
        0x00006948:    200002f4    ...     DCD    536871668
    os_mutex_def_tcp_mutex
        0x0000694c:    20000304    ...     DCD    536871684
    os_mutex_def_fs_mutex
        0x00006950:    20000314    ...     DCD    536871700
    .constdata
        0x00006954:    00000002    ....    DCD    2
        0x00006958:    00000004    ....    DCD    4
        0x0000695c:    00000008    ....    DCD    8
        0x00006960:    00000010    ....    DCD    16
    .constdata
        0x00006964:    00b71b00    ....    DCD    12000000
        0x00006968:    00008000    ....    DCD    32768
        0x0000696c:    00000000    ....    DCD    0
        0x00006970:    00b71b00    ....    DCD    12000000
        0x00006974:    00b71b00    ....    DCD    12000000
        0x00006978:    00008000    ....    DCD    32768
        0x0000697c:    00000000    ....    DCD    0
        0x00006980:    00b71b00    ....    DCD    12000000
        0x00006984:    00b71b00    ....    DCD    12000000
        0x00006988:    00008000    ....    DCD    32768
        0x0000698c:    00000000    ....    DCD    0
        0x00006990:    00b71b00    ....    DCD    12000000
    .constdata
    os_maxtaskrun
        0x00006994:    00000003    ....    DCD    3
    os_stackinfo
        0x00006998:    010308d0    ....    DCD    16976080
    os_rrobin
        0x0000699c:    00010005    ....    DCD    65541
    os_tickfreq
        0x000069a0:    00b71b00    ....    DCD    12000000
    os_tickus_i
        0x000069a4:    000c        ..      DCW    12
    os_tickus_f
        0x000069a6:    0000        ..      DCW    0
    os_trv
        0x000069a8:    00002edf    ....    DCD    11999
    os_flags
        0x000069ac:    00000001    ....    DCD    1
    __tagsym$$used
    CMSIS_RTOS_API_Version
        0x000069b0:    00010002    ....    DCD    65538
    __tagsym$$used
    CMSIS_RTOS_RTX_Version
        0x000069b4:    00040052    R...    DCD    262226
    __tagsym$$used
    os_clockrate
        0x000069b8:    000003e8    ....    DCD    1000
    __tagsym$$used
    os_timernum
        0x000069bc:    00000000    ....    DCD    0
    mp_tcb_size
        0x000069c0:    000000a8    ....    DCD    168
    mp_stk_size
        0x000069c4:    000008e0    ....    DCD    2272
    os_stack_sz
        0x000069c8:    00001510    ....    DCD    5392
    os_fifo_size
        0x000069cc:    00000010    ....    DCD    16
    os_thread_def_osTimerThread
        0x000069d0:    00005579    yU..    DCD    21881
        0x000069d4:    00000002    ....    DCD    2
        0x000069d8:    00000001    ....    DCD    1
        0x000069dc:    000001f0    ....    DCD    496
    os_messageQ_def_osTimerMessageQ
        0x000069e0:    00000004    ....    DCD    4
        0x000069e4:    20003358    X3.     DCD    536884056
    mp_tmr_size
        0x000069e8:    00000000    ....    DCD    0
    os_thread_def_main
        0x000069ec:    00001825    %...    DCD    6181
        0x000069f0:    00000000    ....    DCD    0
        0x000069f4:    00000001    ....    DCD    1
        0x000069f8:    00000a28    (...    DCD    2600
    .constdata
    __ctype_table
        0x000069fc:    40404000    .@@@    DCD    1077952512
        0x00006a00:    40404040    @@@@    DCD    1077952576
        0x00006a04:    41414040    @@AA    DCD    1094795328
        0x00006a08:    40414141    AAA@    DCD    1078018369
        0x00006a0c:    40404040    @@@@    DCD    1077952576
        0x00006a10:    40404040    @@@@    DCD    1077952576
        0x00006a14:    40404040    @@@@    DCD    1077952576
        0x00006a18:    40404040    @@@@    DCD    1077952576
        0x00006a1c:    02020540    @...    DCD    33686848
        0x00006a20:    02020202    ....    DCD    33686018
        0x00006a24:    02020202    ....    DCD    33686018
        0x00006a28:    02020202    ....    DCD    33686018
        0x00006a2c:    20202002    .       DCD    538976258
        0x00006a30:    20202020            DCD    538976288
        0x00006a34:    02202020       .    DCD    35659808
        0x00006a38:    02020202    ....    DCD    33686018
        0x00006a3c:    90900202    ....    DCD    2425356802
        0x00006a40:    90909090    ....    DCD    2425393296
        0x00006a44:    10101010    ....    DCD    269488144
        0x00006a48:    10101010    ....    DCD    269488144
        0x00006a4c:    10101010    ....    DCD    269488144
        0x00006a50:    10101010    ....    DCD    269488144
        0x00006a54:    10101010    ....    DCD    269488144
        0x00006a58:    02020202    ....    DCD    33686018
        0x00006a5c:    88880202    ....    DCD    2290614786
        0x00006a60:    88888888    ....    DCD    2290649224
        0x00006a64:    08080808    ....    DCD    134744072
        0x00006a68:    08080808    ....    DCD    134744072
        0x00006a6c:    08080808    ....    DCD    134744072
        0x00006a70:    08080808    ....    DCD    134744072
        0x00006a74:    08080808    ....    DCD    134744072
        0x00006a78:    02020202    ....    DCD    33686018
        0x00006a7c:    00000040    @...    DCD    64
    .constdata
    table
        0x00006a80:    000069fd    .i..    DCD    27133
    .conststring
        0x00006a84:    0a0d0a0d    ....    DCD    168626701
        0x00006a88:    432b5441    AT+C    DCD    1126913089
        0x00006a8c:    3d4e5546    FUN=    DCD    1028543814
        0x00006a90:    0d312c31    1,1.    DCD    221326385
        0x00006a94:    000a0d0a    ....    DCD    658698
        0x00006a98:    54410a0d    ..AT    DCD    1413548557
        0x00006a9c:    4e47512b    +QGN    DCD    1313296683
        0x00006aa0:    3d435353    SSC=    DCD    1027822419
        0x00006aa4:    0d0a0d31    1...    DCD    218762545
        0x00006aa8:    0000000a    ....    DCD    10
        0x00006aac:    54410a0d    ..AT    DCD    1413548557
        0x00006ab0:    4f46512b    +QFO    DCD    1330008363
        0x00006ab4:    3d4e4550    PEN=    DCD    1028539728
        0x00006ab8:    474f4c22    "LOG    DCD    1196379170
        0x00006abc:    5458542e    .TXT    DCD    1415074862
        0x00006ac0:    0d302c22    ",0.    DCD    221260834
        0x00006ac4:    0000000a    ....    DCD    10
        0x00006ac8:    33303137    7103    DCD    858796343
        0x00006acc:    00000000    ....    DCD    0
        0x00006ad0:    00004b4f    OK..    DCD    19279
        0x00006ad4:    20454d43    CME     DCD    541412675
        0x00006ad8:    4f525245    ERRO    DCD    1330795077
        0x00006adc:    00000052    R...    DCD    82
        0x00006ae0:    64616552    Read    DCD    1684104530
        0x00006ae4:    00000079    y...    DCD    121
    .conststring
        0x00006ae8:    54410a0d    ..AT    DCD    1413548557
        0x00006aec:    5349512b    +QIS    DCD    1397313835
        0x00006af0:    0d444e45    END.    DCD    222580293
        0x00006af4:    000a0d0a    ....    DCD    658698
        0x00006af8:    0000003e    >...    DCD    62
        0x00006afc:    444e4553    SEND    DCD    1145980243
        0x00006b00:    004b4f20     OK.    DCD    4935456
    Region$$Table$$Base
        0x00006b04:    00006b24    $k..    DCD    27428
        0x00006b08:    20000000    ...     DCD    536870912
        0x00006b0c:    00000164    d...    DCD    356
        0x00006b10:    000046a8    .F..    DCD    18088
        0x00006b14:    00006c88    .l..    DCD    27784
        0x00006b18:    20000164    d..     DCD    536871268
        0x00006b1c:    0000377c    |7..    DCD    14204
        0x00006b20:    000046b8    .F..    DCD    18104
    Region$$Table$$Limit

** Section #2 'ER_RW' (SHT_PROGBITS) [SHF_ALLOC + SHF_WRITE]
    Size   : 356 bytes (alignment 8)
    Address: 0x20000000


** Section #3 'ER_ZI' (SHT_NOBITS) [SHF_ALLOC + SHF_WRITE]
    Size   : 14204 bytes (alignment 8)
    Address: 0x20000164


** Section #4 '.debug_abbrev' (SHT_PROGBITS)
    Size   : 1476 bytes


** Section #5 '.debug_frame' (SHT_PROGBITS)
    Size   : 7200 bytes


** Section #6 '.debug_info' (SHT_PROGBITS)
    Size   : 85152 bytes


** Section #7 '.debug_line' (SHT_PROGBITS)
    Size   : 28896 bytes


** Section #8 '.debug_loc' (SHT_PROGBITS)
    Size   : 18368 bytes


** Section #9 '.debug_macinfo' (SHT_PROGBITS)
    Size   : 396976 bytes


** Section #10 '.debug_pubnames' (SHT_PROGBITS)
    Size   : 9056 bytes


** Section #11 '.symtab' (SHT_SYMTAB)
    Size   : 17120 bytes (alignment 4)
    String table #12 '.strtab'
    Last local symbol no. 575


** Section #12 '.strtab' (SHT_STRTAB)
    Size   : 10992 bytes


** Section #13 '.note' (SHT_NOTE)
    Size   : 28 bytes (alignment 4)


** Section #14 '.comment' (SHT_PROGBITS)
    Size   : 27064 bytes


** Section #15 '.shstrtab' (SHT_STRTAB)
    Size   : 156 bytes


